ARM GAS  C:\Users\pxc\AppData\Local\Temp\cc1bhcIq.s 			page 1


   1              		.syntax unified
   2              		.cpu cortex-m3
   3              		.fpu softvfp
   4              		.eabi_attribute 20, 1
   5              		.eabi_attribute 21, 1
   6              		.eabi_attribute 23, 3
   7              		.eabi_attribute 24, 1
   8              		.eabi_attribute 25, 1
   9              		.eabi_attribute 26, 1
  10              		.eabi_attribute 30, 1
  11              		.eabi_attribute 34, 1
  12              		.eabi_attribute 18, 4
  13              		.thumb
  14              		.file	"battery.c"
  15              		.text
  16              	.Ltext0:
  17              		.cfi_sections	.debug_frame
  18              		.section	.text.Monitor_Battery_Init,"ax",%progbits
  19              		.align	2
  20              		.global	Monitor_Battery_Init
  21              		.thumb
  22              		.thumb_func
  23              		.type	Monitor_Battery_Init, %function
  24              	Monitor_Battery_Init:
  25              	.LFB63:
  26              		.file 1 ".\\battery.c"
   1:.\battery.c   **** /* ========================================
   2:.\battery.c   ****  *
   3:.\battery.c   ****  * Copyright YOUR COMPANY, THE YEAR
   4:.\battery.c   ****  * All Rights Reserved
   5:.\battery.c   ****  * UNPUBLISHED, LICENSED SOFTWARE.
   6:.\battery.c   ****  *
   7:.\battery.c   ****  * CONFIDENTIAL AND PROPRIETARY INFORMATION
   8:.\battery.c   ****  * WHICH IS THE PROPERTY OF your company.
   9:.\battery.c   ****  *
  10:.\battery.c   ****  * ========================================
  11:.\battery.c   **** */
  12:.\battery.c   **** #include "battery.h"
  13:.\battery.c   **** 
  14:.\battery.c   **** 
  15:.\battery.c   **** 
  16:.\battery.c   **** 
  17:.\battery.c   **** int16 retADCValue1[SampleNum] = {0};
  18:.\battery.c   **** int16 retADCValue2[SampleNum] = {0};
  19:.\battery.c   **** 
  20:.\battery.c   **** void Monitor_Battery_Init()
  21:.\battery.c   **** {
  27              		.loc 1 21 0
  28              		.cfi_startproc
  29              		@ args = 0, pretend = 0, frame = 0
  30              		@ frame_needed = 0, uses_anonymous_args = 0
  31 0000 08B5     		push	{r3, lr}
  32              		.cfi_def_cfa_offset 8
  33              		.cfi_offset 3, -8
  34              		.cfi_offset 14, -4
  22:.\battery.c   ****     ADC_Start();
  35              		.loc 1 22 0
ARM GAS  C:\Users\pxc\AppData\Local\Temp\cc1bhcIq.s 			page 2


  36 0002 FFF7FEFF 		bl	ADC_Start
  37              	.LVL0:
  23:.\battery.c   ****     ADC_StartConvert();
  38              		.loc 1 23 0
  39 0006 FFF7FEFF 		bl	ADC_StartConvert
  40              	.LVL1:
  41 000a 08BD     		pop	{r3, pc}
  42              		.cfi_endproc
  43              	.LFE63:
  44              		.size	Monitor_Battery_Init, .-Monitor_Battery_Init
  45              		.section	.text.Get_Battery_ADvalue,"ax",%progbits
  46              		.align	2
  47              		.global	Get_Battery_ADvalue
  48              		.thumb
  49              		.thumb_func
  50              		.type	Get_Battery_ADvalue, %function
  51              	Get_Battery_ADvalue:
  52              	.LFB64:
  24:.\battery.c   ****     
  25:.\battery.c   **** 
  26:.\battery.c   **** }
  27:.\battery.c   **** //int16 Get_C_Battery_ADvalue(void)
  28:.\battery.c   **** //{
  29:.\battery.c   **** //
  30:.\battery.c   **** //    uint8 i = 0;
  31:.\battery.c   **** //    int16 retval = 0;
  32:.\battery.c   **** //    int32 sum = 0;
  33:.\battery.c   **** //    for(i = 0;i < SampleNum;i++)
  34:.\battery.c   **** //    {
  35:.\battery.c   **** //        retADCValue2[i] = C_Battery_GetResult16();
  36:.\battery.c   **** //    
  37:.\battery.c   **** //    }
  38:.\battery.c   **** //
  39:.\battery.c   **** //    for(i = 0;i < SampleNum;i++)
  40:.\battery.c   **** //    {
  41:.\battery.c   **** //        sum += retADCValue2[i];
  42:.\battery.c   **** //    }
  43:.\battery.c   **** //    retval = sum/SampleNum;
  44:.\battery.c   **** //    return retval;
  45:.\battery.c   **** //    
  46:.\battery.c   **** //}
  47:.\battery.c   **** int16 Get_Battery_ADvalue(uint8 channal)
  48:.\battery.c   **** {
  53              		.loc 1 48 0
  54              		.cfi_startproc
  55              		@ args = 0, pretend = 0, frame = 0
  56              		@ frame_needed = 0, uses_anonymous_args = 0
  57              	.LVL2:
  58 0000 38B5     		push	{r3, r4, r5, lr}
  59              		.cfi_def_cfa_offset 16
  60              		.cfi_offset 3, -16
  61              		.cfi_offset 4, -12
  62              		.cfi_offset 5, -8
  63              		.cfi_offset 14, -4
  64 0002 0546     		mov	r5, r0
  65              	.LVL3:
  49:.\battery.c   **** 
ARM GAS  C:\Users\pxc\AppData\Local\Temp\cc1bhcIq.s 			page 3


  50:.\battery.c   ****     uint8 i = 0;
  51:.\battery.c   ****     int16 retval = 0;
  52:.\battery.c   ****     int32 sum = 0;
  53:.\battery.c   ****     for(i = 0;i < SampleNum;i++)
  66              		.loc 1 53 0
  67 0004 0024     		movs	r4, #0
  68 0006 07E0     		b	.L4
  69              	.LVL4:
  70              	.L5:
  54:.\battery.c   ****     {
  55:.\battery.c   ****         retADCValue2[i] = ADC_GetResult16(channal);
  71              		.loc 1 55 0 discriminator 3
  72 0008 2846     		mov	r0, r5
  73 000a FFF7FEFF 		bl	ADC_GetResult16
  74              	.LVL5:
  75 000e 0D4B     		ldr	r3, .L9
  76 0010 23F81400 		strh	r0, [r3, r4, lsl #1]	@ movhi
  53:.\battery.c   ****     {
  77              		.loc 1 53 0 discriminator 3
  78 0014 0134     		adds	r4, r4, #1
  79              	.LVL6:
  80 0016 E4B2     		uxtb	r4, r4
  81              	.LVL7:
  82              	.L4:
  53:.\battery.c   ****     {
  83              		.loc 1 53 0 is_stmt 0 discriminator 1
  84 0018 632C     		cmp	r4, #99
  85 001a F5D9     		bls	.L5
  86 001c 0022     		movs	r2, #0
  87 001e 1346     		mov	r3, r2
  88 0020 05E0     		b	.L6
  89              	.LVL8:
  90              	.L7:
  56:.\battery.c   ****     
  57:.\battery.c   ****     }
  58:.\battery.c   **** 
  59:.\battery.c   ****     for(i = 0;i < SampleNum;i++)
  60:.\battery.c   ****     {
  61:.\battery.c   ****         sum += retADCValue2[i];
  91              		.loc 1 61 0 is_stmt 1 discriminator 3
  92 0022 0849     		ldr	r1, .L9
  93 0024 31F91310 		ldrsh	r1, [r1, r3, lsl #1]
  94 0028 0A44     		add	r2, r2, r1
  95              	.LVL9:
  59:.\battery.c   ****     {
  96              		.loc 1 59 0 discriminator 3
  97 002a 0133     		adds	r3, r3, #1
  98              	.LVL10:
  99 002c DBB2     		uxtb	r3, r3
 100              	.LVL11:
 101              	.L6:
  59:.\battery.c   ****     {
 102              		.loc 1 59 0 is_stmt 0 discriminator 1
 103 002e 632B     		cmp	r3, #99
 104 0030 F7D9     		bls	.L7
  62:.\battery.c   ****     }
  63:.\battery.c   ****     retval = sum/SampleNum;
ARM GAS  C:\Users\pxc\AppData\Local\Temp\cc1bhcIq.s 			page 4


 105              		.loc 1 63 0 is_stmt 1
 106 0032 0548     		ldr	r0, .L9+4
 107 0034 80FB0230 		smull	r3, r0, r0, r2
 108              	.LVL12:
 109 0038 D217     		asrs	r2, r2, #31
 110              	.LVL13:
 111 003a C2EB6010 		rsb	r0, r2, r0, asr #5
 112              	.LVL14:
  64:.\battery.c   ****     return retval;
  65:.\battery.c   ****     
  66:.\battery.c   **** }
 113              		.loc 1 66 0
 114 003e 00B2     		sxth	r0, r0
 115 0040 38BD     		pop	{r3, r4, r5, pc}
 116              	.L10:
 117 0042 00BF     		.align	2
 118              	.L9:
 119 0044 00000000 		.word	.LANCHOR0
 120 0048 1F85EB51 		.word	1374389535
 121              		.cfi_endproc
 122              	.LFE64:
 123              		.size	Get_Battery_ADvalue, .-Get_Battery_ADvalue
 124              		.section	.text.Cal_Battery_loop,"ax",%progbits
 125              		.align	2
 126              		.global	Cal_Battery_loop
 127              		.thumb
 128              		.thumb_func
 129              		.type	Cal_Battery_loop, %function
 130              	Cal_Battery_loop:
 131              	.LFB65:
  67:.\battery.c   **** 
  68:.\battery.c   **** void Cal_Battery_loop()
  69:.\battery.c   **** {
 132              		.loc 1 69 0
 133              		.cfi_startproc
 134              		@ args = 0, pretend = 0, frame = 0
 135              		@ frame_needed = 0, uses_anonymous_args = 0
 136 0000 08B5     		push	{r3, lr}
 137              		.cfi_def_cfa_offset 8
 138              		.cfi_offset 3, -8
 139              		.cfi_offset 14, -4
  70:.\battery.c   ****     C_V = Get_Battery_ADvalue(C_CHANANL);
 140              		.loc 1 70 0
 141 0002 0020     		movs	r0, #0
 142 0004 FFF7FEFF 		bl	Get_Battery_ADvalue
 143              	.LVL15:
 144 0008 064B     		ldr	r3, .L13
 145 000a 1880     		strh	r0, [r3]	@ movhi
  71:.\battery.c   ****     D_V = Get_Battery_ADvalue(D_CHANANL);
 146              		.loc 1 71 0
 147 000c 0120     		movs	r0, #1
 148 000e FFF7FEFF 		bl	Get_Battery_ADvalue
 149              	.LVL16:
 150 0012 054B     		ldr	r3, .L13+4
 151 0014 1880     		strh	r0, [r3]	@ movhi
  72:.\battery.c   ****     P_V = Get_Battery_ADvalue(P_CHANANL);   
 152              		.loc 1 72 0
ARM GAS  C:\Users\pxc\AppData\Local\Temp\cc1bhcIq.s 			page 5


 153 0016 0220     		movs	r0, #2
 154 0018 FFF7FEFF 		bl	Get_Battery_ADvalue
 155              	.LVL17:
 156 001c 034B     		ldr	r3, .L13+8
 157 001e 1880     		strh	r0, [r3]	@ movhi
 158 0020 08BD     		pop	{r3, pc}
 159              	.L14:
 160 0022 00BF     		.align	2
 161              	.L13:
 162 0024 00000000 		.word	C_V
 163 0028 00000000 		.word	D_V
 164 002c 00000000 		.word	P_V
 165              		.cfi_endproc
 166              	.LFE65:
 167              		.size	Cal_Battery_loop, .-Cal_Battery_loop
 168              		.global	retADCValue2
 169              		.global	retADCValue1
 170              		.comm	P_V,2,2
 171              		.comm	D_V,2,2
 172              		.comm	C_V,2,2
 173              		.bss
 174              		.align	2
 175              		.set	.LANCHOR0,. + 0
 176              		.type	retADCValue2, %object
 177              		.size	retADCValue2, 200
 178              	retADCValue2:
 179 0000 00000000 		.space	200
 179      00000000 
 179      00000000 
 179      00000000 
 179      00000000 
 180              		.type	retADCValue1, %object
 181              		.size	retADCValue1, 200
 182              	retADCValue1:
 183 00c8 00000000 		.space	200
 183      00000000 
 183      00000000 
 183      00000000 
 183      00000000 
 184              		.text
 185              	.Letext0:
 186              		.file 2 "c:\\program files (x86)\\cypress\\psoc creator\\3.3\\psoc creator\\import\\gnu\\arm\\4.9.
 187              		.file 3 "c:\\program files (x86)\\cypress\\psoc creator\\3.3\\psoc creator\\import\\gnu\\arm\\4.9.
 188              		.file 4 "Generated_Source\\PSoC5/cytypes.h"
 189              		.file 5 ".\\battery.h"
 190              		.file 6 "Generated_Source\\PSoC5/core_cm3.h"
 191              		.file 7 "Generated_Source\\PSoC5/ADC.h"