ARM GAS  C:\Users\PANXIA~1\AppData\Local\Temp\ccWnKGJh.s 			page 1


   1              		.syntax unified
   2              		.cpu cortex-m3
   3              		.fpu softvfp
   4              		.eabi_attribute 20, 1
   5              		.eabi_attribute 21, 1
   6              		.eabi_attribute 23, 3
   7              		.eabi_attribute 24, 1
   8              		.eabi_attribute 25, 1
   9              		.eabi_attribute 26, 1
  10              		.eabi_attribute 30, 1
  11              		.eabi_attribute 34, 1
  12              		.eabi_attribute 18, 4
  13              		.thumb
  14              		.file	"bq20Z75.c"
  15              		.text
  16              	.Ltext0:
  17              		.cfi_sections	.debug_frame
  18              		.section	.text.GetCrc8,"ax",%progbits
  19              		.align	2
  20              		.global	GetCrc8
  21              		.thumb
  22              		.thumb_func
  23              		.type	GetCrc8, %function
  24              	GetCrc8:
  25              	.LFB63:
  26              		.file 1 ".\\bq20Z75.c"
   1:.\bq20Z75.c   **** #include <stdio.h>
   2:.\bq20Z75.c   **** #include "i2c_core.h"
   3:.\bq20Z75.c   **** #include "bq20Z75.h"
   4:.\bq20Z75.c   **** uint8_t GetCrc8(uint8_t chkSum, uint8_t crcData);
   5:.\bq20Z75.c   **** #define POLYNOME 0x07
   6:.\bq20Z75.c   **** uint8_t GetCrc8(uint8_t chkSum, uint8_t crcData)
   7:.\bq20Z75.c   **** {
  27              		.loc 1 7 0
  28              		.cfi_startproc
  29              		@ args = 0, pretend = 0, frame = 0
  30              		@ frame_needed = 0, uses_anonymous_args = 0
  31              		@ link register save eliminated.
  32              	.LVL0:
   8:.\bq20Z75.c   ****     uint8_t j = 8; // Counter for 8 shifts
   9:.\bq20Z75.c   ****     chkSum ^= crcData; // Initial XOR
  33              		.loc 1 9 0
  34 0000 4840     		eors	r0, r0, r1
  35              	.LVL1:
   8:.\bq20Z75.c   ****     uint8_t j = 8; // Counter for 8 shifts
  36              		.loc 1 8 0
  37 0002 0823     		movs	r3, #8
  38              	.LVL2:
  39              	.L4:
  10:.\bq20Z75.c   ****     do
  11:.\bq20Z75.c   ****     {
  12:.\bq20Z75.c   ****         if (!(chkSum& 0x80)) // Check MSB
  40              		.loc 1 12 0
  41 0004 10F0800F 		tst	r0, #128
  42 0008 02D1     		bne	.L2
  13:.\bq20Z75.c   ****         {
  14:.\bq20Z75.c   ****         chkSum = chkSum<< 1; // If MSB = 0, shift left
ARM GAS  C:\Users\PANXIA~1\AppData\Local\Temp\ccWnKGJh.s 			page 2


  43              		.loc 1 14 0
  44 000a 4000     		lsls	r0, r0, #1
  45              	.LVL3:
  46 000c C0B2     		uxtb	r0, r0
  47              	.LVL4:
  48 000e 03E0     		b	.L3
  49              	.L2:
  15:.\bq20Z75.c   ****         }
  16:.\bq20Z75.c   ****         else
  17:.\bq20Z75.c   ****         {
  18:.\bq20Z75.c   ****         chkSum = (chkSum<< 1) ^ POLYNOME; // If MSB = 1, shift and XOR
  50              		.loc 1 18 0
  51 0010 4000     		lsls	r0, r0, #1
  52              	.LVL5:
  53 0012 80F00700 		eor	r0, r0, #7
  54 0016 C0B2     		uxtb	r0, r0
  55              	.LVL6:
  56              	.L3:
  19:.\bq20Z75.c   ****         }
  20:.\bq20Z75.c   ****     }while (--j); // Continue for 8 bitsreturnchkSum; // Return final value
  57              		.loc 1 20 0
  58 0018 013B     		subs	r3, r3, #1
  59              	.LVL7:
  60 001a 13F0FF03 		ands	r3, r3, #255
  61              	.LVL8:
  62 001e F1D1     		bne	.L4
  21:.\bq20Z75.c   ****     return chkSum;
  22:.\bq20Z75.c   **** }
  63              		.loc 1 22 0
  64 0020 7047     		bx	lr
  65              		.cfi_endproc
  66              	.LFE63:
  67              		.size	GetCrc8, .-GetCrc8
  68 0022 00BF     		.section	.text.bq20Z75_read_in,"ax",%progbits
  69              		.align	2
  70              		.global	bq20Z75_read_in
  71              		.thumb
  72              		.thumb_func
  73              		.type	bq20Z75_read_in, %function
  74              	bq20Z75_read_in:
  75              	.LFB64:
  23:.\bq20Z75.c   **** int bq20Z75_read_in( unsigned char addr )
  24:.\bq20Z75.c   **** {
  76              		.loc 1 24 0
  77              		.cfi_startproc
  78              		@ args = 0, pretend = 0, frame = 8
  79              		@ frame_needed = 0, uses_anonymous_args = 0
  80              	.LVL9:
  81 0000 00B5     		push	{lr}
  82              		.cfi_def_cfa_offset 4
  83              		.cfi_offset 14, -4
  84 0002 83B0     		sub	sp, sp, #12
  85              		.cfi_def_cfa_offset 16
  25:.\bq20Z75.c   **** 		unsigned char I2CData[2];
  26:.\bq20Z75.c   **** 		int temp;
  27:.\bq20Z75.c   **** 		int size;
  28:.\bq20Z75.c   **** 		
ARM GAS  C:\Users\PANXIA~1\AppData\Local\Temp\ccWnKGJh.s 			page 3


  29:.\bq20Z75.c   **** 		size = I2C_Read( addr, 6, I2CData, 2 );
  86              		.loc 1 29 0
  87 0004 0621     		movs	r1, #6
  88 0006 01AA     		add	r2, sp, #4
  89 0008 0223     		movs	r3, #2
  90 000a FFF7FEFF 		bl	I2C_Read
  91              	.LVL10:
  30:.\bq20Z75.c   **** 		
  31:.\bq20Z75.c   **** 		if( size != 2 )
  92              		.loc 1 31 0
  93 000e 0228     		cmp	r0, #2
  94 0010 0AD1     		bne	.L7
  32:.\bq20Z75.c   **** 		{
  33:.\bq20Z75.c   **** 			//	printf("mlx90614 read failed!\r\n");
  34:.\bq20Z75.c   **** 				return -1;
  35:.\bq20Z75.c   **** 		}
  36:.\bq20Z75.c   **** 		temp = (I2CData[1] << 8 | I2CData[0])*2;
  95              		.loc 1 36 0
  96 0012 9DF80500 		ldrb	r0, [sp, #5]	@ zero_extendqisi2
  97              	.LVL11:
  98 0016 9DF80430 		ldrb	r3, [sp, #4]	@ zero_extendqisi2
  99 001a 43EA0020 		orr	r0, r3, r0, lsl #8
 100 001e 4000     		lsls	r0, r0, #1
 101              	.LVL12:
  37:.\bq20Z75.c   **** 		temp -= 27315;
 102              		.loc 1 37 0
 103 0020 A0F5D540 		sub	r0, r0, #27264
 104              	.LVL13:
 105 0024 3338     		subs	r0, r0, #51
 106              	.LVL14:
  38:.\bq20Z75.c   **** 	//    UART_net_PutArray(I2CData,2);
  39:.\bq20Z75.c   **** 		return temp;
 107              		.loc 1 39 0
 108 0026 01E0     		b	.L6
 109              	.LVL15:
 110              	.L7:
  34:.\bq20Z75.c   **** 		}
 111              		.loc 1 34 0
 112 0028 4FF0FF30 		mov	r0, #-1
 113              	.LVL16:
 114              	.L6:
  40:.\bq20Z75.c   ****         
  41:.\bq20Z75.c   **** }
 115              		.loc 1 41 0
 116 002c 03B0     		add	sp, sp, #12
 117              		.cfi_def_cfa_offset 4
 118              		@ sp needed
 119 002e 5DF804FB 		ldr	pc, [sp], #4
 120              		.cfi_endproc
 121              	.LFE64:
 122              		.size	bq20Z75_read_in, .-bq20Z75_read_in
 123 0032 00BF     		.section	.text.bq20Z75_read_out,"ax",%progbits
 124              		.align	2
 125              		.global	bq20Z75_read_out
 126              		.thumb
 127              		.thumb_func
 128              		.type	bq20Z75_read_out, %function
ARM GAS  C:\Users\PANXIA~1\AppData\Local\Temp\ccWnKGJh.s 			page 4


 129              	bq20Z75_read_out:
 130              	.LFB65:
  42:.\bq20Z75.c   **** 
  43:.\bq20Z75.c   ****  uint8 PEC;
  44:.\bq20Z75.c   **** int bq20Z75_read_out( unsigned char addr ,unsigned char command )
  45:.\bq20Z75.c   **** {
 131              		.loc 1 45 0
 132              		.cfi_startproc
 133              		@ args = 0, pretend = 0, frame = 8
 134              		@ frame_needed = 0, uses_anonymous_args = 0
 135              	.LVL17:
 136 0000 30B5     		push	{r4, r5, lr}
 137              		.cfi_def_cfa_offset 12
 138              		.cfi_offset 4, -12
 139              		.cfi_offset 5, -8
 140              		.cfi_offset 14, -4
 141 0002 83B0     		sub	sp, sp, #12
 142              		.cfi_def_cfa_offset 24
 143 0004 0C46     		mov	r4, r1
  46:.\bq20Z75.c   ****     
  47:.\bq20Z75.c   **** 		unsigned char I2CData[3];
  48:.\bq20Z75.c   **** 		int size;
  49:.\bq20Z75.c   **** 		int temp;
  50:.\bq20Z75.c   ****        
  51:.\bq20Z75.c   **** 		size = I2C_Read( addr, command, I2CData, 3 );
 144              		.loc 1 51 0
 145 0006 01AA     		add	r2, sp, #4
 146 0008 0323     		movs	r3, #3
 147 000a FFF7FEFF 		bl	I2C_Read
 148              	.LVL18:
  52:.\bq20Z75.c   **** 		
  53:.\bq20Z75.c   **** 		if( size != 3 )
 149              		.loc 1 53 0
 150 000e 0328     		cmp	r0, #3
 151 0010 1ED1     		bne	.L11
  54:.\bq20Z75.c   **** 		{
  55:.\bq20Z75.c   **** 			//	printf("mlx90614 read failed!\r\n");
  56:.\bq20Z75.c   **** 				return -1;
  57:.\bq20Z75.c   **** 		}
  58:.\bq20Z75.c   ****         PEC=0;
  59:.\bq20Z75.c   ****         PEC = GetCrc8(PEC,0x16);
 152              		.loc 1 59 0
 153 0012 0020     		movs	r0, #0
 154              	.LVL19:
 155 0014 1621     		movs	r1, #22
 156 0016 FFF7FEFF 		bl	GetCrc8
 157              	.LVL20:
  60:.\bq20Z75.c   ****         PEC = GetCrc8(PEC,command);
 158              		.loc 1 60 0
 159 001a 2146     		mov	r1, r4
 160 001c FFF7FEFF 		bl	GetCrc8
 161              	.LVL21:
  61:.\bq20Z75.c   ****         PEC = GetCrc8(PEC,0x16|0x01);
 162              		.loc 1 61 0
 163 0020 1721     		movs	r1, #23
 164 0022 FFF7FEFF 		bl	GetCrc8
 165              	.LVL22:
ARM GAS  C:\Users\PANXIA~1\AppData\Local\Temp\ccWnKGJh.s 			page 5


  62:.\bq20Z75.c   ****         PEC = GetCrc8(PEC,I2CData[0]);
 166              		.loc 1 62 0
 167 0026 9DF80440 		ldrb	r4, [sp, #4]	@ zero_extendqisi2
 168 002a 2146     		mov	r1, r4
 169 002c FFF7FEFF 		bl	GetCrc8
 170              	.LVL23:
  63:.\bq20Z75.c   ****         PEC = GetCrc8(PEC,I2CData[1]);
 171              		.loc 1 63 0
 172 0030 9DF80550 		ldrb	r5, [sp, #5]	@ zero_extendqisi2
 173 0034 2946     		mov	r1, r5
 174 0036 FFF7FEFF 		bl	GetCrc8
 175              	.LVL24:
 176 003a 084B     		ldr	r3, .L14
 177 003c 1870     		strb	r0, [r3]
  64:.\bq20Z75.c   ****         temp = (I2CData[1] << 8 | I2CData[0]);
 178              		.loc 1 64 0
 179 003e 44EA0524 		orr	r4, r4, r5, lsl #8
 180              	.LVL25:
  65:.\bq20Z75.c   ****         if(PEC != I2CData[2])
 181              		.loc 1 65 0
 182 0042 9DF80630 		ldrb	r3, [sp, #6]	@ zero_extendqisi2
 183 0046 9842     		cmp	r0, r3
 184 0048 05D0     		beq	.L12
  66:.\bq20Z75.c   ****         {
  67:.\bq20Z75.c   ****             return -1;
 185              		.loc 1 67 0
 186 004a 4FF0FF30 		mov	r0, #-1
 187 004e 03E0     		b	.L10
 188              	.LVL26:
 189              	.L11:
  56:.\bq20Z75.c   **** 		}
 190              		.loc 1 56 0
 191 0050 4FF0FF30 		mov	r0, #-1
 192              	.LVL27:
 193 0054 00E0     		b	.L10
 194              	.LVL28:
 195              	.L12:
  68:.\bq20Z75.c   ****         }
  69:.\bq20Z75.c   **** 		//temp = (I2CData[1] << 8 | I2CData[0])*2;
  70:.\bq20Z75.c   ****         
  71:.\bq20Z75.c   ****         
  72:.\bq20Z75.c   ****       //  PEC = I2CData[2];
  73:.\bq20Z75.c   **** 		//temp -= 27315;
  74:.\bq20Z75.c   **** 		
  75:.\bq20Z75.c   **** 		return temp;
 196              		.loc 1 75 0
 197 0056 2046     		mov	r0, r4
 198              	.LVL29:
 199              	.L10:
  76:.\bq20Z75.c   ****         
  77:.\bq20Z75.c   **** }
 200              		.loc 1 77 0
 201 0058 03B0     		add	sp, sp, #12
 202              		.cfi_def_cfa_offset 12
 203              		@ sp needed
 204 005a 30BD     		pop	{r4, r5, pc}
 205              	.L15:
ARM GAS  C:\Users\PANXIA~1\AppData\Local\Temp\ccWnKGJh.s 			page 6


 206              		.align	2
 207              	.L14:
 208 005c 00000000 		.word	PEC
 209              		.cfi_endproc
 210              	.LFE65:
 211              		.size	bq20Z75_read_out, .-bq20Z75_read_out
 212              		.comm	PEC,1,1
 213              		.text
 214              	.Letext0:
 215              		.file 2 "d:\\program files (x86)\\cypress\\psoc creator\\3.3\\psoc creator\\import\\gnu\\arm\\4.9.
 216              		.file 3 "d:\\program files (x86)\\cypress\\psoc creator\\3.3\\psoc creator\\import\\gnu\\arm\\4.9.
 217              		.file 4 "Generated_Source\\PSoC5/cytypes.h"
 218              		.file 5 "Generated_Source\\PSoC5/core_cm3.h"
 219              		.file 6 ".\\i2c_core.h"