ARM GAS  C:\Users\PANXIA~1\AppData\Local\Temp\cc2dPqlu.s 			page 1


   1              		.syntax unified
   2              		.cpu cortex-m3
   3              		.fpu softvfp
   4              		.eabi_attribute 20, 1
   5              		.eabi_attribute 21, 1
   6              		.eabi_attribute 23, 3
   7              		.eabi_attribute 24, 1
   8              		.eabi_attribute 25, 1
   9              		.eabi_attribute 26, 1
  10              		.eabi_attribute 30, 1
  11              		.eabi_attribute 34, 1
  12              		.eabi_attribute 18, 4
  13              		.thumb
  14              		.file	"car.c"
  15              		.text
  16              	.Ltext0:
  17              		.cfi_sections	.debug_frame
  18              		.section	.text.ptz_control,"ax",%progbits
  19              		.align	2
  20              		.thumb
  21              		.thumb_func
  22              		.type	ptz_control, %function
  23              	ptz_control:
  24              	.LFB69:
  25              		.file 1 ".\\car.c"
   1:.\car.c       **** /* ========================================
   2:.\car.c       ****  *
   3:.\car.c       ****  * Copyright YOUR COMPANY, THE YEAR
   4:.\car.c       ****  * All Rights Reserved
   5:.\car.c       ****  * UNPUBLISHED, LICENSED SOFTWARE.
   6:.\car.c       ****  *
   7:.\car.c       ****  * CONFIDENTIAL AND PROPRIETARY INFORMATION
   8:.\car.c       ****  * WHICH IS THE PROPERTY OF your company.
   9:.\car.c       ****  *
  10:.\car.c       ****  * ========================================
  11:.\car.c       **** */
  12:.\car.c       **** #include "car.h"
  13:.\car.c       **** 
  14:.\car.c       **** static void Command_Car_UP(uint16 speed);
  15:.\car.c       **** static void Command_Car_Down(uint16 speed);
  16:.\car.c       **** void Car_Dir(enum CAR_DIR car_dir,uint16 car_speed);
  17:.\car.c       **** void Car_PTZ_DIR(S_CAR car);
  18:.\car.c       **** void Car_PUSH_DIR(S_CAR car);
  19:.\car.c       **** void Command_Car_brake();
  20:.\car.c       **** void Command_Car_Left(uint16 speed);
  21:.\car.c       **** void Command_Car_Right(uint16 speed);
  22:.\car.c       **** void board_test();
  23:.\car.c       **** 
  24:.\car.c       **** static void Set_Left_Front_Speed_Turn(uint16 speed,enum WHEEL_DIR turn);
  25:.\car.c       **** static void Set_Left_Behind_Speed_Turn(uint16 speed,enum WHEEL_DIR turn);
  26:.\car.c       **** static void Set_Right_Front_Speed_Turn(uint16 speed,enum WHEEL_DIR turn);
  27:.\car.c       **** static void Set_Right_Behind_Speed_Turn(uint16 speed,enum WHEEL_DIR turn);
  28:.\car.c       **** static void ptz_control(uint8 choose,enum WHEEL_DIR dir);
  29:.\car.c       **** 
  30:.\car.c       **** 
  31:.\car.c       **** void Car_init()
  32:.\car.c       **** {
ARM GAS  C:\Users\PANXIA~1\AppData\Local\Temp\cc2dPqlu.s 			page 2


  33:.\car.c       ****     
  34:.\car.c       ****     g_Car.systeminfo.hardware_ver = 410;
  35:.\car.c       ****     g_Car.systeminfo.software_ver = 110;
  36:.\car.c       ****     
  37:.\car.c       ****     g_Car.pre_dir = STOP;
  38:.\car.c       ****     g_Car.set_car_speed = 990;
  39:.\car.c       ****     g_Car.set_dir = STOP;
  40:.\car.c       ****     g_Car.set_ptz_dir = STOP;  
  41:.\car.c       ****     g_Car.set_push_dir = STOP;
  42:.\car.c       ****     PTZ_UP_EN_Write(1);
  43:.\car.c       ****     PTZ_UP_DIR_Write(0);
  44:.\car.c       ****     PTZ_UP_STEP_Write(0); 
  45:.\car.c       ****     PTZ_DOWN_EN_Write(1);
  46:.\car.c       ****     PTZ_DOWN_DIR_Write(0);
  47:.\car.c       ****     PTZ_DOWN_STEP_Write(0);
  48:.\car.c       ****     
  49:.\car.c       ****     PWM_LEFT_EN_Write(1);
  50:.\car.c       ****     PWM_RIGHT_EN_Write(1);
  51:.\car.c       **** 
  52:.\car.c       **** }
  53:.\car.c       **** void board_test()
  54:.\car.c       **** {
  55:.\car.c       ****     
  56:.\car.c       ****     if(0)
  57:.\car.c       ****     {
  58:.\car.c       ****          ptz_control(0,REVERSAL);
  59:.\car.c       ****     }
  60:.\car.c       ****     else if(1)
  61:.\car.c       ****     {
  62:.\car.c       ****          ptz_control(0,FORWARD);
  63:.\car.c       ****     }
  64:.\car.c       ****     if(0)
  65:.\car.c       ****     {
  66:.\car.c       ****          ptz_control(1,REVERSAL);
  67:.\car.c       ****     }
  68:.\car.c       ****     else if(1)
  69:.\car.c       ****     {
  70:.\car.c       ****          ptz_control(1,FORWARD);
  71:.\car.c       ****     }
  72:.\car.c       ****     else 
  73:.\car.c       ****     {
  74:.\car.c       ****         ptz_control(0,WHEEL_STOP);
  75:.\car.c       ****         ptz_control(1,WHEEL_STOP);
  76:.\car.c       ****     }
  77:.\car.c       ****     
  78:.\car.c       **** }
  79:.\car.c       **** void Car_Control_Loop()
  80:.\car.c       **** {  
  81:.\car.c       ****     if( g_Car.error == 0 )
  82:.\car.c       ****     {
  83:.\car.c       ****         Car_Dir(g_Car.set_dir,g_Car.set_car_speed); 
  84:.\car.c       ****         Car_PTZ_DIR(g_Car); 
  85:.\car.c       ****         Car_PUSH_DIR(g_Car);
  86:.\car.c       ****         if(g_Car.liheqi == 1)
  87:.\car.c       ****         {
  88:.\car.c       ****             EM1_Write(1);
  89:.\car.c       ****             EM2_Write(1); 
ARM GAS  C:\Users\PANXIA~1\AppData\Local\Temp\cc2dPqlu.s 			page 3


  90:.\car.c       ****         }
  91:.\car.c       ****         else
  92:.\car.c       ****         {
  93:.\car.c       ****             EM1_Write(0);
  94:.\car.c       ****             EM2_Write(0);
  95:.\car.c       ****         }
  96:.\car.c       ****     }   
  97:.\car.c       ****     else
  98:.\car.c       ****     {
  99:.\car.c       ****         g_Car.set_dir = STOP;
 100:.\car.c       ****         Command_Car_brake();
 101:.\car.c       ****         EM1_Write(1);
 102:.\car.c       ****         EM2_Write(1);
 103:.\car.c       ****     }
 104:.\car.c       **** 
 105:.\car.c       ****  // board_test();
 106:.\car.c       **** }
 107:.\car.c       **** void Car_Hearting_Loop()
 108:.\car.c       **** {
 109:.\car.c       ****     if(g_Car.hearting ==  1   )
 110:.\car.c       ****     {
 111:.\car.c       ****         g_Car.hearting = 0;
 112:.\car.c       ****         g_Car.error = 0;
 113:.\car.c       ****     }
 114:.\car.c       ****     else
 115:.\car.c       ****     {
 116:.\car.c       ****         g_Car.error = 1;
 117:.\car.c       ****     }  
 118:.\car.c       **** }
 119:.\car.c       **** void Car_PTZ_DIR(S_CAR car)
 120:.\car.c       **** {
 121:.\car.c       ****     if(car.set_ptz_dir == UP)
 122:.\car.c       ****     {
 123:.\car.c       ****          ptz_control(0,REVERSAL);
 124:.\car.c       ****     }
 125:.\car.c       ****     else if(car.set_ptz_dir == DOWN)
 126:.\car.c       ****     {
 127:.\car.c       ****          ptz_control(0,FORWARD);
 128:.\car.c       ****     }
 129:.\car.c       ****     else if(car.set_ptz_dir == LEFT)
 130:.\car.c       ****     {
 131:.\car.c       ****          ptz_control(1,REVERSAL);
 132:.\car.c       ****     }
 133:.\car.c       ****     else if(car.set_ptz_dir == RIGHT)
 134:.\car.c       ****     {
 135:.\car.c       ****          ptz_control(1,FORWARD);
 136:.\car.c       ****     }
 137:.\car.c       ****     else 
 138:.\car.c       ****     {
 139:.\car.c       ****         ptz_control(0,WHEEL_STOP);
 140:.\car.c       ****         ptz_control(1,WHEEL_STOP);
 141:.\car.c       ****     }
 142:.\car.c       **** }
 143:.\car.c       **** void Car_PUSH_DIR(S_CAR car)
 144:.\car.c       **** {
 145:.\car.c       ****     static uint8 togle_flag = 0;
 146:.\car.c       ****     
ARM GAS  C:\Users\PANXIA~1\AppData\Local\Temp\cc2dPqlu.s 			page 4


 147:.\car.c       ****     if(car.set_push_dir == UP)
 148:.\car.c       ****     {
 149:.\car.c       ****         PUSH_EN_Write(0);
 150:.\car.c       ****         PUSH_DIR_Write(REVERSAL);
 151:.\car.c       ****         if(togle_flag == 0)
 152:.\car.c       ****         {
 153:.\car.c       ****             PUSH_STEP_Write(1);
 154:.\car.c       ****             togle_flag = 1;
 155:.\car.c       ****         }
 156:.\car.c       ****         else
 157:.\car.c       ****         {
 158:.\car.c       ****             PUSH_STEP_Write(0);
 159:.\car.c       ****             togle_flag = 0;
 160:.\car.c       ****         }
 161:.\car.c       ****     }
 162:.\car.c       ****     else if (car.set_push_dir == DOWN)
 163:.\car.c       ****     {
 164:.\car.c       ****         PUSH_EN_Write(0);
 165:.\car.c       ****         PUSH_DIR_Write(FORWARD);
 166:.\car.c       ****         if(togle_flag == 0)
 167:.\car.c       ****         {
 168:.\car.c       ****             PUSH_STEP_Write(1);
 169:.\car.c       ****           
 170:.\car.c       ****             togle_flag = 1;
 171:.\car.c       ****         }
 172:.\car.c       ****         else
 173:.\car.c       ****         {
 174:.\car.c       ****             PUSH_STEP_Write(0);
 175:.\car.c       ****             togle_flag = 0;
 176:.\car.c       ****         } 
 177:.\car.c       ****     }
 178:.\car.c       ****     else
 179:.\car.c       ****     {
 180:.\car.c       ****          PUSH_EN_Write(1);
 181:.\car.c       ****     }
 182:.\car.c       **** 
 183:.\car.c       ****     
 184:.\car.c       **** }
 185:.\car.c       **** void ptz_control(uint8 choose,enum WHEEL_DIR dir)
 186:.\car.c       **** {
  26              		.loc 1 186 0
  27              		.cfi_startproc
  28              		@ args = 0, pretend = 0, frame = 0
  29              		@ frame_needed = 0, uses_anonymous_args = 0
  30              	.LVL0:
  31 0000 10B5     		push	{r4, lr}
  32              		.cfi_def_cfa_offset 8
  33              		.cfi_offset 4, -8
  34              		.cfi_offset 14, -4
  35 0002 0C46     		mov	r4, r1
 187:.\car.c       ****     static uint8 togle_flag_1 = 0;
 188:.\car.c       ****     static uint8 togle_flag_0 = 0;
 189:.\car.c       ****     if(choose == 1 && dir != WHEEL_STOP)
  36              		.loc 1 189 0
  37 0004 0128     		cmp	r0, #1
  38 0006 1AD1     		bne	.L2
  39              		.loc 1 189 0 is_stmt 0 discriminator 1
ARM GAS  C:\Users\PANXIA~1\AppData\Local\Temp\cc2dPqlu.s 			page 5


  40 0008 0229     		cmp	r1, #2
  41 000a 18D0     		beq	.L2
 190:.\car.c       ****     {
 191:.\car.c       ****         PTZ_UP_EN_Write(0);
  42              		.loc 1 191 0 is_stmt 1
  43 000c 0020     		movs	r0, #0
  44              	.LVL1:
  45 000e FFF7FEFF 		bl	PTZ_UP_EN_Write
  46              	.LVL2:
 192:.\car.c       ****         PTZ_UP_DIR_Write(!dir);
  47              		.loc 1 192 0
  48 0012 B4FA84F0 		clz	r0, r4
  49 0016 4009     		lsrs	r0, r0, #5
  50 0018 FFF7FEFF 		bl	PTZ_UP_DIR_Write
  51              	.LVL3:
 193:.\car.c       ****         
 194:.\car.c       ****         if(togle_flag_1 == 0)
  52              		.loc 1 194 0
  53 001c 184B     		ldr	r3, .L8
  54 001e 1B78     		ldrb	r3, [r3]	@ zero_extendqisi2
  55 0020 33B9     		cbnz	r3, .L3
 195:.\car.c       ****         {
 196:.\car.c       ****             PTZ_UP_STEP_Write(1);
  56              		.loc 1 196 0
  57 0022 0120     		movs	r0, #1
  58 0024 FFF7FEFF 		bl	PTZ_UP_STEP_Write
  59              	.LVL4:
 197:.\car.c       ****             togle_flag_1 = 1;
  60              		.loc 1 197 0
  61 0028 0122     		movs	r2, #1
  62 002a 154B     		ldr	r3, .L8
  63 002c 1A70     		strb	r2, [r3]
  64 002e 10BD     		pop	{r4, pc}
  65              	.L3:
 198:.\car.c       ****         }
 199:.\car.c       ****         else
 200:.\car.c       ****         {
 201:.\car.c       ****             PTZ_UP_STEP_Write(0);
  66              		.loc 1 201 0
  67 0030 0020     		movs	r0, #0
  68 0032 FFF7FEFF 		bl	PTZ_UP_STEP_Write
  69              	.LVL5:
 202:.\car.c       ****             togle_flag_1 = 0;
  70              		.loc 1 202 0
  71 0036 0022     		movs	r2, #0
  72 0038 114B     		ldr	r3, .L8
  73 003a 1A70     		strb	r2, [r3]
  74 003c 10BD     		pop	{r4, pc}
  75              	.LVL6:
  76              	.L2:
 203:.\car.c       ****         }
 204:.\car.c       ****     }
 205:.\car.c       ****     else if(choose == 0 && dir != WHEEL_STOP)
  77              		.loc 1 205 0
  78 003e B8B9     		cbnz	r0, .L5
  79              		.loc 1 205 0 is_stmt 0 discriminator 1
  80 0040 022C     		cmp	r4, #2
ARM GAS  C:\Users\PANXIA~1\AppData\Local\Temp\cc2dPqlu.s 			page 6


  81 0042 15D0     		beq	.L5
 206:.\car.c       ****     {
 207:.\car.c       ****         
 208:.\car.c       ****         PTZ_DOWN_EN_Write(0);
  82              		.loc 1 208 0 is_stmt 1
  83 0044 FFF7FEFF 		bl	PTZ_DOWN_EN_Write
  84              	.LVL7:
 209:.\car.c       ****         PTZ_DOWN_DIR_Write(dir);
  85              		.loc 1 209 0
  86 0048 2046     		mov	r0, r4
  87 004a FFF7FEFF 		bl	PTZ_DOWN_DIR_Write
  88              	.LVL8:
 210:.\car.c       ****         if(togle_flag_0 == 0)
  89              		.loc 1 210 0
  90 004e 0C4B     		ldr	r3, .L8
  91 0050 5B78     		ldrb	r3, [r3, #1]	@ zero_extendqisi2
  92 0052 33B9     		cbnz	r3, .L6
 211:.\car.c       ****         {
 212:.\car.c       ****             PTZ_DOWN_STEP_Write(1);
  93              		.loc 1 212 0
  94 0054 0120     		movs	r0, #1
  95 0056 FFF7FEFF 		bl	PTZ_DOWN_STEP_Write
  96              	.LVL9:
 213:.\car.c       ****           
 214:.\car.c       ****             togle_flag_0 = 1;
  97              		.loc 1 214 0
  98 005a 0122     		movs	r2, #1
  99 005c 084B     		ldr	r3, .L8
 100 005e 5A70     		strb	r2, [r3, #1]
 101 0060 10BD     		pop	{r4, pc}
 102              	.L6:
 215:.\car.c       ****         }
 216:.\car.c       ****         else
 217:.\car.c       ****         {
 218:.\car.c       ****             PTZ_DOWN_STEP_Write(0);
 103              		.loc 1 218 0
 104 0062 0020     		movs	r0, #0
 105 0064 FFF7FEFF 		bl	PTZ_DOWN_STEP_Write
 106              	.LVL10:
 219:.\car.c       ****             togle_flag_0 = 0;
 107              		.loc 1 219 0
 108 0068 0022     		movs	r2, #0
 109 006a 054B     		ldr	r3, .L8
 110 006c 5A70     		strb	r2, [r3, #1]
 111 006e 10BD     		pop	{r4, pc}
 112              	.LVL11:
 113              	.L5:
 220:.\car.c       ****         } 
 221:.\car.c       ****     }
 222:.\car.c       ****     else
 223:.\car.c       ****     {
 224:.\car.c       ****         PTZ_UP_EN_Write(1);
 114              		.loc 1 224 0
 115 0070 0120     		movs	r0, #1
 116              	.LVL12:
 117 0072 FFF7FEFF 		bl	PTZ_UP_EN_Write
 118              	.LVL13:
ARM GAS  C:\Users\PANXIA~1\AppData\Local\Temp\cc2dPqlu.s 			page 7


 225:.\car.c       ****         PTZ_DOWN_EN_Write(1);
 119              		.loc 1 225 0
 120 0076 0120     		movs	r0, #1
 121 0078 FFF7FEFF 		bl	PTZ_DOWN_EN_Write
 122              	.LVL14:
 123 007c 10BD     		pop	{r4, pc}
 124              	.L9:
 125 007e 00BF     		.align	2
 126              	.L8:
 127 0080 00000000 		.word	.LANCHOR0
 128              		.cfi_endproc
 129              	.LFE69:
 130              		.size	ptz_control, .-ptz_control
 131              		.section	.text.Set_Left_Front_Speed_Turn,"ax",%progbits
 132              		.align	2
 133              		.thumb
 134              		.thumb_func
 135              		.type	Set_Left_Front_Speed_Turn, %function
 136              	Set_Left_Front_Speed_Turn:
 137              	.LFB77:
 226:.\car.c       ****     }
 227:.\car.c       **** }
 228:.\car.c       **** uint8 deal_break(S_CAR car)
 229:.\car.c       **** {
 230:.\car.c       ****     static uint16 brake_time;
 231:.\car.c       ****     Command_Car_brake();
 232:.\car.c       ****        brake_time++;
 233:.\car.c       ****        if(brake_time>20)
 234:.\car.c       ****        {
 235:.\car.c       ****          brake_time = 0;
 236:.\car.c       ****          car.pre_dir = car.set_dir;
 237:.\car.c       ****          return 0;
 238:.\car.c       ****        }
 239:.\car.c       ****     return 1;
 240:.\car.c       **** }
 241:.\car.c       **** void Car_Dir(enum CAR_DIR car_dir,uint16 car_speed)
 242:.\car.c       **** {
 243:.\car.c       ****  
 244:.\car.c       ****     if(car_dir == UP)
 245:.\car.c       ****     {
 246:.\car.c       ****        
 247:.\car.c       ****        Command_Car_UP(car_speed);
 248:.\car.c       ****     }
 249:.\car.c       ****     else if(car_dir == DOWN)
 250:.\car.c       ****     {
 251:.\car.c       ****        Command_Car_Down(car_speed); 
 252:.\car.c       ****     }
 253:.\car.c       ****     else if(car_dir == LEFT)
 254:.\car.c       ****     {
 255:.\car.c       ****        Command_Car_Left(car_speed); 
 256:.\car.c       ****     }
 257:.\car.c       ****     else if(car_dir == RIGHT)
 258:.\car.c       ****     {
 259:.\car.c       ****        Command_Car_Right(car_speed); 
 260:.\car.c       ****     }
 261:.\car.c       ****     else if(car_dir == STOP)
 262:.\car.c       ****     {
ARM GAS  C:\Users\PANXIA~1\AppData\Local\Temp\cc2dPqlu.s 			page 8


 263:.\car.c       ****        Command_Car_brake();
 264:.\car.c       ****     }
 265:.\car.c       **** 
 266:.\car.c       **** }
 267:.\car.c       **** void Command_Car_Down(uint16 speed)
 268:.\car.c       **** {
 269:.\car.c       ****   Set_Left_Front_Speed_Turn(speed,REVERSAL);
 270:.\car.c       ****   Set_Left_Behind_Speed_Turn(speed,REVERSAL);
 271:.\car.c       ****   Set_Right_Behind_Speed_Turn(speed,REVERSAL);
 272:.\car.c       ****   Set_Right_Behind_Speed_Turn(speed,REVERSAL);
 273:.\car.c       **** 
 274:.\car.c       **** }
 275:.\car.c       **** 
 276:.\car.c       **** void Command_Car_UP(uint16 speed)
 277:.\car.c       **** {
 278:.\car.c       ****   Set_Left_Front_Speed_Turn  (speed,FORWARD);
 279:.\car.c       ****   Set_Left_Behind_Speed_Turn (speed,FORWARD);
 280:.\car.c       ****   Set_Right_Behind_Speed_Turn(speed,FORWARD);
 281:.\car.c       ****   Set_Right_Behind_Speed_Turn(speed,FORWARD);
 282:.\car.c       **** }
 283:.\car.c       **** 
 284:.\car.c       **** void Command_Car_Left(uint16 speed)
 285:.\car.c       **** {
 286:.\car.c       ****   Set_Left_Front_Speed_Turn  (speed/2,FORWARD);
 287:.\car.c       ****   Set_Left_Behind_Speed_Turn (speed/2,FORWARD);
 288:.\car.c       ****   Set_Right_Behind_Speed_Turn(speed,REVERSAL);
 289:.\car.c       ****   Set_Right_Behind_Speed_Turn(speed,REVERSAL);
 290:.\car.c       **** }
 291:.\car.c       **** 
 292:.\car.c       **** void Command_Car_Right(uint16 speed)
 293:.\car.c       **** {
 294:.\car.c       ****   Set_Left_Front_Speed_Turn  (speed,REVERSAL);
 295:.\car.c       ****   Set_Left_Behind_Speed_Turn (speed,REVERSAL);
 296:.\car.c       ****   Set_Right_Behind_Speed_Turn(speed/2,FORWARD);
 297:.\car.c       ****   Set_Right_Behind_Speed_Turn(speed/2,FORWARD);
 298:.\car.c       **** }
 299:.\car.c       **** 
 300:.\car.c       **** void Command_Car_brake()
 301:.\car.c       **** {
 302:.\car.c       ****   Set_Left_Front_Speed_Turn  (0,WHEEL_STOP);
 303:.\car.c       ****   Set_Left_Behind_Speed_Turn (0,WHEEL_STOP);
 304:.\car.c       ****   Set_Right_Behind_Speed_Turn(0,WHEEL_STOP);
 305:.\car.c       ****   Set_Right_Behind_Speed_Turn(0,WHEEL_STOP);
 306:.\car.c       **** }
 307:.\car.c       **** 
 308:.\car.c       **** //set every one motor
 309:.\car.c       **** void Set_Left_Front_Speed_Turn(uint16 speed,enum WHEEL_DIR turn)
 310:.\car.c       **** {
 138              		.loc 1 310 0
 139              		.cfi_startproc
 140              		@ args = 0, pretend = 0, frame = 0
 141              		@ frame_needed = 0, uses_anonymous_args = 0
 142              	.LVL15:
 143 0000 10B5     		push	{r4, lr}
 144              		.cfi_def_cfa_offset 8
 145              		.cfi_offset 4, -8
 146              		.cfi_offset 14, -4
ARM GAS  C:\Users\PANXIA~1\AppData\Local\Temp\cc2dPqlu.s 			page 9


 147 0002 0446     		mov	r4, r0
 311:.\car.c       ****     if(speed > 990)
 148              		.loc 1 311 0
 149 0004 40F2DE33 		movw	r3, #990
 150 0008 9842     		cmp	r0, r3
 151 000a 00D9     		bls	.L11
 312:.\car.c       ****     {
 313:.\car.c       ****         speed = 990;
 152              		.loc 1 313 0
 153 000c 1C46     		mov	r4, r3
 154              	.L11:
 155              	.LVL16:
 314:.\car.c       ****     }
 315:.\car.c       ****     if(turn == FORWARD)
 156              		.loc 1 315 0
 157 000e 31B9     		cbnz	r1, .L12
 316:.\car.c       ****         { PWM_MOTOR_LEFT_WriteCompare1(0);PWM_MOTOR_LEFT_WriteCompare2(speed);}
 158              		.loc 1 316 0
 159 0010 0020     		movs	r0, #0
 160 0012 FFF7FEFF 		bl	PWM_MOTOR_LEFT_WriteCompare1
 161              	.LVL17:
 162 0016 2046     		mov	r0, r4
 163 0018 FFF7FEFF 		bl	PWM_MOTOR_LEFT_WriteCompare2
 164              	.LVL18:
 165 001c 10BD     		pop	{r4, pc}
 166              	.LVL19:
 167              	.L12:
 317:.\car.c       ****     else if(turn == REVERSAL)
 168              		.loc 1 317 0
 169 001e 0129     		cmp	r1, #1
 170 0020 06D1     		bne	.L14
 318:.\car.c       ****         { PWM_MOTOR_LEFT_WriteCompare1(speed);PWM_MOTOR_LEFT_WriteCompare2(0);}
 171              		.loc 1 318 0
 172 0022 2046     		mov	r0, r4
 173 0024 FFF7FEFF 		bl	PWM_MOTOR_LEFT_WriteCompare1
 174              	.LVL20:
 175 0028 0020     		movs	r0, #0
 176 002a FFF7FEFF 		bl	PWM_MOTOR_LEFT_WriteCompare2
 177              	.LVL21:
 178 002e 10BD     		pop	{r4, pc}
 179              	.LVL22:
 180              	.L14:
 319:.\car.c       ****     else
 320:.\car.c       ****          {PWM_MOTOR_LEFT_WriteCompare1(0);PWM_MOTOR_LEFT_WriteCompare2(0);}
 181              		.loc 1 320 0
 182 0030 0020     		movs	r0, #0
 183 0032 FFF7FEFF 		bl	PWM_MOTOR_LEFT_WriteCompare1
 184              	.LVL23:
 185 0036 0020     		movs	r0, #0
 186 0038 FFF7FEFF 		bl	PWM_MOTOR_LEFT_WriteCompare2
 187              	.LVL24:
 188 003c 10BD     		pop	{r4, pc}
 189              		.cfi_endproc
 190              	.LFE77:
 191              		.size	Set_Left_Front_Speed_Turn, .-Set_Left_Front_Speed_Turn
 192 003e 00BF     		.section	.text.Set_Left_Behind_Speed_Turn,"ax",%progbits
 193              		.align	2
ARM GAS  C:\Users\PANXIA~1\AppData\Local\Temp\cc2dPqlu.s 			page 10


 194              		.thumb
 195              		.thumb_func
 196              		.type	Set_Left_Behind_Speed_Turn, %function
 197              	Set_Left_Behind_Speed_Turn:
 198              	.LFB78:
 321:.\car.c       **** }
 322:.\car.c       **** void Set_Left_Behind_Speed_Turn(uint16 speed,enum WHEEL_DIR turn)
 323:.\car.c       **** {
 199              		.loc 1 323 0
 200              		.cfi_startproc
 201              		@ args = 0, pretend = 0, frame = 0
 202              		@ frame_needed = 0, uses_anonymous_args = 0
 203              	.LVL25:
 204 0000 10B5     		push	{r4, lr}
 205              		.cfi_def_cfa_offset 8
 206              		.cfi_offset 4, -8
 207              		.cfi_offset 14, -4
 208 0002 0446     		mov	r4, r0
 324:.\car.c       ****     if(speed > 990)
 209              		.loc 1 324 0
 210 0004 40F2DE33 		movw	r3, #990
 211 0008 9842     		cmp	r0, r3
 212 000a 00D9     		bls	.L18
 325:.\car.c       ****     {
 326:.\car.c       ****         speed = 990;
 213              		.loc 1 326 0
 214 000c 1C46     		mov	r4, r3
 215              	.L18:
 216              	.LVL26:
 327:.\car.c       ****     }
 328:.\car.c       ****     if(turn == FORWARD)
 217              		.loc 1 328 0
 218 000e 31B9     		cbnz	r1, .L19
 329:.\car.c       ****         {  PWM_MOTOR_RIGHT_WriteCompare1(0);PWM_MOTOR_RIGHT_WriteCompare2(speed);}
 219              		.loc 1 329 0
 220 0010 0020     		movs	r0, #0
 221 0012 FFF7FEFF 		bl	PWM_MOTOR_RIGHT_WriteCompare1
 222              	.LVL27:
 223 0016 2046     		mov	r0, r4
 224 0018 FFF7FEFF 		bl	PWM_MOTOR_RIGHT_WriteCompare2
 225              	.LVL28:
 226 001c 10BD     		pop	{r4, pc}
 227              	.LVL29:
 228              	.L19:
 330:.\car.c       ****     else if(turn == REVERSAL)
 229              		.loc 1 330 0
 230 001e 0129     		cmp	r1, #1
 231 0020 06D1     		bne	.L21
 331:.\car.c       ****         { PWM_MOTOR_RIGHT_WriteCompare1(speed);PWM_MOTOR_RIGHT_WriteCompare2(speed);}
 232              		.loc 1 331 0
 233 0022 2046     		mov	r0, r4
 234 0024 FFF7FEFF 		bl	PWM_MOTOR_RIGHT_WriteCompare1
 235              	.LVL30:
 236 0028 2046     		mov	r0, r4
 237 002a FFF7FEFF 		bl	PWM_MOTOR_RIGHT_WriteCompare2
 238              	.LVL31:
 239 002e 10BD     		pop	{r4, pc}
ARM GAS  C:\Users\PANXIA~1\AppData\Local\Temp\cc2dPqlu.s 			page 11


 240              	.LVL32:
 241              	.L21:
 332:.\car.c       ****     else
 333:.\car.c       ****          {PWM_MOTOR_RIGHT_WriteCompare1(0);PWM_MOTOR_RIGHT_WriteCompare2(0);}
 242              		.loc 1 333 0
 243 0030 0020     		movs	r0, #0
 244 0032 FFF7FEFF 		bl	PWM_MOTOR_RIGHT_WriteCompare1
 245              	.LVL33:
 246 0036 0020     		movs	r0, #0
 247 0038 FFF7FEFF 		bl	PWM_MOTOR_RIGHT_WriteCompare2
 248              	.LVL34:
 249 003c 10BD     		pop	{r4, pc}
 250              		.cfi_endproc
 251              	.LFE78:
 252              		.size	Set_Left_Behind_Speed_Turn, .-Set_Left_Behind_Speed_Turn
 253 003e 00BF     		.section	.text.Set_Right_Behind_Speed_Turn,"ax",%progbits
 254              		.align	2
 255              		.thumb
 256              		.thumb_func
 257              		.type	Set_Right_Behind_Speed_Turn, %function
 258              	Set_Right_Behind_Speed_Turn:
 259              	.LFB80:
 334:.\car.c       **** }
 335:.\car.c       **** void Set_Right_Front_Speed_Turn(uint16 speed,enum WHEEL_DIR turn)
 336:.\car.c       **** {    if(speed > 990)
 337:.\car.c       ****     {
 338:.\car.c       ****         speed = 990;
 339:.\car.c       ****     }
 340:.\car.c       ****   if(turn == FORWARD)
 341:.\car.c       ****         {  PWM_MOTOR_RIGHT_WriteCompare1(0);PWM_MOTOR_RIGHT_WriteCompare2(speed);}
 342:.\car.c       ****     else if(turn == REVERSAL)
 343:.\car.c       ****         { PWM_MOTOR_RIGHT_WriteCompare1(speed);PWM_MOTOR_RIGHT_WriteCompare2(0);}
 344:.\car.c       ****     else
 345:.\car.c       ****          {PWM_MOTOR_RIGHT_WriteCompare1(0);PWM_MOTOR_RIGHT_WriteCompare2(0);}
 346:.\car.c       **** }
 347:.\car.c       **** void Set_Right_Behind_Speed_Turn(uint16 speed,enum WHEEL_DIR turn)
 348:.\car.c       **** {    if(speed > 990)
 260              		.loc 1 348 0
 261              		.cfi_startproc
 262              		@ args = 0, pretend = 0, frame = 0
 263              		@ frame_needed = 0, uses_anonymous_args = 0
 264              	.LVL35:
 265 0000 10B5     		push	{r4, lr}
 266              		.cfi_def_cfa_offset 8
 267              		.cfi_offset 4, -8
 268              		.cfi_offset 14, -4
 269 0002 0446     		mov	r4, r0
 270              		.loc 1 348 0
 271 0004 40F2DE33 		movw	r3, #990
 272 0008 9842     		cmp	r0, r3
 273 000a 00D9     		bls	.L25
 349:.\car.c       ****     {
 350:.\car.c       ****         speed = 990;
 274              		.loc 1 350 0
 275 000c 1C46     		mov	r4, r3
 276              	.L25:
 277              	.LVL36:
ARM GAS  C:\Users\PANXIA~1\AppData\Local\Temp\cc2dPqlu.s 			page 12


 351:.\car.c       ****     }
 352:.\car.c       ****   if(turn == FORWARD)
 278              		.loc 1 352 0
 279 000e 31B9     		cbnz	r1, .L26
 353:.\car.c       ****         {  PWM_MOTOR_RIGHT_WriteCompare1(0);PWM_MOTOR_RIGHT_WriteCompare2(speed);}
 280              		.loc 1 353 0
 281 0010 0020     		movs	r0, #0
 282 0012 FFF7FEFF 		bl	PWM_MOTOR_RIGHT_WriteCompare1
 283              	.LVL37:
 284 0016 2046     		mov	r0, r4
 285 0018 FFF7FEFF 		bl	PWM_MOTOR_RIGHT_WriteCompare2
 286              	.LVL38:
 287 001c 10BD     		pop	{r4, pc}
 288              	.LVL39:
 289              	.L26:
 354:.\car.c       ****     else if(turn == REVERSAL)
 290              		.loc 1 354 0
 291 001e 0129     		cmp	r1, #1
 292 0020 06D1     		bne	.L28
 355:.\car.c       ****         { PWM_MOTOR_RIGHT_WriteCompare1(speed);PWM_MOTOR_RIGHT_WriteCompare2(0);}
 293              		.loc 1 355 0
 294 0022 2046     		mov	r0, r4
 295 0024 FFF7FEFF 		bl	PWM_MOTOR_RIGHT_WriteCompare1
 296              	.LVL40:
 297 0028 0020     		movs	r0, #0
 298 002a FFF7FEFF 		bl	PWM_MOTOR_RIGHT_WriteCompare2
 299              	.LVL41:
 300 002e 10BD     		pop	{r4, pc}
 301              	.LVL42:
 302              	.L28:
 356:.\car.c       ****     else
 357:.\car.c       ****          {PWM_MOTOR_RIGHT_WriteCompare1(0);PWM_MOTOR_RIGHT_WriteCompare2(0);}
 303              		.loc 1 357 0
 304 0030 0020     		movs	r0, #0
 305 0032 FFF7FEFF 		bl	PWM_MOTOR_RIGHT_WriteCompare1
 306              	.LVL43:
 307 0036 0020     		movs	r0, #0
 308 0038 FFF7FEFF 		bl	PWM_MOTOR_RIGHT_WriteCompare2
 309              	.LVL44:
 310 003c 10BD     		pop	{r4, pc}
 311              		.cfi_endproc
 312              	.LFE80:
 313              		.size	Set_Right_Behind_Speed_Turn, .-Set_Right_Behind_Speed_Turn
 314 003e 00BF     		.section	.text.Command_Car_UP,"ax",%progbits
 315              		.align	2
 316              		.thumb
 317              		.thumb_func
 318              		.type	Command_Car_UP, %function
 319              	Command_Car_UP:
 320              	.LFB73:
 277:.\car.c       ****   Set_Left_Front_Speed_Turn  (speed,FORWARD);
 321              		.loc 1 277 0
 322              		.cfi_startproc
 323              		@ args = 0, pretend = 0, frame = 0
 324              		@ frame_needed = 0, uses_anonymous_args = 0
 325              	.LVL45:
 326 0000 10B5     		push	{r4, lr}
ARM GAS  C:\Users\PANXIA~1\AppData\Local\Temp\cc2dPqlu.s 			page 13


 327              		.cfi_def_cfa_offset 8
 328              		.cfi_offset 4, -8
 329              		.cfi_offset 14, -4
 330 0002 0446     		mov	r4, r0
 278:.\car.c       ****   Set_Left_Behind_Speed_Turn (speed,FORWARD);
 331              		.loc 1 278 0
 332 0004 0021     		movs	r1, #0
 333 0006 FFF7FEFF 		bl	Set_Left_Front_Speed_Turn
 334              	.LVL46:
 279:.\car.c       ****   Set_Right_Behind_Speed_Turn(speed,FORWARD);
 335              		.loc 1 279 0
 336 000a 2046     		mov	r0, r4
 337 000c 0021     		movs	r1, #0
 338 000e FFF7FEFF 		bl	Set_Left_Behind_Speed_Turn
 339              	.LVL47:
 280:.\car.c       ****   Set_Right_Behind_Speed_Turn(speed,FORWARD);
 340              		.loc 1 280 0
 341 0012 2046     		mov	r0, r4
 342 0014 0021     		movs	r1, #0
 343 0016 FFF7FEFF 		bl	Set_Right_Behind_Speed_Turn
 344              	.LVL48:
 281:.\car.c       **** }
 345              		.loc 1 281 0
 346 001a 2046     		mov	r0, r4
 347 001c 0021     		movs	r1, #0
 348 001e FFF7FEFF 		bl	Set_Right_Behind_Speed_Turn
 349              	.LVL49:
 350 0022 10BD     		pop	{r4, pc}
 351              		.cfi_endproc
 352              	.LFE73:
 353              		.size	Command_Car_UP, .-Command_Car_UP
 354              		.section	.text.Command_Car_Down,"ax",%progbits
 355              		.align	2
 356              		.thumb
 357              		.thumb_func
 358              		.type	Command_Car_Down, %function
 359              	Command_Car_Down:
 360              	.LFB72:
 268:.\car.c       ****   Set_Left_Front_Speed_Turn(speed,REVERSAL);
 361              		.loc 1 268 0
 362              		.cfi_startproc
 363              		@ args = 0, pretend = 0, frame = 0
 364              		@ frame_needed = 0, uses_anonymous_args = 0
 365              	.LVL50:
 366 0000 10B5     		push	{r4, lr}
 367              		.cfi_def_cfa_offset 8
 368              		.cfi_offset 4, -8
 369              		.cfi_offset 14, -4
 370 0002 0446     		mov	r4, r0
 269:.\car.c       ****   Set_Left_Behind_Speed_Turn(speed,REVERSAL);
 371              		.loc 1 269 0
 372 0004 0121     		movs	r1, #1
 373 0006 FFF7FEFF 		bl	Set_Left_Front_Speed_Turn
 374              	.LVL51:
 270:.\car.c       ****   Set_Right_Behind_Speed_Turn(speed,REVERSAL);
 375              		.loc 1 270 0
 376 000a 2046     		mov	r0, r4
ARM GAS  C:\Users\PANXIA~1\AppData\Local\Temp\cc2dPqlu.s 			page 14


 377 000c 0121     		movs	r1, #1
 378 000e FFF7FEFF 		bl	Set_Left_Behind_Speed_Turn
 379              	.LVL52:
 271:.\car.c       ****   Set_Right_Behind_Speed_Turn(speed,REVERSAL);
 380              		.loc 1 271 0
 381 0012 2046     		mov	r0, r4
 382 0014 0121     		movs	r1, #1
 383 0016 FFF7FEFF 		bl	Set_Right_Behind_Speed_Turn
 384              	.LVL53:
 272:.\car.c       **** 
 385              		.loc 1 272 0
 386 001a 2046     		mov	r0, r4
 387 001c 0121     		movs	r1, #1
 388 001e FFF7FEFF 		bl	Set_Right_Behind_Speed_Turn
 389              	.LVL54:
 390 0022 10BD     		pop	{r4, pc}
 391              		.cfi_endproc
 392              	.LFE72:
 393              		.size	Command_Car_Down, .-Command_Car_Down
 394              		.section	.text.Car_init,"ax",%progbits
 395              		.align	2
 396              		.global	Car_init
 397              		.thumb
 398              		.thumb_func
 399              		.type	Car_init, %function
 400              	Car_init:
 401              	.LFB63:
  32:.\car.c       ****     
 402              		.loc 1 32 0
 403              		.cfi_startproc
 404              		@ args = 0, pretend = 0, frame = 0
 405              		@ frame_needed = 0, uses_anonymous_args = 0
 406 0000 08B5     		push	{r3, lr}
 407              		.cfi_def_cfa_offset 8
 408              		.cfi_offset 3, -8
 409              		.cfi_offset 14, -4
  34:.\car.c       ****     g_Car.systeminfo.software_ver = 110;
 410              		.loc 1 34 0
 411 0002 144B     		ldr	r3, .L37
 412 0004 4FF4CD72 		mov	r2, #410
 413 0008 A3F84C20 		strh	r2, [r3, #76]	@ movhi
  35:.\car.c       ****     
 414              		.loc 1 35 0
 415 000c 6E22     		movs	r2, #110
 416 000e A3F84E20 		strh	r2, [r3, #78]	@ movhi
  37:.\car.c       ****     g_Car.set_car_speed = 990;
 417              		.loc 1 37 0
 418 0012 0822     		movs	r2, #8
 419 0014 1A71     		strb	r2, [r3, #4]
  38:.\car.c       ****     g_Car.set_dir = STOP;
 420              		.loc 1 38 0
 421 0016 40F2DE31 		movw	r1, #990
 422 001a D980     		strh	r1, [r3, #6]	@ movhi
  39:.\car.c       ****     g_Car.set_ptz_dir = STOP;  
 423              		.loc 1 39 0
 424 001c 9A70     		strb	r2, [r3, #2]
  40:.\car.c       ****     g_Car.set_push_dir = STOP;
ARM GAS  C:\Users\PANXIA~1\AppData\Local\Temp\cc2dPqlu.s 			page 15


 425              		.loc 1 40 0
 426 001e DA70     		strb	r2, [r3, #3]
  41:.\car.c       ****     PTZ_UP_EN_Write(1);
 427              		.loc 1 41 0
 428 0020 5A71     		strb	r2, [r3, #5]
  42:.\car.c       ****     PTZ_UP_DIR_Write(0);
 429              		.loc 1 42 0
 430 0022 0120     		movs	r0, #1
 431 0024 FFF7FEFF 		bl	PTZ_UP_EN_Write
 432              	.LVL55:
  43:.\car.c       ****     PTZ_UP_STEP_Write(0); 
 433              		.loc 1 43 0
 434 0028 0020     		movs	r0, #0
 435 002a FFF7FEFF 		bl	PTZ_UP_DIR_Write
 436              	.LVL56:
  44:.\car.c       ****     PTZ_DOWN_EN_Write(1);
 437              		.loc 1 44 0
 438 002e 0020     		movs	r0, #0
 439 0030 FFF7FEFF 		bl	PTZ_UP_STEP_Write
 440              	.LVL57:
  45:.\car.c       ****     PTZ_DOWN_DIR_Write(0);
 441              		.loc 1 45 0
 442 0034 0120     		movs	r0, #1
 443 0036 FFF7FEFF 		bl	PTZ_DOWN_EN_Write
 444              	.LVL58:
  46:.\car.c       ****     PTZ_DOWN_STEP_Write(0);
 445              		.loc 1 46 0
 446 003a 0020     		movs	r0, #0
 447 003c FFF7FEFF 		bl	PTZ_DOWN_DIR_Write
 448              	.LVL59:
  47:.\car.c       ****     
 449              		.loc 1 47 0
 450 0040 0020     		movs	r0, #0
 451 0042 FFF7FEFF 		bl	PTZ_DOWN_STEP_Write
 452              	.LVL60:
  49:.\car.c       ****     PWM_RIGHT_EN_Write(1);
 453              		.loc 1 49 0
 454 0046 0120     		movs	r0, #1
 455 0048 FFF7FEFF 		bl	PWM_LEFT_EN_Write
 456              	.LVL61:
  50:.\car.c       **** 
 457              		.loc 1 50 0
 458 004c 0120     		movs	r0, #1
 459 004e FFF7FEFF 		bl	PWM_RIGHT_EN_Write
 460              	.LVL62:
 461 0052 08BD     		pop	{r3, pc}
 462              	.L38:
 463              		.align	2
 464              	.L37:
 465 0054 00000000 		.word	g_Car
 466              		.cfi_endproc
 467              	.LFE63:
 468              		.size	Car_init, .-Car_init
 469              		.section	.text.board_test,"ax",%progbits
 470              		.align	2
 471              		.global	board_test
 472              		.thumb
ARM GAS  C:\Users\PANXIA~1\AppData\Local\Temp\cc2dPqlu.s 			page 16


 473              		.thumb_func
 474              		.type	board_test, %function
 475              	board_test:
 476              	.LFB64:
  54:.\car.c       ****     
 477              		.loc 1 54 0
 478              		.cfi_startproc
 479              		@ args = 0, pretend = 0, frame = 0
 480              		@ frame_needed = 0, uses_anonymous_args = 0
 481 0000 08B5     		push	{r3, lr}
 482              		.cfi_def_cfa_offset 8
 483              		.cfi_offset 3, -8
 484              		.cfi_offset 14, -4
  62:.\car.c       ****     }
 485              		.loc 1 62 0
 486 0002 0020     		movs	r0, #0
 487 0004 0146     		mov	r1, r0
 488 0006 FFF7FEFF 		bl	ptz_control
 489              	.LVL63:
  70:.\car.c       ****     }
 490              		.loc 1 70 0
 491 000a 0120     		movs	r0, #1
 492 000c 0021     		movs	r1, #0
 493 000e FFF7FEFF 		bl	ptz_control
 494              	.LVL64:
 495 0012 08BD     		pop	{r3, pc}
 496              		.cfi_endproc
 497              	.LFE64:
 498              		.size	board_test, .-board_test
 499              		.section	.text.Car_Hearting_Loop,"ax",%progbits
 500              		.align	2
 501              		.global	Car_Hearting_Loop
 502              		.thumb
 503              		.thumb_func
 504              		.type	Car_Hearting_Loop, %function
 505              	Car_Hearting_Loop:
 506              	.LFB66:
 108:.\car.c       ****     if(g_Car.hearting ==  1   )
 507              		.loc 1 108 0
 508              		.cfi_startproc
 509              		@ args = 0, pretend = 0, frame = 0
 510              		@ frame_needed = 0, uses_anonymous_args = 0
 511              		@ link register save eliminated.
 109:.\car.c       ****     {
 512              		.loc 1 109 0
 513 0000 074B     		ldr	r3, .L44
 514 0002 93F82030 		ldrb	r3, [r3, #32]	@ zero_extendqisi2
 515 0006 012B     		cmp	r3, #1
 516 0008 05D1     		bne	.L42
 111:.\car.c       ****         g_Car.error = 0;
 517              		.loc 1 111 0
 518 000a 054B     		ldr	r3, .L44
 519 000c 0022     		movs	r2, #0
 520 000e 83F82020 		strb	r2, [r3, #32]
 112:.\car.c       ****     }
 521              		.loc 1 112 0
 522 0012 5A70     		strb	r2, [r3, #1]
ARM GAS  C:\Users\PANXIA~1\AppData\Local\Temp\cc2dPqlu.s 			page 17


 523 0014 7047     		bx	lr
 524              	.L42:
 116:.\car.c       ****     }  
 525              		.loc 1 116 0
 526 0016 0122     		movs	r2, #1
 527 0018 014B     		ldr	r3, .L44
 528 001a 5A70     		strb	r2, [r3, #1]
 529 001c 7047     		bx	lr
 530              	.L45:
 531 001e 00BF     		.align	2
 532              	.L44:
 533 0020 00000000 		.word	g_Car
 534              		.cfi_endproc
 535              	.LFE66:
 536              		.size	Car_Hearting_Loop, .-Car_Hearting_Loop
 537              		.section	.text.Car_PTZ_DIR,"ax",%progbits
 538              		.align	2
 539              		.global	Car_PTZ_DIR
 540              		.thumb
 541              		.thumb_func
 542              		.type	Car_PTZ_DIR, %function
 543              	Car_PTZ_DIR:
 544              	.LFB67:
 120:.\car.c       ****     if(car.set_ptz_dir == UP)
 545              		.loc 1 120 0
 546              		.cfi_startproc
 547              		@ args = 96, pretend = 16, frame = 0
 548              		@ frame_needed = 0, uses_anonymous_args = 0
 549 0000 84B0     		sub	sp, sp, #16
 550              		.cfi_def_cfa_offset 16
 551 0002 08B5     		push	{r3, lr}
 552              		.cfi_def_cfa_offset 24
 553              		.cfi_offset 3, -24
 554              		.cfi_offset 14, -20
 555 0004 0DF1080E 		add	lr, sp, #8
 556 0008 8EE80F00 		stmia	lr, {r0, r1, r2, r3}
 121:.\car.c       ****     {
 557              		.loc 1 121 0
 558 000c 9DF80B30 		ldrb	r3, [sp, #11]	@ zero_extendqisi2
 559 0010 23B9     		cbnz	r3, .L47
 123:.\car.c       ****     }
 560              		.loc 1 123 0
 561 0012 0020     		movs	r0, #0
 562 0014 0121     		movs	r1, #1
 563 0016 FFF7FEFF 		bl	ptz_control
 564              	.LVL65:
 565 001a 1CE0     		b	.L46
 566              	.L47:
 125:.\car.c       ****     {
 567              		.loc 1 125 0
 568 001c 012B     		cmp	r3, #1
 569 001e 04D1     		bne	.L49
 127:.\car.c       ****     }
 570              		.loc 1 127 0
 571 0020 0020     		movs	r0, #0
 572 0022 0146     		mov	r1, r0
 573 0024 FFF7FEFF 		bl	ptz_control
ARM GAS  C:\Users\PANXIA~1\AppData\Local\Temp\cc2dPqlu.s 			page 18


 574              	.LVL66:
 575 0028 15E0     		b	.L46
 576              	.L49:
 129:.\car.c       ****     {
 577              		.loc 1 129 0
 578 002a 022B     		cmp	r3, #2
 579 002c 04D1     		bne	.L50
 131:.\car.c       ****     }
 580              		.loc 1 131 0
 581 002e 0120     		movs	r0, #1
 582 0030 0146     		mov	r1, r0
 583 0032 FFF7FEFF 		bl	ptz_control
 584              	.LVL67:
 585 0036 0EE0     		b	.L46
 586              	.L50:
 133:.\car.c       ****     {
 587              		.loc 1 133 0
 588 0038 032B     		cmp	r3, #3
 589 003a 04D1     		bne	.L51
 135:.\car.c       ****     }
 590              		.loc 1 135 0
 591 003c 0120     		movs	r0, #1
 592 003e 0021     		movs	r1, #0
 593 0040 FFF7FEFF 		bl	ptz_control
 594              	.LVL68:
 595 0044 07E0     		b	.L46
 596              	.L51:
 139:.\car.c       ****         ptz_control(1,WHEEL_STOP);
 597              		.loc 1 139 0
 598 0046 0020     		movs	r0, #0
 599 0048 0221     		movs	r1, #2
 600 004a FFF7FEFF 		bl	ptz_control
 601              	.LVL69:
 140:.\car.c       ****     }
 602              		.loc 1 140 0
 603 004e 0120     		movs	r0, #1
 604 0050 0221     		movs	r1, #2
 605 0052 FFF7FEFF 		bl	ptz_control
 606              	.LVL70:
 607              	.L46:
 142:.\car.c       **** void Car_PUSH_DIR(S_CAR car)
 608              		.loc 1 142 0
 609 0056 BDE80840 		pop	{r3, lr}
 610              		.cfi_restore 14
 611              		.cfi_restore 3
 612              		.cfi_def_cfa_offset 16
 613 005a 04B0     		add	sp, sp, #16
 614              		.cfi_def_cfa_offset 0
 615 005c 7047     		bx	lr
 616              		.cfi_endproc
 617              	.LFE67:
 618              		.size	Car_PTZ_DIR, .-Car_PTZ_DIR
 619 005e 00BF     		.section	.text.Car_PUSH_DIR,"ax",%progbits
 620              		.align	2
 621              		.global	Car_PUSH_DIR
 622              		.thumb
 623              		.thumb_func
ARM GAS  C:\Users\PANXIA~1\AppData\Local\Temp\cc2dPqlu.s 			page 19


 624              		.type	Car_PUSH_DIR, %function
 625              	Car_PUSH_DIR:
 626              	.LFB68:
 144:.\car.c       ****     static uint8 togle_flag = 0;
 627              		.loc 1 144 0
 628              		.cfi_startproc
 629              		@ args = 96, pretend = 16, frame = 0
 630              		@ frame_needed = 0, uses_anonymous_args = 0
 631 0000 84B0     		sub	sp, sp, #16
 632              		.cfi_def_cfa_offset 16
 633 0002 08B5     		push	{r3, lr}
 634              		.cfi_def_cfa_offset 24
 635              		.cfi_offset 3, -24
 636              		.cfi_offset 14, -20
 637 0004 0DF1080E 		add	lr, sp, #8
 638 0008 8EE80F00 		stmia	lr, {r0, r1, r2, r3}
 147:.\car.c       ****     {
 639              		.loc 1 147 0
 640 000c 9DF80D30 		ldrb	r3, [sp, #13]	@ zero_extendqisi2
 641 0010 B3B9     		cbnz	r3, .L54
 149:.\car.c       ****         PUSH_DIR_Write(REVERSAL);
 642              		.loc 1 149 0
 643 0012 0020     		movs	r0, #0
 644 0014 FFF7FEFF 		bl	PUSH_EN_Write
 645              	.LVL71:
 150:.\car.c       ****         if(togle_flag == 0)
 646              		.loc 1 150 0
 647 0018 0120     		movs	r0, #1
 648 001a FFF7FEFF 		bl	PUSH_DIR_Write
 649              	.LVL72:
 151:.\car.c       ****         {
 650              		.loc 1 151 0
 651 001e 184B     		ldr	r3, .L60
 652 0020 9B78     		ldrb	r3, [r3, #2]	@ zero_extendqisi2
 653 0022 33B9     		cbnz	r3, .L55
 153:.\car.c       ****             togle_flag = 1;
 654              		.loc 1 153 0
 655 0024 0120     		movs	r0, #1
 656 0026 FFF7FEFF 		bl	PUSH_STEP_Write
 657              	.LVL73:
 154:.\car.c       ****         }
 658              		.loc 1 154 0
 659 002a 0122     		movs	r2, #1
 660 002c 144B     		ldr	r3, .L60
 661 002e 9A70     		strb	r2, [r3, #2]
 662 0030 22E0     		b	.L53
 663              	.L55:
 158:.\car.c       ****             togle_flag = 0;
 664              		.loc 1 158 0
 665 0032 0020     		movs	r0, #0
 666 0034 FFF7FEFF 		bl	PUSH_STEP_Write
 667              	.LVL74:
 159:.\car.c       ****         }
 668              		.loc 1 159 0
 669 0038 0022     		movs	r2, #0
 670 003a 114B     		ldr	r3, .L60
 671 003c 9A70     		strb	r2, [r3, #2]
ARM GAS  C:\Users\PANXIA~1\AppData\Local\Temp\cc2dPqlu.s 			page 20


 672 003e 1BE0     		b	.L53
 673              	.L54:
 162:.\car.c       ****     {
 674              		.loc 1 162 0
 675 0040 012B     		cmp	r3, #1
 676 0042 16D1     		bne	.L57
 164:.\car.c       ****         PUSH_DIR_Write(FORWARD);
 677              		.loc 1 164 0
 678 0044 0020     		movs	r0, #0
 679 0046 FFF7FEFF 		bl	PUSH_EN_Write
 680              	.LVL75:
 165:.\car.c       ****         if(togle_flag == 0)
 681              		.loc 1 165 0
 682 004a 0020     		movs	r0, #0
 683 004c FFF7FEFF 		bl	PUSH_DIR_Write
 684              	.LVL76:
 166:.\car.c       ****         {
 685              		.loc 1 166 0
 686 0050 0B4B     		ldr	r3, .L60
 687 0052 9B78     		ldrb	r3, [r3, #2]	@ zero_extendqisi2
 688 0054 33B9     		cbnz	r3, .L58
 168:.\car.c       ****           
 689              		.loc 1 168 0
 690 0056 0120     		movs	r0, #1
 691 0058 FFF7FEFF 		bl	PUSH_STEP_Write
 692              	.LVL77:
 170:.\car.c       ****         }
 693              		.loc 1 170 0
 694 005c 0122     		movs	r2, #1
 695 005e 084B     		ldr	r3, .L60
 696 0060 9A70     		strb	r2, [r3, #2]
 697 0062 09E0     		b	.L53
 698              	.L58:
 174:.\car.c       ****             togle_flag = 0;
 699              		.loc 1 174 0
 700 0064 0020     		movs	r0, #0
 701 0066 FFF7FEFF 		bl	PUSH_STEP_Write
 702              	.LVL78:
 175:.\car.c       ****         } 
 703              		.loc 1 175 0
 704 006a 0022     		movs	r2, #0
 705 006c 044B     		ldr	r3, .L60
 706 006e 9A70     		strb	r2, [r3, #2]
 707 0070 02E0     		b	.L53
 708              	.L57:
 180:.\car.c       ****     }
 709              		.loc 1 180 0
 710 0072 0120     		movs	r0, #1
 711 0074 FFF7FEFF 		bl	PUSH_EN_Write
 712              	.LVL79:
 713              	.L53:
 184:.\car.c       **** void ptz_control(uint8 choose,enum WHEEL_DIR dir)
 714              		.loc 1 184 0
 715 0078 BDE80840 		pop	{r3, lr}
 716              		.cfi_restore 14
 717              		.cfi_restore 3
 718              		.cfi_def_cfa_offset 16
ARM GAS  C:\Users\PANXIA~1\AppData\Local\Temp\cc2dPqlu.s 			page 21


 719 007c 04B0     		add	sp, sp, #16
 720              		.cfi_def_cfa_offset 0
 721 007e 7047     		bx	lr
 722              	.L61:
 723              		.align	2
 724              	.L60:
 725 0080 00000000 		.word	.LANCHOR0
 726              		.cfi_endproc
 727              	.LFE68:
 728              		.size	Car_PUSH_DIR, .-Car_PUSH_DIR
 729              		.section	.text.Command_Car_Left,"ax",%progbits
 730              		.align	2
 731              		.global	Command_Car_Left
 732              		.thumb
 733              		.thumb_func
 734              		.type	Command_Car_Left, %function
 735              	Command_Car_Left:
 736              	.LFB74:
 285:.\car.c       ****   Set_Left_Front_Speed_Turn  (speed/2,FORWARD);
 737              		.loc 1 285 0
 738              		.cfi_startproc
 739              		@ args = 0, pretend = 0, frame = 0
 740              		@ frame_needed = 0, uses_anonymous_args = 0
 741              	.LVL80:
 742 0000 38B5     		push	{r3, r4, r5, lr}
 743              		.cfi_def_cfa_offset 16
 744              		.cfi_offset 3, -16
 745              		.cfi_offset 4, -12
 746              		.cfi_offset 5, -8
 747              		.cfi_offset 14, -4
 748 0002 0446     		mov	r4, r0
 286:.\car.c       ****   Set_Left_Behind_Speed_Turn (speed/2,FORWARD);
 749              		.loc 1 286 0
 750 0004 4508     		lsrs	r5, r0, #1
 751 0006 2846     		mov	r0, r5
 752              	.LVL81:
 753 0008 0021     		movs	r1, #0
 754 000a FFF7FEFF 		bl	Set_Left_Front_Speed_Turn
 755              	.LVL82:
 287:.\car.c       ****   Set_Right_Behind_Speed_Turn(speed,REVERSAL);
 756              		.loc 1 287 0
 757 000e 2846     		mov	r0, r5
 758 0010 0021     		movs	r1, #0
 759 0012 FFF7FEFF 		bl	Set_Left_Behind_Speed_Turn
 760              	.LVL83:
 288:.\car.c       ****   Set_Right_Behind_Speed_Turn(speed,REVERSAL);
 761              		.loc 1 288 0
 762 0016 2046     		mov	r0, r4
 763 0018 0121     		movs	r1, #1
 764 001a FFF7FEFF 		bl	Set_Right_Behind_Speed_Turn
 765              	.LVL84:
 289:.\car.c       **** }
 766              		.loc 1 289 0
 767 001e 2046     		mov	r0, r4
 768 0020 0121     		movs	r1, #1
 769 0022 FFF7FEFF 		bl	Set_Right_Behind_Speed_Turn
 770              	.LVL85:
ARM GAS  C:\Users\PANXIA~1\AppData\Local\Temp\cc2dPqlu.s 			page 22


 771 0026 38BD     		pop	{r3, r4, r5, pc}
 772              		.cfi_endproc
 773              	.LFE74:
 774              		.size	Command_Car_Left, .-Command_Car_Left
 775              		.section	.text.Command_Car_Right,"ax",%progbits
 776              		.align	2
 777              		.global	Command_Car_Right
 778              		.thumb
 779              		.thumb_func
 780              		.type	Command_Car_Right, %function
 781              	Command_Car_Right:
 782              	.LFB75:
 293:.\car.c       ****   Set_Left_Front_Speed_Turn  (speed,REVERSAL);
 783              		.loc 1 293 0
 784              		.cfi_startproc
 785              		@ args = 0, pretend = 0, frame = 0
 786              		@ frame_needed = 0, uses_anonymous_args = 0
 787              	.LVL86:
 788 0000 10B5     		push	{r4, lr}
 789              		.cfi_def_cfa_offset 8
 790              		.cfi_offset 4, -8
 791              		.cfi_offset 14, -4
 792 0002 0446     		mov	r4, r0
 294:.\car.c       ****   Set_Left_Behind_Speed_Turn (speed,REVERSAL);
 793              		.loc 1 294 0
 794 0004 0121     		movs	r1, #1
 795 0006 FFF7FEFF 		bl	Set_Left_Front_Speed_Turn
 796              	.LVL87:
 295:.\car.c       ****   Set_Right_Behind_Speed_Turn(speed/2,FORWARD);
 797              		.loc 1 295 0
 798 000a 2046     		mov	r0, r4
 799 000c 0121     		movs	r1, #1
 800 000e FFF7FEFF 		bl	Set_Left_Behind_Speed_Turn
 801              	.LVL88:
 296:.\car.c       ****   Set_Right_Behind_Speed_Turn(speed/2,FORWARD);
 802              		.loc 1 296 0
 803 0012 6408     		lsrs	r4, r4, #1
 804 0014 2046     		mov	r0, r4
 805 0016 0021     		movs	r1, #0
 806 0018 FFF7FEFF 		bl	Set_Right_Behind_Speed_Turn
 807              	.LVL89:
 297:.\car.c       **** }
 808              		.loc 1 297 0
 809 001c 2046     		mov	r0, r4
 810 001e 0021     		movs	r1, #0
 811 0020 FFF7FEFF 		bl	Set_Right_Behind_Speed_Turn
 812              	.LVL90:
 813 0024 10BD     		pop	{r4, pc}
 814              		.cfi_endproc
 815              	.LFE75:
 816              		.size	Command_Car_Right, .-Command_Car_Right
 817 0026 00BF     		.section	.text.Command_Car_brake,"ax",%progbits
 818              		.align	2
 819              		.global	Command_Car_brake
 820              		.thumb
 821              		.thumb_func
 822              		.type	Command_Car_brake, %function
ARM GAS  C:\Users\PANXIA~1\AppData\Local\Temp\cc2dPqlu.s 			page 23


 823              	Command_Car_brake:
 824              	.LFB76:
 301:.\car.c       ****   Set_Left_Front_Speed_Turn  (0,WHEEL_STOP);
 825              		.loc 1 301 0
 826              		.cfi_startproc
 827              		@ args = 0, pretend = 0, frame = 0
 828              		@ frame_needed = 0, uses_anonymous_args = 0
 829 0000 08B5     		push	{r3, lr}
 830              		.cfi_def_cfa_offset 8
 831              		.cfi_offset 3, -8
 832              		.cfi_offset 14, -4
 302:.\car.c       ****   Set_Left_Behind_Speed_Turn (0,WHEEL_STOP);
 833              		.loc 1 302 0
 834 0002 0020     		movs	r0, #0
 835 0004 0221     		movs	r1, #2
 836 0006 FFF7FEFF 		bl	Set_Left_Front_Speed_Turn
 837              	.LVL91:
 303:.\car.c       ****   Set_Right_Behind_Speed_Turn(0,WHEEL_STOP);
 838              		.loc 1 303 0
 839 000a 0020     		movs	r0, #0
 840 000c 0221     		movs	r1, #2
 841 000e FFF7FEFF 		bl	Set_Left_Behind_Speed_Turn
 842              	.LVL92:
 304:.\car.c       ****   Set_Right_Behind_Speed_Turn(0,WHEEL_STOP);
 843              		.loc 1 304 0
 844 0012 0020     		movs	r0, #0
 845 0014 0221     		movs	r1, #2
 846 0016 FFF7FEFF 		bl	Set_Right_Behind_Speed_Turn
 847              	.LVL93:
 305:.\car.c       **** }
 848              		.loc 1 305 0
 849 001a 0020     		movs	r0, #0
 850 001c 0221     		movs	r1, #2
 851 001e FFF7FEFF 		bl	Set_Right_Behind_Speed_Turn
 852              	.LVL94:
 853 0022 08BD     		pop	{r3, pc}
 854              		.cfi_endproc
 855              	.LFE76:
 856              		.size	Command_Car_brake, .-Command_Car_brake
 857              		.section	.text.deal_break,"ax",%progbits
 858              		.align	2
 859              		.global	deal_break
 860              		.thumb
 861              		.thumb_func
 862              		.type	deal_break, %function
 863              	deal_break:
 864              	.LFB70:
 229:.\car.c       ****     static uint16 brake_time;
 865              		.loc 1 229 0
 866              		.cfi_startproc
 867              		@ args = 96, pretend = 16, frame = 0
 868              		@ frame_needed = 0, uses_anonymous_args = 0
 869 0000 84B0     		sub	sp, sp, #16
 870              		.cfi_def_cfa_offset 16
 871 0002 08B5     		push	{r3, lr}
 872              		.cfi_def_cfa_offset 24
 873              		.cfi_offset 3, -24
ARM GAS  C:\Users\PANXIA~1\AppData\Local\Temp\cc2dPqlu.s 			page 24


 874              		.cfi_offset 14, -20
 875 0004 0DF1080E 		add	lr, sp, #8
 876 0008 8EE80F00 		stmia	lr, {r0, r1, r2, r3}
 231:.\car.c       ****        brake_time++;
 877              		.loc 1 231 0
 878 000c FFF7FEFF 		bl	Command_Car_brake
 879              	.LVL95:
 232:.\car.c       ****        if(brake_time>20)
 880              		.loc 1 232 0
 881 0010 074A     		ldr	r2, .L72
 882 0012 9388     		ldrh	r3, [r2, #4]
 883 0014 0133     		adds	r3, r3, #1
 884 0016 9BB2     		uxth	r3, r3
 885 0018 9380     		strh	r3, [r2, #4]	@ movhi
 233:.\car.c       ****        {
 886              		.loc 1 233 0
 887 001a 142B     		cmp	r3, #20
 888 001c 02D9     		bls	.L70
 235:.\car.c       ****          car.pre_dir = car.set_dir;
 889              		.loc 1 235 0
 890 001e 0020     		movs	r0, #0
 891 0020 9080     		strh	r0, [r2, #4]	@ movhi
 237:.\car.c       ****        }
 892              		.loc 1 237 0
 893 0022 00E0     		b	.L69
 894              	.L70:
 239:.\car.c       **** }
 895              		.loc 1 239 0
 896 0024 0120     		movs	r0, #1
 897              	.L69:
 240:.\car.c       **** void Car_Dir(enum CAR_DIR car_dir,uint16 car_speed)
 898              		.loc 1 240 0
 899 0026 BDE80840 		pop	{r3, lr}
 900              		.cfi_restore 14
 901              		.cfi_restore 3
 902              		.cfi_def_cfa_offset 16
 903 002a 04B0     		add	sp, sp, #16
 904              		.cfi_def_cfa_offset 0
 905 002c 7047     		bx	lr
 906              	.L73:
 907 002e 00BF     		.align	2
 908              	.L72:
 909 0030 00000000 		.word	.LANCHOR0
 910              		.cfi_endproc
 911              	.LFE70:
 912              		.size	deal_break, .-deal_break
 913              		.section	.text.Car_Dir,"ax",%progbits
 914              		.align	2
 915              		.global	Car_Dir
 916              		.thumb
 917              		.thumb_func
 918              		.type	Car_Dir, %function
 919              	Car_Dir:
 920              	.LFB71:
 242:.\car.c       ****  
 921              		.loc 1 242 0
 922              		.cfi_startproc
ARM GAS  C:\Users\PANXIA~1\AppData\Local\Temp\cc2dPqlu.s 			page 25


 923              		@ args = 0, pretend = 0, frame = 0
 924              		@ frame_needed = 0, uses_anonymous_args = 0
 925              	.LVL96:
 926 0000 08B5     		push	{r3, lr}
 927              		.cfi_def_cfa_offset 8
 928              		.cfi_offset 3, -8
 929              		.cfi_offset 14, -4
 244:.\car.c       ****     {
 930              		.loc 1 244 0
 931 0002 18B9     		cbnz	r0, .L75
 247:.\car.c       ****     }
 932              		.loc 1 247 0
 933 0004 0846     		mov	r0, r1
 934              	.LVL97:
 935 0006 FFF7FEFF 		bl	Command_Car_UP
 936              	.LVL98:
 937 000a 08BD     		pop	{r3, pc}
 938              	.LVL99:
 939              	.L75:
 249:.\car.c       ****     {
 940              		.loc 1 249 0
 941 000c 0128     		cmp	r0, #1
 942 000e 03D1     		bne	.L77
 251:.\car.c       ****     }
 943              		.loc 1 251 0
 944 0010 0846     		mov	r0, r1
 945              	.LVL100:
 946 0012 FFF7FEFF 		bl	Command_Car_Down
 947              	.LVL101:
 948 0016 08BD     		pop	{r3, pc}
 949              	.LVL102:
 950              	.L77:
 253:.\car.c       ****     {
 951              		.loc 1 253 0
 952 0018 0228     		cmp	r0, #2
 953 001a 03D1     		bne	.L78
 255:.\car.c       ****     }
 954              		.loc 1 255 0
 955 001c 0846     		mov	r0, r1
 956              	.LVL103:
 957 001e FFF7FEFF 		bl	Command_Car_Left
 958              	.LVL104:
 959 0022 08BD     		pop	{r3, pc}
 960              	.LVL105:
 961              	.L78:
 257:.\car.c       ****     {
 962              		.loc 1 257 0
 963 0024 0328     		cmp	r0, #3
 964 0026 03D1     		bne	.L79
 259:.\car.c       ****     }
 965              		.loc 1 259 0
 966 0028 0846     		mov	r0, r1
 967              	.LVL106:
 968 002a FFF7FEFF 		bl	Command_Car_Right
 969              	.LVL107:
 970 002e 08BD     		pop	{r3, pc}
 971              	.LVL108:
ARM GAS  C:\Users\PANXIA~1\AppData\Local\Temp\cc2dPqlu.s 			page 26


 972              	.L79:
 261:.\car.c       ****     {
 973              		.loc 1 261 0
 974 0030 0828     		cmp	r0, #8
 975 0032 01D1     		bne	.L74
 263:.\car.c       ****     }
 976              		.loc 1 263 0
 977 0034 FFF7FEFF 		bl	Command_Car_brake
 978              	.LVL109:
 979              	.L74:
 980 0038 08BD     		pop	{r3, pc}
 981              		.cfi_endproc
 982              	.LFE71:
 983              		.size	Car_Dir, .-Car_Dir
 984 003a 00BF     		.section	.text.Car_Control_Loop,"ax",%progbits
 985              		.align	2
 986              		.global	Car_Control_Loop
 987              		.thumb
 988              		.thumb_func
 989              		.type	Car_Control_Loop, %function
 990              	Car_Control_Loop:
 991              	.LFB65:
  80:.\car.c       ****     if( g_Car.error == 0 )
 992              		.loc 1 80 0
 993              		.cfi_startproc
 994              		@ args = 0, pretend = 0, frame = 0
 995              		@ frame_needed = 0, uses_anonymous_args = 0
 996 0000 70B5     		push	{r4, r5, r6, lr}
 997              		.cfi_def_cfa_offset 16
 998              		.cfi_offset 4, -16
 999              		.cfi_offset 5, -12
 1000              		.cfi_offset 6, -8
 1001              		.cfi_offset 14, -4
 1002 0002 94B0     		sub	sp, sp, #80
 1003              		.cfi_def_cfa_offset 96
  81:.\car.c       ****     {
 1004              		.loc 1 81 0
 1005 0004 1D4B     		ldr	r3, .L86
 1006 0006 5B78     		ldrb	r3, [r3, #1]	@ zero_extendqisi2
 1007 0008 5BBB     		cbnz	r3, .L82
  83:.\car.c       ****         Car_PTZ_DIR(g_Car); 
 1008              		.loc 1 83 0
 1009 000a 1C4C     		ldr	r4, .L86
 1010 000c A078     		ldrb	r0, [r4, #2]	@ zero_extendqisi2
 1011 000e E188     		ldrh	r1, [r4, #6]
 1012 0010 FFF7FEFF 		bl	Car_Dir
 1013              	.LVL110:
  84:.\car.c       ****         Car_PUSH_DIR(g_Car);
 1014              		.loc 1 84 0
 1015 0014 04F11006 		add	r6, r4, #16
 1016 0018 5025     		movs	r5, #80
 1017 001a 6846     		mov	r0, sp
 1018 001c 3146     		mov	r1, r6
 1019 001e 2A46     		mov	r2, r5
 1020 0020 FFF7FEFF 		bl	memcpy
 1021              	.LVL111:
 1022 0024 94E80F00 		ldmia	r4, {r0, r1, r2, r3}
ARM GAS  C:\Users\PANXIA~1\AppData\Local\Temp\cc2dPqlu.s 			page 27


 1023 0028 FFF7FEFF 		bl	Car_PTZ_DIR
 1024              	.LVL112:
  85:.\car.c       ****         if(g_Car.liheqi == 1)
 1025              		.loc 1 85 0
 1026 002c 6846     		mov	r0, sp
 1027 002e 3146     		mov	r1, r6
 1028 0030 2A46     		mov	r2, r5
 1029 0032 FFF7FEFF 		bl	memcpy
 1030              	.LVL113:
 1031 0036 94E80F00 		ldmia	r4, {r0, r1, r2, r3}
 1032 003a FFF7FEFF 		bl	Car_PUSH_DIR
 1033              	.LVL114:
  86:.\car.c       ****         {
 1034              		.loc 1 86 0
 1035 003e 94F85430 		ldrb	r3, [r4, #84]	@ zero_extendqisi2
 1036 0042 012B     		cmp	r3, #1
 1037 0044 06D1     		bne	.L83
  88:.\car.c       ****             EM2_Write(1); 
 1038              		.loc 1 88 0
 1039 0046 0120     		movs	r0, #1
 1040 0048 FFF7FEFF 		bl	EM1_Write
 1041              	.LVL115:
  89:.\car.c       ****         }
 1042              		.loc 1 89 0
 1043 004c 0120     		movs	r0, #1
 1044 004e FFF7FEFF 		bl	EM2_Write
 1045              	.LVL116:
 1046 0052 11E0     		b	.L81
 1047              	.L83:
  93:.\car.c       ****             EM2_Write(0);
 1048              		.loc 1 93 0
 1049 0054 0020     		movs	r0, #0
 1050 0056 FFF7FEFF 		bl	EM1_Write
 1051              	.LVL117:
  94:.\car.c       ****         }
 1052              		.loc 1 94 0
 1053 005a 0020     		movs	r0, #0
 1054 005c FFF7FEFF 		bl	EM2_Write
 1055              	.LVL118:
 1056 0060 0AE0     		b	.L81
 1057              	.L82:
  99:.\car.c       ****         Command_Car_brake();
 1058              		.loc 1 99 0
 1059 0062 0822     		movs	r2, #8
 1060 0064 054B     		ldr	r3, .L86
 1061 0066 9A70     		strb	r2, [r3, #2]
 100:.\car.c       ****         EM1_Write(1);
 1062              		.loc 1 100 0
 1063 0068 FFF7FEFF 		bl	Command_Car_brake
 1064              	.LVL119:
 101:.\car.c       ****         EM2_Write(1);
 1065              		.loc 1 101 0
 1066 006c 0120     		movs	r0, #1
 1067 006e FFF7FEFF 		bl	EM1_Write
 1068              	.LVL120:
 102:.\car.c       ****     }
 1069              		.loc 1 102 0
ARM GAS  C:\Users\PANXIA~1\AppData\Local\Temp\cc2dPqlu.s 			page 28


 1070 0072 0120     		movs	r0, #1
 1071 0074 FFF7FEFF 		bl	EM2_Write
 1072              	.LVL121:
 1073              	.L81:
 106:.\car.c       **** void Car_Hearting_Loop()
 1074              		.loc 1 106 0
 1075 0078 14B0     		add	sp, sp, #80
 1076              		.cfi_def_cfa_offset 16
 1077              		@ sp needed
 1078 007a 70BD     		pop	{r4, r5, r6, pc}
 1079              	.L87:
 1080              		.align	2
 1081              	.L86:
 1082 007c 00000000 		.word	g_Car
 1083              		.cfi_endproc
 1084              	.LFE65:
 1085              		.size	Car_Control_Loop, .-Car_Control_Loop
 1086              		.comm	g_Car,96,4
 1087              		.bss
 1088              		.align	1
 1089              		.set	.LANCHOR0,. + 0
 1090              		.type	togle_flag_1.6836, %object
 1091              		.size	togle_flag_1.6836, 1
 1092              	togle_flag_1.6836:
 1093 0000 00       		.space	1
 1094              		.type	togle_flag_0.6837, %object
 1095              		.size	togle_flag_0.6837, 1
 1096              	togle_flag_0.6837:
 1097 0001 00       		.space	1
 1098              		.type	togle_flag.6831, %object
 1099              		.size	togle_flag.6831, 1
 1100              	togle_flag.6831:
 1101 0002 00       		.space	1
 1102 0003 00       		.space	1
 1103              		.type	brake_time.6841, %object
 1104              		.size	brake_time.6841, 2
 1105              	brake_time.6841:
 1106 0004 0000     		.space	2
 1107              		.text
 1108              	.Letext0:
 1109              		.file 2 "d:\\program files (x86)\\cypress\\psoc creator\\3.3\\psoc creator\\import\\gnu\\arm\\4.9.
 1110              		.file 3 "d:\\program files (x86)\\cypress\\psoc creator\\3.3\\psoc creator\\import\\gnu\\arm\\4.9.
 1111              		.file 4 "Generated_Source\\PSoC5/cytypes.h"
 1112              		.file 5 ".\\car.h"
 1113              		.file 6 "Generated_Source\\PSoC5/core_cm3.h"
 1114              		.file 7 "Generated_Source\\PSoC5/PTZ_UP_EN.h"
 1115              		.file 8 "Generated_Source\\PSoC5/PTZ_UP_DIR.h"
 1116              		.file 9 "Generated_Source\\PSoC5/PTZ_UP_STEP.h"
 1117              		.file 10 "Generated_Source\\PSoC5/PTZ_DOWN_EN.h"
 1118              		.file 11 "Generated_Source\\PSoC5/PTZ_DOWN_DIR.h"
 1119              		.file 12 "Generated_Source\\PSoC5/PTZ_DOWN_STEP.h"
 1120              		.file 13 "Generated_Source\\PSoC5/PWM_MOTOR_LEFT.h"
 1121              		.file 14 "Generated_Source\\PSoC5/PWM_MOTOR_RIGHT.h"
 1122              		.file 15 "Generated_Source\\PSoC5/PWM_LEFT_EN.h"
 1123              		.file 16 "Generated_Source\\PSoC5/PWM_RIGHT_EN.h"
 1124              		.file 17 "Generated_Source\\PSoC5/PUSH_EN.h"
 1125              		.file 18 "Generated_Source\\PSoC5/PUSH_DIR.h"
ARM GAS  C:\Users\PANXIA~1\AppData\Local\Temp\cc2dPqlu.s 			page 29


 1126              		.file 19 "Generated_Source\\PSoC5/PUSH_STEP.h"
 1127              		.file 20 "Generated_Source\\PSoC5/EM1.h"
 1128              		.file 21 "Generated_Source\\PSoC5/EM2.h"