ARM GAS  C:\Users\pxc\AppData\Local\Temp\ccBsIrat.s 			page 1


   1              		.syntax unified
   2              		.cpu cortex-m3
   3              		.fpu softvfp
   4              		.eabi_attribute 20, 1
   5              		.eabi_attribute 21, 1
   6              		.eabi_attribute 23, 3
   7              		.eabi_attribute 24, 1
   8              		.eabi_attribute 25, 1
   9              		.eabi_attribute 26, 1
  10              		.eabi_attribute 30, 1
  11              		.eabi_attribute 34, 1
  12              		.eabi_attribute 18, 4
  13              		.thumb
  14              		.file	"cyfitter_cfg.c"
  15              		.text
  16              	.Ltext0:
  17              		.cfi_sections	.debug_frame
  18              		.section	.text.cfg_write_bytes32,"ax",%progbits
  19              		.align	2
  20              		.thumb
  21              		.thumb_func
  22              		.type	cfg_write_bytes32, %function
  23              	cfg_write_bytes32:
  24              	.LFB3:
  25              		.file 1 ".\\Generated_Source\\PSoC5\\cyfitter_cfg.c"
   1:.\Generated_Source\PSoC5/cyfitter_cfg.c **** /*******************************************************************************
   2:.\Generated_Source\PSoC5/cyfitter_cfg.c **** * File Name: cyfitter_cfg.c
   3:.\Generated_Source\PSoC5/cyfitter_cfg.c **** * 
   4:.\Generated_Source\PSoC5/cyfitter_cfg.c **** * PSoC Creator  3.3
   5:.\Generated_Source\PSoC5/cyfitter_cfg.c **** *
   6:.\Generated_Source\PSoC5/cyfitter_cfg.c **** * Description:
   7:.\Generated_Source\PSoC5/cyfitter_cfg.c **** * This file contains device initialization code.
   8:.\Generated_Source\PSoC5/cyfitter_cfg.c **** * Except for the user defined sections in CyClockStartupError(), this file should not be modified.
   9:.\Generated_Source\PSoC5/cyfitter_cfg.c **** * This file is automatically generated by PSoC Creator.
  10:.\Generated_Source\PSoC5/cyfitter_cfg.c **** *
  11:.\Generated_Source\PSoC5/cyfitter_cfg.c **** ********************************************************************************
  12:.\Generated_Source\PSoC5/cyfitter_cfg.c **** * Copyright (c) 2007-2015 Cypress Semiconductor.  All rights reserved.
  13:.\Generated_Source\PSoC5/cyfitter_cfg.c **** * You may use this file only in accordance with the license, terms, conditions, 
  14:.\Generated_Source\PSoC5/cyfitter_cfg.c **** * disclaimers, and limitations in the end user license agreement accompanying 
  15:.\Generated_Source\PSoC5/cyfitter_cfg.c **** * the software package with which this file was provided.
  16:.\Generated_Source\PSoC5/cyfitter_cfg.c **** ********************************************************************************/
  17:.\Generated_Source\PSoC5/cyfitter_cfg.c **** 
  18:.\Generated_Source\PSoC5/cyfitter_cfg.c **** #include <string.h>
  19:.\Generated_Source\PSoC5/cyfitter_cfg.c **** #include "cytypes.h"
  20:.\Generated_Source\PSoC5/cyfitter_cfg.c **** #include "cydevice_trm.h"
  21:.\Generated_Source\PSoC5/cyfitter_cfg.c **** #include "cyfitter.h"
  22:.\Generated_Source\PSoC5/cyfitter_cfg.c **** #include "CyLib.h"
  23:.\Generated_Source\PSoC5/cyfitter_cfg.c **** #include "cyfitter_cfg.h"
  24:.\Generated_Source\PSoC5/cyfitter_cfg.c **** 
  25:.\Generated_Source\PSoC5/cyfitter_cfg.c **** 
  26:.\Generated_Source\PSoC5/cyfitter_cfg.c **** #if defined(__GNUC__) || defined(__ARMCC_VERSION)
  27:.\Generated_Source\PSoC5/cyfitter_cfg.c ****     #define CYPACKED 
  28:.\Generated_Source\PSoC5/cyfitter_cfg.c ****     #define CYPACKED_ATTR __attribute__ ((packed))
  29:.\Generated_Source\PSoC5/cyfitter_cfg.c ****     #define CYALIGNED __attribute__ ((aligned))
  30:.\Generated_Source\PSoC5/cyfitter_cfg.c ****     #define CY_CFG_UNUSED __attribute__ ((unused))
  31:.\Generated_Source\PSoC5/cyfitter_cfg.c ****     #define CY_CFG_SECTION __attribute__ ((section(".psocinit")))
  32:.\Generated_Source\PSoC5/cyfitter_cfg.c ****     
ARM GAS  C:\Users\pxc\AppData\Local\Temp\ccBsIrat.s 			page 2


  33:.\Generated_Source\PSoC5/cyfitter_cfg.c ****     #if defined(__ARMCC_VERSION)
  34:.\Generated_Source\PSoC5/cyfitter_cfg.c ****         #define CY_CFG_MEMORY_BARRIER() __memory_changed()
  35:.\Generated_Source\PSoC5/cyfitter_cfg.c ****     #else
  36:.\Generated_Source\PSoC5/cyfitter_cfg.c ****         #define CY_CFG_MEMORY_BARRIER() __sync_synchronize()
  37:.\Generated_Source\PSoC5/cyfitter_cfg.c ****     #endif
  38:.\Generated_Source\PSoC5/cyfitter_cfg.c ****     
  39:.\Generated_Source\PSoC5/cyfitter_cfg.c **** #elif defined(__ICCARM__)
  40:.\Generated_Source\PSoC5/cyfitter_cfg.c ****     #include <intrinsics.h>
  41:.\Generated_Source\PSoC5/cyfitter_cfg.c **** 
  42:.\Generated_Source\PSoC5/cyfitter_cfg.c ****     #define CYPACKED __packed
  43:.\Generated_Source\PSoC5/cyfitter_cfg.c ****     #define CYPACKED_ATTR 
  44:.\Generated_Source\PSoC5/cyfitter_cfg.c ****     #define CYALIGNED _Pragma("data_alignment=4")
  45:.\Generated_Source\PSoC5/cyfitter_cfg.c ****     #define CY_CFG_UNUSED _Pragma("diag_suppress=Pe177")
  46:.\Generated_Source\PSoC5/cyfitter_cfg.c ****     #define CY_CFG_SECTION _Pragma("location=\".psocinit\"")
  47:.\Generated_Source\PSoC5/cyfitter_cfg.c ****     
  48:.\Generated_Source\PSoC5/cyfitter_cfg.c ****     #define CY_CFG_MEMORY_BARRIER() __DMB()
  49:.\Generated_Source\PSoC5/cyfitter_cfg.c ****     
  50:.\Generated_Source\PSoC5/cyfitter_cfg.c **** #else
  51:.\Generated_Source\PSoC5/cyfitter_cfg.c ****     #error Unsupported toolchain
  52:.\Generated_Source\PSoC5/cyfitter_cfg.c **** #endif
  53:.\Generated_Source\PSoC5/cyfitter_cfg.c **** 
  54:.\Generated_Source\PSoC5/cyfitter_cfg.c **** 
  55:.\Generated_Source\PSoC5/cyfitter_cfg.c **** CY_CFG_UNUSED
  56:.\Generated_Source\PSoC5/cyfitter_cfg.c **** static void CYMEMZERO(void *s, size_t n);
  57:.\Generated_Source\PSoC5/cyfitter_cfg.c **** CY_CFG_UNUSED
  58:.\Generated_Source\PSoC5/cyfitter_cfg.c **** static void CYMEMZERO(void *s, size_t n)
  59:.\Generated_Source\PSoC5/cyfitter_cfg.c **** {
  60:.\Generated_Source\PSoC5/cyfitter_cfg.c **** 	(void)memset(s, 0, n);
  61:.\Generated_Source\PSoC5/cyfitter_cfg.c **** }
  62:.\Generated_Source\PSoC5/cyfitter_cfg.c **** CY_CFG_UNUSED
  63:.\Generated_Source\PSoC5/cyfitter_cfg.c **** static void CYCONFIGCPY(void *dest, const void *src, size_t n);
  64:.\Generated_Source\PSoC5/cyfitter_cfg.c **** CY_CFG_UNUSED
  65:.\Generated_Source\PSoC5/cyfitter_cfg.c **** static void CYCONFIGCPY(void *dest, const void *src, size_t n)
  66:.\Generated_Source\PSoC5/cyfitter_cfg.c **** {
  67:.\Generated_Source\PSoC5/cyfitter_cfg.c **** 	(void)memcpy(dest, src, n);
  68:.\Generated_Source\PSoC5/cyfitter_cfg.c **** }
  69:.\Generated_Source\PSoC5/cyfitter_cfg.c **** CY_CFG_UNUSED
  70:.\Generated_Source\PSoC5/cyfitter_cfg.c **** static void CYCONFIGCPYCODE(void *dest, const void *src, size_t n);
  71:.\Generated_Source\PSoC5/cyfitter_cfg.c **** CY_CFG_UNUSED
  72:.\Generated_Source\PSoC5/cyfitter_cfg.c **** static void CYCONFIGCPYCODE(void *dest, const void *src, size_t n)
  73:.\Generated_Source\PSoC5/cyfitter_cfg.c **** {
  74:.\Generated_Source\PSoC5/cyfitter_cfg.c **** 	(void)memcpy(dest, src, n);
  75:.\Generated_Source\PSoC5/cyfitter_cfg.c **** }
  76:.\Generated_Source\PSoC5/cyfitter_cfg.c **** 
  77:.\Generated_Source\PSoC5/cyfitter_cfg.c **** 
  78:.\Generated_Source\PSoC5/cyfitter_cfg.c **** 
  79:.\Generated_Source\PSoC5/cyfitter_cfg.c **** /* Clock startup error codes                                                   */
  80:.\Generated_Source\PSoC5/cyfitter_cfg.c **** #define CYCLOCKSTART_NO_ERROR    0u
  81:.\Generated_Source\PSoC5/cyfitter_cfg.c **** #define CYCLOCKSTART_XTAL_ERROR  1u
  82:.\Generated_Source\PSoC5/cyfitter_cfg.c **** #define CYCLOCKSTART_32KHZ_ERROR 2u
  83:.\Generated_Source\PSoC5/cyfitter_cfg.c **** #define CYCLOCKSTART_PLL_ERROR   3u
  84:.\Generated_Source\PSoC5/cyfitter_cfg.c **** 
  85:.\Generated_Source\PSoC5/cyfitter_cfg.c **** #ifdef CY_NEED_CYCLOCKSTARTUPERROR
  86:.\Generated_Source\PSoC5/cyfitter_cfg.c **** /*******************************************************************************
  87:.\Generated_Source\PSoC5/cyfitter_cfg.c **** * Function Name: CyClockStartupError
  88:.\Generated_Source\PSoC5/cyfitter_cfg.c **** ********************************************************************************
  89:.\Generated_Source\PSoC5/cyfitter_cfg.c **** * Summary:
ARM GAS  C:\Users\pxc\AppData\Local\Temp\ccBsIrat.s 			page 3


  90:.\Generated_Source\PSoC5/cyfitter_cfg.c **** *  If an error is encountered during clock configuration (crystal startup error,
  91:.\Generated_Source\PSoC5/cyfitter_cfg.c **** *  PLL lock error, etc.), the system will end up here.  Unless reimplemented by
  92:.\Generated_Source\PSoC5/cyfitter_cfg.c **** *  the customer, this function will stop in an infinite loop.
  93:.\Generated_Source\PSoC5/cyfitter_cfg.c **** *
  94:.\Generated_Source\PSoC5/cyfitter_cfg.c **** * Parameters:
  95:.\Generated_Source\PSoC5/cyfitter_cfg.c **** *   void
  96:.\Generated_Source\PSoC5/cyfitter_cfg.c **** *
  97:.\Generated_Source\PSoC5/cyfitter_cfg.c **** * Return:
  98:.\Generated_Source\PSoC5/cyfitter_cfg.c **** *   void
  99:.\Generated_Source\PSoC5/cyfitter_cfg.c **** *
 100:.\Generated_Source\PSoC5/cyfitter_cfg.c **** *******************************************************************************/
 101:.\Generated_Source\PSoC5/cyfitter_cfg.c **** CY_CFG_UNUSED
 102:.\Generated_Source\PSoC5/cyfitter_cfg.c **** static void CyClockStartupError(uint8 errorCode);
 103:.\Generated_Source\PSoC5/cyfitter_cfg.c **** CY_CFG_UNUSED
 104:.\Generated_Source\PSoC5/cyfitter_cfg.c **** static void CyClockStartupError(uint8 errorCode)
 105:.\Generated_Source\PSoC5/cyfitter_cfg.c **** {
 106:.\Generated_Source\PSoC5/cyfitter_cfg.c ****     /* To remove the compiler warning if errorCode not used.                */
 107:.\Generated_Source\PSoC5/cyfitter_cfg.c ****     errorCode = errorCode;
 108:.\Generated_Source\PSoC5/cyfitter_cfg.c **** 
 109:.\Generated_Source\PSoC5/cyfitter_cfg.c ****     /* `#START CyClockStartupError` */
 110:.\Generated_Source\PSoC5/cyfitter_cfg.c **** 
 111:.\Generated_Source\PSoC5/cyfitter_cfg.c ****     /* If we have a clock startup error (bad MHz crystal, PLL lock, etc.),  */
 112:.\Generated_Source\PSoC5/cyfitter_cfg.c ****     /* we will end up here to allow the customer to implement something to  */
 113:.\Generated_Source\PSoC5/cyfitter_cfg.c ****     /* deal with the clock condition.                                       */
 114:.\Generated_Source\PSoC5/cyfitter_cfg.c **** 
 115:.\Generated_Source\PSoC5/cyfitter_cfg.c ****     /* `#END` */
 116:.\Generated_Source\PSoC5/cyfitter_cfg.c **** 
 117:.\Generated_Source\PSoC5/cyfitter_cfg.c ****     /* If nothing else, stop here since the clocks have not started         */
 118:.\Generated_Source\PSoC5/cyfitter_cfg.c ****     /* correctly.                                                           */
 119:.\Generated_Source\PSoC5/cyfitter_cfg.c ****     while(1) {}
 120:.\Generated_Source\PSoC5/cyfitter_cfg.c **** }
 121:.\Generated_Source\PSoC5/cyfitter_cfg.c **** #endif
 122:.\Generated_Source\PSoC5/cyfitter_cfg.c **** 
 123:.\Generated_Source\PSoC5/cyfitter_cfg.c **** #define CY_CFG_BASE_ADDR_COUNT 43u
 124:.\Generated_Source\PSoC5/cyfitter_cfg.c **** CYPACKED typedef struct
 125:.\Generated_Source\PSoC5/cyfitter_cfg.c **** {
 126:.\Generated_Source\PSoC5/cyfitter_cfg.c **** 	uint8 offset;
 127:.\Generated_Source\PSoC5/cyfitter_cfg.c **** 	uint8 value;
 128:.\Generated_Source\PSoC5/cyfitter_cfg.c **** } CYPACKED_ATTR cy_cfg_addrvalue_t;
 129:.\Generated_Source\PSoC5/cyfitter_cfg.c **** 
 130:.\Generated_Source\PSoC5/cyfitter_cfg.c **** #define cy_cfg_addr_table ((const uint32 CYFAR *)0x48000000u)
 131:.\Generated_Source\PSoC5/cyfitter_cfg.c **** #define cy_cfg_data_table ((const cy_cfg_addrvalue_t CYFAR *)0x480000ACu)
 132:.\Generated_Source\PSoC5/cyfitter_cfg.c **** 
 133:.\Generated_Source\PSoC5/cyfitter_cfg.c **** /* UDB_1_4_1_CONFIG Address: CYDEV_UCFG_B0_P1_U0_BASE Size (bytes): 128 */
 134:.\Generated_Source\PSoC5/cyfitter_cfg.c **** #define BS_UDB_1_4_1_CONFIG_VAL ((const uint8 CYFAR *)0x48000FF0u)
 135:.\Generated_Source\PSoC5/cyfitter_cfg.c **** 
 136:.\Generated_Source\PSoC5/cyfitter_cfg.c **** /* UDB_0_5_1_CONFIG Address: CYDEV_UCFG_B0_P7_U1_BASE Size (bytes): 128 */
 137:.\Generated_Source\PSoC5/cyfitter_cfg.c **** #define BS_UDB_0_5_1_CONFIG_VAL ((const uint8 CYFAR *)0x48001070u)
 138:.\Generated_Source\PSoC5/cyfitter_cfg.c **** 
 139:.\Generated_Source\PSoC5/cyfitter_cfg.c **** /* IOPINS0_0 Address: CYREG_PRT0_DR Size (bytes): 10 */
 140:.\Generated_Source\PSoC5/cyfitter_cfg.c **** #define BS_IOPINS0_0_VAL ((const uint8 CYFAR *)0x480010F0u)
 141:.\Generated_Source\PSoC5/cyfitter_cfg.c **** 
 142:.\Generated_Source\PSoC5/cyfitter_cfg.c **** /* IOPINS0_7 Address: CYREG_PRT12_DR Size (bytes): 10 */
 143:.\Generated_Source\PSoC5/cyfitter_cfg.c **** #define BS_IOPINS0_7_VAL ((const uint8 CYFAR *)0x480010FCu)
 144:.\Generated_Source\PSoC5/cyfitter_cfg.c **** 
 145:.\Generated_Source\PSoC5/cyfitter_cfg.c **** /* IOPINS0_8 Address: CYREG_PRT15_DM0 Size (bytes): 8 */
 146:.\Generated_Source\PSoC5/cyfitter_cfg.c **** #define BS_IOPINS0_8_VAL ((const uint8 CYFAR *)0x48001108u)
ARM GAS  C:\Users\pxc\AppData\Local\Temp\ccBsIrat.s 			page 4


 147:.\Generated_Source\PSoC5/cyfitter_cfg.c **** 
 148:.\Generated_Source\PSoC5/cyfitter_cfg.c **** /* IOPINS0_1 Address: CYREG_PRT1_DR Size (bytes): 10 */
 149:.\Generated_Source\PSoC5/cyfitter_cfg.c **** #define BS_IOPINS0_1_VAL ((const uint8 CYFAR *)0x48001110u)
 150:.\Generated_Source\PSoC5/cyfitter_cfg.c **** 
 151:.\Generated_Source\PSoC5/cyfitter_cfg.c **** /* IOPINS0_2 Address: CYREG_PRT2_DR Size (bytes): 10 */
 152:.\Generated_Source\PSoC5/cyfitter_cfg.c **** #define BS_IOPINS0_2_VAL ((const uint8 CYFAR *)0x4800111Cu)
 153:.\Generated_Source\PSoC5/cyfitter_cfg.c **** 
 154:.\Generated_Source\PSoC5/cyfitter_cfg.c **** /* IOPINS0_3 Address: CYREG_PRT3_DR Size (bytes): 10 */
 155:.\Generated_Source\PSoC5/cyfitter_cfg.c **** #define BS_IOPINS0_3_VAL ((const uint8 CYFAR *)0x48001128u)
 156:.\Generated_Source\PSoC5/cyfitter_cfg.c **** 
 157:.\Generated_Source\PSoC5/cyfitter_cfg.c **** /* IOPINS0_4 Address: CYREG_PRT4_DR Size (bytes): 10 */
 158:.\Generated_Source\PSoC5/cyfitter_cfg.c **** #define BS_IOPINS0_4_VAL ((const uint8 CYFAR *)0x48001134u)
 159:.\Generated_Source\PSoC5/cyfitter_cfg.c **** 
 160:.\Generated_Source\PSoC5/cyfitter_cfg.c **** /* IOPINS0_5 Address: CYREG_PRT5_DR Size (bytes): 10 */
 161:.\Generated_Source\PSoC5/cyfitter_cfg.c **** #define BS_IOPINS0_5_VAL ((const uint8 CYFAR *)0x48001140u)
 162:.\Generated_Source\PSoC5/cyfitter_cfg.c **** 
 163:.\Generated_Source\PSoC5/cyfitter_cfg.c **** /* IOPINS0_6 Address: CYREG_PRT6_DR Size (bytes): 10 */
 164:.\Generated_Source\PSoC5/cyfitter_cfg.c **** #define BS_IOPINS0_6_VAL ((const uint8 CYFAR *)0x4800114Cu)
 165:.\Generated_Source\PSoC5/cyfitter_cfg.c **** 
 166:.\Generated_Source\PSoC5/cyfitter_cfg.c **** /* PHUB_CFGMEM1 Address: CYREG_PHUB_CFGMEM1_CFG0 Size (bytes): 4 */
 167:.\Generated_Source\PSoC5/cyfitter_cfg.c **** #define BS_PHUB_CFGMEM1_VAL ((const uint8 CYFAR *)0x48001158u)
 168:.\Generated_Source\PSoC5/cyfitter_cfg.c **** 
 169:.\Generated_Source\PSoC5/cyfitter_cfg.c **** 
 170:.\Generated_Source\PSoC5/cyfitter_cfg.c **** /*******************************************************************************
 171:.\Generated_Source\PSoC5/cyfitter_cfg.c **** * Function Name: cfg_write_bytes32
 172:.\Generated_Source\PSoC5/cyfitter_cfg.c **** ********************************************************************************
 173:.\Generated_Source\PSoC5/cyfitter_cfg.c **** * Summary:
 174:.\Generated_Source\PSoC5/cyfitter_cfg.c **** *  This function is used for setting up the chip configuration areas that
 175:.\Generated_Source\PSoC5/cyfitter_cfg.c **** *  contain relatively sparse data.
 176:.\Generated_Source\PSoC5/cyfitter_cfg.c **** *
 177:.\Generated_Source\PSoC5/cyfitter_cfg.c **** * Parameters:
 178:.\Generated_Source\PSoC5/cyfitter_cfg.c **** *   void
 179:.\Generated_Source\PSoC5/cyfitter_cfg.c **** *
 180:.\Generated_Source\PSoC5/cyfitter_cfg.c **** * Return:
 181:.\Generated_Source\PSoC5/cyfitter_cfg.c **** *   void
 182:.\Generated_Source\PSoC5/cyfitter_cfg.c **** *
 183:.\Generated_Source\PSoC5/cyfitter_cfg.c **** *******************************************************************************/
 184:.\Generated_Source\PSoC5/cyfitter_cfg.c **** static void cfg_write_bytes32(const uint32 addr_table[], const cy_cfg_addrvalue_t data_table[]);
 185:.\Generated_Source\PSoC5/cyfitter_cfg.c **** static void cfg_write_bytes32(const uint32 addr_table[], const cy_cfg_addrvalue_t data_table[])
 186:.\Generated_Source\PSoC5/cyfitter_cfg.c **** {
  26              		.loc 1 186 0
  27              		.cfi_startproc
  28              		@ args = 0, pretend = 0, frame = 0
  29              		@ frame_needed = 0, uses_anonymous_args = 0
  30              		@ link register save eliminated.
  31              	.LVL0:
  32 0000 F0B4     		push	{r4, r5, r6, r7}
  33              		.cfi_def_cfa_offset 16
  34              		.cfi_offset 4, -16
  35              		.cfi_offset 5, -12
  36              		.cfi_offset 6, -8
  37              		.cfi_offset 7, -4
  38              	.LVL1:
 187:.\Generated_Source\PSoC5/cyfitter_cfg.c **** 	/* For 32-bit little-endian architectures */
 188:.\Generated_Source\PSoC5/cyfitter_cfg.c **** 	uint32 i, j = 0u;
  39              		.loc 1 188 0
  40 0002 0022     		movs	r2, #0
ARM GAS  C:\Users\pxc\AppData\Local\Temp\ccBsIrat.s 			page 5


 189:.\Generated_Source\PSoC5/cyfitter_cfg.c **** 	for (i = 0u; i < CY_CFG_BASE_ADDR_COUNT; i++)
  41              		.loc 1 189 0
  42 0004 1746     		mov	r7, r2
  43 0006 11E0     		b	.L2
  44              	.LVL2:
  45              	.L5:
  46              	.LBB2:
 190:.\Generated_Source\PSoC5/cyfitter_cfg.c **** 	{
 191:.\Generated_Source\PSoC5/cyfitter_cfg.c **** 		uint32 baseAddr = addr_table[i];
  47              		.loc 1 191 0
  48 0008 50F82760 		ldr	r6, [r0, r7, lsl #2]
  49              	.LVL3:
 192:.\Generated_Source\PSoC5/cyfitter_cfg.c **** 		uint8 count = (uint8)baseAddr;
  50              		.loc 1 192 0
  51 000c F3B2     		uxtb	r3, r6
  52              	.LVL4:
 193:.\Generated_Source\PSoC5/cyfitter_cfg.c **** 		baseAddr &= 0xFFFFFF00u;
  53              		.loc 1 193 0
  54 000e 26F0FF06 		bic	r6, r6, #255
  55              	.LVL5:
 194:.\Generated_Source\PSoC5/cyfitter_cfg.c **** 		while (count != 0u)
  56              		.loc 1 194 0
  57 0012 08E0     		b	.L3
  58              	.L4:
 195:.\Generated_Source\PSoC5/cyfitter_cfg.c **** 		{
 196:.\Generated_Source\PSoC5/cyfitter_cfg.c **** 			CY_SET_XTND_REG8((void CYFAR *)(baseAddr + data_table[j].offset), data_table[j].value);
  59              		.loc 1 196 0
  60 0014 01EB4205 		add	r5, r1, r2, lsl #1
  61 0018 11F81240 		ldrb	r4, [r1, r2, lsl #1]	@ zero_extendqisi2
  62 001c 6D78     		ldrb	r5, [r5, #1]	@ zero_extendqisi2
  63 001e A555     		strb	r5, [r4, r6]
 197:.\Generated_Source\PSoC5/cyfitter_cfg.c **** 			j++;
  64              		.loc 1 197 0
  65 0020 0132     		adds	r2, r2, #1
  66              	.LVL6:
 198:.\Generated_Source\PSoC5/cyfitter_cfg.c **** 			count--;
  67              		.loc 1 198 0
  68 0022 013B     		subs	r3, r3, #1
  69              	.LVL7:
  70 0024 DBB2     		uxtb	r3, r3
  71              	.LVL8:
  72              	.L3:
 194:.\Generated_Source\PSoC5/cyfitter_cfg.c **** 		{
  73              		.loc 1 194 0
  74 0026 002B     		cmp	r3, #0
  75 0028 F4D1     		bne	.L4
  76              	.LBE2:
 189:.\Generated_Source\PSoC5/cyfitter_cfg.c **** 	{
  77              		.loc 1 189 0 discriminator 2
  78 002a 0137     		adds	r7, r7, #1
  79              	.LVL9:
  80              	.L2:
 189:.\Generated_Source\PSoC5/cyfitter_cfg.c **** 	{
  81              		.loc 1 189 0 is_stmt 0 discriminator 1
  82 002c 2A2F     		cmp	r7, #42
  83 002e EBD9     		bls	.L5
 199:.\Generated_Source\PSoC5/cyfitter_cfg.c **** 		}
ARM GAS  C:\Users\pxc\AppData\Local\Temp\ccBsIrat.s 			page 6


 200:.\Generated_Source\PSoC5/cyfitter_cfg.c **** 	}
 201:.\Generated_Source\PSoC5/cyfitter_cfg.c **** }
  84              		.loc 1 201 0 is_stmt 1
  85 0030 F0BC     		pop	{r4, r5, r6, r7}
  86              		.cfi_restore 7
  87              		.cfi_restore 6
  88              		.cfi_restore 5
  89              		.cfi_restore 4
  90              		.cfi_def_cfa_offset 0
  91              	.LVL10:
  92 0032 7047     		bx	lr
  93              		.cfi_endproc
  94              	.LFE3:
  95              		.size	cfg_write_bytes32, .-cfg_write_bytes32
  96              		.section	.text.AnalogSetDefault,"ax",%progbits
  97              		.align	2
  98              		.thumb
  99              		.thumb_func
 100              		.type	AnalogSetDefault, %function
 101              	AnalogSetDefault:
 102              	.LFB5:
 202:.\Generated_Source\PSoC5/cyfitter_cfg.c **** 
 203:.\Generated_Source\PSoC5/cyfitter_cfg.c **** /*******************************************************************************
 204:.\Generated_Source\PSoC5/cyfitter_cfg.c **** * Function Name: ClockSetup
 205:.\Generated_Source\PSoC5/cyfitter_cfg.c **** ********************************************************************************
 206:.\Generated_Source\PSoC5/cyfitter_cfg.c **** *
 207:.\Generated_Source\PSoC5/cyfitter_cfg.c **** * Summary:
 208:.\Generated_Source\PSoC5/cyfitter_cfg.c **** *  Performs the initialization of all of the clocks in the device based on the
 209:.\Generated_Source\PSoC5/cyfitter_cfg.c **** *  settings in the Clock tab of the DWR.  This includes enabling the requested
 210:.\Generated_Source\PSoC5/cyfitter_cfg.c **** *  clocks and setting the necessary dividers to produce the desired frequency. 
 211:.\Generated_Source\PSoC5/cyfitter_cfg.c **** *
 212:.\Generated_Source\PSoC5/cyfitter_cfg.c **** * Parameters:
 213:.\Generated_Source\PSoC5/cyfitter_cfg.c **** *  void
 214:.\Generated_Source\PSoC5/cyfitter_cfg.c **** *
 215:.\Generated_Source\PSoC5/cyfitter_cfg.c **** * Return:
 216:.\Generated_Source\PSoC5/cyfitter_cfg.c **** *  void
 217:.\Generated_Source\PSoC5/cyfitter_cfg.c **** *
 218:.\Generated_Source\PSoC5/cyfitter_cfg.c **** *******************************************************************************/
 219:.\Generated_Source\PSoC5/cyfitter_cfg.c **** static void ClockSetup(void);
 220:.\Generated_Source\PSoC5/cyfitter_cfg.c **** static void ClockSetup(void)
 221:.\Generated_Source\PSoC5/cyfitter_cfg.c **** {
 222:.\Generated_Source\PSoC5/cyfitter_cfg.c **** 	uint32 timeout;
 223:.\Generated_Source\PSoC5/cyfitter_cfg.c **** 	uint8 pllLock;
 224:.\Generated_Source\PSoC5/cyfitter_cfg.c **** 
 225:.\Generated_Source\PSoC5/cyfitter_cfg.c **** 
 226:.\Generated_Source\PSoC5/cyfitter_cfg.c **** 	/* Configure Digital Clocks based on settings from Clock DWR */
 227:.\Generated_Source\PSoC5/cyfitter_cfg.c **** 	CY_SET_XTND_REG16((void CYFAR *)(CYREG_CLKDIST_DCFG0_CFG0), 0x000Eu);
 228:.\Generated_Source\PSoC5/cyfitter_cfg.c **** 	CY_SET_XTND_REG8((void CYFAR *)(CYREG_CLKDIST_DCFG0_CFG0 + 0x2u), 0x18u);
 229:.\Generated_Source\PSoC5/cyfitter_cfg.c **** 	CY_SET_XTND_REG16((void CYFAR *)(CYREG_CLKDIST_DCFG1_CFG0), 0x0017u);
 230:.\Generated_Source\PSoC5/cyfitter_cfg.c **** 	CY_SET_XTND_REG8((void CYFAR *)(CYREG_CLKDIST_DCFG1_CFG0 + 0x2u), 0x18u);
 231:.\Generated_Source\PSoC5/cyfitter_cfg.c **** 	CY_SET_XTND_REG16((void CYFAR *)(CYREG_CLKDIST_DCFG2_CFG0), 0x0017u);
 232:.\Generated_Source\PSoC5/cyfitter_cfg.c **** 	CY_SET_XTND_REG8((void CYFAR *)(CYREG_CLKDIST_DCFG2_CFG0 + 0x2u), 0x18u);
 233:.\Generated_Source\PSoC5/cyfitter_cfg.c **** 	CY_SET_XTND_REG16((void CYFAR *)(CYREG_CLKDIST_DCFG3_CFG0), 0x0019u);
 234:.\Generated_Source\PSoC5/cyfitter_cfg.c **** 	CY_SET_XTND_REG8((void CYFAR *)(CYREG_CLKDIST_DCFG3_CFG0 + 0x2u), 0x18u);
 235:.\Generated_Source\PSoC5/cyfitter_cfg.c **** 	CY_SET_XTND_REG16((void CYFAR *)(CYREG_CLKDIST_DCFG4_CFG0), 0x0019u);
 236:.\Generated_Source\PSoC5/cyfitter_cfg.c **** 	CY_SET_XTND_REG8((void CYFAR *)(CYREG_CLKDIST_DCFG4_CFG0 + 0x2u), 0x18u);
 237:.\Generated_Source\PSoC5/cyfitter_cfg.c **** 
ARM GAS  C:\Users\pxc\AppData\Local\Temp\ccBsIrat.s 			page 7


 238:.\Generated_Source\PSoC5/cyfitter_cfg.c **** 	/* Configure ILO based on settings from Clock DWR */
 239:.\Generated_Source\PSoC5/cyfitter_cfg.c **** 	CY_SET_XTND_REG8((void CYFAR *)(CYREG_SLOWCLK_ILO_CR0), 0x02u);
 240:.\Generated_Source\PSoC5/cyfitter_cfg.c **** 	CY_SET_XTND_REG8((void CYFAR *)(CYREG_CLKDIST_CR), 0x08u);
 241:.\Generated_Source\PSoC5/cyfitter_cfg.c **** 
 242:.\Generated_Source\PSoC5/cyfitter_cfg.c **** 	/* Configure IMO based on settings from Clock DWR */
 243:.\Generated_Source\PSoC5/cyfitter_cfg.c **** 	CY_SET_XTND_REG8((void CYFAR *)(CYREG_FASTCLK_IMO_CR), 0x04u);
 244:.\Generated_Source\PSoC5/cyfitter_cfg.c **** 	CY_SET_XTND_REG8((void CYFAR *)(CYREG_IMO_TR1), (CY_GET_XTND_REG8((void CYFAR *)(CYREG_FLSHID_MFG_
 245:.\Generated_Source\PSoC5/cyfitter_cfg.c **** 
 246:.\Generated_Source\PSoC5/cyfitter_cfg.c **** 	/* Configure Bus/Master Clock based on settings from Clock DWR */
 247:.\Generated_Source\PSoC5/cyfitter_cfg.c **** 	CY_SET_XTND_REG16((void CYFAR *)(CYREG_CLKDIST_MSTR0), 0x0001u);
 248:.\Generated_Source\PSoC5/cyfitter_cfg.c **** 
 249:.\Generated_Source\PSoC5/cyfitter_cfg.c **** 	/* Configure PLL based on settings from Clock DWR */
 250:.\Generated_Source\PSoC5/cyfitter_cfg.c **** 	CY_SET_XTND_REG16((void CYFAR *)(CYREG_FASTCLK_PLL_P), 0x0F10u);
 251:.\Generated_Source\PSoC5/cyfitter_cfg.c **** 	CY_SET_XTND_REG16((void CYFAR *)(CYREG_FASTCLK_PLL_CFG0), 0x1251u);
 252:.\Generated_Source\PSoC5/cyfitter_cfg.c **** 	/* Wait up to 250us for the PLL to lock */
 253:.\Generated_Source\PSoC5/cyfitter_cfg.c **** 	pllLock = 0u;
 254:.\Generated_Source\PSoC5/cyfitter_cfg.c **** 	for (timeout = 250u / 10u; (timeout > 0u) && (pllLock != 0x03u); timeout--)
 255:.\Generated_Source\PSoC5/cyfitter_cfg.c **** 	{ 
 256:.\Generated_Source\PSoC5/cyfitter_cfg.c **** 		pllLock = 0x03u & ((uint8)((uint8)pllLock << 1) | ((CY_GET_XTND_REG8((void CYFAR *)CYREG_FASTCLK_
 257:.\Generated_Source\PSoC5/cyfitter_cfg.c **** 		CyDelayCycles(10u * 48u); /* Delay 10us based on 48MHz clock */
 258:.\Generated_Source\PSoC5/cyfitter_cfg.c **** 	}
 259:.\Generated_Source\PSoC5/cyfitter_cfg.c **** 	CY_SET_XTND_REG8((void CYFAR *)(CYREG_CLKDIST_MSTR0), 0x07u);
 260:.\Generated_Source\PSoC5/cyfitter_cfg.c **** 	CY_SET_XTND_REG8((void CYFAR *)(CYREG_CLKDIST_BCFG0), 0x00u);
 261:.\Generated_Source\PSoC5/cyfitter_cfg.c **** 	CY_SET_XTND_REG8((void CYFAR *)(CYREG_CLKDIST_BCFG2), 0x48u);
 262:.\Generated_Source\PSoC5/cyfitter_cfg.c **** 	CY_SET_XTND_REG8((void CYFAR *)(CYREG_CLKDIST_MSTR0), 0x01u);
 263:.\Generated_Source\PSoC5/cyfitter_cfg.c **** 	CY_SET_XTND_REG8((void CYFAR *)(CYREG_CLKDIST_LD), 0x02u);
 264:.\Generated_Source\PSoC5/cyfitter_cfg.c **** 
 265:.\Generated_Source\PSoC5/cyfitter_cfg.c **** 	CY_SET_XTND_REG8((void CYFAR *)(CYREG_PM_ACT_CFG2), ((CY_GET_XTND_REG8((void CYFAR *)CYREG_PM_ACT_
 266:.\Generated_Source\PSoC5/cyfitter_cfg.c **** }
 267:.\Generated_Source\PSoC5/cyfitter_cfg.c **** 
 268:.\Generated_Source\PSoC5/cyfitter_cfg.c **** 
 269:.\Generated_Source\PSoC5/cyfitter_cfg.c **** /* Analog API Functions */
 270:.\Generated_Source\PSoC5/cyfitter_cfg.c **** 
 271:.\Generated_Source\PSoC5/cyfitter_cfg.c **** 
 272:.\Generated_Source\PSoC5/cyfitter_cfg.c **** /*******************************************************************************
 273:.\Generated_Source\PSoC5/cyfitter_cfg.c **** * Function Name: AnalogSetDefault
 274:.\Generated_Source\PSoC5/cyfitter_cfg.c **** ********************************************************************************
 275:.\Generated_Source\PSoC5/cyfitter_cfg.c **** *
 276:.\Generated_Source\PSoC5/cyfitter_cfg.c **** * Summary:
 277:.\Generated_Source\PSoC5/cyfitter_cfg.c **** *  Sets up the analog portions of the chip to default values based on chip
 278:.\Generated_Source\PSoC5/cyfitter_cfg.c **** *  configuration options from the project.
 279:.\Generated_Source\PSoC5/cyfitter_cfg.c **** *
 280:.\Generated_Source\PSoC5/cyfitter_cfg.c **** * Parameters:
 281:.\Generated_Source\PSoC5/cyfitter_cfg.c **** *  void
 282:.\Generated_Source\PSoC5/cyfitter_cfg.c **** *
 283:.\Generated_Source\PSoC5/cyfitter_cfg.c **** * Return:
 284:.\Generated_Source\PSoC5/cyfitter_cfg.c **** *  void
 285:.\Generated_Source\PSoC5/cyfitter_cfg.c **** *
 286:.\Generated_Source\PSoC5/cyfitter_cfg.c **** *******************************************************************************/
 287:.\Generated_Source\PSoC5/cyfitter_cfg.c **** static void AnalogSetDefault(void);
 288:.\Generated_Source\PSoC5/cyfitter_cfg.c **** static void AnalogSetDefault(void)
 289:.\Generated_Source\PSoC5/cyfitter_cfg.c **** {
 103              		.loc 1 289 0
 104              		.cfi_startproc
 105              		@ args = 0, pretend = 0, frame = 0
 106              		@ frame_needed = 0, uses_anonymous_args = 0
 107              		@ link register save eliminated.
ARM GAS  C:\Users\pxc\AppData\Local\Temp\ccBsIrat.s 			page 8


 108 0000 70B4     		push	{r4, r5, r6}
 109              		.cfi_def_cfa_offset 12
 110              		.cfi_offset 4, -12
 111              		.cfi_offset 5, -8
 112              		.cfi_offset 6, -4
 290:.\Generated_Source\PSoC5/cyfitter_cfg.c **** 	uint8 bg_xover_inl_trim = CY_GET_XTND_REG8((void CYFAR *)(CYREG_FLSHID_MFG_CFG_BG_XOVER_INL_TRIM +
 113              		.loc 1 290 0
 114 0002 174B     		ldr	r3, .L9
 115 0004 1B78     		ldrb	r3, [r3]	@ zero_extendqisi2
 116 0006 DBB2     		uxtb	r3, r3
 117              	.LVL11:
 291:.\Generated_Source\PSoC5/cyfitter_cfg.c **** 	uint8 cr4 = CY_GET_XTND_REG8((void CYFAR *)(CYREG_RESET_CR4));
 118              		.loc 1 291 0
 119 0008 1648     		ldr	r0, .L9+4
 120 000a 0278     		ldrb	r2, [r0]	@ zero_extendqisi2
 121 000c D2B2     		uxtb	r2, r2
 122              	.LVL12:
 292:.\Generated_Source\PSoC5/cyfitter_cfg.c **** 	uint8 cr5 = CY_GET_XTND_REG8((void CYFAR *)(CYREG_RESET_CR5));
 123              		.loc 1 292 0
 124 000e 164C     		ldr	r4, .L9+8
 125 0010 2178     		ldrb	r1, [r4]	@ zero_extendqisi2
 126 0012 C9B2     		uxtb	r1, r1
 127              	.LVL13:
 293:.\Generated_Source\PSoC5/cyfitter_cfg.c **** 	CY_SET_XTND_REG8((void CYFAR *)(CYREG_BG_DFT0), (bg_xover_inl_trim & 0x07u));
 128              		.loc 1 293 0
 129 0014 03F00706 		and	r6, r3, #7
 130 0018 144D     		ldr	r5, .L9+12
 131 001a 2E70     		strb	r6, [r5]
 294:.\Generated_Source\PSoC5/cyfitter_cfg.c **** 	CY_SET_XTND_REG8((void CYFAR *)(CYREG_BG_DFT1), ((bg_xover_inl_trim >> 4) & 0x0Fu));
 132              		.loc 1 294 0
 133 001c 1B09     		lsrs	r3, r3, #4
 134              	.LVL14:
 135 001e 0135     		adds	r5, r5, #1
 136 0020 2B70     		strb	r3, [r5]
 295:.\Generated_Source\PSoC5/cyfitter_cfg.c **** 	/* Disable PRES while setting up SAR voltage reference */
 296:.\Generated_Source\PSoC5/cyfitter_cfg.c **** 	CY_SET_XTND_REG8((void CYFAR *)(CYREG_RESET_CR4), (cr4 | 0x03u));
 137              		.loc 1 296 0
 138 0022 42F00303 		orr	r3, r2, #3
 139 0026 0370     		strb	r3, [r0]
 297:.\Generated_Source\PSoC5/cyfitter_cfg.c **** 	CY_SET_XTND_REG8((void CYFAR *)(CYREG_RESET_CR5), (cr5 | 0x03u));
 140              		.loc 1 297 0
 141 0028 41F00303 		orr	r3, r1, #3
 142 002c 2370     		strb	r3, [r4]
 298:.\Generated_Source\PSoC5/cyfitter_cfg.c **** 	CY_SET_XTND_REG8((void CYFAR *)CYREG_PRT0_AG, 0x44u);
 143              		.loc 1 298 0
 144 002e 4425     		movs	r5, #68
 145 0030 0F4B     		ldr	r3, .L9+16
 146 0032 1D70     		strb	r5, [r3]
 299:.\Generated_Source\PSoC5/cyfitter_cfg.c **** 	CY_SET_XTND_REG8((void CYFAR *)CYREG_PRT4_AG, 0x04u);
 147              		.loc 1 299 0
 148 0034 0426     		movs	r6, #4
 149 0036 4033     		adds	r3, r3, #64
 150 0038 1E70     		strb	r6, [r3]
 300:.\Generated_Source\PSoC5/cyfitter_cfg.c **** 	CY_SET_XTND_REG8((void CYFAR *)CYREG_SAR0_CSR1, 0x40u);
 151              		.loc 1 300 0
 152 003a 4023     		movs	r3, #64
 153 003c 0D4E     		ldr	r6, .L9+20
ARM GAS  C:\Users\pxc\AppData\Local\Temp\ccBsIrat.s 			page 9


 154 003e 3370     		strb	r3, [r6]
 301:.\Generated_Source\PSoC5/cyfitter_cfg.c **** 	CY_SET_XTND_REG8((void CYFAR *)CYREG_SAR0_CSR3, 0x40u);
 155              		.loc 1 301 0
 156 0040 0236     		adds	r6, r6, #2
 157 0042 3370     		strb	r3, [r6]
 302:.\Generated_Source\PSoC5/cyfitter_cfg.c **** 	CY_SET_XTND_REG8((void CYFAR *)CYREG_SAR0_SW0, 0x40u);
 158              		.loc 1 302 0
 159 0044 06F21D26 		addw	r6, r6, #541
 160 0048 3370     		strb	r3, [r6]
 303:.\Generated_Source\PSoC5/cyfitter_cfg.c **** 	CY_SET_XTND_REG8((void CYFAR *)CYREG_SAR0_SW3, 0x20u);
 161              		.loc 1 303 0
 162 004a 2026     		movs	r6, #32
 163 004c 0A4B     		ldr	r3, .L9+24
 164 004e 1E70     		strb	r6, [r3]
 304:.\Generated_Source\PSoC5/cyfitter_cfg.c **** 	CY_SET_XTND_REG8((void CYFAR *)(CYREG_RESET_CR5), (cr5));
 165              		.loc 1 304 0
 166 0050 2170     		strb	r1, [r4]
 305:.\Generated_Source\PSoC5/cyfitter_cfg.c **** 	CY_SET_XTND_REG8((void CYFAR *)(CYREG_RESET_CR4), (cr4));
 167              		.loc 1 305 0
 168 0052 0270     		strb	r2, [r0]
 306:.\Generated_Source\PSoC5/cyfitter_cfg.c **** 	CY_SET_XTND_REG8((void CYFAR *)CYREG_PUMP_CR0, 0x44u);
 169              		.loc 1 306 0
 170 0054 A3F2AD23 		subw	r3, r3, #685
 171 0058 1D70     		strb	r5, [r3]
 307:.\Generated_Source\PSoC5/cyfitter_cfg.c **** }
 172              		.loc 1 307 0
 173 005a 70BC     		pop	{r4, r5, r6}
 174              		.cfi_restore 6
 175              		.cfi_restore 5
 176              		.cfi_restore 4
 177              		.cfi_def_cfa_offset 0
 178 005c 7047     		bx	lr
 179              	.L10:
 180 005e 00BF     		.align	2
 181              	.L9:
 182 0060 CF010049 		.word	1224737231
 183 0064 F8460040 		.word	1073759992
 184 0068 F9460040 		.word	1073759993
 185 006c 6E580040 		.word	1073764462
 186 0070 0D510040 		.word	1073762573
 187 0074 01590040 		.word	1073764609
 188 0078 235B0040 		.word	1073765155
 189              		.cfi_endproc
 190              	.LFE5:
 191              		.size	AnalogSetDefault, .-AnalogSetDefault
 192              		.section	.text.CYMEMZERO,"ax",%progbits
 193              		.align	2
 194              		.thumb
 195              		.thumb_func
 196              		.type	CYMEMZERO, %function
 197              	CYMEMZERO:
 198              	.LFB0:
  59:.\Generated_Source\PSoC5/cyfitter_cfg.c **** 	(void)memset(s, 0, n);
 199              		.loc 1 59 0
 200              		.cfi_startproc
 201              		@ args = 0, pretend = 0, frame = 0
 202              		@ frame_needed = 0, uses_anonymous_args = 0
ARM GAS  C:\Users\pxc\AppData\Local\Temp\ccBsIrat.s 			page 10


 203              	.LVL15:
 204 0000 08B5     		push	{r3, lr}
 205              		.cfi_def_cfa_offset 8
 206              		.cfi_offset 3, -8
 207              		.cfi_offset 14, -4
 208 0002 0A46     		mov	r2, r1
  60:.\Generated_Source\PSoC5/cyfitter_cfg.c **** }
 209              		.loc 1 60 0
 210 0004 0021     		movs	r1, #0
 211              	.LVL16:
 212 0006 FFF7FEFF 		bl	memset
 213              	.LVL17:
 214 000a 08BD     		pop	{r3, pc}
 215              		.cfi_endproc
 216              	.LFE0:
 217              		.size	CYMEMZERO, .-CYMEMZERO
 218              		.section	.text.ClockSetup,"ax",%progbits
 219              		.align	2
 220              		.thumb
 221              		.thumb_func
 222              		.type	ClockSetup, %function
 223              	ClockSetup:
 224              	.LFB4:
 221:.\Generated_Source\PSoC5/cyfitter_cfg.c **** 	uint32 timeout;
 225              		.loc 1 221 0
 226              		.cfi_startproc
 227              		@ args = 0, pretend = 0, frame = 0
 228              		@ frame_needed = 0, uses_anonymous_args = 0
 229 0000 38B5     		push	{r3, r4, r5, lr}
 230              		.cfi_def_cfa_offset 16
 231              		.cfi_offset 3, -16
 232              		.cfi_offset 4, -12
 233              		.cfi_offset 5, -8
 234              		.cfi_offset 14, -4
 227:.\Generated_Source\PSoC5/cyfitter_cfg.c **** 	CY_SET_XTND_REG8((void CYFAR *)(CYREG_CLKDIST_DCFG0_CFG0 + 0x2u), 0x18u);
 235              		.loc 1 227 0
 236 0002 0E22     		movs	r2, #14
 237 0004 2C4B     		ldr	r3, .L18
 238 0006 1A80     		strh	r2, [r3]	@ movhi
 228:.\Generated_Source\PSoC5/cyfitter_cfg.c **** 	CY_SET_XTND_REG16((void CYFAR *)(CYREG_CLKDIST_DCFG1_CFG0), 0x0017u);
 239              		.loc 1 228 0
 240 0008 1823     		movs	r3, #24
 241 000a 2C4A     		ldr	r2, .L18+4
 242 000c 1370     		strb	r3, [r2]
 229:.\Generated_Source\PSoC5/cyfitter_cfg.c **** 	CY_SET_XTND_REG8((void CYFAR *)(CYREG_CLKDIST_DCFG1_CFG0 + 0x2u), 0x18u);
 243              		.loc 1 229 0
 244 000e 1722     		movs	r2, #23
 245 0010 2B49     		ldr	r1, .L18+8
 246 0012 0A80     		strh	r2, [r1]	@ movhi
 230:.\Generated_Source\PSoC5/cyfitter_cfg.c **** 	CY_SET_XTND_REG16((void CYFAR *)(CYREG_CLKDIST_DCFG2_CFG0), 0x0017u);
 247              		.loc 1 230 0
 248 0014 0231     		adds	r1, r1, #2
 249 0016 0B70     		strb	r3, [r1]
 231:.\Generated_Source\PSoC5/cyfitter_cfg.c **** 	CY_SET_XTND_REG8((void CYFAR *)(CYREG_CLKDIST_DCFG2_CFG0 + 0x2u), 0x18u);
 250              		.loc 1 231 0
 251 0018 0231     		adds	r1, r1, #2
 252 001a 0A80     		strh	r2, [r1]	@ movhi
ARM GAS  C:\Users\pxc\AppData\Local\Temp\ccBsIrat.s 			page 11


 232:.\Generated_Source\PSoC5/cyfitter_cfg.c **** 	CY_SET_XTND_REG16((void CYFAR *)(CYREG_CLKDIST_DCFG3_CFG0), 0x0019u);
 253              		.loc 1 232 0
 254 001c 294A     		ldr	r2, .L18+12
 255 001e 1370     		strb	r3, [r2]
 233:.\Generated_Source\PSoC5/cyfitter_cfg.c **** 	CY_SET_XTND_REG8((void CYFAR *)(CYREG_CLKDIST_DCFG3_CFG0 + 0x2u), 0x18u);
 256              		.loc 1 233 0
 257 0020 1925     		movs	r5, #25
 258 0022 0232     		adds	r2, r2, #2
 259 0024 1580     		strh	r5, [r2]	@ movhi
 234:.\Generated_Source\PSoC5/cyfitter_cfg.c **** 	CY_SET_XTND_REG16((void CYFAR *)(CYREG_CLKDIST_DCFG4_CFG0), 0x0019u);
 260              		.loc 1 234 0
 261 0026 0232     		adds	r2, r2, #2
 262 0028 1370     		strb	r3, [r2]
 235:.\Generated_Source\PSoC5/cyfitter_cfg.c **** 	CY_SET_XTND_REG8((void CYFAR *)(CYREG_CLKDIST_DCFG4_CFG0 + 0x2u), 0x18u);
 263              		.loc 1 235 0
 264 002a 0232     		adds	r2, r2, #2
 265 002c 1580     		strh	r5, [r2]	@ movhi
 236:.\Generated_Source\PSoC5/cyfitter_cfg.c **** 
 266              		.loc 1 236 0
 267 002e 0232     		adds	r2, r2, #2
 268 0030 1370     		strb	r3, [r2]
 239:.\Generated_Source\PSoC5/cyfitter_cfg.c **** 	CY_SET_XTND_REG8((void CYFAR *)(CYREG_CLKDIST_CR), 0x08u);
 269              		.loc 1 239 0
 270 0032 0222     		movs	r2, #2
 271 0034 244B     		ldr	r3, .L18+16
 272 0036 1A70     		strb	r2, [r3]
 240:.\Generated_Source\PSoC5/cyfitter_cfg.c **** 
 273              		.loc 1 240 0
 274 0038 0822     		movs	r2, #8
 275 003a 4FF04023 		mov	r3, #1073758208
 276 003e 1A70     		strb	r2, [r3]
 243:.\Generated_Source\PSoC5/cyfitter_cfg.c **** 	CY_SET_XTND_REG8((void CYFAR *)(CYREG_IMO_TR1), (CY_GET_XTND_REG8((void CYFAR *)(CYREG_FLSHID_MFG_
 277              		.loc 1 243 0
 278 0040 0422     		movs	r2, #4
 279 0042 03F50073 		add	r3, r3, #512
 280 0046 1A70     		strb	r2, [r3]
 244:.\Generated_Source\PSoC5/cyfitter_cfg.c **** 
 281              		.loc 1 244 0
 282 0048 204B     		ldr	r3, .L18+20
 283 004a 1B78     		ldrb	r3, [r3]	@ zero_extendqisi2
 284 004c DBB2     		uxtb	r3, r3
 285 004e 204A     		ldr	r2, .L18+24
 286 0050 1370     		strb	r3, [r2]
 247:.\Generated_Source\PSoC5/cyfitter_cfg.c **** 
 287              		.loc 1 247 0
 288 0052 0122     		movs	r2, #1
 289 0054 1F4B     		ldr	r3, .L18+28
 290 0056 1A80     		strh	r2, [r3]	@ movhi
 250:.\Generated_Source\PSoC5/cyfitter_cfg.c **** 	CY_SET_XTND_REG16((void CYFAR *)(CYREG_FASTCLK_PLL_CFG0), 0x1251u);
 291              		.loc 1 250 0
 292 0058 4FF47162 		mov	r2, #3856
 293 005c 03F21E23 		addw	r3, r3, #542
 294 0060 1A80     		strh	r2, [r3]	@ movhi
 251:.\Generated_Source\PSoC5/cyfitter_cfg.c **** 	/* Wait up to 250us for the PLL to lock */
 295              		.loc 1 251 0
 296 0062 41F25122 		movw	r2, #4689
 297 0066 023B     		subs	r3, r3, #2
ARM GAS  C:\Users\pxc\AppData\Local\Temp\ccBsIrat.s 			page 12


 298 0068 1A80     		strh	r2, [r3]	@ movhi
 299              	.LVL18:
 253:.\Generated_Source\PSoC5/cyfitter_cfg.c **** 	for (timeout = 250u / 10u; (timeout > 0u) && (pllLock != 0x03u); timeout--)
 300              		.loc 1 253 0
 301 006a 0024     		movs	r4, #0
 254:.\Generated_Source\PSoC5/cyfitter_cfg.c **** 	{ 
 302              		.loc 1 254 0
 303 006c 0CE0     		b	.L14
 304              	.LVL19:
 305              	.L16:
 256:.\Generated_Source\PSoC5/cyfitter_cfg.c **** 		CyDelayCycles(10u * 48u); /* Delay 10us based on 48MHz clock */
 306              		.loc 1 256 0 discriminator 4
 307 006e 1A4B     		ldr	r3, .L18+32
 308 0070 1B78     		ldrb	r3, [r3]	@ zero_extendqisi2
 309 0072 03F00103 		and	r3, r3, #1
 310 0076 43EA4404 		orr	r4, r3, r4, lsl #1
 311              	.LVL20:
 312 007a 04F00304 		and	r4, r4, #3
 313              	.LVL21:
 257:.\Generated_Source\PSoC5/cyfitter_cfg.c **** 	}
 314              		.loc 1 257 0 discriminator 4
 315 007e 4FF4F070 		mov	r0, #480
 316 0082 FFF7FEFF 		bl	CyDelayCycles
 317              	.LVL22:
 254:.\Generated_Source\PSoC5/cyfitter_cfg.c **** 	{ 
 318              		.loc 1 254 0 discriminator 4
 319 0086 013D     		subs	r5, r5, #1
 320              	.LVL23:
 321              	.L14:
 254:.\Generated_Source\PSoC5/cyfitter_cfg.c **** 	{ 
 322              		.loc 1 254 0 is_stmt 0 discriminator 1
 323 0088 0DB1     		cbz	r5, .L15
 254:.\Generated_Source\PSoC5/cyfitter_cfg.c **** 	{ 
 324              		.loc 1 254 0 discriminator 3
 325 008a 032C     		cmp	r4, #3
 326 008c EFD1     		bne	.L16
 327              	.L15:
 259:.\Generated_Source\PSoC5/cyfitter_cfg.c **** 	CY_SET_XTND_REG8((void CYFAR *)(CYREG_CLKDIST_BCFG0), 0x00u);
 328              		.loc 1 259 0 is_stmt 1
 329 008e 114B     		ldr	r3, .L18+28
 330 0090 0722     		movs	r2, #7
 331 0092 1A70     		strb	r2, [r3]
 260:.\Generated_Source\PSoC5/cyfitter_cfg.c **** 	CY_SET_XTND_REG8((void CYFAR *)(CYREG_CLKDIST_BCFG2), 0x48u);
 332              		.loc 1 260 0
 333 0094 0021     		movs	r1, #0
 334 0096 114A     		ldr	r2, .L18+36
 335 0098 1170     		strb	r1, [r2]
 261:.\Generated_Source\PSoC5/cyfitter_cfg.c **** 	CY_SET_XTND_REG8((void CYFAR *)(CYREG_CLKDIST_MSTR0), 0x01u);
 336              		.loc 1 261 0
 337 009a 4821     		movs	r1, #72
 338 009c 0232     		adds	r2, r2, #2
 339 009e 1170     		strb	r1, [r2]
 262:.\Generated_Source\PSoC5/cyfitter_cfg.c **** 	CY_SET_XTND_REG8((void CYFAR *)(CYREG_CLKDIST_LD), 0x02u);
 340              		.loc 1 262 0
 341 00a0 0122     		movs	r2, #1
 342 00a2 1A70     		strb	r2, [r3]
 263:.\Generated_Source\PSoC5/cyfitter_cfg.c **** 
ARM GAS  C:\Users\pxc\AppData\Local\Temp\ccBsIrat.s 			page 13


 343              		.loc 1 263 0
 344 00a4 0222     		movs	r2, #2
 345 00a6 033B     		subs	r3, r3, #3
 346 00a8 1A70     		strb	r2, [r3]
 265:.\Generated_Source\PSoC5/cyfitter_cfg.c **** }
 347              		.loc 1 265 0
 348 00aa 0D4A     		ldr	r2, .L18+40
 349 00ac 1378     		ldrb	r3, [r2]	@ zero_extendqisi2
 350 00ae 43F01F03 		orr	r3, r3, #31
 351 00b2 1370     		strb	r3, [r2]
 352 00b4 38BD     		pop	{r3, r4, r5, pc}
 353              	.LVL24:
 354              	.L19:
 355 00b6 00BF     		.align	2
 356              	.L18:
 357 00b8 80400040 		.word	1073758336
 358 00bc 82400040 		.word	1073758338
 359 00c0 84400040 		.word	1073758340
 360 00c4 8A400040 		.word	1073758346
 361 00c8 00430040 		.word	1073758976
 362 00cc 89010049 		.word	1224737161
 363 00d0 A1460040 		.word	1073759905
 364 00d4 04400040 		.word	1073758212
 365 00d8 25420040 		.word	1073758757
 366 00dc 06400040 		.word	1073758214
 367 00e0 A2430040 		.word	1073759138
 368              		.cfi_endproc
 369              	.LFE4:
 370              		.size	ClockSetup, .-ClockSetup
 371              		.section	.text.CYCONFIGCPY,"ax",%progbits
 372              		.align	2
 373              		.thumb
 374              		.thumb_func
 375              		.type	CYCONFIGCPY, %function
 376              	CYCONFIGCPY:
 377              	.LFB1:
  66:.\Generated_Source\PSoC5/cyfitter_cfg.c **** 	(void)memcpy(dest, src, n);
 378              		.loc 1 66 0
 379              		.cfi_startproc
 380              		@ args = 0, pretend = 0, frame = 0
 381              		@ frame_needed = 0, uses_anonymous_args = 0
 382              	.LVL25:
 383 0000 08B5     		push	{r3, lr}
 384              		.cfi_def_cfa_offset 8
 385              		.cfi_offset 3, -8
 386              		.cfi_offset 14, -4
  67:.\Generated_Source\PSoC5/cyfitter_cfg.c **** }
 387              		.loc 1 67 0
 388 0002 FFF7FEFF 		bl	memcpy
 389              	.LVL26:
 390 0006 08BD     		pop	{r3, pc}
 391              		.cfi_endproc
 392              	.LFE1:
 393              		.size	CYCONFIGCPY, .-CYCONFIGCPY
 394              		.section	.text.SetAnalogRoutingPumps,"ax",%progbits
 395              		.align	2
 396              		.global	SetAnalogRoutingPumps
ARM GAS  C:\Users\pxc\AppData\Local\Temp\ccBsIrat.s 			page 14


 397              		.thumb
 398              		.thumb_func
 399              		.type	SetAnalogRoutingPumps, %function
 400              	SetAnalogRoutingPumps:
 401              	.LFB6:
 308:.\Generated_Source\PSoC5/cyfitter_cfg.c **** 
 309:.\Generated_Source\PSoC5/cyfitter_cfg.c **** 
 310:.\Generated_Source\PSoC5/cyfitter_cfg.c **** /*******************************************************************************
 311:.\Generated_Source\PSoC5/cyfitter_cfg.c **** * Function Name: SetAnalogRoutingPumps
 312:.\Generated_Source\PSoC5/cyfitter_cfg.c **** ********************************************************************************
 313:.\Generated_Source\PSoC5/cyfitter_cfg.c **** *
 314:.\Generated_Source\PSoC5/cyfitter_cfg.c **** * Summary:
 315:.\Generated_Source\PSoC5/cyfitter_cfg.c **** * Enables or disables the analog pumps feeding analog routing switches.
 316:.\Generated_Source\PSoC5/cyfitter_cfg.c **** * Intended to be called at startup, based on the Vdda system configuration;
 317:.\Generated_Source\PSoC5/cyfitter_cfg.c **** * may be called during operation when the user informs us that the Vdda voltage
 318:.\Generated_Source\PSoC5/cyfitter_cfg.c **** * crossed the pump threshold.
 319:.\Generated_Source\PSoC5/cyfitter_cfg.c **** *
 320:.\Generated_Source\PSoC5/cyfitter_cfg.c **** * Parameters:
 321:.\Generated_Source\PSoC5/cyfitter_cfg.c **** *  enabled - 1 to enable the pumps, 0 to disable the pumps
 322:.\Generated_Source\PSoC5/cyfitter_cfg.c **** *
 323:.\Generated_Source\PSoC5/cyfitter_cfg.c **** * Return:
 324:.\Generated_Source\PSoC5/cyfitter_cfg.c **** *  void
 325:.\Generated_Source\PSoC5/cyfitter_cfg.c **** *
 326:.\Generated_Source\PSoC5/cyfitter_cfg.c **** *******************************************************************************/
 327:.\Generated_Source\PSoC5/cyfitter_cfg.c **** void SetAnalogRoutingPumps(uint8 enabled)
 328:.\Generated_Source\PSoC5/cyfitter_cfg.c **** {
 402              		.loc 1 328 0
 403              		.cfi_startproc
 404              		@ args = 0, pretend = 0, frame = 0
 405              		@ frame_needed = 0, uses_anonymous_args = 0
 406              		@ link register save eliminated.
 407              	.LVL27:
 329:.\Generated_Source\PSoC5/cyfitter_cfg.c **** 	uint8 regValue = CY_GET_XTND_REG8((void CYFAR *)CYREG_PUMP_CR0);
 408              		.loc 1 329 0
 409 0000 054B     		ldr	r3, .L25
 410 0002 1B78     		ldrb	r3, [r3]	@ zero_extendqisi2
 411 0004 DBB2     		uxtb	r3, r3
 412              	.LVL28:
 330:.\Generated_Source\PSoC5/cyfitter_cfg.c **** 	if (enabled != 0u)
 413              		.loc 1 330 0
 414 0006 10B1     		cbz	r0, .L23
 331:.\Generated_Source\PSoC5/cyfitter_cfg.c **** 	{
 332:.\Generated_Source\PSoC5/cyfitter_cfg.c **** 		regValue |= 0x22u;
 415              		.loc 1 332 0
 416 0008 43F02203 		orr	r3, r3, #34
 417              	.LVL29:
 418 000c 01E0     		b	.L24
 419              	.L23:
 333:.\Generated_Source\PSoC5/cyfitter_cfg.c **** 	}
 334:.\Generated_Source\PSoC5/cyfitter_cfg.c **** 	else
 335:.\Generated_Source\PSoC5/cyfitter_cfg.c **** 	{
 336:.\Generated_Source\PSoC5/cyfitter_cfg.c **** 		regValue &= (uint8)~0x22u;
 420              		.loc 1 336 0
 421 000e 03F0DD03 		and	r3, r3, #221
 422              	.LVL30:
 423              	.L24:
 337:.\Generated_Source\PSoC5/cyfitter_cfg.c **** 	}
ARM GAS  C:\Users\pxc\AppData\Local\Temp\ccBsIrat.s 			page 15


 338:.\Generated_Source\PSoC5/cyfitter_cfg.c **** 	CY_SET_XTND_REG8((void CYFAR *)CYREG_PUMP_CR0, regValue);
 424              		.loc 1 338 0
 425 0012 014A     		ldr	r2, .L25
 426 0014 1370     		strb	r3, [r2]
 427 0016 7047     		bx	lr
 428              	.L26:
 429              		.align	2
 430              	.L25:
 431 0018 76580040 		.word	1073764470
 432              		.cfi_endproc
 433              	.LFE6:
 434              		.size	SetAnalogRoutingPumps, .-SetAnalogRoutingPumps
 435              		.section	.text.cyfitter_cfg,"ax",%progbits
 436              		.align	2
 437              		.global	cyfitter_cfg
 438              		.thumb
 439              		.thumb_func
 440              		.type	cyfitter_cfg, %function
 441              	cyfitter_cfg:
 442              	.LFB7:
 339:.\Generated_Source\PSoC5/cyfitter_cfg.c **** }
 340:.\Generated_Source\PSoC5/cyfitter_cfg.c **** 
 341:.\Generated_Source\PSoC5/cyfitter_cfg.c **** #define CY_AMUX_UNUSED CYREG_BOOST_SR
 342:.\Generated_Source\PSoC5/cyfitter_cfg.c **** 
 343:.\Generated_Source\PSoC5/cyfitter_cfg.c **** 
 344:.\Generated_Source\PSoC5/cyfitter_cfg.c **** /*******************************************************************************
 345:.\Generated_Source\PSoC5/cyfitter_cfg.c **** * Function Name: cyfitter_cfg
 346:.\Generated_Source\PSoC5/cyfitter_cfg.c **** ********************************************************************************
 347:.\Generated_Source\PSoC5/cyfitter_cfg.c **** * Summary:
 348:.\Generated_Source\PSoC5/cyfitter_cfg.c **** *  This function is called by the start-up code for the selected device. It
 349:.\Generated_Source\PSoC5/cyfitter_cfg.c **** *  performs all of the necessary device configuration based on the design
 350:.\Generated_Source\PSoC5/cyfitter_cfg.c **** *  settings.  This includes settings from the Design Wide Resources (DWR) such
 351:.\Generated_Source\PSoC5/cyfitter_cfg.c **** *  as Clocks and Pins as well as any component configuration that is necessary.
 352:.\Generated_Source\PSoC5/cyfitter_cfg.c **** *
 353:.\Generated_Source\PSoC5/cyfitter_cfg.c **** * Parameters:  
 354:.\Generated_Source\PSoC5/cyfitter_cfg.c **** *   void
 355:.\Generated_Source\PSoC5/cyfitter_cfg.c **** *
 356:.\Generated_Source\PSoC5/cyfitter_cfg.c **** * Return:
 357:.\Generated_Source\PSoC5/cyfitter_cfg.c **** *   void
 358:.\Generated_Source\PSoC5/cyfitter_cfg.c **** *
 359:.\Generated_Source\PSoC5/cyfitter_cfg.c **** *******************************************************************************/
 360:.\Generated_Source\PSoC5/cyfitter_cfg.c **** 
 361:.\Generated_Source\PSoC5/cyfitter_cfg.c **** void cyfitter_cfg(void)
 362:.\Generated_Source\PSoC5/cyfitter_cfg.c **** {
 443              		.loc 1 362 0
 444              		.cfi_startproc
 445              		@ args = 0, pretend = 0, frame = 0
 446              		@ frame_needed = 0, uses_anonymous_args = 0
 447 0000 70B5     		push	{r4, r5, r6, lr}
 448              		.cfi_def_cfa_offset 16
 449              		.cfi_offset 4, -16
 450              		.cfi_offset 5, -12
 451              		.cfi_offset 6, -8
 452              		.cfi_offset 14, -4
 363:.\Generated_Source\PSoC5/cyfitter_cfg.c **** #ifdef CYGlobalIntDisable
 364:.\Generated_Source\PSoC5/cyfitter_cfg.c **** 	/* Disable interrupts by default. Let user enable if/when they want. */
 365:.\Generated_Source\PSoC5/cyfitter_cfg.c **** 	CYGlobalIntDisable
ARM GAS  C:\Users\pxc\AppData\Local\Temp\ccBsIrat.s 			page 16


 453              		.loc 1 365 0
 454              	@ 365 ".\Generated_Source\PSoC5\cyfitter_cfg.c" 1
 455 0002 72B6     		CPSID   i
 456              	@ 0 "" 2
 366:.\Generated_Source\PSoC5/cyfitter_cfg.c **** #endif
 367:.\Generated_Source\PSoC5/cyfitter_cfg.c **** 
 368:.\Generated_Source\PSoC5/cyfitter_cfg.c **** 	/* Enable/Disable Debug functionality based on settings from System DWR */
 369:.\Generated_Source\PSoC5/cyfitter_cfg.c **** 	CY_SET_XTND_REG8((void CYFAR *)CYREG_MLOGIC_DEBUG, (CY_GET_XTND_REG8((void CYFAR *)CYREG_MLOGIC_DE
 457              		.loc 1 369 0
 458              		.thumb
 459 0004 494A     		ldr	r2, .L33
 460 0006 1378     		ldrb	r3, [r2]	@ zero_extendqisi2
 461 0008 43F00403 		orr	r3, r3, #4
 462 000c 1370     		strb	r3, [r2]
 463              	.LVL31:
 464              	.LBB3:
 370:.\Generated_Source\PSoC5/cyfitter_cfg.c **** 
 371:.\Generated_Source\PSoC5/cyfitter_cfg.c **** 	{
 372:.\Generated_Source\PSoC5/cyfitter_cfg.c **** 
 373:.\Generated_Source\PSoC5/cyfitter_cfg.c **** 		CYPACKED typedef struct {
 374:.\Generated_Source\PSoC5/cyfitter_cfg.c **** 			void CYFAR *address;
 375:.\Generated_Source\PSoC5/cyfitter_cfg.c **** 			uint16 size;
 376:.\Generated_Source\PSoC5/cyfitter_cfg.c **** 		} CYPACKED_ATTR cfg_memset_t;
 377:.\Generated_Source\PSoC5/cyfitter_cfg.c **** 
 378:.\Generated_Source\PSoC5/cyfitter_cfg.c **** 
 379:.\Generated_Source\PSoC5/cyfitter_cfg.c **** 		CYPACKED typedef struct {
 380:.\Generated_Source\PSoC5/cyfitter_cfg.c **** 			void CYFAR *dest;
 381:.\Generated_Source\PSoC5/cyfitter_cfg.c **** 			const void CYFAR *src;
 382:.\Generated_Source\PSoC5/cyfitter_cfg.c **** 			uint16 size;
 383:.\Generated_Source\PSoC5/cyfitter_cfg.c **** 		} CYPACKED_ATTR cfg_memcpy_t;
 384:.\Generated_Source\PSoC5/cyfitter_cfg.c **** 
 385:.\Generated_Source\PSoC5/cyfitter_cfg.c **** 		static const cfg_memset_t CYCODE cfg_memset_list [] = {
 386:.\Generated_Source\PSoC5/cyfitter_cfg.c **** 			/* address, size */
 387:.\Generated_Source\PSoC5/cyfitter_cfg.c **** 			{(void CYFAR *)(CYREG_TMR0_CFG0), 48u},
 388:.\Generated_Source\PSoC5/cyfitter_cfg.c **** 			{(void CYFAR *)(CYDEV_UCFG_B0_P0_U0_BASE), 512u},
 389:.\Generated_Source\PSoC5/cyfitter_cfg.c **** 			{(void CYFAR *)(CYDEV_UCFG_B0_P1_U1_BASE), 3072u},
 390:.\Generated_Source\PSoC5/cyfitter_cfg.c **** 			{(void CYFAR *)(CYDEV_UCFG_B0_P7_ROUTE_BASE), 256u},
 391:.\Generated_Source\PSoC5/cyfitter_cfg.c **** 			{(void CYFAR *)(CYDEV_UCFG_B1_P2_U0_BASE), 2048u},
 392:.\Generated_Source\PSoC5/cyfitter_cfg.c **** 			{(void CYFAR *)(CYDEV_UCFG_DSI0_BASE), 2560u},
 393:.\Generated_Source\PSoC5/cyfitter_cfg.c **** 			{(void CYFAR *)(CYDEV_UCFG_DSI12_BASE), 512u},
 394:.\Generated_Source\PSoC5/cyfitter_cfg.c **** 			{(void CYFAR *)(CYREG_BCTL0_MDCLK_EN), 32u},
 395:.\Generated_Source\PSoC5/cyfitter_cfg.c **** 		};
 396:.\Generated_Source\PSoC5/cyfitter_cfg.c **** 
 397:.\Generated_Source\PSoC5/cyfitter_cfg.c **** 		static const cfg_memcpy_t CYCODE cfg_memcpy_list [] = {
 398:.\Generated_Source\PSoC5/cyfitter_cfg.c **** 			/* dest, src, size */
 399:.\Generated_Source\PSoC5/cyfitter_cfg.c **** 			{(void CYFAR *)(CYDEV_UCFG_B0_P1_U0_BASE), BS_UDB_1_4_1_CONFIG_VAL, 128u},
 400:.\Generated_Source\PSoC5/cyfitter_cfg.c **** 			{(void CYFAR *)(CYDEV_UCFG_B0_P7_U1_BASE), BS_UDB_0_5_1_CONFIG_VAL, 128u},
 401:.\Generated_Source\PSoC5/cyfitter_cfg.c **** 		};
 402:.\Generated_Source\PSoC5/cyfitter_cfg.c **** 
 403:.\Generated_Source\PSoC5/cyfitter_cfg.c **** 		uint8 CYDATA i;
 404:.\Generated_Source\PSoC5/cyfitter_cfg.c **** 
 405:.\Generated_Source\PSoC5/cyfitter_cfg.c **** 		/* Zero out critical memory blocks before beginning configuration */
 406:.\Generated_Source\PSoC5/cyfitter_cfg.c **** 		for (i = 0u; i < (sizeof(cfg_memset_list)/sizeof(cfg_memset_list[0])); i++)
 465              		.loc 1 406 0
 466 000e 0024     		movs	r4, #0
 467 0010 0CE0     		b	.L28
 468              	.LVL32:
ARM GAS  C:\Users\pxc\AppData\Local\Temp\ccBsIrat.s 			page 17


 469              	.L29:
 470              	.LBB4:
 407:.\Generated_Source\PSoC5/cyfitter_cfg.c **** 		{
 408:.\Generated_Source\PSoC5/cyfitter_cfg.c **** 			const cfg_memset_t CYCODE * CYDATA ms = &cfg_memset_list[i];
 409:.\Generated_Source\PSoC5/cyfitter_cfg.c **** 			CYMEMZERO(ms->address, (size_t)(uint32)(ms->size));
 471              		.loc 1 409 0 discriminator 3
 472 0012 4749     		ldr	r1, .L33+4
 473 0014 6300     		lsls	r3, r4, #1
 474 0016 1A19     		adds	r2, r3, r4
 475 0018 5200     		lsls	r2, r2, #1
 476 001a 0A44     		add	r2, r2, r1
 477 001c 2344     		add	r3, r3, r4
 478 001e 5B00     		lsls	r3, r3, #1
 479 0020 C858     		ldr	r0, [r1, r3]	@ unaligned
 480 0022 9188     		ldrh	r1, [r2, #4]
 481 0024 FFF7FEFF 		bl	CYMEMZERO
 482              	.LVL33:
 483              	.LBE4:
 406:.\Generated_Source\PSoC5/cyfitter_cfg.c **** 		{
 484              		.loc 1 406 0 discriminator 3
 485 0028 0134     		adds	r4, r4, #1
 486              	.LVL34:
 487 002a E4B2     		uxtb	r4, r4
 488              	.LVL35:
 489              	.L28:
 406:.\Generated_Source\PSoC5/cyfitter_cfg.c **** 		{
 490              		.loc 1 406 0 is_stmt 0 discriminator 1
 491 002c 072C     		cmp	r4, #7
 492 002e F0D9     		bls	.L29
 493 0030 0024     		movs	r4, #0
 494              	.LVL36:
 495 0032 0FE0     		b	.L30
 496              	.LVL37:
 497              	.L31:
 498              	.LBB5:
 410:.\Generated_Source\PSoC5/cyfitter_cfg.c **** 		}
 411:.\Generated_Source\PSoC5/cyfitter_cfg.c **** 
 412:.\Generated_Source\PSoC5/cyfitter_cfg.c **** 		/* Copy device configuration data into registers */
 413:.\Generated_Source\PSoC5/cyfitter_cfg.c **** 		for (i = 0u; i < (sizeof(cfg_memcpy_list)/sizeof(cfg_memcpy_list[0])); i++)
 414:.\Generated_Source\PSoC5/cyfitter_cfg.c **** 		{
 415:.\Generated_Source\PSoC5/cyfitter_cfg.c **** 			const cfg_memcpy_t CYCODE * CYDATA mc = &cfg_memcpy_list[i];
 416:.\Generated_Source\PSoC5/cyfitter_cfg.c **** 			void * CYDATA destPtr = mc->dest;
 499              		.loc 1 416 0 is_stmt 1 discriminator 3
 500 0034 3E49     		ldr	r1, .L33+4
 501 0036 A300     		lsls	r3, r4, #2
 502 0038 1A19     		adds	r2, r3, r4
 503 003a 5200     		lsls	r2, r2, #1
 504 003c 0A44     		add	r2, r2, r1
 505 003e 52F8300F 		ldr	r0, [r2, #48]!	@ unaligned
 506              	.LVL38:
 417:.\Generated_Source\PSoC5/cyfitter_cfg.c **** 			const void * CYDATA srcPtr = mc->src;
 418:.\Generated_Source\PSoC5/cyfitter_cfg.c **** 			uint16 CYDATA numBytes = mc->size;
 507              		.loc 1 418 0 discriminator 3
 508 0042 2344     		add	r3, r3, r4
 509 0044 5B00     		lsls	r3, r3, #1
 510 0046 0B44     		add	r3, r3, r1
 511              	.LVL39:
ARM GAS  C:\Users\pxc\AppData\Local\Temp\ccBsIrat.s 			page 18


 419:.\Generated_Source\PSoC5/cyfitter_cfg.c **** 			CYCONFIGCPY(destPtr, srcPtr, numBytes);
 512              		.loc 1 419 0 discriminator 3
 513 0048 5168     		ldr	r1, [r2, #4]	@ unaligned
 514              	.LVL40:
 515 004a 1A8F     		ldrh	r2, [r3, #56]
 516 004c FFF7FEFF 		bl	CYCONFIGCPY
 517              	.LVL41:
 518              	.LBE5:
 413:.\Generated_Source\PSoC5/cyfitter_cfg.c **** 		{
 519              		.loc 1 413 0 discriminator 3
 520 0050 0134     		adds	r4, r4, #1
 521              	.LVL42:
 522 0052 E4B2     		uxtb	r4, r4
 523              	.LVL43:
 524              	.L30:
 413:.\Generated_Source\PSoC5/cyfitter_cfg.c **** 		{
 525              		.loc 1 413 0 is_stmt 0 discriminator 1
 526 0054 012C     		cmp	r4, #1
 527 0056 EDD9     		bls	.L31
 420:.\Generated_Source\PSoC5/cyfitter_cfg.c **** 		}
 421:.\Generated_Source\PSoC5/cyfitter_cfg.c **** 
 422:.\Generated_Source\PSoC5/cyfitter_cfg.c **** 		cfg_write_bytes32(cy_cfg_addr_table, cy_cfg_data_table);
 528              		.loc 1 422 0 is_stmt 1
 529 0058 4FF09040 		mov	r0, #1207959552
 530 005c 3549     		ldr	r1, .L33+8
 531 005e FFF7FEFF 		bl	cfg_write_bytes32
 532              	.LVL44:
 423:.\Generated_Source\PSoC5/cyfitter_cfg.c **** 
 424:.\Generated_Source\PSoC5/cyfitter_cfg.c **** 		/* Perform normal device configuration. Order is not critical for these items. */
 425:.\Generated_Source\PSoC5/cyfitter_cfg.c **** 		CYMEMZERO((void CYFAR *)(CYREG_PHUB_CFGMEM0_CFG0), 4u);
 533              		.loc 1 425 0
 534 0062 3548     		ldr	r0, .L33+12
 535 0064 0421     		movs	r1, #4
 536 0066 FFF7FEFF 		bl	CYMEMZERO
 537              	.LVL45:
 426:.\Generated_Source\PSoC5/cyfitter_cfg.c **** 		CYCONFIGCPY((void CYFAR *)(CYREG_PHUB_CFGMEM1_CFG0), (const void CYFAR *)(BS_PHUB_CFGMEM1_VAL), 4
 538              		.loc 1 426 0
 539 006a 3448     		ldr	r0, .L33+16
 540 006c 3449     		ldr	r1, .L33+20
 541 006e 0422     		movs	r2, #4
 542 0070 FFF7FEFF 		bl	CYCONFIGCPY
 543              	.LVL46:
 427:.\Generated_Source\PSoC5/cyfitter_cfg.c **** 
 428:.\Generated_Source\PSoC5/cyfitter_cfg.c **** 		/* Enable digital routing */
 429:.\Generated_Source\PSoC5/cyfitter_cfg.c **** 		CY_SET_XTND_REG8((void CYFAR *)CYREG_BCTL0_BANK_CTL, CY_GET_XTND_REG8((void CYFAR *)CYREG_BCTL0_B
 544              		.loc 1 429 0
 545 0074 334A     		ldr	r2, .L33+24
 546 0076 1378     		ldrb	r3, [r2]	@ zero_extendqisi2
 547 0078 43F00203 		orr	r3, r3, #2
 548 007c 1370     		strb	r3, [r2]
 430:.\Generated_Source\PSoC5/cyfitter_cfg.c **** 		CY_SET_XTND_REG8((void CYFAR *)CYREG_BCTL1_BANK_CTL, CY_GET_XTND_REG8((void CYFAR *)CYREG_BCTL1_B
 549              		.loc 1 430 0
 550 007e 1032     		adds	r2, r2, #16
 551 0080 1378     		ldrb	r3, [r2]	@ zero_extendqisi2
 552 0082 43F00203 		orr	r3, r3, #2
 553 0086 1370     		strb	r3, [r2]
 431:.\Generated_Source\PSoC5/cyfitter_cfg.c **** 
ARM GAS  C:\Users\pxc\AppData\Local\Temp\ccBsIrat.s 			page 19


 432:.\Generated_Source\PSoC5/cyfitter_cfg.c **** 		/* Enable UDB array */
 433:.\Generated_Source\PSoC5/cyfitter_cfg.c **** 		CY_SET_XTND_REG8((void CYFAR *)CYREG_PM_ACT_CFG0, CY_GET_XTND_REG8((void CYFAR *)CYREG_PM_ACT_CFG
 554              		.loc 1 433 0
 555 0088 2F4C     		ldr	r4, .L33+28
 556              	.LVL47:
 557 008a 2378     		ldrb	r3, [r4]	@ zero_extendqisi2
 558 008c 43F04003 		orr	r3, r3, #64
 559 0090 2370     		strb	r3, [r4]
 434:.\Generated_Source\PSoC5/cyfitter_cfg.c **** 		CY_SET_XTND_REG8((void CYFAR *)CYREG_PM_AVAIL_CR2, CY_GET_XTND_REG8((void CYFAR *)CYREG_PM_AVAIL_
 560              		.loc 1 434 0
 561 0092 A2F58632 		sub	r2, r2, #68608
 562 0096 513A     		subs	r2, r2, #81
 563 0098 1378     		ldrb	r3, [r2]	@ zero_extendqisi2
 564 009a 43F01003 		orr	r3, r3, #16
 565 009e 1370     		strb	r3, [r2]
 566              	.LBE3:
 435:.\Generated_Source\PSoC5/cyfitter_cfg.c **** 	}
 436:.\Generated_Source\PSoC5/cyfitter_cfg.c **** 
 437:.\Generated_Source\PSoC5/cyfitter_cfg.c **** 
 438:.\Generated_Source\PSoC5/cyfitter_cfg.c **** 	/* Perform second pass device configuration. These items must be configured in specific order afte
 439:.\Generated_Source\PSoC5/cyfitter_cfg.c **** 	CYCONFIGCPY((void CYFAR *)(CYREG_PRT0_DR), (const void CYFAR *)(BS_IOPINS0_0_VAL), 10u);
 567              		.loc 1 439 0
 568 00a0 2A48     		ldr	r0, .L33+32
 569 00a2 2B49     		ldr	r1, .L33+36
 570 00a4 0A22     		movs	r2, #10
 571 00a6 FFF7FEFF 		bl	CYCONFIGCPY
 572              	.LVL48:
 440:.\Generated_Source\PSoC5/cyfitter_cfg.c **** 	CYCONFIGCPY((void CYFAR *)(CYREG_PRT12_DR), (const void CYFAR *)(BS_IOPINS0_7_VAL), 10u);
 573              		.loc 1 440 0
 574 00aa 2A48     		ldr	r0, .L33+40
 575 00ac 2A49     		ldr	r1, .L33+44
 576 00ae 0A22     		movs	r2, #10
 577 00b0 FFF7FEFF 		bl	CYCONFIGCPY
 578              	.LVL49:
 441:.\Generated_Source\PSoC5/cyfitter_cfg.c **** 	CYCONFIGCPY((void CYFAR *)(CYREG_PRT15_DM0), (const void CYFAR *)(BS_IOPINS0_8_VAL), 8u);
 579              		.loc 1 441 0
 580 00b4 2948     		ldr	r0, .L33+48
 581 00b6 2A49     		ldr	r1, .L33+52
 582 00b8 0822     		movs	r2, #8
 583 00ba FFF7FEFF 		bl	CYCONFIGCPY
 584              	.LVL50:
 442:.\Generated_Source\PSoC5/cyfitter_cfg.c **** 	CYCONFIGCPY((void CYFAR *)(CYREG_PRT1_DR), (const void CYFAR *)(BS_IOPINS0_1_VAL), 10u);
 585              		.loc 1 442 0
 586 00be 2948     		ldr	r0, .L33+56
 587 00c0 2949     		ldr	r1, .L33+60
 588 00c2 0A22     		movs	r2, #10
 589 00c4 FFF7FEFF 		bl	CYCONFIGCPY
 590              	.LVL51:
 443:.\Generated_Source\PSoC5/cyfitter_cfg.c **** 	CYCONFIGCPY((void CYFAR *)(CYREG_PRT2_DR), (const void CYFAR *)(BS_IOPINS0_2_VAL), 10u);
 591              		.loc 1 443 0
 592 00c8 2848     		ldr	r0, .L33+64
 593 00ca 2949     		ldr	r1, .L33+68
 594 00cc 0A22     		movs	r2, #10
 595 00ce FFF7FEFF 		bl	CYCONFIGCPY
 596              	.LVL52:
 444:.\Generated_Source\PSoC5/cyfitter_cfg.c **** 	CYCONFIGCPY((void CYFAR *)(CYREG_PRT3_DR), (const void CYFAR *)(BS_IOPINS0_3_VAL), 10u);
 597              		.loc 1 444 0
ARM GAS  C:\Users\pxc\AppData\Local\Temp\ccBsIrat.s 			page 20


 598 00d2 2848     		ldr	r0, .L33+72
 599 00d4 2849     		ldr	r1, .L33+76
 600 00d6 0A22     		movs	r2, #10
 601 00d8 FFF7FEFF 		bl	CYCONFIGCPY
 602              	.LVL53:
 445:.\Generated_Source\PSoC5/cyfitter_cfg.c **** 	CYCONFIGCPY((void CYFAR *)(CYREG_PRT4_DR), (const void CYFAR *)(BS_IOPINS0_4_VAL), 10u);
 603              		.loc 1 445 0
 604 00dc 2748     		ldr	r0, .L33+80
 605 00de 2849     		ldr	r1, .L33+84
 606 00e0 0A22     		movs	r2, #10
 607 00e2 FFF7FEFF 		bl	CYCONFIGCPY
 608              	.LVL54:
 446:.\Generated_Source\PSoC5/cyfitter_cfg.c **** 	CYCONFIGCPY((void CYFAR *)(CYREG_PRT5_DR), (const void CYFAR *)(BS_IOPINS0_5_VAL), 10u);
 609              		.loc 1 446 0
 610 00e6 2748     		ldr	r0, .L33+88
 611 00e8 2749     		ldr	r1, .L33+92
 612 00ea 0A22     		movs	r2, #10
 613 00ec FFF7FEFF 		bl	CYCONFIGCPY
 614              	.LVL55:
 447:.\Generated_Source\PSoC5/cyfitter_cfg.c **** 	CYCONFIGCPY((void CYFAR *)(CYREG_PRT6_DR), (const void CYFAR *)(BS_IOPINS0_6_VAL), 10u);
 615              		.loc 1 447 0
 616 00f0 2648     		ldr	r0, .L33+96
 617 00f2 2749     		ldr	r1, .L33+100
 618 00f4 0A22     		movs	r2, #10
 619 00f6 FFF7FEFF 		bl	CYCONFIGCPY
 620              	.LVL56:
 448:.\Generated_Source\PSoC5/cyfitter_cfg.c **** 	CY_SET_XTND_REG8((void CYFAR *)(CYREG_B1_P4_U1_CFG27), 0x84u);
 621              		.loc 1 448 0
 622 00fa 8422     		movs	r2, #132
 623 00fc 254B     		ldr	r3, .L33+104
 624 00fe 1A70     		strb	r2, [r3]
 449:.\Generated_Source\PSoC5/cyfitter_cfg.c **** 	/* Switch Boost to the precision bandgap reference from its internal reference */
 450:.\Generated_Source\PSoC5/cyfitter_cfg.c **** 	CY_SET_REG8((void CYXDATA *)CYREG_BOOST_CR2, (CY_GET_REG8((void CYXDATA *)CYREG_BOOST_CR2) | 0x08u
 625              		.loc 1 450 0
 626 0100 254A     		ldr	r2, .L33+108
 627 0102 1378     		ldrb	r3, [r2]	@ zero_extendqisi2
 628 0104 43F00803 		orr	r3, r3, #8
 629 0108 1370     		strb	r3, [r2]
 451:.\Generated_Source\PSoC5/cyfitter_cfg.c **** 
 452:.\Generated_Source\PSoC5/cyfitter_cfg.c **** 	/* Set Flash Cycles based on max possible frequency in case a glitch occurs during ClockSetup(). *
 453:.\Generated_Source\PSoC5/cyfitter_cfg.c **** 	CY_SET_XTND_REG8((void CYFAR *)(CYREG_CACHE_CC_CTL), (((CYDEV_INSTRUCT_CACHE_ENABLED) != 0) ? 0x01
 630              		.loc 1 453 0
 631 010a 244E     		ldr	r6, .L33+112
 632 010c 0125     		movs	r5, #1
 633 010e 3570     		strb	r5, [r6]
 454:.\Generated_Source\PSoC5/cyfitter_cfg.c **** 	/* Setup clocks based on selections from Clock DWR */
 455:.\Generated_Source\PSoC5/cyfitter_cfg.c **** 	ClockSetup();
 634              		.loc 1 455 0
 635 0110 FFF7FEFF 		bl	ClockSetup
 636              	.LVL57:
 456:.\Generated_Source\PSoC5/cyfitter_cfg.c **** 	/* Set Flash Cycles based on newly configured 24.00MHz Bus Clock. */
 457:.\Generated_Source\PSoC5/cyfitter_cfg.c **** 	CY_SET_XTND_REG8((void CYFAR *)(CYREG_CACHE_CC_CTL), (((CYDEV_INSTRUCT_CACHE_ENABLED) != 0) ? 0x81
 637              		.loc 1 457 0
 638 0114 8123     		movs	r3, #129
 639 0116 3370     		strb	r3, [r6]
 458:.\Generated_Source\PSoC5/cyfitter_cfg.c **** 	CY_SET_XTND_REG8((void CYFAR *)(CYREG_PANTHER_WAITPIPE), 0x01u);
 640              		.loc 1 458 0
ARM GAS  C:\Users\pxc\AppData\Local\Temp\ccBsIrat.s 			page 21


 641 0118 214B     		ldr	r3, .L33+116
 642 011a 1D70     		strb	r5, [r3]
 459:.\Generated_Source\PSoC5/cyfitter_cfg.c **** 
 460:.\Generated_Source\PSoC5/cyfitter_cfg.c **** 	/* Perform basic analog initialization to defaults */
 461:.\Generated_Source\PSoC5/cyfitter_cfg.c **** 	AnalogSetDefault();
 643              		.loc 1 461 0
 644 011c FFF7FEFF 		bl	AnalogSetDefault
 645              	.LVL58:
 462:.\Generated_Source\PSoC5/cyfitter_cfg.c **** 
 463:.\Generated_Source\PSoC5/cyfitter_cfg.c **** 	/* Configure alternate active mode */
 464:.\Generated_Source\PSoC5/cyfitter_cfg.c **** 	CYCONFIGCPY((void CYFAR *)CYDEV_PM_STBY_BASE, (const void CYFAR *)CYDEV_PM_ACT_BASE, 14u);
 646              		.loc 1 464 0
 647 0120 2048     		ldr	r0, .L33+120
 648 0122 2146     		mov	r1, r4
 649 0124 0E22     		movs	r2, #14
 650 0126 FFF7FEFF 		bl	CYCONFIGCPY
 651              	.LVL59:
 652 012a 70BD     		pop	{r4, r5, r6, pc}
 653              	.L34:
 654              		.align	2
 655              	.L33:
 656 012c E8460040 		.word	1073759976
 657 0130 00000000 		.word	.LANCHOR0
 658 0134 AC000048 		.word	1207959724
 659 0138 00760040 		.word	1073772032
 660 013c 08760040 		.word	1073772040
 661 0140 58110048 		.word	1207963992
 662 0144 03500140 		.word	1073827843
 663 0148 A0430040 		.word	1073759136
 664 014c 00510040 		.word	1073762560
 665 0150 F0100048 		.word	1207963888
 666 0154 C0510040 		.word	1073762752
 667 0158 FC100048 		.word	1207963900
 668 015c F2510040 		.word	1073762802
 669 0160 08110048 		.word	1207963912
 670 0164 10510040 		.word	1073762576
 671 0168 10110048 		.word	1207963920
 672 016c 20510040 		.word	1073762592
 673 0170 1C110048 		.word	1207963932
 674 0174 30510040 		.word	1073762608
 675 0178 28110048 		.word	1207963944
 676 017c 40510040 		.word	1073762624
 677 0180 34110048 		.word	1207963956
 678 0184 50510040 		.word	1073762640
 679 0188 40110048 		.word	1207963968
 680 018c 60510040 		.word	1073762656
 681 0190 4C110048 		.word	1207963980
 682 0194 DB180140 		.word	1073813723
 683 0198 22430040 		.word	1073759010
 684 019c 00480040 		.word	1073760256
 685 01a0 04000840 		.word	1074266116
 686 01a4 B0430040 		.word	1073759152
 687              		.cfi_endproc
 688              	.LFE7:
 689              		.size	cyfitter_cfg, .-cyfitter_cfg
 690              		.section	.rodata
 691              		.align	2
ARM GAS  C:\Users\pxc\AppData\Local\Temp\ccBsIrat.s 			page 22


 692              		.set	.LANCHOR0,. + 0
 693              		.type	cfg_memset_list.4881, %object
 694              		.size	cfg_memset_list.4881, 48
 695              	cfg_memset_list.4881:
 696 0000 004F0040 		.word	1073762048
 697 0004 3000     		.short	48
 698 0006 00000140 		.4byte	1073807360
 699 000a 0002     		.short	512
 700 000c 80020140 		.word	1073808000
 701 0010 000C     		.short	3072
 702 0012 000F0140 		.4byte	1073811200
 703 0016 0001     		.short	256
 704 0018 00140140 		.word	1073812480
 705 001c 0008     		.short	2048
 706 001e 00400140 		.4byte	1073823744
 707 0022 000A     		.short	2560
 708 0024 004C0140 		.word	1073826816
 709 0028 0002     		.short	512
 710 002a 00500140 		.4byte	1073827840
 711 002e 2000     		.short	32
 712              		.type	cfg_memcpy_list.4882, %object
 713              		.size	cfg_memcpy_list.4882, 20
 714              	cfg_memcpy_list.4882:
 715 0030 00020140 		.word	1073807872
 716 0034 F00F0048 		.word	1207963632
 717 0038 8000     		.short	128
 718 003a 800E0140 		.4byte	1073811072
 719 003e 70100048 		.4byte	1207963760
 720 0042 8000     		.short	128
 721              		.text
 722              	.Letext0:
 723              		.file 2 "c:\\program files (x86)\\cypress\\psoc creator\\3.3\\psoc creator\\import\\gnu\\arm\\4.9.
 724              		.file 3 ".\\Generated_Source\\PSoC5\\cytypes.h"
 725              		.file 4 ".\\Generated_Source\\PSoC5\\CyLib.h"