ARM GAS  C:\Users\PANXIA~1\AppData\Local\Temp\ccmbdjJx.s 			page 1


   1              		.syntax unified
   2              		.cpu cortex-m3
   3              		.fpu softvfp
   4              		.eabi_attribute 20, 1
   5              		.eabi_attribute 21, 1
   6              		.eabi_attribute 23, 3
   7              		.eabi_attribute 24, 1
   8              		.eabi_attribute 25, 1
   9              		.eabi_attribute 26, 1
  10              		.eabi_attribute 30, 1
  11              		.eabi_attribute 34, 1
  12              		.eabi_attribute 18, 4
  13              		.thumb
  14              		.file	"i2c_core.c"
  15              		.text
  16              	.Ltext0:
  17              		.cfi_sections	.debug_frame
  18              		.section	.text.delay_us,"ax",%progbits
  19              		.align	2
  20              		.thumb
  21              		.thumb_func
  22              		.type	delay_us, %function
  23              	delay_us:
  24              	.LFB63:
  25              		.file 1 ".\\i2c_core.c"
   1:.\i2c_core.c  **** 
   2:.\i2c_core.c  **** #include "i2c_core.h"
   3:.\i2c_core.c  **** 
   4:.\i2c_core.c  **** #define I2C_CLK_HIGH() SCL_Write(1)
   5:.\i2c_core.c  **** #define I2C_CLK_LOW()  SCL_Write(0)
   6:.\i2c_core.c  **** #define I2C_DATA_HIGH() SDL_Write(1)
   7:.\i2c_core.c  **** #define I2C_DATA_LOW()   SDL_Write(0)
   8:.\i2c_core.c  **** 
   9:.\i2c_core.c  **** #define I2C_DATA_IN() SDL_Read()
  10:.\i2c_core.c  **** 
  11:.\i2c_core.c  **** static void delay_us( int t )
  12:.\i2c_core.c  **** {
  26              		.loc 1 12 0
  27              		.cfi_startproc
  28              		@ args = 0, pretend = 0, frame = 8
  29              		@ frame_needed = 0, uses_anonymous_args = 0
  30              		@ link register save eliminated.
  31              	.LVL0:
  32 0000 82B0     		sub	sp, sp, #8
  33              		.cfi_def_cfa_offset 8
  13:.\i2c_core.c  **** 		volatile int tt;
  14:.\i2c_core.c  **** 		for( ; t; t -- )
  34              		.loc 1 14 0
  35 0002 09E0     		b	.L2
  36              	.L5:
  15:.\i2c_core.c  **** 			for( tt = 0 ; tt < 1; tt ++ )
  37              		.loc 1 15 0
  38 0004 0023     		movs	r3, #0
  39 0006 0193     		str	r3, [sp, #4]
  40 0008 02E0     		b	.L3
  41              	.L4:
  42              		.loc 1 15 0 is_stmt 0 discriminator 3
ARM GAS  C:\Users\PANXIA~1\AppData\Local\Temp\ccmbdjJx.s 			page 2


  43 000a 019B     		ldr	r3, [sp, #4]
  44 000c 0133     		adds	r3, r3, #1
  45 000e 0193     		str	r3, [sp, #4]
  46              	.L3:
  47              		.loc 1 15 0 discriminator 1
  48 0010 019B     		ldr	r3, [sp, #4]
  49 0012 002B     		cmp	r3, #0
  50 0014 F9DD     		ble	.L4
  14:.\i2c_core.c  **** 			for( tt = 0 ; tt < 1; tt ++ )
  51              		.loc 1 14 0 is_stmt 1
  52 0016 0138     		subs	r0, r0, #1
  53              	.LVL1:
  54              	.L2:
  14:.\i2c_core.c  **** 			for( tt = 0 ; tt < 1; tt ++ )
  55              		.loc 1 14 0 is_stmt 0 discriminator 1
  56 0018 0028     		cmp	r0, #0
  57 001a F3D1     		bne	.L5
  16:.\i2c_core.c  **** 			;
  17:.\i2c_core.c  **** }
  58              		.loc 1 17 0 is_stmt 1
  59 001c 02B0     		add	sp, sp, #8
  60              		.cfi_def_cfa_offset 0
  61              		@ sp needed
  62 001e 7047     		bx	lr
  63              		.cfi_endproc
  64              	.LFE63:
  65              		.size	delay_us, .-delay_us
  66              		.section	.text.I2C_Start,"ax",%progbits
  67              		.align	2
  68              		.thumb
  69              		.thumb_func
  70              		.type	I2C_Start, %function
  71              	I2C_Start:
  72              	.LFB65:
  18:.\i2c_core.c  **** void SYS_I2C_Init(void)
  19:.\i2c_core.c  **** {
  20:.\i2c_core.c  ****   I2C_CLK_HIGH();
  21:.\i2c_core.c  ****   delay_us(20);
  22:.\i2c_core.c  ****   I2C_CLK_LOW(); 
  23:.\i2c_core.c  ****   delay_us(2000);
  24:.\i2c_core.c  ****   I2C_CLK_HIGH();
  25:.\i2c_core.c  **** 
  26:.\i2c_core.c  **** 
  27:.\i2c_core.c  **** }
  28:.\i2c_core.c  **** static void I2C_Start(void)
  29:.\i2c_core.c  **** {
  73              		.loc 1 29 0
  74              		.cfi_startproc
  75              		@ args = 0, pretend = 0, frame = 0
  76              		@ frame_needed = 0, uses_anonymous_args = 0
  77 0000 08B5     		push	{r3, lr}
  78              		.cfi_def_cfa_offset 8
  79              		.cfi_offset 3, -8
  80              		.cfi_offset 14, -4
  30:.\i2c_core.c  ****     I2C_CLK_HIGH();
  81              		.loc 1 30 0
  82 0002 0120     		movs	r0, #1
ARM GAS  C:\Users\PANXIA~1\AppData\Local\Temp\ccmbdjJx.s 			page 3


  83 0004 FFF7FEFF 		bl	SCL_Write
  84              	.LVL2:
  31:.\i2c_core.c  ****     delay_us(20);
  85              		.loc 1 31 0
  86 0008 1420     		movs	r0, #20
  87 000a FFF7FEFF 		bl	delay_us
  88              	.LVL3:
  32:.\i2c_core.c  ****     I2C_DATA_LOW();
  89              		.loc 1 32 0
  90 000e 0020     		movs	r0, #0
  91 0010 FFF7FEFF 		bl	SDL_Write
  92              	.LVL4:
  33:.\i2c_core.c  ****     delay_us(20);
  93              		.loc 1 33 0
  94 0014 1420     		movs	r0, #20
  95 0016 FFF7FEFF 		bl	delay_us
  96              	.LVL5:
  34:.\i2c_core.c  ****     I2C_CLK_LOW();
  97              		.loc 1 34 0
  98 001a 0020     		movs	r0, #0
  99 001c FFF7FEFF 		bl	SCL_Write
 100              	.LVL6:
  35:.\i2c_core.c  ****     delay_us(20);
 101              		.loc 1 35 0
 102 0020 1420     		movs	r0, #20
 103 0022 FFF7FEFF 		bl	delay_us
 104              	.LVL7:
  36:.\i2c_core.c  ****     I2C_DATA_HIGH();
 105              		.loc 1 36 0
 106 0026 0120     		movs	r0, #1
 107 0028 FFF7FEFF 		bl	SDL_Write
 108              	.LVL8:
  37:.\i2c_core.c  ****     delay_us(20);
 109              		.loc 1 37 0
 110 002c 1420     		movs	r0, #20
 111 002e FFF7FEFF 		bl	delay_us
 112              	.LVL9:
 113 0032 08BD     		pop	{r3, pc}
 114              		.cfi_endproc
 115              	.LFE65:
 116              		.size	I2C_Start, .-I2C_Start
 117              		.section	.text.I2C_sendbyte,"ax",%progbits
 118              		.align	2
 119              		.thumb
 120              		.thumb_func
 121              		.type	I2C_sendbyte, %function
 122              	I2C_sendbyte:
 123              	.LFB69:
  38:.\i2c_core.c  **** }
  39:.\i2c_core.c  **** 
  40:.\i2c_core.c  **** static void I2C_Stop(void)
  41:.\i2c_core.c  **** {
  42:.\i2c_core.c  ****     I2C_DATA_LOW();
  43:.\i2c_core.c  ****     delay_us(20);
  44:.\i2c_core.c  ****     I2C_CLK_HIGH();
  45:.\i2c_core.c  ****     delay_us(20);
  46:.\i2c_core.c  ****     I2C_DATA_HIGH();
ARM GAS  C:\Users\PANXIA~1\AppData\Local\Temp\ccmbdjJx.s 			page 4


  47:.\i2c_core.c  ****     delay_us(20);
  48:.\i2c_core.c  **** }
  49:.\i2c_core.c  **** 
  50:.\i2c_core.c  **** static void I2C_nack( void )
  51:.\i2c_core.c  **** {
  52:.\i2c_core.c  ****     I2C_CLK_LOW();
  53:.\i2c_core.c  ****     delay_us(20);
  54:.\i2c_core.c  ****     I2C_DATA_HIGH();
  55:.\i2c_core.c  ****     delay_us(20);
  56:.\i2c_core.c  ****     I2C_CLK_HIGH();
  57:.\i2c_core.c  ****     delay_us(20);
  58:.\i2c_core.c  ****     I2C_CLK_LOW();
  59:.\i2c_core.c  ****     delay_us(20);
  60:.\i2c_core.c  **** }
  61:.\i2c_core.c  **** 
  62:.\i2c_core.c  **** static void I2C_ack( void )
  63:.\i2c_core.c  **** {
  64:.\i2c_core.c  ****     I2C_CLK_LOW();
  65:.\i2c_core.c  ****     delay_us(20);
  66:.\i2c_core.c  ****     I2C_DATA_LOW();
  67:.\i2c_core.c  ****     delay_us(20);
  68:.\i2c_core.c  ****     I2C_CLK_HIGH();
  69:.\i2c_core.c  ****     delay_us(20);
  70:.\i2c_core.c  ****     I2C_CLK_LOW();
  71:.\i2c_core.c  ****     delay_us(20);
  72:.\i2c_core.c  **** }
  73:.\i2c_core.c  **** 
  74:.\i2c_core.c  **** static void I2C_sendbyte( unsigned char  I2CSendData )
  75:.\i2c_core.c  **** {
 124              		.loc 1 75 0
 125              		.cfi_startproc
 126              		@ args = 0, pretend = 0, frame = 0
 127              		@ frame_needed = 0, uses_anonymous_args = 0
 128              	.LVL10:
 129 0000 38B5     		push	{r3, r4, r5, lr}
 130              		.cfi_def_cfa_offset 16
 131              		.cfi_offset 3, -16
 132              		.cfi_offset 4, -12
 133              		.cfi_offset 5, -8
 134              		.cfi_offset 14, -4
 135 0002 0546     		mov	r5, r0
 136              	.LVL11:
  76:.\i2c_core.c  ****     unsigned char  i;
  77:.\i2c_core.c  ****     
  78:.\i2c_core.c  ****     for (i = 0;i < 8;i++)
 137              		.loc 1 78 0
 138 0004 0024     		movs	r4, #0
 139 0006 1CE0     		b	.L10
 140              	.LVL12:
 141              	.L13:
  79:.\i2c_core.c  ****     {
  80:.\i2c_core.c  ****         if ( I2CSendData & 0x80 )
 142              		.loc 1 80 0
 143 0008 15F0800F 		tst	r5, #128
 144 000c 03D0     		beq	.L11
  81:.\i2c_core.c  ****             I2C_DATA_HIGH();
 145              		.loc 1 81 0
ARM GAS  C:\Users\PANXIA~1\AppData\Local\Temp\ccmbdjJx.s 			page 5


 146 000e 0120     		movs	r0, #1
 147 0010 FFF7FEFF 		bl	SDL_Write
 148              	.LVL13:
 149 0014 02E0     		b	.L12
 150              	.L11:
  82:.\i2c_core.c  ****         else
  83:.\i2c_core.c  ****             I2C_DATA_LOW();
 151              		.loc 1 83 0
 152 0016 0020     		movs	r0, #0
 153 0018 FFF7FEFF 		bl	SDL_Write
 154              	.LVL14:
 155              	.L12:
  84:.\i2c_core.c  ****         delay_us(20);
 156              		.loc 1 84 0 discriminator 2
 157 001c 1420     		movs	r0, #20
 158 001e FFF7FEFF 		bl	delay_us
 159              	.LVL15:
  85:.\i2c_core.c  ****         I2C_CLK_HIGH();
 160              		.loc 1 85 0 discriminator 2
 161 0022 0120     		movs	r0, #1
 162 0024 FFF7FEFF 		bl	SCL_Write
 163              	.LVL16:
  86:.\i2c_core.c  ****         delay_us(20);
 164              		.loc 1 86 0 discriminator 2
 165 0028 1420     		movs	r0, #20
 166 002a FFF7FEFF 		bl	delay_us
 167              	.LVL17:
  87:.\i2c_core.c  ****         
  88:.\i2c_core.c  ****         I2CSendData <<= 1; 
 168              		.loc 1 88 0 discriminator 2
 169 002e 6D00     		lsls	r5, r5, #1
 170              	.LVL18:
 171 0030 EDB2     		uxtb	r5, r5
 172              	.LVL19:
  89:.\i2c_core.c  ****         I2C_CLK_LOW();
 173              		.loc 1 89 0 discriminator 2
 174 0032 0020     		movs	r0, #0
 175 0034 FFF7FEFF 		bl	SCL_Write
 176              	.LVL20:
  90:.\i2c_core.c  ****         delay_us(20);
 177              		.loc 1 90 0 discriminator 2
 178 0038 1420     		movs	r0, #20
 179 003a FFF7FEFF 		bl	delay_us
 180              	.LVL21:
  78:.\i2c_core.c  ****     {
 181              		.loc 1 78 0 discriminator 2
 182 003e 0134     		adds	r4, r4, #1
 183              	.LVL22:
 184 0040 E4B2     		uxtb	r4, r4
 185              	.LVL23:
 186              	.L10:
  78:.\i2c_core.c  ****     {
 187              		.loc 1 78 0 is_stmt 0 discriminator 1
 188 0042 072C     		cmp	r4, #7
 189 0044 E0D9     		bls	.L13
  91:.\i2c_core.c  ****     }
  92:.\i2c_core.c  **** }
ARM GAS  C:\Users\PANXIA~1\AppData\Local\Temp\ccmbdjJx.s 			page 6


 190              		.loc 1 92 0 is_stmt 1
 191 0046 38BD     		pop	{r3, r4, r5, pc}
 192              		.cfi_endproc
 193              	.LFE69:
 194              		.size	I2C_sendbyte, .-I2C_sendbyte
 195              		.section	.text.I2C_Stop,"ax",%progbits
 196              		.align	2
 197              		.thumb
 198              		.thumb_func
 199              		.type	I2C_Stop, %function
 200              	I2C_Stop:
 201              	.LFB66:
  41:.\i2c_core.c  ****     I2C_DATA_LOW();
 202              		.loc 1 41 0
 203              		.cfi_startproc
 204              		@ args = 0, pretend = 0, frame = 0
 205              		@ frame_needed = 0, uses_anonymous_args = 0
 206 0000 08B5     		push	{r3, lr}
 207              		.cfi_def_cfa_offset 8
 208              		.cfi_offset 3, -8
 209              		.cfi_offset 14, -4
  42:.\i2c_core.c  ****     delay_us(20);
 210              		.loc 1 42 0
 211 0002 0020     		movs	r0, #0
 212 0004 FFF7FEFF 		bl	SDL_Write
 213              	.LVL24:
  43:.\i2c_core.c  ****     I2C_CLK_HIGH();
 214              		.loc 1 43 0
 215 0008 1420     		movs	r0, #20
 216 000a FFF7FEFF 		bl	delay_us
 217              	.LVL25:
  44:.\i2c_core.c  ****     delay_us(20);
 218              		.loc 1 44 0
 219 000e 0120     		movs	r0, #1
 220 0010 FFF7FEFF 		bl	SCL_Write
 221              	.LVL26:
  45:.\i2c_core.c  ****     I2C_DATA_HIGH();
 222              		.loc 1 45 0
 223 0014 1420     		movs	r0, #20
 224 0016 FFF7FEFF 		bl	delay_us
 225              	.LVL27:
  46:.\i2c_core.c  ****     delay_us(20);
 226              		.loc 1 46 0
 227 001a 0120     		movs	r0, #1
 228 001c FFF7FEFF 		bl	SDL_Write
 229              	.LVL28:
  47:.\i2c_core.c  **** }
 230              		.loc 1 47 0
 231 0020 1420     		movs	r0, #20
 232 0022 FFF7FEFF 		bl	delay_us
 233              	.LVL29:
 234 0026 08BD     		pop	{r3, pc}
 235              		.cfi_endproc
 236              	.LFE66:
 237              		.size	I2C_Stop, .-I2C_Stop
 238              		.section	.text.I2C_nack,"ax",%progbits
 239              		.align	2
ARM GAS  C:\Users\PANXIA~1\AppData\Local\Temp\ccmbdjJx.s 			page 7


 240              		.thumb
 241              		.thumb_func
 242              		.type	I2C_nack, %function
 243              	I2C_nack:
 244              	.LFB67:
  51:.\i2c_core.c  ****     I2C_CLK_LOW();
 245              		.loc 1 51 0
 246              		.cfi_startproc
 247              		@ args = 0, pretend = 0, frame = 0
 248              		@ frame_needed = 0, uses_anonymous_args = 0
 249 0000 08B5     		push	{r3, lr}
 250              		.cfi_def_cfa_offset 8
 251              		.cfi_offset 3, -8
 252              		.cfi_offset 14, -4
  52:.\i2c_core.c  ****     delay_us(20);
 253              		.loc 1 52 0
 254 0002 0020     		movs	r0, #0
 255 0004 FFF7FEFF 		bl	SCL_Write
 256              	.LVL30:
  53:.\i2c_core.c  ****     I2C_DATA_HIGH();
 257              		.loc 1 53 0
 258 0008 1420     		movs	r0, #20
 259 000a FFF7FEFF 		bl	delay_us
 260              	.LVL31:
  54:.\i2c_core.c  ****     delay_us(20);
 261              		.loc 1 54 0
 262 000e 0120     		movs	r0, #1
 263 0010 FFF7FEFF 		bl	SDL_Write
 264              	.LVL32:
  55:.\i2c_core.c  ****     I2C_CLK_HIGH();
 265              		.loc 1 55 0
 266 0014 1420     		movs	r0, #20
 267 0016 FFF7FEFF 		bl	delay_us
 268              	.LVL33:
  56:.\i2c_core.c  ****     delay_us(20);
 269              		.loc 1 56 0
 270 001a 0120     		movs	r0, #1
 271 001c FFF7FEFF 		bl	SCL_Write
 272              	.LVL34:
  57:.\i2c_core.c  ****     I2C_CLK_LOW();
 273              		.loc 1 57 0
 274 0020 1420     		movs	r0, #20
 275 0022 FFF7FEFF 		bl	delay_us
 276              	.LVL35:
  58:.\i2c_core.c  ****     delay_us(20);
 277              		.loc 1 58 0
 278 0026 0020     		movs	r0, #0
 279 0028 FFF7FEFF 		bl	SCL_Write
 280              	.LVL36:
  59:.\i2c_core.c  **** }
 281              		.loc 1 59 0
 282 002c 1420     		movs	r0, #20
 283 002e FFF7FEFF 		bl	delay_us
 284              	.LVL37:
 285 0032 08BD     		pop	{r3, pc}
 286              		.cfi_endproc
 287              	.LFE67:
ARM GAS  C:\Users\PANXIA~1\AppData\Local\Temp\ccmbdjJx.s 			page 8


 288              		.size	I2C_nack, .-I2C_nack
 289              		.section	.text.I2C_ack,"ax",%progbits
 290              		.align	2
 291              		.thumb
 292              		.thumb_func
 293              		.type	I2C_ack, %function
 294              	I2C_ack:
 295              	.LFB68:
  63:.\i2c_core.c  ****     I2C_CLK_LOW();
 296              		.loc 1 63 0
 297              		.cfi_startproc
 298              		@ args = 0, pretend = 0, frame = 0
 299              		@ frame_needed = 0, uses_anonymous_args = 0
 300 0000 08B5     		push	{r3, lr}
 301              		.cfi_def_cfa_offset 8
 302              		.cfi_offset 3, -8
 303              		.cfi_offset 14, -4
  64:.\i2c_core.c  ****     delay_us(20);
 304              		.loc 1 64 0
 305 0002 0020     		movs	r0, #0
 306 0004 FFF7FEFF 		bl	SCL_Write
 307              	.LVL38:
  65:.\i2c_core.c  ****     I2C_DATA_LOW();
 308              		.loc 1 65 0
 309 0008 1420     		movs	r0, #20
 310 000a FFF7FEFF 		bl	delay_us
 311              	.LVL39:
  66:.\i2c_core.c  ****     delay_us(20);
 312              		.loc 1 66 0
 313 000e 0020     		movs	r0, #0
 314 0010 FFF7FEFF 		bl	SDL_Write
 315              	.LVL40:
  67:.\i2c_core.c  ****     I2C_CLK_HIGH();
 316              		.loc 1 67 0
 317 0014 1420     		movs	r0, #20
 318 0016 FFF7FEFF 		bl	delay_us
 319              	.LVL41:
  68:.\i2c_core.c  ****     delay_us(20);
 320              		.loc 1 68 0
 321 001a 0120     		movs	r0, #1
 322 001c FFF7FEFF 		bl	SCL_Write
 323              	.LVL42:
  69:.\i2c_core.c  ****     I2C_CLK_LOW();
 324              		.loc 1 69 0
 325 0020 1420     		movs	r0, #20
 326 0022 FFF7FEFF 		bl	delay_us
 327              	.LVL43:
  70:.\i2c_core.c  ****     delay_us(20);
 328              		.loc 1 70 0
 329 0026 0020     		movs	r0, #0
 330 0028 FFF7FEFF 		bl	SCL_Write
 331              	.LVL44:
  71:.\i2c_core.c  **** }
 332              		.loc 1 71 0
 333 002c 1420     		movs	r0, #20
 334 002e FFF7FEFF 		bl	delay_us
 335              	.LVL45:
ARM GAS  C:\Users\PANXIA~1\AppData\Local\Temp\ccmbdjJx.s 			page 9


 336 0032 08BD     		pop	{r3, pc}
 337              		.cfi_endproc
 338              	.LFE68:
 339              		.size	I2C_ack, .-I2C_ack
 340              		.section	.text.ReceiveACK,"ax",%progbits
 341              		.align	2
 342              		.thumb
 343              		.thumb_func
 344              		.type	ReceiveACK, %function
 345              	ReceiveACK:
 346              	.LFB71:
  93:.\i2c_core.c  **** static unsigned char I2C_readbyte( void )
  94:.\i2c_core.c  **** {
  95:.\i2c_core.c  ****     unsigned char i;
  96:.\i2c_core.c  ****     unsigned char ucRDData = 0;
  97:.\i2c_core.c  **** 
  98:.\i2c_core.c  ****     I2C_DATA_HIGH();
  99:.\i2c_core.c  **** 
 100:.\i2c_core.c  ****     for (i = 0;i < 8;i++)
 101:.\i2c_core.c  ****     {
 102:.\i2c_core.c  ****         I2C_CLK_HIGH();
 103:.\i2c_core.c  ****         ucRDData <<= 1;
 104:.\i2c_core.c  ****         delay_us(20);
 105:.\i2c_core.c  ****         if (I2C_DATA_IN())
 106:.\i2c_core.c  ****             ucRDData++;
 107:.\i2c_core.c  **** 
 108:.\i2c_core.c  ****         I2C_CLK_LOW();
 109:.\i2c_core.c  ****         delay_us(20);
 110:.\i2c_core.c  ****     }
 111:.\i2c_core.c  ****     return(ucRDData);
 112:.\i2c_core.c  **** }
 113:.\i2c_core.c  **** static unsigned char ReceiveACK( void )
 114:.\i2c_core.c  **** {
 347              		.loc 1 114 0
 348              		.cfi_startproc
 349              		@ args = 0, pretend = 0, frame = 0
 350              		@ frame_needed = 0, uses_anonymous_args = 0
 351 0000 10B5     		push	{r4, lr}
 352              		.cfi_def_cfa_offset 8
 353              		.cfi_offset 4, -8
 354              		.cfi_offset 14, -4
 115:.\i2c_core.c  ****     unsigned char nakflag;
 116:.\i2c_core.c  ****     I2C_DATA_HIGH();
 355              		.loc 1 116 0
 356 0002 0120     		movs	r0, #1
 357 0004 FFF7FEFF 		bl	SDL_Write
 358              	.LVL46:
 117:.\i2c_core.c  ****     delay_us(20);
 359              		.loc 1 117 0
 360 0008 1420     		movs	r0, #20
 361 000a FFF7FEFF 		bl	delay_us
 362              	.LVL47:
 118:.\i2c_core.c  ****     I2C_CLK_HIGH();
 363              		.loc 1 118 0
 364 000e 0120     		movs	r0, #1
 365 0010 FFF7FEFF 		bl	SCL_Write
 366              	.LVL48:
ARM GAS  C:\Users\PANXIA~1\AppData\Local\Temp\ccmbdjJx.s 			page 10


 119:.\i2c_core.c  ****     delay_us(20);
 367              		.loc 1 119 0
 368 0014 1420     		movs	r0, #20
 369 0016 FFF7FEFF 		bl	delay_us
 370              	.LVL49:
 120:.\i2c_core.c  ****     nakflag = I2C_DATA_IN();
 371              		.loc 1 120 0
 372 001a FFF7FEFF 		bl	SDL_Read
 373              	.LVL50:
 374 001e 0446     		mov	r4, r0
 375              	.LVL51:
 121:.\i2c_core.c  ****     I2C_CLK_LOW();
 376              		.loc 1 121 0
 377 0020 0020     		movs	r0, #0
 378 0022 FFF7FEFF 		bl	SCL_Write
 379              	.LVL52:
 122:.\i2c_core.c  ****     delay_us(20);
 380              		.loc 1 122 0
 381 0026 1420     		movs	r0, #20
 382 0028 FFF7FEFF 		bl	delay_us
 383              	.LVL53:
 123:.\i2c_core.c  ****     return nakflag;
 124:.\i2c_core.c  **** }
 384              		.loc 1 124 0
 385 002c 2046     		mov	r0, r4
 386 002e 10BD     		pop	{r4, pc}
 387              		.cfi_endproc
 388              	.LFE71:
 389              		.size	ReceiveACK, .-ReceiveACK
 390              		.section	.text.I2C_readbyte,"ax",%progbits
 391              		.align	2
 392              		.thumb
 393              		.thumb_func
 394              		.type	I2C_readbyte, %function
 395              	I2C_readbyte:
 396              	.LFB70:
  94:.\i2c_core.c  ****     unsigned char i;
 397              		.loc 1 94 0
 398              		.cfi_startproc
 399              		@ args = 0, pretend = 0, frame = 0
 400              		@ frame_needed = 0, uses_anonymous_args = 0
 401 0000 38B5     		push	{r3, r4, r5, lr}
 402              		.cfi_def_cfa_offset 16
 403              		.cfi_offset 3, -16
 404              		.cfi_offset 4, -12
 405              		.cfi_offset 5, -8
 406              		.cfi_offset 14, -4
 407              	.LVL54:
  98:.\i2c_core.c  **** 
 408              		.loc 1 98 0
 409 0002 0120     		movs	r0, #1
 410 0004 FFF7FEFF 		bl	SDL_Write
 411              	.LVL55:
  96:.\i2c_core.c  **** 
 412              		.loc 1 96 0
 413 0008 0024     		movs	r4, #0
 100:.\i2c_core.c  ****     {
ARM GAS  C:\Users\PANXIA~1\AppData\Local\Temp\ccmbdjJx.s 			page 11


 414              		.loc 1 100 0
 415 000a 2546     		mov	r5, r4
 416 000c 14E0     		b	.L24
 417              	.LVL56:
 418              	.L26:
 102:.\i2c_core.c  ****         ucRDData <<= 1;
 419              		.loc 1 102 0
 420 000e 0120     		movs	r0, #1
 421 0010 FFF7FEFF 		bl	SCL_Write
 422              	.LVL57:
 103:.\i2c_core.c  ****         delay_us(20);
 423              		.loc 1 103 0
 424 0014 6400     		lsls	r4, r4, #1
 425              	.LVL58:
 426 0016 E4B2     		uxtb	r4, r4
 427              	.LVL59:
 104:.\i2c_core.c  ****         if (I2C_DATA_IN())
 428              		.loc 1 104 0
 429 0018 1420     		movs	r0, #20
 430 001a FFF7FEFF 		bl	delay_us
 431              	.LVL60:
 105:.\i2c_core.c  ****             ucRDData++;
 432              		.loc 1 105 0
 433 001e FFF7FEFF 		bl	SDL_Read
 434              	.LVL61:
 435 0022 08B1     		cbz	r0, .L25
 106:.\i2c_core.c  **** 
 436              		.loc 1 106 0
 437 0024 0134     		adds	r4, r4, #1
 438              	.LVL62:
 439 0026 E4B2     		uxtb	r4, r4
 440              	.LVL63:
 441              	.L25:
 108:.\i2c_core.c  ****         delay_us(20);
 442              		.loc 1 108 0 discriminator 2
 443 0028 0020     		movs	r0, #0
 444 002a FFF7FEFF 		bl	SCL_Write
 445              	.LVL64:
 109:.\i2c_core.c  ****     }
 446              		.loc 1 109 0 discriminator 2
 447 002e 1420     		movs	r0, #20
 448 0030 FFF7FEFF 		bl	delay_us
 449              	.LVL65:
 100:.\i2c_core.c  ****     {
 450              		.loc 1 100 0 discriminator 2
 451 0034 0135     		adds	r5, r5, #1
 452              	.LVL66:
 453 0036 EDB2     		uxtb	r5, r5
 454              	.LVL67:
 455              	.L24:
 100:.\i2c_core.c  ****     {
 456              		.loc 1 100 0 is_stmt 0 discriminator 1
 457 0038 072D     		cmp	r5, #7
 458 003a E8D9     		bls	.L26
 112:.\i2c_core.c  **** static unsigned char ReceiveACK( void )
 459              		.loc 1 112 0 is_stmt 1
 460 003c 2046     		mov	r0, r4
ARM GAS  C:\Users\PANXIA~1\AppData\Local\Temp\ccmbdjJx.s 			page 12


 461 003e 38BD     		pop	{r3, r4, r5, pc}
 462              		.cfi_endproc
 463              	.LFE70:
 464              		.size	I2C_readbyte, .-I2C_readbyte
 465              		.section	.text.SYS_I2C_Init,"ax",%progbits
 466              		.align	2
 467              		.global	SYS_I2C_Init
 468              		.thumb
 469              		.thumb_func
 470              		.type	SYS_I2C_Init, %function
 471              	SYS_I2C_Init:
 472              	.LFB64:
  19:.\i2c_core.c  ****   I2C_CLK_HIGH();
 473              		.loc 1 19 0
 474              		.cfi_startproc
 475              		@ args = 0, pretend = 0, frame = 0
 476              		@ frame_needed = 0, uses_anonymous_args = 0
 477 0000 08B5     		push	{r3, lr}
 478              		.cfi_def_cfa_offset 8
 479              		.cfi_offset 3, -8
 480              		.cfi_offset 14, -4
  20:.\i2c_core.c  ****   delay_us(20);
 481              		.loc 1 20 0
 482 0002 0120     		movs	r0, #1
 483 0004 FFF7FEFF 		bl	SCL_Write
 484              	.LVL68:
  21:.\i2c_core.c  ****   I2C_CLK_LOW(); 
 485              		.loc 1 21 0
 486 0008 1420     		movs	r0, #20
 487 000a FFF7FEFF 		bl	delay_us
 488              	.LVL69:
  22:.\i2c_core.c  ****   delay_us(2000);
 489              		.loc 1 22 0
 490 000e 0020     		movs	r0, #0
 491 0010 FFF7FEFF 		bl	SCL_Write
 492              	.LVL70:
  23:.\i2c_core.c  ****   I2C_CLK_HIGH();
 493              		.loc 1 23 0
 494 0014 4FF4FA60 		mov	r0, #2000
 495 0018 FFF7FEFF 		bl	delay_us
 496              	.LVL71:
  24:.\i2c_core.c  **** 
 497              		.loc 1 24 0
 498 001c 0120     		movs	r0, #1
 499 001e FFF7FEFF 		bl	SCL_Write
 500              	.LVL72:
 501 0022 08BD     		pop	{r3, pc}
 502              		.cfi_endproc
 503              	.LFE64:
 504              		.size	SYS_I2C_Init, .-SYS_I2C_Init
 505              		.section	.text.SMbus_GetCrc8,"ax",%progbits
 506              		.align	2
 507              		.global	SMbus_GetCrc8
 508              		.thumb
 509              		.thumb_func
 510              		.type	SMbus_GetCrc8, %function
 511              	SMbus_GetCrc8:
ARM GAS  C:\Users\PANXIA~1\AppData\Local\Temp\ccmbdjJx.s 			page 13


 512              	.LFB72:
 125:.\i2c_core.c  **** uint8 a_SM_PecTable[16]={0x00,0x07,0x0E,0x09,0x1C,0x1B,0x12,0x15,0x38,0x3F,0x36,0x31,0x24,0x23,0x2A
 126:.\i2c_core.c  **** uint8 SMbus_GetCrc8(uint8 previous, uint8  data)
 127:.\i2c_core.c  **** {
 513              		.loc 1 127 0
 514              		.cfi_startproc
 515              		@ args = 0, pretend = 0, frame = 0
 516              		@ frame_needed = 0, uses_anonymous_args = 0
 517              		@ link register save eliminated.
 518              	.LVL73:
 128:.\i2c_core.c  **** 	uint8 i, crc=0;
 129:.\i2c_core.c  **** 	crc = 0;
 130:.\i2c_core.c  ****   data = previous ^ data;
 519              		.loc 1 130 0
 520 0000 4140     		eors	r1, r1, r0
 521              	.LVL74:
 131:.\i2c_core.c  ****   crc = (crc << 4) ^ a_SM_PecTable[((crc ^ data) >> 4) & 0x0F];
 522              		.loc 1 131 0
 523 0002 0A09     		lsrs	r2, r1, #4
 524 0004 054B     		ldr	r3, .L31
 525 0006 985C     		ldrb	r0, [r3, r2]	@ zero_extendqisi2
 526              	.LVL75:
 132:.\i2c_core.c  ****   data <<= 4;//准备下一个位域,域宽4
 527              		.loc 1 132 0
 528 0008 0901     		lsls	r1, r1, #4
 529              	.LVL76:
 530 000a C9B2     		uxtb	r1, r1
 531              	.LVL77:
 133:.\i2c_core.c  ****   crc = (crc << 4) ^ a_SM_PecTable[((crc ^ data) >> 4) & 0x0F];
 532              		.loc 1 133 0
 533 000c 4140     		eors	r1, r1, r0
 534              	.LVL78:
 535 000e 0909     		lsrs	r1, r1, #4
 536 0010 5B5C     		ldrb	r3, [r3, r1]	@ zero_extendqisi2
 537 0012 83EA0010 		eor	r0, r3, r0, lsl #4
 538              	.LVL79:
 134:.\i2c_core.c  ****   return crc;
 135:.\i2c_core.c  **** }
 539              		.loc 1 135 0
 540 0016 C0B2     		uxtb	r0, r0
 541 0018 7047     		bx	lr
 542              	.L32:
 543 001a 00BF     		.align	2
 544              	.L31:
 545 001c 00000000 		.word	.LANCHOR0
 546              		.cfi_endproc
 547              	.LFE72:
 548              		.size	SMbus_GetCrc8, .-SMbus_GetCrc8
 549              		.section	.text.I2C_Write,"ax",%progbits
 550              		.align	2
 551              		.global	I2C_Write
 552              		.thumb
 553              		.thumb_func
 554              		.type	I2C_Write, %function
 555              	I2C_Write:
 556              	.LFB73:
 136:.\i2c_core.c  **** unsigned char I2C_Write( unsigned char slave_add, unsigned char I2CAddress, unsigned char *I2CData,
ARM GAS  C:\Users\PANXIA~1\AppData\Local\Temp\ccmbdjJx.s 			page 14


 137:.\i2c_core.c  **** {
 557              		.loc 1 137 0
 558              		.cfi_startproc
 559              		@ args = 0, pretend = 0, frame = 0
 560              		@ frame_needed = 0, uses_anonymous_args = 0
 561              	.LVL80:
 562 0000 2DE9F843 		push	{r3, r4, r5, r6, r7, r8, r9, lr}
 563              		.cfi_def_cfa_offset 32
 564              		.cfi_offset 3, -32
 565              		.cfi_offset 4, -28
 566              		.cfi_offset 5, -24
 567              		.cfi_offset 6, -20
 568              		.cfi_offset 7, -16
 569              		.cfi_offset 8, -12
 570              		.cfi_offset 9, -8
 571              		.cfi_offset 14, -4
 572 0004 0446     		mov	r4, r0
 573 0006 0E46     		mov	r6, r1
 574 0008 1546     		mov	r5, r2
 575 000a 1F46     		mov	r7, r3
 576              	.LVL81:
 138:.\i2c_core.c  ****     unsigned char i;
 139:.\i2c_core.c  ****     
 140:.\i2c_core.c  ****     uint8 pec;
 141:.\i2c_core.c  **** 	pec = 0;
 142:.\i2c_core.c  **** 	pec = SMbus_GetCrc8(pec,slave_add);
 577              		.loc 1 142 0
 578 000c 0020     		movs	r0, #0
 579              	.LVL82:
 580 000e 2146     		mov	r1, r4
 581              	.LVL83:
 582 0010 FFF7FEFF 		bl	SMbus_GetCrc8
 583              	.LVL84:
 143:.\i2c_core.c  **** 	pec = SMbus_GetCrc8(pec,I2CAddress);
 584              		.loc 1 143 0
 585 0014 3146     		mov	r1, r6
 586 0016 FFF7FEFF 		bl	SMbus_GetCrc8
 587              	.LVL85:
 144:.\i2c_core.c  **** 	pec = SMbus_GetCrc8(pec,*I2CData);
 588              		.loc 1 144 0
 589 001a 2978     		ldrb	r1, [r5]	@ zero_extendqisi2
 590 001c FFF7FEFF 		bl	SMbus_GetCrc8
 591              	.LVL86:
 145:.\i2c_core.c  ****     pec = SMbus_GetCrc8(pec,0);
 592              		.loc 1 145 0
 593 0020 0021     		movs	r1, #0
 594 0022 FFF7FEFF 		bl	SMbus_GetCrc8
 595              	.LVL87:
 596 0026 8046     		mov	r8, r0
 597              	.LVL88:
 146:.\i2c_core.c  ****     I2C_Start();
 598              		.loc 1 146 0
 599 0028 FFF7FEFF 		bl	I2C_Start
 600              	.LVL89:
 147:.\i2c_core.c  **** 
 148:.\i2c_core.c  ****     I2C_sendbyte( slave_add << 1 );
 601              		.loc 1 148 0
ARM GAS  C:\Users\PANXIA~1\AppData\Local\Temp\ccmbdjJx.s 			page 15


 602 002c 6000     		lsls	r0, r4, #1
 603 002e 00F0FE00 		and	r0, r0, #254
 604 0032 FFF7FEFF 		bl	I2C_sendbyte
 605              	.LVL90:
 149:.\i2c_core.c  ****     if( ReceiveACK() )
 606              		.loc 1 149 0
 607 0036 FFF7FEFF 		bl	ReceiveACK
 608              	.LVL91:
 609 003a 20B1     		cbz	r0, .L34
 150:.\i2c_core.c  ****     {
 151:.\i2c_core.c  ****       I2C_Stop();
 610              		.loc 1 151 0
 611 003c FFF7FEFF 		bl	I2C_Stop
 612              	.LVL92:
 152:.\i2c_core.c  ****       return 0;
 613              		.loc 1 152 0
 614 0040 4FF00009 		mov	r9, #0
 615 0044 25E0     		b	.L35
 616              	.L34:
 617 0046 0446     		mov	r4, r0
 153:.\i2c_core.c  ****     };
 154:.\i2c_core.c  **** 
 155:.\i2c_core.c  ****     I2C_sendbyte(I2CAddress); 
 618              		.loc 1 155 0
 619 0048 3046     		mov	r0, r6
 620 004a FFF7FEFF 		bl	I2C_sendbyte
 621              	.LVL93:
 156:.\i2c_core.c  ****     if( ReceiveACK() )
 622              		.loc 1 156 0
 623 004e FFF7FEFF 		bl	ReceiveACK
 624              	.LVL94:
 625 0052 8146     		mov	r9, r0
 626 0054 70B1     		cbz	r0, .L40
 157:.\i2c_core.c  ****     {
 158:.\i2c_core.c  ****       I2C_Stop();
 627              		.loc 1 158 0
 628 0056 FFF7FEFF 		bl	I2C_Stop
 629              	.LVL95:
 159:.\i2c_core.c  ****       return 0;
 630              		.loc 1 159 0
 631 005a A146     		mov	r9, r4
 632 005c 19E0     		b	.L35
 633              	.LVL96:
 634              	.L38:
 160:.\i2c_core.c  ****     };
 161:.\i2c_core.c  **** 
 162:.\i2c_core.c  **** 		for( i = 0 ; i < size; i ++ )
 163:.\i2c_core.c  **** 		{
 164:.\i2c_core.c  **** 			I2C_sendbyte(*I2CData++);
 635              		.loc 1 164 0
 636 005e 6E1C     		adds	r6, r5, #1
 637              	.LVL97:
 638 0060 2878     		ldrb	r0, [r5]	@ zero_extendqisi2
 639 0062 FFF7FEFF 		bl	I2C_sendbyte
 640              	.LVL98:
 165:.\i2c_core.c  **** 			if( ReceiveACK() )
 641              		.loc 1 165 0
ARM GAS  C:\Users\PANXIA~1\AppData\Local\Temp\ccmbdjJx.s 			page 16


 642 0066 FFF7FEFF 		bl	ReceiveACK
 643              	.LVL99:
 644 006a 30B9     		cbnz	r0, .L37
 162:.\i2c_core.c  **** 		{
 645              		.loc 1 162 0 discriminator 2
 646 006c 0134     		adds	r4, r4, #1
 647              	.LVL100:
 648 006e E4B2     		uxtb	r4, r4
 649              	.LVL101:
 164:.\i2c_core.c  **** 			if( ReceiveACK() )
 650              		.loc 1 164 0 discriminator 2
 651 0070 3546     		mov	r5, r6
 652 0072 00E0     		b	.L36
 653              	.LVL102:
 654              	.L40:
 655 0074 0024     		movs	r4, #0
 656              	.L36:
 657              	.LVL103:
 162:.\i2c_core.c  **** 		{
 658              		.loc 1 162 0 discriminator 1
 659 0076 BC42     		cmp	r4, r7
 660 0078 F1D3     		bcc	.L38
 661              	.LVL104:
 662              	.L37:
 166:.\i2c_core.c  **** 					break;
 167:.\i2c_core.c  ****             
 168:.\i2c_core.c  **** 		}
 169:.\i2c_core.c  ****     I2C_sendbyte(pec);//pec
 663              		.loc 1 169 0
 664 007a 4046     		mov	r0, r8
 665 007c FFF7FEFF 		bl	I2C_sendbyte
 666              	.LVL105:
 170:.\i2c_core.c  ****     if( ReceiveACK()
 667              		.loc 1 170 0
 668 0080 FFF7FEFF 		bl	ReceiveACK
 669              	.LVL106:
 670 0084 10B1     		cbz	r0, .L39
 171:.\i2c_core.c  ****     )
 172:.\i2c_core.c  ****     {
 173:.\i2c_core.c  ****       I2C_Stop();
 671              		.loc 1 173 0
 672 0086 FFF7FEFF 		bl	I2C_Stop
 673              	.LVL107:
 174:.\i2c_core.c  ****       return 0;
 674              		.loc 1 174 0
 675 008a 02E0     		b	.L35
 676              	.L39:
 175:.\i2c_core.c  ****     };
 176:.\i2c_core.c  ****     I2C_Stop(); 
 677              		.loc 1 176 0
 678 008c FFF7FEFF 		bl	I2C_Stop
 679              	.LVL108:
 177:.\i2c_core.c  ****     return i;
 680              		.loc 1 177 0
 681 0090 A146     		mov	r9, r4
 682              	.LVL109:
 683              	.L35:
ARM GAS  C:\Users\PANXIA~1\AppData\Local\Temp\ccmbdjJx.s 			page 17


 178:.\i2c_core.c  **** }
 684              		.loc 1 178 0
 685 0092 4846     		mov	r0, r9
 686 0094 BDE8F883 		pop	{r3, r4, r5, r6, r7, r8, r9, pc}
 687              		.cfi_endproc
 688              	.LFE73:
 689              		.size	I2C_Write, .-I2C_Write
 690              		.section	.text.I2C_Read,"ax",%progbits
 691              		.align	2
 692              		.global	I2C_Read
 693              		.thumb
 694              		.thumb_func
 695              		.type	I2C_Read, %function
 696              	I2C_Read:
 697              	.LFB74:
 179:.\i2c_core.c  **** 
 180:.\i2c_core.c  **** unsigned char I2C_Read( unsigned char slave_add, unsigned char I2CAddress, unsigned char *I2CData, 
 181:.\i2c_core.c  **** {
 698              		.loc 1 181 0
 699              		.cfi_startproc
 700              		@ args = 0, pretend = 0, frame = 0
 701              		@ frame_needed = 0, uses_anonymous_args = 0
 702              	.LVL110:
 703 0000 2DE9F041 		push	{r4, r5, r6, r7, r8, lr}
 704              		.cfi_def_cfa_offset 24
 705              		.cfi_offset 4, -24
 706              		.cfi_offset 5, -20
 707              		.cfi_offset 6, -16
 708              		.cfi_offset 7, -12
 709              		.cfi_offset 8, -8
 710              		.cfi_offset 14, -4
 711 0004 0746     		mov	r7, r0
 712 0006 8846     		mov	r8, r1
 713 0008 1546     		mov	r5, r2
 714 000a 1E46     		mov	r6, r3
 182:.\i2c_core.c  **** 	unsigned char i;
 183:.\i2c_core.c  **** 
 184:.\i2c_core.c  ****     I2C_Start(); 
 715              		.loc 1 184 0
 716 000c FFF7FEFF 		bl	I2C_Start
 717              	.LVL111:
 185:.\i2c_core.c  **** 
 186:.\i2c_core.c  ****     I2C_sendbyte( slave_add  );
 718              		.loc 1 186 0
 719 0010 3846     		mov	r0, r7
 720 0012 FFF7FEFF 		bl	I2C_sendbyte
 721              	.LVL112:
 187:.\i2c_core.c  ****     if( ReceiveACK() )
 722              		.loc 1 187 0
 723 0016 FFF7FEFF 		bl	ReceiveACK
 724              	.LVL113:
 725 001a 18B1     		cbz	r0, .L43
 188:.\i2c_core.c  ****     {
 189:.\i2c_core.c  ****       I2C_Stop();
 726              		.loc 1 189 0
 727 001c FFF7FEFF 		bl	I2C_Stop
 728              	.LVL114:
ARM GAS  C:\Users\PANXIA~1\AppData\Local\Temp\ccmbdjJx.s 			page 18


 190:.\i2c_core.c  ****       return 0;
 729              		.loc 1 190 0
 730 0020 0024     		movs	r4, #0
 731 0022 2CE0     		b	.L44
 732              	.L43:
 733 0024 0446     		mov	r4, r0
 191:.\i2c_core.c  ****     };
 192:.\i2c_core.c  ****   //  CyDelay(50);
 193:.\i2c_core.c  ****     I2C_sendbyte(I2CAddress); 
 734              		.loc 1 193 0
 735 0026 4046     		mov	r0, r8
 736 0028 FFF7FEFF 		bl	I2C_sendbyte
 737              	.LVL115:
 194:.\i2c_core.c  ****     if( ReceiveACK() )
 738              		.loc 1 194 0
 739 002c FFF7FEFF 		bl	ReceiveACK
 740              	.LVL116:
 741 0030 8046     		mov	r8, r0
 742 0032 10B1     		cbz	r0, .L45
 195:.\i2c_core.c  ****     {
 196:.\i2c_core.c  ****       I2C_Stop();
 743              		.loc 1 196 0
 744 0034 FFF7FEFF 		bl	I2C_Stop
 745              	.LVL117:
 197:.\i2c_core.c  ****       return 0;
 746              		.loc 1 197 0
 747 0038 21E0     		b	.L44
 748              	.L45:
 198:.\i2c_core.c  ****     };
 199:.\i2c_core.c  **** 
 200:.\i2c_core.c  ****     I2C_Start();
 749              		.loc 1 200 0
 750 003a FFF7FEFF 		bl	I2C_Start
 751              	.LVL118:
 201:.\i2c_core.c  **** 
 202:.\i2c_core.c  ****     I2C_sendbyte( (slave_add) | 1 );
 752              		.loc 1 202 0
 753 003e 47F00100 		orr	r0, r7, #1
 754 0042 FFF7FEFF 		bl	I2C_sendbyte
 755              	.LVL119:
 203:.\i2c_core.c  ****     if( ReceiveACK() )
 756              		.loc 1 203 0
 757 0046 FFF7FEFF 		bl	ReceiveACK
 758              	.LVL120:
 759 004a 98B1     		cbz	r0, .L50
 204:.\i2c_core.c  ****     {
 205:.\i2c_core.c  ****       I2C_Stop();
 760              		.loc 1 205 0
 761 004c FFF7FEFF 		bl	I2C_Stop
 762              	.LVL121:
 206:.\i2c_core.c  ****       return 0;
 763              		.loc 1 206 0
 764 0050 4446     		mov	r4, r8
 765 0052 14E0     		b	.L44
 766              	.LVL122:
 767              	.L49:
 207:.\i2c_core.c  ****     };
ARM GAS  C:\Users\PANXIA~1\AppData\Local\Temp\ccmbdjJx.s 			page 19


 208:.\i2c_core.c  **** 
 209:.\i2c_core.c  **** 		for( i = 0 ; i< size; i ++ )
 210:.\i2c_core.c  **** 		{
 211:.\i2c_core.c  **** 			*I2CData++ = I2C_readbyte();
 768              		.loc 1 211 0
 769 0054 6F1C     		adds	r7, r5, #1
 770              	.LVL123:
 771 0056 FFF7FEFF 		bl	I2C_readbyte
 772              	.LVL124:
 773 005a 2870     		strb	r0, [r5]
 212:.\i2c_core.c  **** 			
 213:.\i2c_core.c  **** 			if( i+1 == size )
 774              		.loc 1 213 0
 775 005c 631C     		adds	r3, r4, #1
 776 005e B342     		cmp	r3, r6
 777 0060 02D1     		bne	.L47
 214:.\i2c_core.c  **** 				I2C_nack();
 778              		.loc 1 214 0
 779 0062 FFF7FEFF 		bl	I2C_nack
 780              	.LVL125:
 781 0066 01E0     		b	.L48
 782              	.L47:
 215:.\i2c_core.c  **** 			else
 216:.\i2c_core.c  **** 				I2C_ack();
 783              		.loc 1 216 0
 784 0068 FFF7FEFF 		bl	I2C_ack
 785              	.LVL126:
 786              	.L48:
 209:.\i2c_core.c  **** 		{
 787              		.loc 1 209 0 discriminator 2
 788 006c 0134     		adds	r4, r4, #1
 789              	.LVL127:
 790 006e E4B2     		uxtb	r4, r4
 791              	.LVL128:
 211:.\i2c_core.c  **** 			
 792              		.loc 1 211 0 discriminator 2
 793 0070 3D46     		mov	r5, r7
 794 0072 00E0     		b	.L46
 795              	.LVL129:
 796              	.L50:
 797 0074 0024     		movs	r4, #0
 798              	.L46:
 799              	.LVL130:
 209:.\i2c_core.c  **** 		{
 800              		.loc 1 209 0 discriminator 1
 801 0076 B442     		cmp	r4, r6
 802 0078 ECD3     		bcc	.L49
 217:.\i2c_core.c  **** 		}
 218:.\i2c_core.c  **** 
 219:.\i2c_core.c  ****     I2C_Stop();
 803              		.loc 1 219 0
 804 007a FFF7FEFF 		bl	I2C_Stop
 805              	.LVL131:
 806              	.L44:
 220:.\i2c_core.c  **** 
 221:.\i2c_core.c  ****     return  i;
 222:.\i2c_core.c  **** }
ARM GAS  C:\Users\PANXIA~1\AppData\Local\Temp\ccmbdjJx.s 			page 20


 807              		.loc 1 222 0
 808 007e 2046     		mov	r0, r4
 809 0080 BDE8F081 		pop	{r4, r5, r6, r7, r8, pc}
 810              		.cfi_endproc
 811              	.LFE74:
 812              		.size	I2C_Read, .-I2C_Read
 813              		.global	a_SM_PecTable
 814              		.data
 815              		.align	2
 816              		.set	.LANCHOR0,. + 0
 817              		.type	a_SM_PecTable, %object
 818              		.size	a_SM_PecTable, 16
 819              	a_SM_PecTable:
 820 0000 00       		.byte	0
 821 0001 07       		.byte	7
 822 0002 0E       		.byte	14
 823 0003 09       		.byte	9
 824 0004 1C       		.byte	28
 825 0005 1B       		.byte	27
 826 0006 12       		.byte	18
 827 0007 15       		.byte	21
 828 0008 38       		.byte	56
 829 0009 3F       		.byte	63
 830 000a 36       		.byte	54
 831 000b 31       		.byte	49
 832 000c 24       		.byte	36
 833 000d 23       		.byte	35
 834 000e 2A       		.byte	42
 835 000f 2D       		.byte	45
 836              		.text
 837              	.Letext0:
 838              		.file 2 "d:\\program files (x86)\\cypress\\psoc creator\\3.3\\psoc creator\\import\\gnu\\arm\\4.9.
 839              		.file 3 "d:\\program files (x86)\\cypress\\psoc creator\\3.3\\psoc creator\\import\\gnu\\arm\\4.9.
 840              		.file 4 "Generated_Source\\PSoC5/cytypes.h"
 841              		.file 5 "Generated_Source\\PSoC5/core_cm3.h"
 842              		.file 6 "Generated_Source\\PSoC5/SCL.h"
 843              		.file 7 "Generated_Source\\PSoC5/SDL.h"