ARM GAS  C:\Users\pxc\AppData\Local\Temp\cc5ixUNl.s 			page 1


   1              		.syntax unified
   2              		.cpu cortex-m3
   3              		.fpu softvfp
   4              		.eabi_attribute 20, 1
   5              		.eabi_attribute 21, 1
   6              		.eabi_attribute 23, 3
   7              		.eabi_attribute 24, 1
   8              		.eabi_attribute 25, 1
   9              		.eabi_attribute 26, 1
  10              		.eabi_attribute 30, 1
  11              		.eabi_attribute 34, 1
  12              		.eabi_attribute 18, 4
  13              		.thumb
  14              		.file	"isr_rx_jy.c"
  15              		.text
  16              	.Ltext0:
  17              		.cfi_sections	.debug_frame
  18              		.section	.text.isr_rx_jy_Interrupt,"ax",%progbits
  19              		.align	2
  20              		.global	isr_rx_jy_Interrupt
  21              		.thumb
  22              		.thumb_func
  23              		.type	isr_rx_jy_Interrupt, %function
  24              	isr_rx_jy_Interrupt:
  25              	.LFB66:
  26              		.file 1 ".\\Generated_Source\\PSoC5\\isr_rx_jy.c"
   1:.\Generated_Source\PSoC5/isr_rx_jy.c **** /*******************************************************************************
   2:.\Generated_Source\PSoC5/isr_rx_jy.c **** * File Name: isr_rx_jy.c  
   3:.\Generated_Source\PSoC5/isr_rx_jy.c **** * Version 1.70
   4:.\Generated_Source\PSoC5/isr_rx_jy.c **** *
   5:.\Generated_Source\PSoC5/isr_rx_jy.c **** *  Description:
   6:.\Generated_Source\PSoC5/isr_rx_jy.c **** *   API for controlling the state of an interrupt.
   7:.\Generated_Source\PSoC5/isr_rx_jy.c **** *
   8:.\Generated_Source\PSoC5/isr_rx_jy.c **** *
   9:.\Generated_Source\PSoC5/isr_rx_jy.c **** *  Note:
  10:.\Generated_Source\PSoC5/isr_rx_jy.c **** *
  11:.\Generated_Source\PSoC5/isr_rx_jy.c **** ********************************************************************************
  12:.\Generated_Source\PSoC5/isr_rx_jy.c **** * Copyright 2008-2015, Cypress Semiconductor Corporation.  All rights reserved.
  13:.\Generated_Source\PSoC5/isr_rx_jy.c **** * You may use this file only in accordance with the license, terms, conditions, 
  14:.\Generated_Source\PSoC5/isr_rx_jy.c **** * disclaimers, and limitations in the end user license agreement accompanying 
  15:.\Generated_Source\PSoC5/isr_rx_jy.c **** * the software package with which this file was provided.
  16:.\Generated_Source\PSoC5/isr_rx_jy.c **** *******************************************************************************/
  17:.\Generated_Source\PSoC5/isr_rx_jy.c **** 
  18:.\Generated_Source\PSoC5/isr_rx_jy.c **** 
  19:.\Generated_Source\PSoC5/isr_rx_jy.c **** #include <cydevice_trm.h>
  20:.\Generated_Source\PSoC5/isr_rx_jy.c **** #include <CyLib.h>
  21:.\Generated_Source\PSoC5/isr_rx_jy.c **** #include <isr_rx_jy.h>
  22:.\Generated_Source\PSoC5/isr_rx_jy.c **** #include "cyapicallbacks.h"
  23:.\Generated_Source\PSoC5/isr_rx_jy.c **** 
  24:.\Generated_Source\PSoC5/isr_rx_jy.c **** #if !defined(isr_rx_jy__REMOVED) /* Check for removal by optimization */
  25:.\Generated_Source\PSoC5/isr_rx_jy.c **** 
  26:.\Generated_Source\PSoC5/isr_rx_jy.c **** /*******************************************************************************
  27:.\Generated_Source\PSoC5/isr_rx_jy.c **** *  Place your includes, defines and code here 
  28:.\Generated_Source\PSoC5/isr_rx_jy.c **** ********************************************************************************/
  29:.\Generated_Source\PSoC5/isr_rx_jy.c **** /* `#START isr_rx_jy_intc` */
  30:.\Generated_Source\PSoC5/isr_rx_jy.c ****     #include "UART_jy.h"
  31:.\Generated_Source\PSoC5/isr_rx_jy.c ****     #include "Transfer.h"
ARM GAS  C:\Users\pxc\AppData\Local\Temp\cc5ixUNl.s 			page 2


  32:.\Generated_Source\PSoC5/isr_rx_jy.c ****     static unsigned char Re_buf[11],counter=0;
  33:.\Generated_Source\PSoC5/isr_rx_jy.c **** /* `#END` */
  34:.\Generated_Source\PSoC5/isr_rx_jy.c **** 
  35:.\Generated_Source\PSoC5/isr_rx_jy.c **** #ifndef CYINT_IRQ_BASE
  36:.\Generated_Source\PSoC5/isr_rx_jy.c **** #define CYINT_IRQ_BASE      16
  37:.\Generated_Source\PSoC5/isr_rx_jy.c **** #endif /* CYINT_IRQ_BASE */
  38:.\Generated_Source\PSoC5/isr_rx_jy.c **** #ifndef CYINT_VECT_TABLE
  39:.\Generated_Source\PSoC5/isr_rx_jy.c **** #define CYINT_VECT_TABLE    ((cyisraddress **) CYREG_NVIC_VECT_OFFSET)
  40:.\Generated_Source\PSoC5/isr_rx_jy.c **** #endif /* CYINT_VECT_TABLE */
  41:.\Generated_Source\PSoC5/isr_rx_jy.c **** 
  42:.\Generated_Source\PSoC5/isr_rx_jy.c **** /* Declared in startup, used to set unused interrupts to. */
  43:.\Generated_Source\PSoC5/isr_rx_jy.c **** CY_ISR_PROTO(IntDefaultHandler);
  44:.\Generated_Source\PSoC5/isr_rx_jy.c **** 
  45:.\Generated_Source\PSoC5/isr_rx_jy.c **** 
  46:.\Generated_Source\PSoC5/isr_rx_jy.c **** /*******************************************************************************
  47:.\Generated_Source\PSoC5/isr_rx_jy.c **** * Function Name: isr_rx_jy_Start
  48:.\Generated_Source\PSoC5/isr_rx_jy.c **** ********************************************************************************
  49:.\Generated_Source\PSoC5/isr_rx_jy.c **** *
  50:.\Generated_Source\PSoC5/isr_rx_jy.c **** * Summary:
  51:.\Generated_Source\PSoC5/isr_rx_jy.c **** *  Set up the interrupt and enable it. This function disables the interrupt, 
  52:.\Generated_Source\PSoC5/isr_rx_jy.c **** *  sets the default interrupt vector, sets the priority from the value in the
  53:.\Generated_Source\PSoC5/isr_rx_jy.c **** *  Design Wide Resources Interrupt Editor, then enables the interrupt to the 
  54:.\Generated_Source\PSoC5/isr_rx_jy.c **** *  interrupt controller.
  55:.\Generated_Source\PSoC5/isr_rx_jy.c **** *
  56:.\Generated_Source\PSoC5/isr_rx_jy.c **** * Parameters:  
  57:.\Generated_Source\PSoC5/isr_rx_jy.c **** *   None
  58:.\Generated_Source\PSoC5/isr_rx_jy.c **** *
  59:.\Generated_Source\PSoC5/isr_rx_jy.c **** * Return:
  60:.\Generated_Source\PSoC5/isr_rx_jy.c **** *   None
  61:.\Generated_Source\PSoC5/isr_rx_jy.c **** *
  62:.\Generated_Source\PSoC5/isr_rx_jy.c **** *******************************************************************************/
  63:.\Generated_Source\PSoC5/isr_rx_jy.c **** void isr_rx_jy_Start(void)
  64:.\Generated_Source\PSoC5/isr_rx_jy.c **** {
  65:.\Generated_Source\PSoC5/isr_rx_jy.c ****     /* For all we know the interrupt is active. */
  66:.\Generated_Source\PSoC5/isr_rx_jy.c ****     isr_rx_jy_Disable();
  67:.\Generated_Source\PSoC5/isr_rx_jy.c **** 
  68:.\Generated_Source\PSoC5/isr_rx_jy.c ****     /* Set the ISR to point to the isr_rx_jy Interrupt. */
  69:.\Generated_Source\PSoC5/isr_rx_jy.c ****     isr_rx_jy_SetVector(&isr_rx_jy_Interrupt);
  70:.\Generated_Source\PSoC5/isr_rx_jy.c **** 
  71:.\Generated_Source\PSoC5/isr_rx_jy.c ****     /* Set the priority. */
  72:.\Generated_Source\PSoC5/isr_rx_jy.c ****     isr_rx_jy_SetPriority((uint8)isr_rx_jy_INTC_PRIOR_NUMBER);
  73:.\Generated_Source\PSoC5/isr_rx_jy.c **** 
  74:.\Generated_Source\PSoC5/isr_rx_jy.c ****     /* Enable it. */
  75:.\Generated_Source\PSoC5/isr_rx_jy.c ****     isr_rx_jy_Enable();
  76:.\Generated_Source\PSoC5/isr_rx_jy.c **** }
  77:.\Generated_Source\PSoC5/isr_rx_jy.c **** 
  78:.\Generated_Source\PSoC5/isr_rx_jy.c **** 
  79:.\Generated_Source\PSoC5/isr_rx_jy.c **** /*******************************************************************************
  80:.\Generated_Source\PSoC5/isr_rx_jy.c **** * Function Name: isr_rx_jy_StartEx
  81:.\Generated_Source\PSoC5/isr_rx_jy.c **** ********************************************************************************
  82:.\Generated_Source\PSoC5/isr_rx_jy.c **** *
  83:.\Generated_Source\PSoC5/isr_rx_jy.c **** * Summary:
  84:.\Generated_Source\PSoC5/isr_rx_jy.c **** *  Sets up the interrupt and enables it. This function disables the interrupt,
  85:.\Generated_Source\PSoC5/isr_rx_jy.c **** *  sets the interrupt vector based on the address passed in, sets the priority 
  86:.\Generated_Source\PSoC5/isr_rx_jy.c **** *  from the value in the Design Wide Resources Interrupt Editor, then enables 
  87:.\Generated_Source\PSoC5/isr_rx_jy.c **** *  the interrupt to the interrupt controller.
  88:.\Generated_Source\PSoC5/isr_rx_jy.c **** *  
ARM GAS  C:\Users\pxc\AppData\Local\Temp\cc5ixUNl.s 			page 3


  89:.\Generated_Source\PSoC5/isr_rx_jy.c **** *  When defining ISR functions, the CY_ISR and CY_ISR_PROTO macros should be 
  90:.\Generated_Source\PSoC5/isr_rx_jy.c **** *  used to provide consistent definition across compilers:
  91:.\Generated_Source\PSoC5/isr_rx_jy.c **** *  
  92:.\Generated_Source\PSoC5/isr_rx_jy.c **** *  Function definition example:
  93:.\Generated_Source\PSoC5/isr_rx_jy.c **** *   CY_ISR(MyISR)
  94:.\Generated_Source\PSoC5/isr_rx_jy.c **** *   {
  95:.\Generated_Source\PSoC5/isr_rx_jy.c **** *   }
  96:.\Generated_Source\PSoC5/isr_rx_jy.c **** *   Function prototype example:
  97:.\Generated_Source\PSoC5/isr_rx_jy.c **** *   CY_ISR_PROTO(MyISR);
  98:.\Generated_Source\PSoC5/isr_rx_jy.c **** *
  99:.\Generated_Source\PSoC5/isr_rx_jy.c **** * Parameters:  
 100:.\Generated_Source\PSoC5/isr_rx_jy.c **** *   address: Address of the ISR to set in the interrupt vector table.
 101:.\Generated_Source\PSoC5/isr_rx_jy.c **** *
 102:.\Generated_Source\PSoC5/isr_rx_jy.c **** * Return:
 103:.\Generated_Source\PSoC5/isr_rx_jy.c **** *   None
 104:.\Generated_Source\PSoC5/isr_rx_jy.c **** *
 105:.\Generated_Source\PSoC5/isr_rx_jy.c **** *******************************************************************************/
 106:.\Generated_Source\PSoC5/isr_rx_jy.c **** void isr_rx_jy_StartEx(cyisraddress address)
 107:.\Generated_Source\PSoC5/isr_rx_jy.c **** {
 108:.\Generated_Source\PSoC5/isr_rx_jy.c ****     /* For all we know the interrupt is active. */
 109:.\Generated_Source\PSoC5/isr_rx_jy.c ****     isr_rx_jy_Disable();
 110:.\Generated_Source\PSoC5/isr_rx_jy.c **** 
 111:.\Generated_Source\PSoC5/isr_rx_jy.c ****     /* Set the ISR to point to the isr_rx_jy Interrupt. */
 112:.\Generated_Source\PSoC5/isr_rx_jy.c ****     isr_rx_jy_SetVector(address);
 113:.\Generated_Source\PSoC5/isr_rx_jy.c **** 
 114:.\Generated_Source\PSoC5/isr_rx_jy.c ****     /* Set the priority. */
 115:.\Generated_Source\PSoC5/isr_rx_jy.c ****     isr_rx_jy_SetPriority((uint8)isr_rx_jy_INTC_PRIOR_NUMBER);
 116:.\Generated_Source\PSoC5/isr_rx_jy.c **** 
 117:.\Generated_Source\PSoC5/isr_rx_jy.c ****     /* Enable it. */
 118:.\Generated_Source\PSoC5/isr_rx_jy.c ****     isr_rx_jy_Enable();
 119:.\Generated_Source\PSoC5/isr_rx_jy.c **** }
 120:.\Generated_Source\PSoC5/isr_rx_jy.c **** 
 121:.\Generated_Source\PSoC5/isr_rx_jy.c **** 
 122:.\Generated_Source\PSoC5/isr_rx_jy.c **** /*******************************************************************************
 123:.\Generated_Source\PSoC5/isr_rx_jy.c **** * Function Name: isr_rx_jy_Stop
 124:.\Generated_Source\PSoC5/isr_rx_jy.c **** ********************************************************************************
 125:.\Generated_Source\PSoC5/isr_rx_jy.c **** *
 126:.\Generated_Source\PSoC5/isr_rx_jy.c **** * Summary:
 127:.\Generated_Source\PSoC5/isr_rx_jy.c **** *   Disables and removes the interrupt.
 128:.\Generated_Source\PSoC5/isr_rx_jy.c **** *
 129:.\Generated_Source\PSoC5/isr_rx_jy.c **** * Parameters:  
 130:.\Generated_Source\PSoC5/isr_rx_jy.c **** *   None
 131:.\Generated_Source\PSoC5/isr_rx_jy.c **** *
 132:.\Generated_Source\PSoC5/isr_rx_jy.c **** * Return:
 133:.\Generated_Source\PSoC5/isr_rx_jy.c **** *   None
 134:.\Generated_Source\PSoC5/isr_rx_jy.c **** *
 135:.\Generated_Source\PSoC5/isr_rx_jy.c **** *******************************************************************************/
 136:.\Generated_Source\PSoC5/isr_rx_jy.c **** void isr_rx_jy_Stop(void)
 137:.\Generated_Source\PSoC5/isr_rx_jy.c **** {
 138:.\Generated_Source\PSoC5/isr_rx_jy.c ****     /* Disable this interrupt. */
 139:.\Generated_Source\PSoC5/isr_rx_jy.c ****     isr_rx_jy_Disable();
 140:.\Generated_Source\PSoC5/isr_rx_jy.c **** 
 141:.\Generated_Source\PSoC5/isr_rx_jy.c ****     /* Set the ISR to point to the passive one. */
 142:.\Generated_Source\PSoC5/isr_rx_jy.c ****     isr_rx_jy_SetVector(&IntDefaultHandler);
 143:.\Generated_Source\PSoC5/isr_rx_jy.c **** }
 144:.\Generated_Source\PSoC5/isr_rx_jy.c **** 
 145:.\Generated_Source\PSoC5/isr_rx_jy.c **** 
ARM GAS  C:\Users\pxc\AppData\Local\Temp\cc5ixUNl.s 			page 4


 146:.\Generated_Source\PSoC5/isr_rx_jy.c **** /*******************************************************************************
 147:.\Generated_Source\PSoC5/isr_rx_jy.c **** * Function Name: isr_rx_jy_Interrupt
 148:.\Generated_Source\PSoC5/isr_rx_jy.c **** ********************************************************************************
 149:.\Generated_Source\PSoC5/isr_rx_jy.c **** *
 150:.\Generated_Source\PSoC5/isr_rx_jy.c **** * Summary:
 151:.\Generated_Source\PSoC5/isr_rx_jy.c **** *   The default Interrupt Service Routine for isr_rx_jy.
 152:.\Generated_Source\PSoC5/isr_rx_jy.c **** *
 153:.\Generated_Source\PSoC5/isr_rx_jy.c **** *   Add custom code between the coments to keep the next version of this file
 154:.\Generated_Source\PSoC5/isr_rx_jy.c **** *   from over writting your code.
 155:.\Generated_Source\PSoC5/isr_rx_jy.c **** *
 156:.\Generated_Source\PSoC5/isr_rx_jy.c **** * Parameters:  
 157:.\Generated_Source\PSoC5/isr_rx_jy.c **** *
 158:.\Generated_Source\PSoC5/isr_rx_jy.c **** * Return:
 159:.\Generated_Source\PSoC5/isr_rx_jy.c **** *   None
 160:.\Generated_Source\PSoC5/isr_rx_jy.c **** *
 161:.\Generated_Source\PSoC5/isr_rx_jy.c **** *******************************************************************************/
 162:.\Generated_Source\PSoC5/isr_rx_jy.c **** CY_ISR(isr_rx_jy_Interrupt)
 163:.\Generated_Source\PSoC5/isr_rx_jy.c **** {
  27              		.loc 1 163 0
  28              		.cfi_startproc
  29              		@ args = 0, pretend = 0, frame = 0
  30              		@ frame_needed = 0, uses_anonymous_args = 0
  31 0000 38B5     		push	{r3, r4, r5, lr}
  32              		.cfi_def_cfa_offset 16
  33              		.cfi_offset 3, -16
  34              		.cfi_offset 4, -12
  35              		.cfi_offset 5, -8
  36              		.cfi_offset 14, -4
 164:.\Generated_Source\PSoC5/isr_rx_jy.c ****     #ifdef isr_rx_jy_INTERRUPT_INTERRUPT_CALLBACK
 165:.\Generated_Source\PSoC5/isr_rx_jy.c ****         isr_rx_jy_Interrupt_InterruptCallback();
 166:.\Generated_Source\PSoC5/isr_rx_jy.c ****     #endif /* isr_rx_jy_INTERRUPT_INTERRUPT_CALLBACK */ 
 167:.\Generated_Source\PSoC5/isr_rx_jy.c **** 
 168:.\Generated_Source\PSoC5/isr_rx_jy.c ****     /*  Place your Interrupt code here. */
 169:.\Generated_Source\PSoC5/isr_rx_jy.c ****     /* `#START isr_rx_jy_Interrupt` */
 170:.\Generated_Source\PSoC5/isr_rx_jy.c ****     
 171:.\Generated_Source\PSoC5/isr_rx_jy.c ****     unsigned char sign;
 172:.\Generated_Source\PSoC5/isr_rx_jy.c ****     uint8 data; 
 173:.\Generated_Source\PSoC5/isr_rx_jy.c ****     
 174:.\Generated_Source\PSoC5/isr_rx_jy.c ****      Re_buf[counter]=UART_JY_GetChar();;//
  37              		.loc 1 174 0
  38 0002 324C     		ldr	r4, .L8
  39 0004 2578     		ldrb	r5, [r4]	@ zero_extendqisi2
  40 0006 FFF7FEFF 		bl	UART_JY_GetChar
  41              	.LVL0:
  42 000a 2544     		add	r5, r5, r4
  43 000c 2871     		strb	r0, [r5, #4]
 175:.\Generated_Source\PSoC5/isr_rx_jy.c ****      if(counter==0 && Re_buf[0]!=0x55) return; //第 0 号数据不是帧头，跳过
  44              		.loc 1 175 0
  45 000e 2378     		ldrb	r3, [r4]	@ zero_extendqisi2
  46 0010 13B9     		cbnz	r3, .L2
  47              		.loc 1 175 0 is_stmt 0 discriminator 1
  48 0012 2279     		ldrb	r2, [r4, #4]	@ zero_extendqisi2
  49 0014 552A     		cmp	r2, #85
  50 0016 57D1     		bne	.L1
  51              	.L2:
 176:.\Generated_Source\PSoC5/isr_rx_jy.c ****      counter++;
  52              		.loc 1 176 0 is_stmt 1
ARM GAS  C:\Users\pxc\AppData\Local\Temp\cc5ixUNl.s 			page 5


  53 0018 0133     		adds	r3, r3, #1
  54 001a DBB2     		uxtb	r3, r3
  55 001c 2B4A     		ldr	r2, .L8
  56 001e 1370     		strb	r3, [r2]
 177:.\Generated_Source\PSoC5/isr_rx_jy.c ****      if(counter==11) //接收到 11 个数据
  57              		.loc 1 177 0
  58 0020 0B2B     		cmp	r3, #11
  59 0022 51D1     		bne	.L1
 178:.\Generated_Source\PSoC5/isr_rx_jy.c ****      {
 179:.\Generated_Source\PSoC5/isr_rx_jy.c ****       counter = 0; //重新赋值，准备下一帧数据的接收
  60              		.loc 1 179 0
  61 0024 1346     		mov	r3, r2
  62 0026 0022     		movs	r2, #0
  63 0028 1A70     		strb	r2, [r3]
  64              	.LVL1:
 180:.\Generated_Source\PSoC5/isr_rx_jy.c ****       sign=1;
 181:.\Generated_Source\PSoC5/isr_rx_jy.c ****         if(Re_buf[0]==0x55) //检查帧头
  65              		.loc 1 181 0
  66 002a 1B79     		ldrb	r3, [r3, #4]	@ zero_extendqisi2
  67 002c 552B     		cmp	r3, #85
  68 002e 4BD1     		bne	.L1
 182:.\Generated_Source\PSoC5/isr_rx_jy.c ****         {
 183:.\Generated_Source\PSoC5/isr_rx_jy.c ****             switch(Re_buf [1])
  69              		.loc 1 183 0
  70 0030 264B     		ldr	r3, .L8
  71 0032 5B79     		ldrb	r3, [r3, #5]	@ zero_extendqisi2
  72 0034 522B     		cmp	r3, #82
  73 0036 1AD0     		beq	.L4
  74 0038 532B     		cmp	r3, #83
  75 003a 2FD0     		beq	.L5
  76 003c 512B     		cmp	r3, #81
  77 003e 43D1     		bne	.L1
 184:.\Generated_Source\PSoC5/isr_rx_jy.c ****             {
 185:.\Generated_Source\PSoC5/isr_rx_jy.c ****             case 0x51:
 186:.\Generated_Source\PSoC5/isr_rx_jy.c ****             S_IMU.acc_x = ((Re_buf[3]<<8 | Re_buf [2]));
  78              		.loc 1 186 0
  79 0040 224B     		ldr	r3, .L8
  80 0042 D879     		ldrb	r0, [r3, #7]	@ zero_extendqisi2
  81 0044 9979     		ldrb	r1, [r3, #6]	@ zero_extendqisi2
  82 0046 224A     		ldr	r2, .L8+4
  83 0048 41EA0021 		orr	r1, r1, r0, lsl #8
  84 004c 1180     		strh	r1, [r2]	@ movhi
 187:.\Generated_Source\PSoC5/isr_rx_jy.c ****             S_IMU.acc_y = ((Re_buf[5]<<8 | Re_buf [4]));
  85              		.loc 1 187 0
  86 004e 587A     		ldrb	r0, [r3, #9]	@ zero_extendqisi2
  87 0050 197A     		ldrb	r1, [r3, #8]	@ zero_extendqisi2
  88 0052 41EA0021 		orr	r1, r1, r0, lsl #8
  89 0056 5180     		strh	r1, [r2, #2]	@ movhi
 188:.\Generated_Source\PSoC5/isr_rx_jy.c ****             S_IMU.acc_z = ((Re_buf [7]<<8| Re_buf [6]));
  90              		.loc 1 188 0
  91 0058 D87A     		ldrb	r0, [r3, #11]	@ zero_extendqisi2
  92 005a 997A     		ldrb	r1, [r3, #10]	@ zero_extendqisi2
  93 005c 41EA0021 		orr	r1, r1, r0, lsl #8
  94 0060 9180     		strh	r1, [r2, #4]	@ movhi
 189:.\Generated_Source\PSoC5/isr_rx_jy.c ****             S_IMU.T=      ((Re_buf[9]<<8| Re_buf[8]));
  95              		.loc 1 189 0
  96 0062 597B     		ldrb	r1, [r3, #13]	@ zero_extendqisi2
ARM GAS  C:\Users\pxc\AppData\Local\Temp\cc5ixUNl.s 			page 6


  97 0064 1B7B     		ldrb	r3, [r3, #12]	@ zero_extendqisi2
  98 0066 43EA0123 		orr	r3, r3, r1, lsl #8
  99 006a 5382     		strh	r3, [r2, #18]	@ movhi
 190:.\Generated_Source\PSoC5/isr_rx_jy.c ****             break;
 100              		.loc 1 190 0
 101 006c 38BD     		pop	{r3, r4, r5, pc}
 102              	.L4:
 191:.\Generated_Source\PSoC5/isr_rx_jy.c ****             case 0x52:
 192:.\Generated_Source\PSoC5/isr_rx_jy.c ****             S_IMU.gyr_x = ((Re_buf [3]<<8| Re_buf [2]));
 103              		.loc 1 192 0
 104 006e 174B     		ldr	r3, .L8
 105 0070 D879     		ldrb	r0, [r3, #7]	@ zero_extendqisi2
 106 0072 9979     		ldrb	r1, [r3, #6]	@ zero_extendqisi2
 107 0074 164A     		ldr	r2, .L8+4
 108 0076 41EA0021 		orr	r1, r1, r0, lsl #8
 109 007a D180     		strh	r1, [r2, #6]	@ movhi
 193:.\Generated_Source\PSoC5/isr_rx_jy.c ****             S_IMU.gyr_y = ((Re_buf [5]<<8| Re_buf [4]));
 110              		.loc 1 193 0
 111 007c 587A     		ldrb	r0, [r3, #9]	@ zero_extendqisi2
 112 007e 197A     		ldrb	r1, [r3, #8]	@ zero_extendqisi2
 113 0080 41EA0021 		orr	r1, r1, r0, lsl #8
 114 0084 1181     		strh	r1, [r2, #8]	@ movhi
 194:.\Generated_Source\PSoC5/isr_rx_jy.c ****             S_IMU.gyr_z = ((Re_buf [7]<<8| Re_buf [6]));
 115              		.loc 1 194 0
 116 0086 D87A     		ldrb	r0, [r3, #11]	@ zero_extendqisi2
 117 0088 997A     		ldrb	r1, [r3, #10]	@ zero_extendqisi2
 118 008a 41EA0021 		orr	r1, r1, r0, lsl #8
 119 008e 5181     		strh	r1, [r2, #10]	@ movhi
 195:.\Generated_Source\PSoC5/isr_rx_jy.c ****             S_IMU.T =     ((Re_buf [9]<<8| Re_buf [8]));
 120              		.loc 1 195 0
 121 0090 597B     		ldrb	r1, [r3, #13]	@ zero_extendqisi2
 122 0092 1B7B     		ldrb	r3, [r3, #12]	@ zero_extendqisi2
 123 0094 43EA0123 		orr	r3, r3, r1, lsl #8
 124 0098 5382     		strh	r3, [r2, #18]	@ movhi
 196:.\Generated_Source\PSoC5/isr_rx_jy.c ****             break;
 125              		.loc 1 196 0
 126 009a 38BD     		pop	{r3, r4, r5, pc}
 127              	.L5:
 197:.\Generated_Source\PSoC5/isr_rx_jy.c ****             case 0x53:
 198:.\Generated_Source\PSoC5/isr_rx_jy.c ****             S_IMU.pitch = ((Re_buf [3]<<8| Re_buf [2]));
 128              		.loc 1 198 0
 129 009c 0B4B     		ldr	r3, .L8
 130 009e D879     		ldrb	r0, [r3, #7]	@ zero_extendqisi2
 131 00a0 9979     		ldrb	r1, [r3, #6]	@ zero_extendqisi2
 132 00a2 0B4A     		ldr	r2, .L8+4
 133 00a4 41EA0021 		orr	r1, r1, r0, lsl #8
 134 00a8 9181     		strh	r1, [r2, #12]	@ movhi
 199:.\Generated_Source\PSoC5/isr_rx_jy.c ****             S_IMU.roll  = ((Re_buf [5]<<8| Re_buf [4]));
 135              		.loc 1 199 0
 136 00aa 587A     		ldrb	r0, [r3, #9]	@ zero_extendqisi2
 137 00ac 197A     		ldrb	r1, [r3, #8]	@ zero_extendqisi2
 138 00ae 41EA0021 		orr	r1, r1, r0, lsl #8
 139 00b2 D181     		strh	r1, [r2, #14]	@ movhi
 200:.\Generated_Source\PSoC5/isr_rx_jy.c ****             S_IMU.yaw   = ((Re_buf [7]<<8| Re_buf [6]));
 140              		.loc 1 200 0
 141 00b4 D87A     		ldrb	r0, [r3, #11]	@ zero_extendqisi2
 142 00b6 997A     		ldrb	r1, [r3, #10]	@ zero_extendqisi2
ARM GAS  C:\Users\pxc\AppData\Local\Temp\cc5ixUNl.s 			page 7


 143 00b8 41EA0021 		orr	r1, r1, r0, lsl #8
 144 00bc 1182     		strh	r1, [r2, #16]	@ movhi
 201:.\Generated_Source\PSoC5/isr_rx_jy.c ****             S_IMU.T     = ((Re_buf [9]<<8| Re_buf [8]));
 145              		.loc 1 201 0
 146 00be 597B     		ldrb	r1, [r3, #13]	@ zero_extendqisi2
 147 00c0 1B7B     		ldrb	r3, [r3, #12]	@ zero_extendqisi2
 148 00c2 43EA0123 		orr	r3, r3, r1, lsl #8
 149 00c6 5382     		strh	r3, [r2, #18]	@ movhi
 150              	.LVL2:
 151              	.L1:
 152 00c8 38BD     		pop	{r3, r4, r5, pc}
 153              	.L9:
 154 00ca 00BF     		.align	2
 155              	.L8:
 156 00cc 00000000 		.word	.LANCHOR0
 157 00d0 00000000 		.word	S_IMU
 158              		.cfi_endproc
 159              	.LFE66:
 160              		.size	isr_rx_jy_Interrupt, .-isr_rx_jy_Interrupt
 161              		.section	.text.isr_rx_jy_SetVector,"ax",%progbits
 162              		.align	2
 163              		.global	isr_rx_jy_SetVector
 164              		.thumb
 165              		.thumb_func
 166              		.type	isr_rx_jy_SetVector, %function
 167              	isr_rx_jy_SetVector:
 168              	.LFB67:
 202:.\Generated_Source\PSoC5/isr_rx_jy.c ****             break;
 203:.\Generated_Source\PSoC5/isr_rx_jy.c ****             }
 204:.\Generated_Source\PSoC5/isr_rx_jy.c ****         }
 205:.\Generated_Source\PSoC5/isr_rx_jy.c ****      }
 206:.\Generated_Source\PSoC5/isr_rx_jy.c ****     /* `#END` */
 207:.\Generated_Source\PSoC5/isr_rx_jy.c **** }
 208:.\Generated_Source\PSoC5/isr_rx_jy.c **** 
 209:.\Generated_Source\PSoC5/isr_rx_jy.c **** 
 210:.\Generated_Source\PSoC5/isr_rx_jy.c **** /*******************************************************************************
 211:.\Generated_Source\PSoC5/isr_rx_jy.c **** * Function Name: isr_rx_jy_SetVector
 212:.\Generated_Source\PSoC5/isr_rx_jy.c **** ********************************************************************************
 213:.\Generated_Source\PSoC5/isr_rx_jy.c **** *
 214:.\Generated_Source\PSoC5/isr_rx_jy.c **** * Summary:
 215:.\Generated_Source\PSoC5/isr_rx_jy.c **** *   Change the ISR vector for the Interrupt. Note calling isr_rx_jy_Start
 216:.\Generated_Source\PSoC5/isr_rx_jy.c **** *   will override any effect this method would have had. To set the vector 
 217:.\Generated_Source\PSoC5/isr_rx_jy.c **** *   before the component has been started use isr_rx_jy_StartEx instead.
 218:.\Generated_Source\PSoC5/isr_rx_jy.c **** * 
 219:.\Generated_Source\PSoC5/isr_rx_jy.c **** *   When defining ISR functions, the CY_ISR and CY_ISR_PROTO macros should be 
 220:.\Generated_Source\PSoC5/isr_rx_jy.c **** *   used to provide consistent definition across compilers:
 221:.\Generated_Source\PSoC5/isr_rx_jy.c **** *
 222:.\Generated_Source\PSoC5/isr_rx_jy.c **** *   Function definition example:
 223:.\Generated_Source\PSoC5/isr_rx_jy.c **** *   CY_ISR(MyISR)
 224:.\Generated_Source\PSoC5/isr_rx_jy.c **** *   {
 225:.\Generated_Source\PSoC5/isr_rx_jy.c **** *   }
 226:.\Generated_Source\PSoC5/isr_rx_jy.c **** *
 227:.\Generated_Source\PSoC5/isr_rx_jy.c **** *   Function prototype example:
 228:.\Generated_Source\PSoC5/isr_rx_jy.c **** *     CY_ISR_PROTO(MyISR);
 229:.\Generated_Source\PSoC5/isr_rx_jy.c **** *
 230:.\Generated_Source\PSoC5/isr_rx_jy.c **** * Parameters:
 231:.\Generated_Source\PSoC5/isr_rx_jy.c **** *   address: Address of the ISR to set in the interrupt vector table.
ARM GAS  C:\Users\pxc\AppData\Local\Temp\cc5ixUNl.s 			page 8


 232:.\Generated_Source\PSoC5/isr_rx_jy.c **** *
 233:.\Generated_Source\PSoC5/isr_rx_jy.c **** * Return:
 234:.\Generated_Source\PSoC5/isr_rx_jy.c **** *   None
 235:.\Generated_Source\PSoC5/isr_rx_jy.c **** *
 236:.\Generated_Source\PSoC5/isr_rx_jy.c **** *******************************************************************************/
 237:.\Generated_Source\PSoC5/isr_rx_jy.c **** void isr_rx_jy_SetVector(cyisraddress address)
 238:.\Generated_Source\PSoC5/isr_rx_jy.c **** {
 169              		.loc 1 238 0
 170              		.cfi_startproc
 171              		@ args = 0, pretend = 0, frame = 0
 172              		@ frame_needed = 0, uses_anonymous_args = 0
 173              		@ link register save eliminated.
 174              	.LVL3:
 239:.\Generated_Source\PSoC5/isr_rx_jy.c ****     cyisraddress * ramVectorTable;
 240:.\Generated_Source\PSoC5/isr_rx_jy.c **** 
 241:.\Generated_Source\PSoC5/isr_rx_jy.c ****     ramVectorTable = (cyisraddress *) *CYINT_VECT_TABLE;
 175              		.loc 1 241 0
 176 0000 014B     		ldr	r3, .L11
 177 0002 1B68     		ldr	r3, [r3]
 178              	.LVL4:
 242:.\Generated_Source\PSoC5/isr_rx_jy.c **** 
 243:.\Generated_Source\PSoC5/isr_rx_jy.c ****     ramVectorTable[CYINT_IRQ_BASE + (uint32)isr_rx_jy__INTC_NUMBER] = address;
 179              		.loc 1 243 0
 180 0004 9864     		str	r0, [r3, #72]
 181 0006 7047     		bx	lr
 182              	.L12:
 183              		.align	2
 184              	.L11:
 185 0008 08ED00E0 		.word	-536810232
 186              		.cfi_endproc
 187              	.LFE67:
 188              		.size	isr_rx_jy_SetVector, .-isr_rx_jy_SetVector
 189              		.section	.text.isr_rx_jy_GetVector,"ax",%progbits
 190              		.align	2
 191              		.global	isr_rx_jy_GetVector
 192              		.thumb
 193              		.thumb_func
 194              		.type	isr_rx_jy_GetVector, %function
 195              	isr_rx_jy_GetVector:
 196              	.LFB68:
 244:.\Generated_Source\PSoC5/isr_rx_jy.c **** }
 245:.\Generated_Source\PSoC5/isr_rx_jy.c **** 
 246:.\Generated_Source\PSoC5/isr_rx_jy.c **** 
 247:.\Generated_Source\PSoC5/isr_rx_jy.c **** /*******************************************************************************
 248:.\Generated_Source\PSoC5/isr_rx_jy.c **** * Function Name: isr_rx_jy_GetVector
 249:.\Generated_Source\PSoC5/isr_rx_jy.c **** ********************************************************************************
 250:.\Generated_Source\PSoC5/isr_rx_jy.c **** *
 251:.\Generated_Source\PSoC5/isr_rx_jy.c **** * Summary:
 252:.\Generated_Source\PSoC5/isr_rx_jy.c **** *   Gets the "address" of the current ISR vector for the Interrupt.
 253:.\Generated_Source\PSoC5/isr_rx_jy.c **** *
 254:.\Generated_Source\PSoC5/isr_rx_jy.c **** * Parameters:
 255:.\Generated_Source\PSoC5/isr_rx_jy.c **** *   None
 256:.\Generated_Source\PSoC5/isr_rx_jy.c **** *
 257:.\Generated_Source\PSoC5/isr_rx_jy.c **** * Return:
 258:.\Generated_Source\PSoC5/isr_rx_jy.c **** *   Address of the ISR in the interrupt vector table.
 259:.\Generated_Source\PSoC5/isr_rx_jy.c **** *
 260:.\Generated_Source\PSoC5/isr_rx_jy.c **** *******************************************************************************/
ARM GAS  C:\Users\pxc\AppData\Local\Temp\cc5ixUNl.s 			page 9


 261:.\Generated_Source\PSoC5/isr_rx_jy.c **** cyisraddress isr_rx_jy_GetVector(void)
 262:.\Generated_Source\PSoC5/isr_rx_jy.c **** {
 197              		.loc 1 262 0
 198              		.cfi_startproc
 199              		@ args = 0, pretend = 0, frame = 0
 200              		@ frame_needed = 0, uses_anonymous_args = 0
 201              		@ link register save eliminated.
 263:.\Generated_Source\PSoC5/isr_rx_jy.c ****     cyisraddress * ramVectorTable;
 264:.\Generated_Source\PSoC5/isr_rx_jy.c **** 
 265:.\Generated_Source\PSoC5/isr_rx_jy.c ****     ramVectorTable = (cyisraddress *) *CYINT_VECT_TABLE;
 202              		.loc 1 265 0
 203 0000 014B     		ldr	r3, .L14
 204 0002 1B68     		ldr	r3, [r3]
 205              	.LVL5:
 266:.\Generated_Source\PSoC5/isr_rx_jy.c **** 
 267:.\Generated_Source\PSoC5/isr_rx_jy.c ****     return ramVectorTable[CYINT_IRQ_BASE + (uint32)isr_rx_jy__INTC_NUMBER];
 268:.\Generated_Source\PSoC5/isr_rx_jy.c **** }
 206              		.loc 1 268 0
 207 0004 986C     		ldr	r0, [r3, #72]
 208 0006 7047     		bx	lr
 209              	.L15:
 210              		.align	2
 211              	.L14:
 212 0008 08ED00E0 		.word	-536810232
 213              		.cfi_endproc
 214              	.LFE68:
 215              		.size	isr_rx_jy_GetVector, .-isr_rx_jy_GetVector
 216              		.section	.text.isr_rx_jy_SetPriority,"ax",%progbits
 217              		.align	2
 218              		.global	isr_rx_jy_SetPriority
 219              		.thumb
 220              		.thumb_func
 221              		.type	isr_rx_jy_SetPriority, %function
 222              	isr_rx_jy_SetPriority:
 223              	.LFB69:
 269:.\Generated_Source\PSoC5/isr_rx_jy.c **** 
 270:.\Generated_Source\PSoC5/isr_rx_jy.c **** 
 271:.\Generated_Source\PSoC5/isr_rx_jy.c **** /*******************************************************************************
 272:.\Generated_Source\PSoC5/isr_rx_jy.c **** * Function Name: isr_rx_jy_SetPriority
 273:.\Generated_Source\PSoC5/isr_rx_jy.c **** ********************************************************************************
 274:.\Generated_Source\PSoC5/isr_rx_jy.c **** *
 275:.\Generated_Source\PSoC5/isr_rx_jy.c **** * Summary:
 276:.\Generated_Source\PSoC5/isr_rx_jy.c **** *   Sets the Priority of the Interrupt. 
 277:.\Generated_Source\PSoC5/isr_rx_jy.c **** *
 278:.\Generated_Source\PSoC5/isr_rx_jy.c **** *   Note calling isr_rx_jy_Start or isr_rx_jy_StartEx will 
 279:.\Generated_Source\PSoC5/isr_rx_jy.c **** *   override any effect this API would have had. This API should only be called
 280:.\Generated_Source\PSoC5/isr_rx_jy.c **** *   after isr_rx_jy_Start or isr_rx_jy_StartEx has been called. 
 281:.\Generated_Source\PSoC5/isr_rx_jy.c **** *   To set the initial priority for the component, use the Design-Wide Resources
 282:.\Generated_Source\PSoC5/isr_rx_jy.c **** *   Interrupt Editor.
 283:.\Generated_Source\PSoC5/isr_rx_jy.c **** *
 284:.\Generated_Source\PSoC5/isr_rx_jy.c **** *   Note This API has no effect on Non-maskable interrupt NMI).
 285:.\Generated_Source\PSoC5/isr_rx_jy.c **** *
 286:.\Generated_Source\PSoC5/isr_rx_jy.c **** * Parameters:
 287:.\Generated_Source\PSoC5/isr_rx_jy.c **** *   priority: Priority of the interrupt, 0 being the highest priority
 288:.\Generated_Source\PSoC5/isr_rx_jy.c **** *             PSoC 3 and PSoC 5LP: Priority is from 0 to 7.
 289:.\Generated_Source\PSoC5/isr_rx_jy.c **** *             PSoC 4: Priority is from 0 to 3.
 290:.\Generated_Source\PSoC5/isr_rx_jy.c **** *
ARM GAS  C:\Users\pxc\AppData\Local\Temp\cc5ixUNl.s 			page 10


 291:.\Generated_Source\PSoC5/isr_rx_jy.c **** * Return:
 292:.\Generated_Source\PSoC5/isr_rx_jy.c **** *   None
 293:.\Generated_Source\PSoC5/isr_rx_jy.c **** *
 294:.\Generated_Source\PSoC5/isr_rx_jy.c **** *******************************************************************************/
 295:.\Generated_Source\PSoC5/isr_rx_jy.c **** void isr_rx_jy_SetPriority(uint8 priority)
 296:.\Generated_Source\PSoC5/isr_rx_jy.c **** {
 224              		.loc 1 296 0
 225              		.cfi_startproc
 226              		@ args = 0, pretend = 0, frame = 0
 227              		@ frame_needed = 0, uses_anonymous_args = 0
 228              		@ link register save eliminated.
 229              	.LVL6:
 297:.\Generated_Source\PSoC5/isr_rx_jy.c ****     *isr_rx_jy_INTC_PRIOR = priority << 5;
 230              		.loc 1 297 0
 231 0000 4001     		lsls	r0, r0, #5
 232              	.LVL7:
 233 0002 C0B2     		uxtb	r0, r0
 234 0004 014B     		ldr	r3, .L17
 235 0006 1870     		strb	r0, [r3]
 236 0008 7047     		bx	lr
 237              	.L18:
 238 000a 00BF     		.align	2
 239              	.L17:
 240 000c 02E400E0 		.word	-536812542
 241              		.cfi_endproc
 242              	.LFE69:
 243              		.size	isr_rx_jy_SetPriority, .-isr_rx_jy_SetPriority
 244              		.section	.text.isr_rx_jy_GetPriority,"ax",%progbits
 245              		.align	2
 246              		.global	isr_rx_jy_GetPriority
 247              		.thumb
 248              		.thumb_func
 249              		.type	isr_rx_jy_GetPriority, %function
 250              	isr_rx_jy_GetPriority:
 251              	.LFB70:
 298:.\Generated_Source\PSoC5/isr_rx_jy.c **** }
 299:.\Generated_Source\PSoC5/isr_rx_jy.c **** 
 300:.\Generated_Source\PSoC5/isr_rx_jy.c **** 
 301:.\Generated_Source\PSoC5/isr_rx_jy.c **** /*******************************************************************************
 302:.\Generated_Source\PSoC5/isr_rx_jy.c **** * Function Name: isr_rx_jy_GetPriority
 303:.\Generated_Source\PSoC5/isr_rx_jy.c **** ********************************************************************************
 304:.\Generated_Source\PSoC5/isr_rx_jy.c **** *
 305:.\Generated_Source\PSoC5/isr_rx_jy.c **** * Summary:
 306:.\Generated_Source\PSoC5/isr_rx_jy.c **** *   Gets the Priority of the Interrupt.
 307:.\Generated_Source\PSoC5/isr_rx_jy.c **** *
 308:.\Generated_Source\PSoC5/isr_rx_jy.c **** * Parameters:
 309:.\Generated_Source\PSoC5/isr_rx_jy.c **** *   None
 310:.\Generated_Source\PSoC5/isr_rx_jy.c **** *
 311:.\Generated_Source\PSoC5/isr_rx_jy.c **** * Return:
 312:.\Generated_Source\PSoC5/isr_rx_jy.c **** *   Priority of the interrupt, 0 being the highest priority
 313:.\Generated_Source\PSoC5/isr_rx_jy.c **** *    PSoC 3 and PSoC 5LP: Priority is from 0 to 7.
 314:.\Generated_Source\PSoC5/isr_rx_jy.c **** *    PSoC 4: Priority is from 0 to 3.
 315:.\Generated_Source\PSoC5/isr_rx_jy.c **** *
 316:.\Generated_Source\PSoC5/isr_rx_jy.c **** *******************************************************************************/
 317:.\Generated_Source\PSoC5/isr_rx_jy.c **** uint8 isr_rx_jy_GetPriority(void)
 318:.\Generated_Source\PSoC5/isr_rx_jy.c **** {
 252              		.loc 1 318 0
ARM GAS  C:\Users\pxc\AppData\Local\Temp\cc5ixUNl.s 			page 11


 253              		.cfi_startproc
 254              		@ args = 0, pretend = 0, frame = 0
 255              		@ frame_needed = 0, uses_anonymous_args = 0
 256              		@ link register save eliminated.
 319:.\Generated_Source\PSoC5/isr_rx_jy.c ****     uint8 priority;
 320:.\Generated_Source\PSoC5/isr_rx_jy.c **** 
 321:.\Generated_Source\PSoC5/isr_rx_jy.c **** 
 322:.\Generated_Source\PSoC5/isr_rx_jy.c ****     priority = *isr_rx_jy_INTC_PRIOR >> 5;
 257              		.loc 1 322 0
 258 0000 014B     		ldr	r3, .L20
 259 0002 1878     		ldrb	r0, [r3]	@ zero_extendqisi2
 260              	.LVL8:
 323:.\Generated_Source\PSoC5/isr_rx_jy.c **** 
 324:.\Generated_Source\PSoC5/isr_rx_jy.c ****     return priority;
 325:.\Generated_Source\PSoC5/isr_rx_jy.c **** }
 261              		.loc 1 325 0
 262 0004 4009     		lsrs	r0, r0, #5
 263              	.LVL9:
 264 0006 7047     		bx	lr
 265              	.L21:
 266              		.align	2
 267              	.L20:
 268 0008 02E400E0 		.word	-536812542
 269              		.cfi_endproc
 270              	.LFE70:
 271              		.size	isr_rx_jy_GetPriority, .-isr_rx_jy_GetPriority
 272              		.section	.text.isr_rx_jy_Enable,"ax",%progbits
 273              		.align	2
 274              		.global	isr_rx_jy_Enable
 275              		.thumb
 276              		.thumb_func
 277              		.type	isr_rx_jy_Enable, %function
 278              	isr_rx_jy_Enable:
 279              	.LFB71:
 326:.\Generated_Source\PSoC5/isr_rx_jy.c **** 
 327:.\Generated_Source\PSoC5/isr_rx_jy.c **** 
 328:.\Generated_Source\PSoC5/isr_rx_jy.c **** /*******************************************************************************
 329:.\Generated_Source\PSoC5/isr_rx_jy.c **** * Function Name: isr_rx_jy_Enable
 330:.\Generated_Source\PSoC5/isr_rx_jy.c **** ********************************************************************************
 331:.\Generated_Source\PSoC5/isr_rx_jy.c **** *
 332:.\Generated_Source\PSoC5/isr_rx_jy.c **** * Summary:
 333:.\Generated_Source\PSoC5/isr_rx_jy.c **** *   Enables the interrupt to the interrupt controller. Do not call this function
 334:.\Generated_Source\PSoC5/isr_rx_jy.c **** *   unless ISR_Start() has been called or the functionality of the ISR_Start() 
 335:.\Generated_Source\PSoC5/isr_rx_jy.c **** *   function, which sets the vector and the priority, has been called.
 336:.\Generated_Source\PSoC5/isr_rx_jy.c **** *
 337:.\Generated_Source\PSoC5/isr_rx_jy.c **** * Parameters:
 338:.\Generated_Source\PSoC5/isr_rx_jy.c **** *   None
 339:.\Generated_Source\PSoC5/isr_rx_jy.c **** *
 340:.\Generated_Source\PSoC5/isr_rx_jy.c **** * Return:
 341:.\Generated_Source\PSoC5/isr_rx_jy.c **** *   None
 342:.\Generated_Source\PSoC5/isr_rx_jy.c **** *
 343:.\Generated_Source\PSoC5/isr_rx_jy.c **** *******************************************************************************/
 344:.\Generated_Source\PSoC5/isr_rx_jy.c **** void isr_rx_jy_Enable(void)
 345:.\Generated_Source\PSoC5/isr_rx_jy.c **** {
 280              		.loc 1 345 0
 281              		.cfi_startproc
 282              		@ args = 0, pretend = 0, frame = 0
ARM GAS  C:\Users\pxc\AppData\Local\Temp\cc5ixUNl.s 			page 12


 283              		@ frame_needed = 0, uses_anonymous_args = 0
 284              		@ link register save eliminated.
 346:.\Generated_Source\PSoC5/isr_rx_jy.c ****     /* Enable the general interrupt. */
 347:.\Generated_Source\PSoC5/isr_rx_jy.c ****     *isr_rx_jy_INTC_SET_EN = isr_rx_jy__INTC_MASK;
 285              		.loc 1 347 0
 286 0000 0422     		movs	r2, #4
 287 0002 014B     		ldr	r3, .L23
 288 0004 1A60     		str	r2, [r3]
 289 0006 7047     		bx	lr
 290              	.L24:
 291              		.align	2
 292              	.L23:
 293 0008 00E100E0 		.word	-536813312
 294              		.cfi_endproc
 295              	.LFE71:
 296              		.size	isr_rx_jy_Enable, .-isr_rx_jy_Enable
 297              		.section	.text.isr_rx_jy_GetState,"ax",%progbits
 298              		.align	2
 299              		.global	isr_rx_jy_GetState
 300              		.thumb
 301              		.thumb_func
 302              		.type	isr_rx_jy_GetState, %function
 303              	isr_rx_jy_GetState:
 304              	.LFB72:
 348:.\Generated_Source\PSoC5/isr_rx_jy.c **** }
 349:.\Generated_Source\PSoC5/isr_rx_jy.c **** 
 350:.\Generated_Source\PSoC5/isr_rx_jy.c **** 
 351:.\Generated_Source\PSoC5/isr_rx_jy.c **** /*******************************************************************************
 352:.\Generated_Source\PSoC5/isr_rx_jy.c **** * Function Name: isr_rx_jy_GetState
 353:.\Generated_Source\PSoC5/isr_rx_jy.c **** ********************************************************************************
 354:.\Generated_Source\PSoC5/isr_rx_jy.c **** *
 355:.\Generated_Source\PSoC5/isr_rx_jy.c **** * Summary:
 356:.\Generated_Source\PSoC5/isr_rx_jy.c **** *   Gets the state (enabled, disabled) of the Interrupt.
 357:.\Generated_Source\PSoC5/isr_rx_jy.c **** *
 358:.\Generated_Source\PSoC5/isr_rx_jy.c **** * Parameters:
 359:.\Generated_Source\PSoC5/isr_rx_jy.c **** *   None
 360:.\Generated_Source\PSoC5/isr_rx_jy.c **** *
 361:.\Generated_Source\PSoC5/isr_rx_jy.c **** * Return:
 362:.\Generated_Source\PSoC5/isr_rx_jy.c **** *   1 if enabled, 0 if disabled.
 363:.\Generated_Source\PSoC5/isr_rx_jy.c **** *
 364:.\Generated_Source\PSoC5/isr_rx_jy.c **** *******************************************************************************/
 365:.\Generated_Source\PSoC5/isr_rx_jy.c **** uint8 isr_rx_jy_GetState(void)
 366:.\Generated_Source\PSoC5/isr_rx_jy.c **** {
 305              		.loc 1 366 0
 306              		.cfi_startproc
 307              		@ args = 0, pretend = 0, frame = 0
 308              		@ frame_needed = 0, uses_anonymous_args = 0
 309              		@ link register save eliminated.
 367:.\Generated_Source\PSoC5/isr_rx_jy.c ****     /* Get the state of the general interrupt. */
 368:.\Generated_Source\PSoC5/isr_rx_jy.c ****     return ((*isr_rx_jy_INTC_SET_EN & (uint32)isr_rx_jy__INTC_MASK) != 0u) ? 1u:0u;
 310              		.loc 1 368 0
 311 0000 044B     		ldr	r3, .L28
 312 0002 1B68     		ldr	r3, [r3]
 313 0004 13F0040F 		tst	r3, #4
 314 0008 01D0     		beq	.L27
 315 000a 0120     		movs	r0, #1
 316 000c 7047     		bx	lr
ARM GAS  C:\Users\pxc\AppData\Local\Temp\cc5ixUNl.s 			page 13


 317              	.L27:
 318 000e 0020     		movs	r0, #0
 369:.\Generated_Source\PSoC5/isr_rx_jy.c **** }
 319              		.loc 1 369 0
 320 0010 7047     		bx	lr
 321              	.L29:
 322 0012 00BF     		.align	2
 323              	.L28:
 324 0014 00E100E0 		.word	-536813312
 325              		.cfi_endproc
 326              	.LFE72:
 327              		.size	isr_rx_jy_GetState, .-isr_rx_jy_GetState
 328              		.section	.text.isr_rx_jy_Disable,"ax",%progbits
 329              		.align	2
 330              		.global	isr_rx_jy_Disable
 331              		.thumb
 332              		.thumb_func
 333              		.type	isr_rx_jy_Disable, %function
 334              	isr_rx_jy_Disable:
 335              	.LFB73:
 370:.\Generated_Source\PSoC5/isr_rx_jy.c **** 
 371:.\Generated_Source\PSoC5/isr_rx_jy.c **** 
 372:.\Generated_Source\PSoC5/isr_rx_jy.c **** /*******************************************************************************
 373:.\Generated_Source\PSoC5/isr_rx_jy.c **** * Function Name: isr_rx_jy_Disable
 374:.\Generated_Source\PSoC5/isr_rx_jy.c **** ********************************************************************************
 375:.\Generated_Source\PSoC5/isr_rx_jy.c **** *
 376:.\Generated_Source\PSoC5/isr_rx_jy.c **** * Summary:
 377:.\Generated_Source\PSoC5/isr_rx_jy.c **** *   Disables the Interrupt in the interrupt controller.
 378:.\Generated_Source\PSoC5/isr_rx_jy.c **** *
 379:.\Generated_Source\PSoC5/isr_rx_jy.c **** * Parameters:
 380:.\Generated_Source\PSoC5/isr_rx_jy.c **** *   None
 381:.\Generated_Source\PSoC5/isr_rx_jy.c **** *
 382:.\Generated_Source\PSoC5/isr_rx_jy.c **** * Return:
 383:.\Generated_Source\PSoC5/isr_rx_jy.c **** *   None
 384:.\Generated_Source\PSoC5/isr_rx_jy.c **** *
 385:.\Generated_Source\PSoC5/isr_rx_jy.c **** *******************************************************************************/
 386:.\Generated_Source\PSoC5/isr_rx_jy.c **** void isr_rx_jy_Disable(void)
 387:.\Generated_Source\PSoC5/isr_rx_jy.c **** {
 336              		.loc 1 387 0
 337              		.cfi_startproc
 338              		@ args = 0, pretend = 0, frame = 0
 339              		@ frame_needed = 0, uses_anonymous_args = 0
 340              		@ link register save eliminated.
 388:.\Generated_Source\PSoC5/isr_rx_jy.c ****     /* Disable the general interrupt. */
 389:.\Generated_Source\PSoC5/isr_rx_jy.c ****     *isr_rx_jy_INTC_CLR_EN = isr_rx_jy__INTC_MASK;
 341              		.loc 1 389 0
 342 0000 0422     		movs	r2, #4
 343 0002 014B     		ldr	r3, .L31
 344 0004 1A60     		str	r2, [r3]
 345 0006 7047     		bx	lr
 346              	.L32:
 347              		.align	2
 348              	.L31:
 349 0008 80E100E0 		.word	-536813184
 350              		.cfi_endproc
 351              	.LFE73:
 352              		.size	isr_rx_jy_Disable, .-isr_rx_jy_Disable
ARM GAS  C:\Users\pxc\AppData\Local\Temp\cc5ixUNl.s 			page 14


 353              		.section	.text.isr_rx_jy_Start,"ax",%progbits
 354              		.align	2
 355              		.global	isr_rx_jy_Start
 356              		.thumb
 357              		.thumb_func
 358              		.type	isr_rx_jy_Start, %function
 359              	isr_rx_jy_Start:
 360              	.LFB63:
  64:.\Generated_Source\PSoC5/isr_rx_jy.c ****     /* For all we know the interrupt is active. */
 361              		.loc 1 64 0
 362              		.cfi_startproc
 363              		@ args = 0, pretend = 0, frame = 0
 364              		@ frame_needed = 0, uses_anonymous_args = 0
 365 0000 08B5     		push	{r3, lr}
 366              		.cfi_def_cfa_offset 8
 367              		.cfi_offset 3, -8
 368              		.cfi_offset 14, -4
  66:.\Generated_Source\PSoC5/isr_rx_jy.c **** 
 369              		.loc 1 66 0
 370 0002 FFF7FEFF 		bl	isr_rx_jy_Disable
 371              	.LVL10:
  69:.\Generated_Source\PSoC5/isr_rx_jy.c **** 
 372              		.loc 1 69 0
 373 0006 0448     		ldr	r0, .L35
 374 0008 FFF7FEFF 		bl	isr_rx_jy_SetVector
 375              	.LVL11:
  72:.\Generated_Source\PSoC5/isr_rx_jy.c **** 
 376              		.loc 1 72 0
 377 000c 0720     		movs	r0, #7
 378 000e FFF7FEFF 		bl	isr_rx_jy_SetPriority
 379              	.LVL12:
  75:.\Generated_Source\PSoC5/isr_rx_jy.c **** }
 380              		.loc 1 75 0
 381 0012 FFF7FEFF 		bl	isr_rx_jy_Enable
 382              	.LVL13:
 383 0016 08BD     		pop	{r3, pc}
 384              	.L36:
 385              		.align	2
 386              	.L35:
 387 0018 00000000 		.word	isr_rx_jy_Interrupt
 388              		.cfi_endproc
 389              	.LFE63:
 390              		.size	isr_rx_jy_Start, .-isr_rx_jy_Start
 391              		.section	.text.isr_rx_jy_StartEx,"ax",%progbits
 392              		.align	2
 393              		.global	isr_rx_jy_StartEx
 394              		.thumb
 395              		.thumb_func
 396              		.type	isr_rx_jy_StartEx, %function
 397              	isr_rx_jy_StartEx:
 398              	.LFB64:
 107:.\Generated_Source\PSoC5/isr_rx_jy.c ****     /* For all we know the interrupt is active. */
 399              		.loc 1 107 0
 400              		.cfi_startproc
 401              		@ args = 0, pretend = 0, frame = 0
 402              		@ frame_needed = 0, uses_anonymous_args = 0
 403              	.LVL14:
ARM GAS  C:\Users\pxc\AppData\Local\Temp\cc5ixUNl.s 			page 15


 404 0000 10B5     		push	{r4, lr}
 405              		.cfi_def_cfa_offset 8
 406              		.cfi_offset 4, -8
 407              		.cfi_offset 14, -4
 408 0002 0446     		mov	r4, r0
 109:.\Generated_Source\PSoC5/isr_rx_jy.c **** 
 409              		.loc 1 109 0
 410 0004 FFF7FEFF 		bl	isr_rx_jy_Disable
 411              	.LVL15:
 112:.\Generated_Source\PSoC5/isr_rx_jy.c **** 
 412              		.loc 1 112 0
 413 0008 2046     		mov	r0, r4
 414 000a FFF7FEFF 		bl	isr_rx_jy_SetVector
 415              	.LVL16:
 115:.\Generated_Source\PSoC5/isr_rx_jy.c **** 
 416              		.loc 1 115 0
 417 000e 0720     		movs	r0, #7
 418 0010 FFF7FEFF 		bl	isr_rx_jy_SetPriority
 419              	.LVL17:
 118:.\Generated_Source\PSoC5/isr_rx_jy.c **** }
 420              		.loc 1 118 0
 421 0014 FFF7FEFF 		bl	isr_rx_jy_Enable
 422              	.LVL18:
 423 0018 10BD     		pop	{r4, pc}
 424              		.cfi_endproc
 425              	.LFE64:
 426              		.size	isr_rx_jy_StartEx, .-isr_rx_jy_StartEx
 427 001a 00BF     		.section	.text.isr_rx_jy_Stop,"ax",%progbits
 428              		.align	2
 429              		.global	isr_rx_jy_Stop
 430              		.thumb
 431              		.thumb_func
 432              		.type	isr_rx_jy_Stop, %function
 433              	isr_rx_jy_Stop:
 434              	.LFB65:
 137:.\Generated_Source\PSoC5/isr_rx_jy.c ****     /* Disable this interrupt. */
 435              		.loc 1 137 0
 436              		.cfi_startproc
 437              		@ args = 0, pretend = 0, frame = 0
 438              		@ frame_needed = 0, uses_anonymous_args = 0
 439 0000 08B5     		push	{r3, lr}
 440              		.cfi_def_cfa_offset 8
 441              		.cfi_offset 3, -8
 442              		.cfi_offset 14, -4
 139:.\Generated_Source\PSoC5/isr_rx_jy.c **** 
 443              		.loc 1 139 0
 444 0002 FFF7FEFF 		bl	isr_rx_jy_Disable
 445              	.LVL19:
 142:.\Generated_Source\PSoC5/isr_rx_jy.c **** }
 446              		.loc 1 142 0
 447 0006 0248     		ldr	r0, .L41
 448 0008 FFF7FEFF 		bl	isr_rx_jy_SetVector
 449              	.LVL20:
 450 000c 08BD     		pop	{r3, pc}
 451              	.L42:
 452 000e 00BF     		.align	2
 453              	.L41:
ARM GAS  C:\Users\pxc\AppData\Local\Temp\cc5ixUNl.s 			page 16


 454 0010 00000000 		.word	IntDefaultHandler
 455              		.cfi_endproc
 456              	.LFE65:
 457              		.size	isr_rx_jy_Stop, .-isr_rx_jy_Stop
 458              		.section	.text.isr_rx_jy_SetPending,"ax",%progbits
 459              		.align	2
 460              		.global	isr_rx_jy_SetPending
 461              		.thumb
 462              		.thumb_func
 463              		.type	isr_rx_jy_SetPending, %function
 464              	isr_rx_jy_SetPending:
 465              	.LFB74:
 390:.\Generated_Source\PSoC5/isr_rx_jy.c **** }
 391:.\Generated_Source\PSoC5/isr_rx_jy.c **** 
 392:.\Generated_Source\PSoC5/isr_rx_jy.c **** 
 393:.\Generated_Source\PSoC5/isr_rx_jy.c **** /*******************************************************************************
 394:.\Generated_Source\PSoC5/isr_rx_jy.c **** * Function Name: isr_rx_jy_SetPending
 395:.\Generated_Source\PSoC5/isr_rx_jy.c **** ********************************************************************************
 396:.\Generated_Source\PSoC5/isr_rx_jy.c **** *
 397:.\Generated_Source\PSoC5/isr_rx_jy.c **** * Summary:
 398:.\Generated_Source\PSoC5/isr_rx_jy.c **** *   Causes the Interrupt to enter the pending state, a software method of
 399:.\Generated_Source\PSoC5/isr_rx_jy.c **** *   generating the interrupt.
 400:.\Generated_Source\PSoC5/isr_rx_jy.c **** *
 401:.\Generated_Source\PSoC5/isr_rx_jy.c **** * Parameters:
 402:.\Generated_Source\PSoC5/isr_rx_jy.c **** *   None
 403:.\Generated_Source\PSoC5/isr_rx_jy.c **** *
 404:.\Generated_Source\PSoC5/isr_rx_jy.c **** * Return:
 405:.\Generated_Source\PSoC5/isr_rx_jy.c **** *   None
 406:.\Generated_Source\PSoC5/isr_rx_jy.c **** *
 407:.\Generated_Source\PSoC5/isr_rx_jy.c **** * Side Effects:
 408:.\Generated_Source\PSoC5/isr_rx_jy.c **** *   If interrupts are enabled and the interrupt is set up properly, the ISR is
 409:.\Generated_Source\PSoC5/isr_rx_jy.c **** *   entered (depending on the priority of this interrupt and other pending 
 410:.\Generated_Source\PSoC5/isr_rx_jy.c **** *   interrupts).
 411:.\Generated_Source\PSoC5/isr_rx_jy.c **** *
 412:.\Generated_Source\PSoC5/isr_rx_jy.c **** *******************************************************************************/
 413:.\Generated_Source\PSoC5/isr_rx_jy.c **** void isr_rx_jy_SetPending(void)
 414:.\Generated_Source\PSoC5/isr_rx_jy.c **** {
 466              		.loc 1 414 0
 467              		.cfi_startproc
 468              		@ args = 0, pretend = 0, frame = 0
 469              		@ frame_needed = 0, uses_anonymous_args = 0
 470              		@ link register save eliminated.
 415:.\Generated_Source\PSoC5/isr_rx_jy.c ****     *isr_rx_jy_INTC_SET_PD = isr_rx_jy__INTC_MASK;
 471              		.loc 1 415 0
 472 0000 0422     		movs	r2, #4
 473 0002 014B     		ldr	r3, .L44
 474 0004 1A60     		str	r2, [r3]
 475 0006 7047     		bx	lr
 476              	.L45:
 477              		.align	2
 478              	.L44:
 479 0008 00E200E0 		.word	-536813056
 480              		.cfi_endproc
 481              	.LFE74:
 482              		.size	isr_rx_jy_SetPending, .-isr_rx_jy_SetPending
 483              		.section	.text.isr_rx_jy_ClearPending,"ax",%progbits
 484              		.align	2
ARM GAS  C:\Users\pxc\AppData\Local\Temp\cc5ixUNl.s 			page 17


 485              		.global	isr_rx_jy_ClearPending
 486              		.thumb
 487              		.thumb_func
 488              		.type	isr_rx_jy_ClearPending, %function
 489              	isr_rx_jy_ClearPending:
 490              	.LFB75:
 416:.\Generated_Source\PSoC5/isr_rx_jy.c **** }
 417:.\Generated_Source\PSoC5/isr_rx_jy.c **** 
 418:.\Generated_Source\PSoC5/isr_rx_jy.c **** 
 419:.\Generated_Source\PSoC5/isr_rx_jy.c **** /*******************************************************************************
 420:.\Generated_Source\PSoC5/isr_rx_jy.c **** * Function Name: isr_rx_jy_ClearPending
 421:.\Generated_Source\PSoC5/isr_rx_jy.c **** ********************************************************************************
 422:.\Generated_Source\PSoC5/isr_rx_jy.c **** *
 423:.\Generated_Source\PSoC5/isr_rx_jy.c **** * Summary:
 424:.\Generated_Source\PSoC5/isr_rx_jy.c **** *   Clears a pending interrupt in the interrupt controller.
 425:.\Generated_Source\PSoC5/isr_rx_jy.c **** *
 426:.\Generated_Source\PSoC5/isr_rx_jy.c **** *   Note Some interrupt sources are clear-on-read and require the block 
 427:.\Generated_Source\PSoC5/isr_rx_jy.c **** *   interrupt/status register to be read/cleared with the appropriate block API 
 428:.\Generated_Source\PSoC5/isr_rx_jy.c **** *   (GPIO, UART, and so on). Otherwise the ISR will continue to remain in 
 429:.\Generated_Source\PSoC5/isr_rx_jy.c **** *   pending state even though the interrupt itself is cleared using this API.
 430:.\Generated_Source\PSoC5/isr_rx_jy.c **** *
 431:.\Generated_Source\PSoC5/isr_rx_jy.c **** * Parameters:
 432:.\Generated_Source\PSoC5/isr_rx_jy.c **** *   None
 433:.\Generated_Source\PSoC5/isr_rx_jy.c **** *
 434:.\Generated_Source\PSoC5/isr_rx_jy.c **** * Return:
 435:.\Generated_Source\PSoC5/isr_rx_jy.c **** *   None
 436:.\Generated_Source\PSoC5/isr_rx_jy.c **** *
 437:.\Generated_Source\PSoC5/isr_rx_jy.c **** *******************************************************************************/
 438:.\Generated_Source\PSoC5/isr_rx_jy.c **** void isr_rx_jy_ClearPending(void)
 439:.\Generated_Source\PSoC5/isr_rx_jy.c **** {
 491              		.loc 1 439 0
 492              		.cfi_startproc
 493              		@ args = 0, pretend = 0, frame = 0
 494              		@ frame_needed = 0, uses_anonymous_args = 0
 495              		@ link register save eliminated.
 440:.\Generated_Source\PSoC5/isr_rx_jy.c ****     *isr_rx_jy_INTC_CLR_PD = isr_rx_jy__INTC_MASK;
 496              		.loc 1 440 0
 497 0000 0422     		movs	r2, #4
 498 0002 014B     		ldr	r3, .L47
 499 0004 1A60     		str	r2, [r3]
 500 0006 7047     		bx	lr
 501              	.L48:
 502              		.align	2
 503              	.L47:
 504 0008 80E200E0 		.word	-536812928
 505              		.cfi_endproc
 506              	.LFE75:
 507              		.size	isr_rx_jy_ClearPending, .-isr_rx_jy_ClearPending
 508              		.comm	S_IMU,20,4
 509              		.comm	g_Car,64,4
 510              		.bss
 511              		.align	2
 512              		.set	.LANCHOR0,. + 0
 513              		.type	counter, %object
 514              		.size	counter, 1
 515              	counter:
 516 0000 00       		.space	1
ARM GAS  C:\Users\pxc\AppData\Local\Temp\cc5ixUNl.s 			page 18


 517 0001 000000   		.space	3
 518              		.type	Re_buf, %object
 519              		.size	Re_buf, 11
 520              	Re_buf:
 521 0004 00000000 		.space	11
 521      00000000 
 521      000000
 522 000f 00       		.text
 523              	.Letext0:
 524              		.file 2 "c:\\program files (x86)\\cypress\\psoc creator\\3.3\\psoc creator\\import\\gnu\\arm\\4.9.
 525              		.file 3 "c:\\program files (x86)\\cypress\\psoc creator\\3.3\\psoc creator\\import\\gnu\\arm\\4.9.
 526              		.file 4 "Generated_Source\\PSoC5/cytypes.h"
 527              		.file 5 "./car.h"
 528              		.file 6 "./Transfer.h"
 529              		.file 7 "Generated_Source\\PSoC5/core_cm3.h"
 530              		.file 8 ".\\Generated_Source\\PSoC5\\UART_jy.h"