ARM GAS  C:\Users\pxc\AppData\Local\Temp\ccml6rZJ.s 			page 1


   1              		.syntax unified
   2              		.cpu cortex-m3
   3              		.fpu softvfp
   4              		.eabi_attribute 20, 1
   5              		.eabi_attribute 21, 1
   6              		.eabi_attribute 23, 3
   7              		.eabi_attribute 24, 1
   8              		.eabi_attribute 25, 1
   9              		.eabi_attribute 26, 1
  10              		.eabi_attribute 30, 1
  11              		.eabi_attribute 34, 1
  12              		.eabi_attribute 18, 4
  13              		.thumb
  14              		.file	"isr_rx_ch.c"
  15              		.text
  16              	.Ltext0:
  17              		.cfi_sections	.debug_frame
  18              		.section	.text.isr_rx_ch_Interrupt,"ax",%progbits
  19              		.align	2
  20              		.global	isr_rx_ch_Interrupt
  21              		.thumb
  22              		.thumb_func
  23              		.type	isr_rx_ch_Interrupt, %function
  24              	isr_rx_ch_Interrupt:
  25              	.LFB66:
  26              		.file 1 ".\\Generated_Source\\PSoC5\\isr_rx_ch.c"
   1:.\Generated_Source\PSoC5/isr_rx_ch.c **** /*******************************************************************************
   2:.\Generated_Source\PSoC5/isr_rx_ch.c **** * File Name: isr_rx_ch.c  
   3:.\Generated_Source\PSoC5/isr_rx_ch.c **** * Version 1.70
   4:.\Generated_Source\PSoC5/isr_rx_ch.c **** *
   5:.\Generated_Source\PSoC5/isr_rx_ch.c **** *  Description:
   6:.\Generated_Source\PSoC5/isr_rx_ch.c **** *   API for controlling the state of an interrupt.
   7:.\Generated_Source\PSoC5/isr_rx_ch.c **** *
   8:.\Generated_Source\PSoC5/isr_rx_ch.c **** *
   9:.\Generated_Source\PSoC5/isr_rx_ch.c **** *  Note:
  10:.\Generated_Source\PSoC5/isr_rx_ch.c **** *
  11:.\Generated_Source\PSoC5/isr_rx_ch.c **** ********************************************************************************
  12:.\Generated_Source\PSoC5/isr_rx_ch.c **** * Copyright 2008-2015, Cypress Semiconductor Corporation.  All rights reserved.
  13:.\Generated_Source\PSoC5/isr_rx_ch.c **** * You may use this file only in accordance with the license, terms, conditions, 
  14:.\Generated_Source\PSoC5/isr_rx_ch.c **** * disclaimers, and limitations in the end user license agreement accompanying 
  15:.\Generated_Source\PSoC5/isr_rx_ch.c **** * the software package with which this file was provided.
  16:.\Generated_Source\PSoC5/isr_rx_ch.c **** *******************************************************************************/
  17:.\Generated_Source\PSoC5/isr_rx_ch.c **** 
  18:.\Generated_Source\PSoC5/isr_rx_ch.c **** 
  19:.\Generated_Source\PSoC5/isr_rx_ch.c **** #include <cydevice_trm.h>
  20:.\Generated_Source\PSoC5/isr_rx_ch.c **** #include <CyLib.h>
  21:.\Generated_Source\PSoC5/isr_rx_ch.c **** #include <isr_rx_ch.h>
  22:.\Generated_Source\PSoC5/isr_rx_ch.c **** #include "cyapicallbacks.h"
  23:.\Generated_Source\PSoC5/isr_rx_ch.c **** 
  24:.\Generated_Source\PSoC5/isr_rx_ch.c **** #if !defined(isr_rx_ch__REMOVED) /* Check for removal by optimization */
  25:.\Generated_Source\PSoC5/isr_rx_ch.c **** 
  26:.\Generated_Source\PSoC5/isr_rx_ch.c **** /*******************************************************************************
  27:.\Generated_Source\PSoC5/isr_rx_ch.c **** *  Place your includes, defines and code here 
  28:.\Generated_Source\PSoC5/isr_rx_ch.c **** ********************************************************************************/
  29:.\Generated_Source\PSoC5/isr_rx_ch.c **** /* `#START isr_rx_ch_intc` */
  30:.\Generated_Source\PSoC5/isr_rx_ch.c **** #include "UART_CH.h"
  31:.\Generated_Source\PSoC5/isr_rx_ch.c **** #include "M_thickness.h"
ARM GAS  C:\Users\pxc\AppData\Local\Temp\ccml6rZJ.s 			page 2


  32:.\Generated_Source\PSoC5/isr_rx_ch.c **** static uint8 temp[50];
  33:.\Generated_Source\PSoC5/isr_rx_ch.c **** static uint8 count;
  34:.\Generated_Source\PSoC5/isr_rx_ch.c **** /* `#END` */
  35:.\Generated_Source\PSoC5/isr_rx_ch.c **** 
  36:.\Generated_Source\PSoC5/isr_rx_ch.c **** #ifndef CYINT_IRQ_BASE
  37:.\Generated_Source\PSoC5/isr_rx_ch.c **** #define CYINT_IRQ_BASE      16
  38:.\Generated_Source\PSoC5/isr_rx_ch.c **** #endif /* CYINT_IRQ_BASE */
  39:.\Generated_Source\PSoC5/isr_rx_ch.c **** #ifndef CYINT_VECT_TABLE
  40:.\Generated_Source\PSoC5/isr_rx_ch.c **** #define CYINT_VECT_TABLE    ((cyisraddress **) CYREG_NVIC_VECT_OFFSET)
  41:.\Generated_Source\PSoC5/isr_rx_ch.c **** #endif /* CYINT_VECT_TABLE */
  42:.\Generated_Source\PSoC5/isr_rx_ch.c **** 
  43:.\Generated_Source\PSoC5/isr_rx_ch.c **** /* Declared in startup, used to set unused interrupts to. */
  44:.\Generated_Source\PSoC5/isr_rx_ch.c **** CY_ISR_PROTO(IntDefaultHandler);
  45:.\Generated_Source\PSoC5/isr_rx_ch.c **** 
  46:.\Generated_Source\PSoC5/isr_rx_ch.c **** 
  47:.\Generated_Source\PSoC5/isr_rx_ch.c **** /*******************************************************************************
  48:.\Generated_Source\PSoC5/isr_rx_ch.c **** * Function Name: isr_rx_ch_Start
  49:.\Generated_Source\PSoC5/isr_rx_ch.c **** ********************************************************************************
  50:.\Generated_Source\PSoC5/isr_rx_ch.c **** *
  51:.\Generated_Source\PSoC5/isr_rx_ch.c **** * Summary:
  52:.\Generated_Source\PSoC5/isr_rx_ch.c **** *  Set up the interrupt and enable it. This function disables the interrupt, 
  53:.\Generated_Source\PSoC5/isr_rx_ch.c **** *  sets the default interrupt vector, sets the priority from the value in the
  54:.\Generated_Source\PSoC5/isr_rx_ch.c **** *  Design Wide Resources Interrupt Editor, then enables the interrupt to the 
  55:.\Generated_Source\PSoC5/isr_rx_ch.c **** *  interrupt controller.
  56:.\Generated_Source\PSoC5/isr_rx_ch.c **** *
  57:.\Generated_Source\PSoC5/isr_rx_ch.c **** * Parameters:  
  58:.\Generated_Source\PSoC5/isr_rx_ch.c **** *   None
  59:.\Generated_Source\PSoC5/isr_rx_ch.c **** *
  60:.\Generated_Source\PSoC5/isr_rx_ch.c **** * Return:
  61:.\Generated_Source\PSoC5/isr_rx_ch.c **** *   None
  62:.\Generated_Source\PSoC5/isr_rx_ch.c **** *
  63:.\Generated_Source\PSoC5/isr_rx_ch.c **** *******************************************************************************/
  64:.\Generated_Source\PSoC5/isr_rx_ch.c **** void isr_rx_ch_Start(void)
  65:.\Generated_Source\PSoC5/isr_rx_ch.c **** {
  66:.\Generated_Source\PSoC5/isr_rx_ch.c ****     /* For all we know the interrupt is active. */
  67:.\Generated_Source\PSoC5/isr_rx_ch.c ****     isr_rx_ch_Disable();
  68:.\Generated_Source\PSoC5/isr_rx_ch.c **** 
  69:.\Generated_Source\PSoC5/isr_rx_ch.c ****     /* Set the ISR to point to the isr_rx_ch Interrupt. */
  70:.\Generated_Source\PSoC5/isr_rx_ch.c ****     isr_rx_ch_SetVector(&isr_rx_ch_Interrupt);
  71:.\Generated_Source\PSoC5/isr_rx_ch.c **** 
  72:.\Generated_Source\PSoC5/isr_rx_ch.c ****     /* Set the priority. */
  73:.\Generated_Source\PSoC5/isr_rx_ch.c ****     isr_rx_ch_SetPriority((uint8)isr_rx_ch_INTC_PRIOR_NUMBER);
  74:.\Generated_Source\PSoC5/isr_rx_ch.c **** 
  75:.\Generated_Source\PSoC5/isr_rx_ch.c ****     /* Enable it. */
  76:.\Generated_Source\PSoC5/isr_rx_ch.c ****     isr_rx_ch_Enable();
  77:.\Generated_Source\PSoC5/isr_rx_ch.c **** }
  78:.\Generated_Source\PSoC5/isr_rx_ch.c **** 
  79:.\Generated_Source\PSoC5/isr_rx_ch.c **** 
  80:.\Generated_Source\PSoC5/isr_rx_ch.c **** /*******************************************************************************
  81:.\Generated_Source\PSoC5/isr_rx_ch.c **** * Function Name: isr_rx_ch_StartEx
  82:.\Generated_Source\PSoC5/isr_rx_ch.c **** ********************************************************************************
  83:.\Generated_Source\PSoC5/isr_rx_ch.c **** *
  84:.\Generated_Source\PSoC5/isr_rx_ch.c **** * Summary:
  85:.\Generated_Source\PSoC5/isr_rx_ch.c **** *  Sets up the interrupt and enables it. This function disables the interrupt,
  86:.\Generated_Source\PSoC5/isr_rx_ch.c **** *  sets the interrupt vector based on the address passed in, sets the priority 
  87:.\Generated_Source\PSoC5/isr_rx_ch.c **** *  from the value in the Design Wide Resources Interrupt Editor, then enables 
  88:.\Generated_Source\PSoC5/isr_rx_ch.c **** *  the interrupt to the interrupt controller.
ARM GAS  C:\Users\pxc\AppData\Local\Temp\ccml6rZJ.s 			page 3


  89:.\Generated_Source\PSoC5/isr_rx_ch.c **** *  
  90:.\Generated_Source\PSoC5/isr_rx_ch.c **** *  When defining ISR functions, the CY_ISR and CY_ISR_PROTO macros should be 
  91:.\Generated_Source\PSoC5/isr_rx_ch.c **** *  used to provide consistent definition across compilers:
  92:.\Generated_Source\PSoC5/isr_rx_ch.c **** *  
  93:.\Generated_Source\PSoC5/isr_rx_ch.c **** *  Function definition example:
  94:.\Generated_Source\PSoC5/isr_rx_ch.c **** *   CY_ISR(MyISR)
  95:.\Generated_Source\PSoC5/isr_rx_ch.c **** *   {
  96:.\Generated_Source\PSoC5/isr_rx_ch.c **** *   }
  97:.\Generated_Source\PSoC5/isr_rx_ch.c **** *   Function prototype example:
  98:.\Generated_Source\PSoC5/isr_rx_ch.c **** *   CY_ISR_PROTO(MyISR);
  99:.\Generated_Source\PSoC5/isr_rx_ch.c **** *
 100:.\Generated_Source\PSoC5/isr_rx_ch.c **** * Parameters:  
 101:.\Generated_Source\PSoC5/isr_rx_ch.c **** *   address: Address of the ISR to set in the interrupt vector table.
 102:.\Generated_Source\PSoC5/isr_rx_ch.c **** *
 103:.\Generated_Source\PSoC5/isr_rx_ch.c **** * Return:
 104:.\Generated_Source\PSoC5/isr_rx_ch.c **** *   None
 105:.\Generated_Source\PSoC5/isr_rx_ch.c **** *
 106:.\Generated_Source\PSoC5/isr_rx_ch.c **** *******************************************************************************/
 107:.\Generated_Source\PSoC5/isr_rx_ch.c **** void isr_rx_ch_StartEx(cyisraddress address)
 108:.\Generated_Source\PSoC5/isr_rx_ch.c **** {
 109:.\Generated_Source\PSoC5/isr_rx_ch.c ****     /* For all we know the interrupt is active. */
 110:.\Generated_Source\PSoC5/isr_rx_ch.c ****     isr_rx_ch_Disable();
 111:.\Generated_Source\PSoC5/isr_rx_ch.c **** 
 112:.\Generated_Source\PSoC5/isr_rx_ch.c ****     /* Set the ISR to point to the isr_rx_ch Interrupt. */
 113:.\Generated_Source\PSoC5/isr_rx_ch.c ****     isr_rx_ch_SetVector(address);
 114:.\Generated_Source\PSoC5/isr_rx_ch.c **** 
 115:.\Generated_Source\PSoC5/isr_rx_ch.c ****     /* Set the priority. */
 116:.\Generated_Source\PSoC5/isr_rx_ch.c ****     isr_rx_ch_SetPriority((uint8)isr_rx_ch_INTC_PRIOR_NUMBER);
 117:.\Generated_Source\PSoC5/isr_rx_ch.c **** 
 118:.\Generated_Source\PSoC5/isr_rx_ch.c ****     /* Enable it. */
 119:.\Generated_Source\PSoC5/isr_rx_ch.c ****     isr_rx_ch_Enable();
 120:.\Generated_Source\PSoC5/isr_rx_ch.c **** }
 121:.\Generated_Source\PSoC5/isr_rx_ch.c **** 
 122:.\Generated_Source\PSoC5/isr_rx_ch.c **** 
 123:.\Generated_Source\PSoC5/isr_rx_ch.c **** /*******************************************************************************
 124:.\Generated_Source\PSoC5/isr_rx_ch.c **** * Function Name: isr_rx_ch_Stop
 125:.\Generated_Source\PSoC5/isr_rx_ch.c **** ********************************************************************************
 126:.\Generated_Source\PSoC5/isr_rx_ch.c **** *
 127:.\Generated_Source\PSoC5/isr_rx_ch.c **** * Summary:
 128:.\Generated_Source\PSoC5/isr_rx_ch.c **** *   Disables and removes the interrupt.
 129:.\Generated_Source\PSoC5/isr_rx_ch.c **** *
 130:.\Generated_Source\PSoC5/isr_rx_ch.c **** * Parameters:  
 131:.\Generated_Source\PSoC5/isr_rx_ch.c **** *   None
 132:.\Generated_Source\PSoC5/isr_rx_ch.c **** *
 133:.\Generated_Source\PSoC5/isr_rx_ch.c **** * Return:
 134:.\Generated_Source\PSoC5/isr_rx_ch.c **** *   None
 135:.\Generated_Source\PSoC5/isr_rx_ch.c **** *
 136:.\Generated_Source\PSoC5/isr_rx_ch.c **** *******************************************************************************/
 137:.\Generated_Source\PSoC5/isr_rx_ch.c **** void isr_rx_ch_Stop(void)
 138:.\Generated_Source\PSoC5/isr_rx_ch.c **** {
 139:.\Generated_Source\PSoC5/isr_rx_ch.c ****     /* Disable this interrupt. */
 140:.\Generated_Source\PSoC5/isr_rx_ch.c ****     isr_rx_ch_Disable();
 141:.\Generated_Source\PSoC5/isr_rx_ch.c **** 
 142:.\Generated_Source\PSoC5/isr_rx_ch.c ****     /* Set the ISR to point to the passive one. */
 143:.\Generated_Source\PSoC5/isr_rx_ch.c ****     isr_rx_ch_SetVector(&IntDefaultHandler);
 144:.\Generated_Source\PSoC5/isr_rx_ch.c **** }
 145:.\Generated_Source\PSoC5/isr_rx_ch.c **** 
ARM GAS  C:\Users\pxc\AppData\Local\Temp\ccml6rZJ.s 			page 4


 146:.\Generated_Source\PSoC5/isr_rx_ch.c **** 
 147:.\Generated_Source\PSoC5/isr_rx_ch.c **** /*******************************************************************************
 148:.\Generated_Source\PSoC5/isr_rx_ch.c **** * Function Name: isr_rx_ch_Interrupt
 149:.\Generated_Source\PSoC5/isr_rx_ch.c **** ********************************************************************************
 150:.\Generated_Source\PSoC5/isr_rx_ch.c **** *
 151:.\Generated_Source\PSoC5/isr_rx_ch.c **** * Summary:
 152:.\Generated_Source\PSoC5/isr_rx_ch.c **** *   The default Interrupt Service Routine for isr_rx_ch.
 153:.\Generated_Source\PSoC5/isr_rx_ch.c **** *
 154:.\Generated_Source\PSoC5/isr_rx_ch.c **** *   Add custom code between the coments to keep the next version of this file
 155:.\Generated_Source\PSoC5/isr_rx_ch.c **** *   from over writting your code.
 156:.\Generated_Source\PSoC5/isr_rx_ch.c **** *
 157:.\Generated_Source\PSoC5/isr_rx_ch.c **** * Parameters:  
 158:.\Generated_Source\PSoC5/isr_rx_ch.c **** *
 159:.\Generated_Source\PSoC5/isr_rx_ch.c **** * Return:
 160:.\Generated_Source\PSoC5/isr_rx_ch.c **** *   None
 161:.\Generated_Source\PSoC5/isr_rx_ch.c **** *
 162:.\Generated_Source\PSoC5/isr_rx_ch.c **** *******************************************************************************/
 163:.\Generated_Source\PSoC5/isr_rx_ch.c **** CY_ISR(isr_rx_ch_Interrupt)
 164:.\Generated_Source\PSoC5/isr_rx_ch.c **** {
  27              		.loc 1 164 0
  28              		.cfi_startproc
  29              		@ args = 0, pretend = 0, frame = 0
  30              		@ frame_needed = 0, uses_anonymous_args = 0
  31 0000 08B5     		push	{r3, lr}
  32              		.cfi_def_cfa_offset 8
  33              		.cfi_offset 3, -8
  34              		.cfi_offset 14, -4
 165:.\Generated_Source\PSoC5/isr_rx_ch.c ****     #ifdef isr_rx_ch_INTERRUPT_INTERRUPT_CALLBACK
 166:.\Generated_Source\PSoC5/isr_rx_ch.c ****         isr_rx_ch_Interrupt_InterruptCallback();
 167:.\Generated_Source\PSoC5/isr_rx_ch.c ****     #endif /* isr_rx_ch_INTERRUPT_INTERRUPT_CALLBACK */ 
 168:.\Generated_Source\PSoC5/isr_rx_ch.c **** 
 169:.\Generated_Source\PSoC5/isr_rx_ch.c ****     /*  Place your Interrupt code here. */
 170:.\Generated_Source\PSoC5/isr_rx_ch.c ****     /* `#START isr_rx_ch_Interrupt` */
 171:.\Generated_Source\PSoC5/isr_rx_ch.c ****     uint8 data; 
 172:.\Generated_Source\PSoC5/isr_rx_ch.c ****     data = UART_CH_GetChar();
  35              		.loc 1 172 0
  36 0002 FFF7FEFF 		bl	UART_CH_GetChar
  37              	.LVL0:
  38 0006 08BD     		pop	{r3, pc}
  39              		.cfi_endproc
  40              	.LFE66:
  41              		.size	isr_rx_ch_Interrupt, .-isr_rx_ch_Interrupt
  42              		.section	.text.isr_rx_ch_SetVector,"ax",%progbits
  43              		.align	2
  44              		.global	isr_rx_ch_SetVector
  45              		.thumb
  46              		.thumb_func
  47              		.type	isr_rx_ch_SetVector, %function
  48              	isr_rx_ch_SetVector:
  49              	.LFB67:
 173:.\Generated_Source\PSoC5/isr_rx_ch.c ****     
 174:.\Generated_Source\PSoC5/isr_rx_ch.c ****     
 175:.\Generated_Source\PSoC5/isr_rx_ch.c ****     /* `#END` */
 176:.\Generated_Source\PSoC5/isr_rx_ch.c **** }
 177:.\Generated_Source\PSoC5/isr_rx_ch.c **** 
 178:.\Generated_Source\PSoC5/isr_rx_ch.c **** 
 179:.\Generated_Source\PSoC5/isr_rx_ch.c **** /*******************************************************************************
ARM GAS  C:\Users\pxc\AppData\Local\Temp\ccml6rZJ.s 			page 5


 180:.\Generated_Source\PSoC5/isr_rx_ch.c **** * Function Name: isr_rx_ch_SetVector
 181:.\Generated_Source\PSoC5/isr_rx_ch.c **** ********************************************************************************
 182:.\Generated_Source\PSoC5/isr_rx_ch.c **** *
 183:.\Generated_Source\PSoC5/isr_rx_ch.c **** * Summary:
 184:.\Generated_Source\PSoC5/isr_rx_ch.c **** *   Change the ISR vector for the Interrupt. Note calling isr_rx_ch_Start
 185:.\Generated_Source\PSoC5/isr_rx_ch.c **** *   will override any effect this method would have had. To set the vector 
 186:.\Generated_Source\PSoC5/isr_rx_ch.c **** *   before the component has been started use isr_rx_ch_StartEx instead.
 187:.\Generated_Source\PSoC5/isr_rx_ch.c **** * 
 188:.\Generated_Source\PSoC5/isr_rx_ch.c **** *   When defining ISR functions, the CY_ISR and CY_ISR_PROTO macros should be 
 189:.\Generated_Source\PSoC5/isr_rx_ch.c **** *   used to provide consistent definition across compilers:
 190:.\Generated_Source\PSoC5/isr_rx_ch.c **** *
 191:.\Generated_Source\PSoC5/isr_rx_ch.c **** *   Function definition example:
 192:.\Generated_Source\PSoC5/isr_rx_ch.c **** *   CY_ISR(MyISR)
 193:.\Generated_Source\PSoC5/isr_rx_ch.c **** *   {
 194:.\Generated_Source\PSoC5/isr_rx_ch.c **** *   }
 195:.\Generated_Source\PSoC5/isr_rx_ch.c **** *
 196:.\Generated_Source\PSoC5/isr_rx_ch.c **** *   Function prototype example:
 197:.\Generated_Source\PSoC5/isr_rx_ch.c **** *     CY_ISR_PROTO(MyISR);
 198:.\Generated_Source\PSoC5/isr_rx_ch.c **** *
 199:.\Generated_Source\PSoC5/isr_rx_ch.c **** * Parameters:
 200:.\Generated_Source\PSoC5/isr_rx_ch.c **** *   address: Address of the ISR to set in the interrupt vector table.
 201:.\Generated_Source\PSoC5/isr_rx_ch.c **** *
 202:.\Generated_Source\PSoC5/isr_rx_ch.c **** * Return:
 203:.\Generated_Source\PSoC5/isr_rx_ch.c **** *   None
 204:.\Generated_Source\PSoC5/isr_rx_ch.c **** *
 205:.\Generated_Source\PSoC5/isr_rx_ch.c **** *******************************************************************************/
 206:.\Generated_Source\PSoC5/isr_rx_ch.c **** void isr_rx_ch_SetVector(cyisraddress address)
 207:.\Generated_Source\PSoC5/isr_rx_ch.c **** {
  50              		.loc 1 207 0
  51              		.cfi_startproc
  52              		@ args = 0, pretend = 0, frame = 0
  53              		@ frame_needed = 0, uses_anonymous_args = 0
  54              		@ link register save eliminated.
  55              	.LVL1:
 208:.\Generated_Source\PSoC5/isr_rx_ch.c ****     cyisraddress * ramVectorTable;
 209:.\Generated_Source\PSoC5/isr_rx_ch.c **** 
 210:.\Generated_Source\PSoC5/isr_rx_ch.c ****     ramVectorTable = (cyisraddress *) *CYINT_VECT_TABLE;
  56              		.loc 1 210 0
  57 0000 014B     		ldr	r3, .L4
  58 0002 1B68     		ldr	r3, [r3]
  59              	.LVL2:
 211:.\Generated_Source\PSoC5/isr_rx_ch.c **** 
 212:.\Generated_Source\PSoC5/isr_rx_ch.c ****     ramVectorTable[CYINT_IRQ_BASE + (uint32)isr_rx_ch__INTC_NUMBER] = address;
  60              		.loc 1 212 0
  61 0004 5864     		str	r0, [r3, #68]
  62 0006 7047     		bx	lr
  63              	.L5:
  64              		.align	2
  65              	.L4:
  66 0008 08ED00E0 		.word	-536810232
  67              		.cfi_endproc
  68              	.LFE67:
  69              		.size	isr_rx_ch_SetVector, .-isr_rx_ch_SetVector
  70              		.section	.text.isr_rx_ch_GetVector,"ax",%progbits
  71              		.align	2
  72              		.global	isr_rx_ch_GetVector
  73              		.thumb
ARM GAS  C:\Users\pxc\AppData\Local\Temp\ccml6rZJ.s 			page 6


  74              		.thumb_func
  75              		.type	isr_rx_ch_GetVector, %function
  76              	isr_rx_ch_GetVector:
  77              	.LFB68:
 213:.\Generated_Source\PSoC5/isr_rx_ch.c **** }
 214:.\Generated_Source\PSoC5/isr_rx_ch.c **** 
 215:.\Generated_Source\PSoC5/isr_rx_ch.c **** 
 216:.\Generated_Source\PSoC5/isr_rx_ch.c **** /*******************************************************************************
 217:.\Generated_Source\PSoC5/isr_rx_ch.c **** * Function Name: isr_rx_ch_GetVector
 218:.\Generated_Source\PSoC5/isr_rx_ch.c **** ********************************************************************************
 219:.\Generated_Source\PSoC5/isr_rx_ch.c **** *
 220:.\Generated_Source\PSoC5/isr_rx_ch.c **** * Summary:
 221:.\Generated_Source\PSoC5/isr_rx_ch.c **** *   Gets the "address" of the current ISR vector for the Interrupt.
 222:.\Generated_Source\PSoC5/isr_rx_ch.c **** *
 223:.\Generated_Source\PSoC5/isr_rx_ch.c **** * Parameters:
 224:.\Generated_Source\PSoC5/isr_rx_ch.c **** *   None
 225:.\Generated_Source\PSoC5/isr_rx_ch.c **** *
 226:.\Generated_Source\PSoC5/isr_rx_ch.c **** * Return:
 227:.\Generated_Source\PSoC5/isr_rx_ch.c **** *   Address of the ISR in the interrupt vector table.
 228:.\Generated_Source\PSoC5/isr_rx_ch.c **** *
 229:.\Generated_Source\PSoC5/isr_rx_ch.c **** *******************************************************************************/
 230:.\Generated_Source\PSoC5/isr_rx_ch.c **** cyisraddress isr_rx_ch_GetVector(void)
 231:.\Generated_Source\PSoC5/isr_rx_ch.c **** {
  78              		.loc 1 231 0
  79              		.cfi_startproc
  80              		@ args = 0, pretend = 0, frame = 0
  81              		@ frame_needed = 0, uses_anonymous_args = 0
  82              		@ link register save eliminated.
 232:.\Generated_Source\PSoC5/isr_rx_ch.c ****     cyisraddress * ramVectorTable;
 233:.\Generated_Source\PSoC5/isr_rx_ch.c **** 
 234:.\Generated_Source\PSoC5/isr_rx_ch.c ****     ramVectorTable = (cyisraddress *) *CYINT_VECT_TABLE;
  83              		.loc 1 234 0
  84 0000 014B     		ldr	r3, .L7
  85 0002 1B68     		ldr	r3, [r3]
  86              	.LVL3:
 235:.\Generated_Source\PSoC5/isr_rx_ch.c **** 
 236:.\Generated_Source\PSoC5/isr_rx_ch.c ****     return ramVectorTable[CYINT_IRQ_BASE + (uint32)isr_rx_ch__INTC_NUMBER];
 237:.\Generated_Source\PSoC5/isr_rx_ch.c **** }
  87              		.loc 1 237 0
  88 0004 586C     		ldr	r0, [r3, #68]
  89 0006 7047     		bx	lr
  90              	.L8:
  91              		.align	2
  92              	.L7:
  93 0008 08ED00E0 		.word	-536810232
  94              		.cfi_endproc
  95              	.LFE68:
  96              		.size	isr_rx_ch_GetVector, .-isr_rx_ch_GetVector
  97              		.section	.text.isr_rx_ch_SetPriority,"ax",%progbits
  98              		.align	2
  99              		.global	isr_rx_ch_SetPriority
 100              		.thumb
 101              		.thumb_func
 102              		.type	isr_rx_ch_SetPriority, %function
 103              	isr_rx_ch_SetPriority:
 104              	.LFB69:
 238:.\Generated_Source\PSoC5/isr_rx_ch.c **** 
ARM GAS  C:\Users\pxc\AppData\Local\Temp\ccml6rZJ.s 			page 7


 239:.\Generated_Source\PSoC5/isr_rx_ch.c **** 
 240:.\Generated_Source\PSoC5/isr_rx_ch.c **** /*******************************************************************************
 241:.\Generated_Source\PSoC5/isr_rx_ch.c **** * Function Name: isr_rx_ch_SetPriority
 242:.\Generated_Source\PSoC5/isr_rx_ch.c **** ********************************************************************************
 243:.\Generated_Source\PSoC5/isr_rx_ch.c **** *
 244:.\Generated_Source\PSoC5/isr_rx_ch.c **** * Summary:
 245:.\Generated_Source\PSoC5/isr_rx_ch.c **** *   Sets the Priority of the Interrupt. 
 246:.\Generated_Source\PSoC5/isr_rx_ch.c **** *
 247:.\Generated_Source\PSoC5/isr_rx_ch.c **** *   Note calling isr_rx_ch_Start or isr_rx_ch_StartEx will 
 248:.\Generated_Source\PSoC5/isr_rx_ch.c **** *   override any effect this API would have had. This API should only be called
 249:.\Generated_Source\PSoC5/isr_rx_ch.c **** *   after isr_rx_ch_Start or isr_rx_ch_StartEx has been called. 
 250:.\Generated_Source\PSoC5/isr_rx_ch.c **** *   To set the initial priority for the component, use the Design-Wide Resources
 251:.\Generated_Source\PSoC5/isr_rx_ch.c **** *   Interrupt Editor.
 252:.\Generated_Source\PSoC5/isr_rx_ch.c **** *
 253:.\Generated_Source\PSoC5/isr_rx_ch.c **** *   Note This API has no effect on Non-maskable interrupt NMI).
 254:.\Generated_Source\PSoC5/isr_rx_ch.c **** *
 255:.\Generated_Source\PSoC5/isr_rx_ch.c **** * Parameters:
 256:.\Generated_Source\PSoC5/isr_rx_ch.c **** *   priority: Priority of the interrupt, 0 being the highest priority
 257:.\Generated_Source\PSoC5/isr_rx_ch.c **** *             PSoC 3 and PSoC 5LP: Priority is from 0 to 7.
 258:.\Generated_Source\PSoC5/isr_rx_ch.c **** *             PSoC 4: Priority is from 0 to 3.
 259:.\Generated_Source\PSoC5/isr_rx_ch.c **** *
 260:.\Generated_Source\PSoC5/isr_rx_ch.c **** * Return:
 261:.\Generated_Source\PSoC5/isr_rx_ch.c **** *   None
 262:.\Generated_Source\PSoC5/isr_rx_ch.c **** *
 263:.\Generated_Source\PSoC5/isr_rx_ch.c **** *******************************************************************************/
 264:.\Generated_Source\PSoC5/isr_rx_ch.c **** void isr_rx_ch_SetPriority(uint8 priority)
 265:.\Generated_Source\PSoC5/isr_rx_ch.c **** {
 105              		.loc 1 265 0
 106              		.cfi_startproc
 107              		@ args = 0, pretend = 0, frame = 0
 108              		@ frame_needed = 0, uses_anonymous_args = 0
 109              		@ link register save eliminated.
 110              	.LVL4:
 266:.\Generated_Source\PSoC5/isr_rx_ch.c ****     *isr_rx_ch_INTC_PRIOR = priority << 5;
 111              		.loc 1 266 0
 112 0000 4001     		lsls	r0, r0, #5
 113              	.LVL5:
 114 0002 C0B2     		uxtb	r0, r0
 115 0004 014B     		ldr	r3, .L10
 116 0006 1870     		strb	r0, [r3]
 117 0008 7047     		bx	lr
 118              	.L11:
 119 000a 00BF     		.align	2
 120              	.L10:
 121 000c 01E400E0 		.word	-536812543
 122              		.cfi_endproc
 123              	.LFE69:
 124              		.size	isr_rx_ch_SetPriority, .-isr_rx_ch_SetPriority
 125              		.section	.text.isr_rx_ch_GetPriority,"ax",%progbits
 126              		.align	2
 127              		.global	isr_rx_ch_GetPriority
 128              		.thumb
 129              		.thumb_func
 130              		.type	isr_rx_ch_GetPriority, %function
 131              	isr_rx_ch_GetPriority:
 132              	.LFB70:
 267:.\Generated_Source\PSoC5/isr_rx_ch.c **** }
ARM GAS  C:\Users\pxc\AppData\Local\Temp\ccml6rZJ.s 			page 8


 268:.\Generated_Source\PSoC5/isr_rx_ch.c **** 
 269:.\Generated_Source\PSoC5/isr_rx_ch.c **** 
 270:.\Generated_Source\PSoC5/isr_rx_ch.c **** /*******************************************************************************
 271:.\Generated_Source\PSoC5/isr_rx_ch.c **** * Function Name: isr_rx_ch_GetPriority
 272:.\Generated_Source\PSoC5/isr_rx_ch.c **** ********************************************************************************
 273:.\Generated_Source\PSoC5/isr_rx_ch.c **** *
 274:.\Generated_Source\PSoC5/isr_rx_ch.c **** * Summary:
 275:.\Generated_Source\PSoC5/isr_rx_ch.c **** *   Gets the Priority of the Interrupt.
 276:.\Generated_Source\PSoC5/isr_rx_ch.c **** *
 277:.\Generated_Source\PSoC5/isr_rx_ch.c **** * Parameters:
 278:.\Generated_Source\PSoC5/isr_rx_ch.c **** *   None
 279:.\Generated_Source\PSoC5/isr_rx_ch.c **** *
 280:.\Generated_Source\PSoC5/isr_rx_ch.c **** * Return:
 281:.\Generated_Source\PSoC5/isr_rx_ch.c **** *   Priority of the interrupt, 0 being the highest priority
 282:.\Generated_Source\PSoC5/isr_rx_ch.c **** *    PSoC 3 and PSoC 5LP: Priority is from 0 to 7.
 283:.\Generated_Source\PSoC5/isr_rx_ch.c **** *    PSoC 4: Priority is from 0 to 3.
 284:.\Generated_Source\PSoC5/isr_rx_ch.c **** *
 285:.\Generated_Source\PSoC5/isr_rx_ch.c **** *******************************************************************************/
 286:.\Generated_Source\PSoC5/isr_rx_ch.c **** uint8 isr_rx_ch_GetPriority(void)
 287:.\Generated_Source\PSoC5/isr_rx_ch.c **** {
 133              		.loc 1 287 0
 134              		.cfi_startproc
 135              		@ args = 0, pretend = 0, frame = 0
 136              		@ frame_needed = 0, uses_anonymous_args = 0
 137              		@ link register save eliminated.
 288:.\Generated_Source\PSoC5/isr_rx_ch.c ****     uint8 priority;
 289:.\Generated_Source\PSoC5/isr_rx_ch.c **** 
 290:.\Generated_Source\PSoC5/isr_rx_ch.c **** 
 291:.\Generated_Source\PSoC5/isr_rx_ch.c ****     priority = *isr_rx_ch_INTC_PRIOR >> 5;
 138              		.loc 1 291 0
 139 0000 014B     		ldr	r3, .L13
 140 0002 1878     		ldrb	r0, [r3]	@ zero_extendqisi2
 141              	.LVL6:
 292:.\Generated_Source\PSoC5/isr_rx_ch.c **** 
 293:.\Generated_Source\PSoC5/isr_rx_ch.c ****     return priority;
 294:.\Generated_Source\PSoC5/isr_rx_ch.c **** }
 142              		.loc 1 294 0
 143 0004 4009     		lsrs	r0, r0, #5
 144              	.LVL7:
 145 0006 7047     		bx	lr
 146              	.L14:
 147              		.align	2
 148              	.L13:
 149 0008 01E400E0 		.word	-536812543
 150              		.cfi_endproc
 151              	.LFE70:
 152              		.size	isr_rx_ch_GetPriority, .-isr_rx_ch_GetPriority
 153              		.section	.text.isr_rx_ch_Enable,"ax",%progbits
 154              		.align	2
 155              		.global	isr_rx_ch_Enable
 156              		.thumb
 157              		.thumb_func
 158              		.type	isr_rx_ch_Enable, %function
 159              	isr_rx_ch_Enable:
 160              	.LFB71:
 295:.\Generated_Source\PSoC5/isr_rx_ch.c **** 
 296:.\Generated_Source\PSoC5/isr_rx_ch.c **** 
ARM GAS  C:\Users\pxc\AppData\Local\Temp\ccml6rZJ.s 			page 9


 297:.\Generated_Source\PSoC5/isr_rx_ch.c **** /*******************************************************************************
 298:.\Generated_Source\PSoC5/isr_rx_ch.c **** * Function Name: isr_rx_ch_Enable
 299:.\Generated_Source\PSoC5/isr_rx_ch.c **** ********************************************************************************
 300:.\Generated_Source\PSoC5/isr_rx_ch.c **** *
 301:.\Generated_Source\PSoC5/isr_rx_ch.c **** * Summary:
 302:.\Generated_Source\PSoC5/isr_rx_ch.c **** *   Enables the interrupt to the interrupt controller. Do not call this function
 303:.\Generated_Source\PSoC5/isr_rx_ch.c **** *   unless ISR_Start() has been called or the functionality of the ISR_Start() 
 304:.\Generated_Source\PSoC5/isr_rx_ch.c **** *   function, which sets the vector and the priority, has been called.
 305:.\Generated_Source\PSoC5/isr_rx_ch.c **** *
 306:.\Generated_Source\PSoC5/isr_rx_ch.c **** * Parameters:
 307:.\Generated_Source\PSoC5/isr_rx_ch.c **** *   None
 308:.\Generated_Source\PSoC5/isr_rx_ch.c **** *
 309:.\Generated_Source\PSoC5/isr_rx_ch.c **** * Return:
 310:.\Generated_Source\PSoC5/isr_rx_ch.c **** *   None
 311:.\Generated_Source\PSoC5/isr_rx_ch.c **** *
 312:.\Generated_Source\PSoC5/isr_rx_ch.c **** *******************************************************************************/
 313:.\Generated_Source\PSoC5/isr_rx_ch.c **** void isr_rx_ch_Enable(void)
 314:.\Generated_Source\PSoC5/isr_rx_ch.c **** {
 161              		.loc 1 314 0
 162              		.cfi_startproc
 163              		@ args = 0, pretend = 0, frame = 0
 164              		@ frame_needed = 0, uses_anonymous_args = 0
 165              		@ link register save eliminated.
 315:.\Generated_Source\PSoC5/isr_rx_ch.c ****     /* Enable the general interrupt. */
 316:.\Generated_Source\PSoC5/isr_rx_ch.c ****     *isr_rx_ch_INTC_SET_EN = isr_rx_ch__INTC_MASK;
 166              		.loc 1 316 0
 167 0000 0222     		movs	r2, #2
 168 0002 014B     		ldr	r3, .L16
 169 0004 1A60     		str	r2, [r3]
 170 0006 7047     		bx	lr
 171              	.L17:
 172              		.align	2
 173              	.L16:
 174 0008 00E100E0 		.word	-536813312
 175              		.cfi_endproc
 176              	.LFE71:
 177              		.size	isr_rx_ch_Enable, .-isr_rx_ch_Enable
 178              		.section	.text.isr_rx_ch_GetState,"ax",%progbits
 179              		.align	2
 180              		.global	isr_rx_ch_GetState
 181              		.thumb
 182              		.thumb_func
 183              		.type	isr_rx_ch_GetState, %function
 184              	isr_rx_ch_GetState:
 185              	.LFB72:
 317:.\Generated_Source\PSoC5/isr_rx_ch.c **** }
 318:.\Generated_Source\PSoC5/isr_rx_ch.c **** 
 319:.\Generated_Source\PSoC5/isr_rx_ch.c **** 
 320:.\Generated_Source\PSoC5/isr_rx_ch.c **** /*******************************************************************************
 321:.\Generated_Source\PSoC5/isr_rx_ch.c **** * Function Name: isr_rx_ch_GetState
 322:.\Generated_Source\PSoC5/isr_rx_ch.c **** ********************************************************************************
 323:.\Generated_Source\PSoC5/isr_rx_ch.c **** *
 324:.\Generated_Source\PSoC5/isr_rx_ch.c **** * Summary:
 325:.\Generated_Source\PSoC5/isr_rx_ch.c **** *   Gets the state (enabled, disabled) of the Interrupt.
 326:.\Generated_Source\PSoC5/isr_rx_ch.c **** *
 327:.\Generated_Source\PSoC5/isr_rx_ch.c **** * Parameters:
 328:.\Generated_Source\PSoC5/isr_rx_ch.c **** *   None
ARM GAS  C:\Users\pxc\AppData\Local\Temp\ccml6rZJ.s 			page 10


 329:.\Generated_Source\PSoC5/isr_rx_ch.c **** *
 330:.\Generated_Source\PSoC5/isr_rx_ch.c **** * Return:
 331:.\Generated_Source\PSoC5/isr_rx_ch.c **** *   1 if enabled, 0 if disabled.
 332:.\Generated_Source\PSoC5/isr_rx_ch.c **** *
 333:.\Generated_Source\PSoC5/isr_rx_ch.c **** *******************************************************************************/
 334:.\Generated_Source\PSoC5/isr_rx_ch.c **** uint8 isr_rx_ch_GetState(void)
 335:.\Generated_Source\PSoC5/isr_rx_ch.c **** {
 186              		.loc 1 335 0
 187              		.cfi_startproc
 188              		@ args = 0, pretend = 0, frame = 0
 189              		@ frame_needed = 0, uses_anonymous_args = 0
 190              		@ link register save eliminated.
 336:.\Generated_Source\PSoC5/isr_rx_ch.c ****     /* Get the state of the general interrupt. */
 337:.\Generated_Source\PSoC5/isr_rx_ch.c ****     return ((*isr_rx_ch_INTC_SET_EN & (uint32)isr_rx_ch__INTC_MASK) != 0u) ? 1u:0u;
 191              		.loc 1 337 0
 192 0000 044B     		ldr	r3, .L21
 193 0002 1B68     		ldr	r3, [r3]
 194 0004 13F0020F 		tst	r3, #2
 195 0008 01D0     		beq	.L20
 196 000a 0120     		movs	r0, #1
 197 000c 7047     		bx	lr
 198              	.L20:
 199 000e 0020     		movs	r0, #0
 338:.\Generated_Source\PSoC5/isr_rx_ch.c **** }
 200              		.loc 1 338 0
 201 0010 7047     		bx	lr
 202              	.L22:
 203 0012 00BF     		.align	2
 204              	.L21:
 205 0014 00E100E0 		.word	-536813312
 206              		.cfi_endproc
 207              	.LFE72:
 208              		.size	isr_rx_ch_GetState, .-isr_rx_ch_GetState
 209              		.section	.text.isr_rx_ch_Disable,"ax",%progbits
 210              		.align	2
 211              		.global	isr_rx_ch_Disable
 212              		.thumb
 213              		.thumb_func
 214              		.type	isr_rx_ch_Disable, %function
 215              	isr_rx_ch_Disable:
 216              	.LFB73:
 339:.\Generated_Source\PSoC5/isr_rx_ch.c **** 
 340:.\Generated_Source\PSoC5/isr_rx_ch.c **** 
 341:.\Generated_Source\PSoC5/isr_rx_ch.c **** /*******************************************************************************
 342:.\Generated_Source\PSoC5/isr_rx_ch.c **** * Function Name: isr_rx_ch_Disable
 343:.\Generated_Source\PSoC5/isr_rx_ch.c **** ********************************************************************************
 344:.\Generated_Source\PSoC5/isr_rx_ch.c **** *
 345:.\Generated_Source\PSoC5/isr_rx_ch.c **** * Summary:
 346:.\Generated_Source\PSoC5/isr_rx_ch.c **** *   Disables the Interrupt in the interrupt controller.
 347:.\Generated_Source\PSoC5/isr_rx_ch.c **** *
 348:.\Generated_Source\PSoC5/isr_rx_ch.c **** * Parameters:
 349:.\Generated_Source\PSoC5/isr_rx_ch.c **** *   None
 350:.\Generated_Source\PSoC5/isr_rx_ch.c **** *
 351:.\Generated_Source\PSoC5/isr_rx_ch.c **** * Return:
 352:.\Generated_Source\PSoC5/isr_rx_ch.c **** *   None
 353:.\Generated_Source\PSoC5/isr_rx_ch.c **** *
 354:.\Generated_Source\PSoC5/isr_rx_ch.c **** *******************************************************************************/
ARM GAS  C:\Users\pxc\AppData\Local\Temp\ccml6rZJ.s 			page 11


 355:.\Generated_Source\PSoC5/isr_rx_ch.c **** void isr_rx_ch_Disable(void)
 356:.\Generated_Source\PSoC5/isr_rx_ch.c **** {
 217              		.loc 1 356 0
 218              		.cfi_startproc
 219              		@ args = 0, pretend = 0, frame = 0
 220              		@ frame_needed = 0, uses_anonymous_args = 0
 221              		@ link register save eliminated.
 357:.\Generated_Source\PSoC5/isr_rx_ch.c ****     /* Disable the general interrupt. */
 358:.\Generated_Source\PSoC5/isr_rx_ch.c ****     *isr_rx_ch_INTC_CLR_EN = isr_rx_ch__INTC_MASK;
 222              		.loc 1 358 0
 223 0000 0222     		movs	r2, #2
 224 0002 014B     		ldr	r3, .L24
 225 0004 1A60     		str	r2, [r3]
 226 0006 7047     		bx	lr
 227              	.L25:
 228              		.align	2
 229              	.L24:
 230 0008 80E100E0 		.word	-536813184
 231              		.cfi_endproc
 232              	.LFE73:
 233              		.size	isr_rx_ch_Disable, .-isr_rx_ch_Disable
 234              		.section	.text.isr_rx_ch_Start,"ax",%progbits
 235              		.align	2
 236              		.global	isr_rx_ch_Start
 237              		.thumb
 238              		.thumb_func
 239              		.type	isr_rx_ch_Start, %function
 240              	isr_rx_ch_Start:
 241              	.LFB63:
  65:.\Generated_Source\PSoC5/isr_rx_ch.c ****     /* For all we know the interrupt is active. */
 242              		.loc 1 65 0
 243              		.cfi_startproc
 244              		@ args = 0, pretend = 0, frame = 0
 245              		@ frame_needed = 0, uses_anonymous_args = 0
 246 0000 08B5     		push	{r3, lr}
 247              		.cfi_def_cfa_offset 8
 248              		.cfi_offset 3, -8
 249              		.cfi_offset 14, -4
  67:.\Generated_Source\PSoC5/isr_rx_ch.c **** 
 250              		.loc 1 67 0
 251 0002 FFF7FEFF 		bl	isr_rx_ch_Disable
 252              	.LVL8:
  70:.\Generated_Source\PSoC5/isr_rx_ch.c **** 
 253              		.loc 1 70 0
 254 0006 0448     		ldr	r0, .L28
 255 0008 FFF7FEFF 		bl	isr_rx_ch_SetVector
 256              	.LVL9:
  73:.\Generated_Source\PSoC5/isr_rx_ch.c **** 
 257              		.loc 1 73 0
 258 000c 0720     		movs	r0, #7
 259 000e FFF7FEFF 		bl	isr_rx_ch_SetPriority
 260              	.LVL10:
  76:.\Generated_Source\PSoC5/isr_rx_ch.c **** }
 261              		.loc 1 76 0
 262 0012 FFF7FEFF 		bl	isr_rx_ch_Enable
 263              	.LVL11:
 264 0016 08BD     		pop	{r3, pc}
ARM GAS  C:\Users\pxc\AppData\Local\Temp\ccml6rZJ.s 			page 12


 265              	.L29:
 266              		.align	2
 267              	.L28:
 268 0018 00000000 		.word	isr_rx_ch_Interrupt
 269              		.cfi_endproc
 270              	.LFE63:
 271              		.size	isr_rx_ch_Start, .-isr_rx_ch_Start
 272              		.section	.text.isr_rx_ch_StartEx,"ax",%progbits
 273              		.align	2
 274              		.global	isr_rx_ch_StartEx
 275              		.thumb
 276              		.thumb_func
 277              		.type	isr_rx_ch_StartEx, %function
 278              	isr_rx_ch_StartEx:
 279              	.LFB64:
 108:.\Generated_Source\PSoC5/isr_rx_ch.c ****     /* For all we know the interrupt is active. */
 280              		.loc 1 108 0
 281              		.cfi_startproc
 282              		@ args = 0, pretend = 0, frame = 0
 283              		@ frame_needed = 0, uses_anonymous_args = 0
 284              	.LVL12:
 285 0000 10B5     		push	{r4, lr}
 286              		.cfi_def_cfa_offset 8
 287              		.cfi_offset 4, -8
 288              		.cfi_offset 14, -4
 289 0002 0446     		mov	r4, r0
 110:.\Generated_Source\PSoC5/isr_rx_ch.c **** 
 290              		.loc 1 110 0
 291 0004 FFF7FEFF 		bl	isr_rx_ch_Disable
 292              	.LVL13:
 113:.\Generated_Source\PSoC5/isr_rx_ch.c **** 
 293              		.loc 1 113 0
 294 0008 2046     		mov	r0, r4
 295 000a FFF7FEFF 		bl	isr_rx_ch_SetVector
 296              	.LVL14:
 116:.\Generated_Source\PSoC5/isr_rx_ch.c **** 
 297              		.loc 1 116 0
 298 000e 0720     		movs	r0, #7
 299 0010 FFF7FEFF 		bl	isr_rx_ch_SetPriority
 300              	.LVL15:
 119:.\Generated_Source\PSoC5/isr_rx_ch.c **** }
 301              		.loc 1 119 0
 302 0014 FFF7FEFF 		bl	isr_rx_ch_Enable
 303              	.LVL16:
 304 0018 10BD     		pop	{r4, pc}
 305              		.cfi_endproc
 306              	.LFE64:
 307              		.size	isr_rx_ch_StartEx, .-isr_rx_ch_StartEx
 308 001a 00BF     		.section	.text.isr_rx_ch_Stop,"ax",%progbits
 309              		.align	2
 310              		.global	isr_rx_ch_Stop
 311              		.thumb
 312              		.thumb_func
 313              		.type	isr_rx_ch_Stop, %function
 314              	isr_rx_ch_Stop:
 315              	.LFB65:
 138:.\Generated_Source\PSoC5/isr_rx_ch.c ****     /* Disable this interrupt. */
ARM GAS  C:\Users\pxc\AppData\Local\Temp\ccml6rZJ.s 			page 13


 316              		.loc 1 138 0
 317              		.cfi_startproc
 318              		@ args = 0, pretend = 0, frame = 0
 319              		@ frame_needed = 0, uses_anonymous_args = 0
 320 0000 08B5     		push	{r3, lr}
 321              		.cfi_def_cfa_offset 8
 322              		.cfi_offset 3, -8
 323              		.cfi_offset 14, -4
 140:.\Generated_Source\PSoC5/isr_rx_ch.c **** 
 324              		.loc 1 140 0
 325 0002 FFF7FEFF 		bl	isr_rx_ch_Disable
 326              	.LVL17:
 143:.\Generated_Source\PSoC5/isr_rx_ch.c **** }
 327              		.loc 1 143 0
 328 0006 0248     		ldr	r0, .L34
 329 0008 FFF7FEFF 		bl	isr_rx_ch_SetVector
 330              	.LVL18:
 331 000c 08BD     		pop	{r3, pc}
 332              	.L35:
 333 000e 00BF     		.align	2
 334              	.L34:
 335 0010 00000000 		.word	IntDefaultHandler
 336              		.cfi_endproc
 337              	.LFE65:
 338              		.size	isr_rx_ch_Stop, .-isr_rx_ch_Stop
 339              		.section	.text.isr_rx_ch_SetPending,"ax",%progbits
 340              		.align	2
 341              		.global	isr_rx_ch_SetPending
 342              		.thumb
 343              		.thumb_func
 344              		.type	isr_rx_ch_SetPending, %function
 345              	isr_rx_ch_SetPending:
 346              	.LFB74:
 359:.\Generated_Source\PSoC5/isr_rx_ch.c **** }
 360:.\Generated_Source\PSoC5/isr_rx_ch.c **** 
 361:.\Generated_Source\PSoC5/isr_rx_ch.c **** 
 362:.\Generated_Source\PSoC5/isr_rx_ch.c **** /*******************************************************************************
 363:.\Generated_Source\PSoC5/isr_rx_ch.c **** * Function Name: isr_rx_ch_SetPending
 364:.\Generated_Source\PSoC5/isr_rx_ch.c **** ********************************************************************************
 365:.\Generated_Source\PSoC5/isr_rx_ch.c **** *
 366:.\Generated_Source\PSoC5/isr_rx_ch.c **** * Summary:
 367:.\Generated_Source\PSoC5/isr_rx_ch.c **** *   Causes the Interrupt to enter the pending state, a software method of
 368:.\Generated_Source\PSoC5/isr_rx_ch.c **** *   generating the interrupt.
 369:.\Generated_Source\PSoC5/isr_rx_ch.c **** *
 370:.\Generated_Source\PSoC5/isr_rx_ch.c **** * Parameters:
 371:.\Generated_Source\PSoC5/isr_rx_ch.c **** *   None
 372:.\Generated_Source\PSoC5/isr_rx_ch.c **** *
 373:.\Generated_Source\PSoC5/isr_rx_ch.c **** * Return:
 374:.\Generated_Source\PSoC5/isr_rx_ch.c **** *   None
 375:.\Generated_Source\PSoC5/isr_rx_ch.c **** *
 376:.\Generated_Source\PSoC5/isr_rx_ch.c **** * Side Effects:
 377:.\Generated_Source\PSoC5/isr_rx_ch.c **** *   If interrupts are enabled and the interrupt is set up properly, the ISR is
 378:.\Generated_Source\PSoC5/isr_rx_ch.c **** *   entered (depending on the priority of this interrupt and other pending 
 379:.\Generated_Source\PSoC5/isr_rx_ch.c **** *   interrupts).
 380:.\Generated_Source\PSoC5/isr_rx_ch.c **** *
 381:.\Generated_Source\PSoC5/isr_rx_ch.c **** *******************************************************************************/
 382:.\Generated_Source\PSoC5/isr_rx_ch.c **** void isr_rx_ch_SetPending(void)
ARM GAS  C:\Users\pxc\AppData\Local\Temp\ccml6rZJ.s 			page 14


 383:.\Generated_Source\PSoC5/isr_rx_ch.c **** {
 347              		.loc 1 383 0
 348              		.cfi_startproc
 349              		@ args = 0, pretend = 0, frame = 0
 350              		@ frame_needed = 0, uses_anonymous_args = 0
 351              		@ link register save eliminated.
 384:.\Generated_Source\PSoC5/isr_rx_ch.c ****     *isr_rx_ch_INTC_SET_PD = isr_rx_ch__INTC_MASK;
 352              		.loc 1 384 0
 353 0000 0222     		movs	r2, #2
 354 0002 014B     		ldr	r3, .L37
 355 0004 1A60     		str	r2, [r3]
 356 0006 7047     		bx	lr
 357              	.L38:
 358              		.align	2
 359              	.L37:
 360 0008 00E200E0 		.word	-536813056
 361              		.cfi_endproc
 362              	.LFE74:
 363              		.size	isr_rx_ch_SetPending, .-isr_rx_ch_SetPending
 364              		.section	.text.isr_rx_ch_ClearPending,"ax",%progbits
 365              		.align	2
 366              		.global	isr_rx_ch_ClearPending
 367              		.thumb
 368              		.thumb_func
 369              		.type	isr_rx_ch_ClearPending, %function
 370              	isr_rx_ch_ClearPending:
 371              	.LFB75:
 385:.\Generated_Source\PSoC5/isr_rx_ch.c **** }
 386:.\Generated_Source\PSoC5/isr_rx_ch.c **** 
 387:.\Generated_Source\PSoC5/isr_rx_ch.c **** 
 388:.\Generated_Source\PSoC5/isr_rx_ch.c **** /*******************************************************************************
 389:.\Generated_Source\PSoC5/isr_rx_ch.c **** * Function Name: isr_rx_ch_ClearPending
 390:.\Generated_Source\PSoC5/isr_rx_ch.c **** ********************************************************************************
 391:.\Generated_Source\PSoC5/isr_rx_ch.c **** *
 392:.\Generated_Source\PSoC5/isr_rx_ch.c **** * Summary:
 393:.\Generated_Source\PSoC5/isr_rx_ch.c **** *   Clears a pending interrupt in the interrupt controller.
 394:.\Generated_Source\PSoC5/isr_rx_ch.c **** *
 395:.\Generated_Source\PSoC5/isr_rx_ch.c **** *   Note Some interrupt sources are clear-on-read and require the block 
 396:.\Generated_Source\PSoC5/isr_rx_ch.c **** *   interrupt/status register to be read/cleared with the appropriate block API 
 397:.\Generated_Source\PSoC5/isr_rx_ch.c **** *   (GPIO, UART, and so on). Otherwise the ISR will continue to remain in 
 398:.\Generated_Source\PSoC5/isr_rx_ch.c **** *   pending state even though the interrupt itself is cleared using this API.
 399:.\Generated_Source\PSoC5/isr_rx_ch.c **** *
 400:.\Generated_Source\PSoC5/isr_rx_ch.c **** * Parameters:
 401:.\Generated_Source\PSoC5/isr_rx_ch.c **** *   None
 402:.\Generated_Source\PSoC5/isr_rx_ch.c **** *
 403:.\Generated_Source\PSoC5/isr_rx_ch.c **** * Return:
 404:.\Generated_Source\PSoC5/isr_rx_ch.c **** *   None
 405:.\Generated_Source\PSoC5/isr_rx_ch.c **** *
 406:.\Generated_Source\PSoC5/isr_rx_ch.c **** *******************************************************************************/
 407:.\Generated_Source\PSoC5/isr_rx_ch.c **** void isr_rx_ch_ClearPending(void)
 408:.\Generated_Source\PSoC5/isr_rx_ch.c **** {
 372              		.loc 1 408 0
 373              		.cfi_startproc
 374              		@ args = 0, pretend = 0, frame = 0
 375              		@ frame_needed = 0, uses_anonymous_args = 0
 376              		@ link register save eliminated.
 409:.\Generated_Source\PSoC5/isr_rx_ch.c ****     *isr_rx_ch_INTC_CLR_PD = isr_rx_ch__INTC_MASK;
ARM GAS  C:\Users\pxc\AppData\Local\Temp\ccml6rZJ.s 			page 15


 377              		.loc 1 409 0
 378 0000 0222     		movs	r2, #2
 379 0002 014B     		ldr	r3, .L40
 380 0004 1A60     		str	r2, [r3]
 381 0006 7047     		bx	lr
 382              	.L41:
 383              		.align	2
 384              	.L40:
 385 0008 80E200E0 		.word	-536812928
 386              		.cfi_endproc
 387              	.LFE75:
 388              		.size	isr_rx_ch_ClearPending, .-isr_rx_ch_ClearPending
 389              		.text
 390              	.Letext0:
 391              		.file 2 "c:\\program files (x86)\\cypress\\psoc creator\\3.3\\psoc creator\\import\\gnu\\arm\\4.9.
 392              		.file 3 "c:\\program files (x86)\\cypress\\psoc creator\\3.3\\psoc creator\\import\\gnu\\arm\\4.9.
 393              		.file 4 "Generated_Source\\PSoC5/cytypes.h"
 394              		.file 5 "Generated_Source\\PSoC5/core_cm3.h"
 395              		.file 6 ".\\Generated_Source\\PSoC5\\UART_CH.h"