ARM GAS  C:\Users\PANXIA~1\AppData\Local\Temp\ccVGkEoa.s 			page 1


   1              		.syntax unified
   2              		.cpu cortex-m3
   3              		.fpu softvfp
   4              		.eabi_attribute 20, 1
   5              		.eabi_attribute 21, 1
   6              		.eabi_attribute 23, 3
   7              		.eabi_attribute 24, 1
   8              		.eabi_attribute 25, 1
   9              		.eabi_attribute 26, 1
  10              		.eabi_attribute 30, 1
  11              		.eabi_attribute 34, 1
  12              		.eabi_attribute 18, 4
  13              		.thumb
  14              		.file	"isr_timer.c"
  15              		.text
  16              	.Ltext0:
  17              		.cfi_sections	.debug_frame
  18              		.section	.text.isr_timer_Interrupt,"ax",%progbits
  19              		.align	2
  20              		.global	isr_timer_Interrupt
  21              		.thumb
  22              		.thumb_func
  23              		.type	isr_timer_Interrupt, %function
  24              	isr_timer_Interrupt:
  25              	.LFB66:
  26              		.file 1 ".\\Generated_Source\\PSoC5\\isr_timer.c"
   1:.\Generated_Source\PSoC5/isr_timer.c **** /*******************************************************************************
   2:.\Generated_Source\PSoC5/isr_timer.c **** * File Name: isr_timer.c  
   3:.\Generated_Source\PSoC5/isr_timer.c **** * Version 1.70
   4:.\Generated_Source\PSoC5/isr_timer.c **** *
   5:.\Generated_Source\PSoC5/isr_timer.c **** *  Description:
   6:.\Generated_Source\PSoC5/isr_timer.c **** *   API for controlling the state of an interrupt.
   7:.\Generated_Source\PSoC5/isr_timer.c **** *
   8:.\Generated_Source\PSoC5/isr_timer.c **** *
   9:.\Generated_Source\PSoC5/isr_timer.c **** *  Note:
  10:.\Generated_Source\PSoC5/isr_timer.c **** *
  11:.\Generated_Source\PSoC5/isr_timer.c **** ********************************************************************************
  12:.\Generated_Source\PSoC5/isr_timer.c **** * Copyright 2008-2015, Cypress Semiconductor Corporation.  All rights reserved.
  13:.\Generated_Source\PSoC5/isr_timer.c **** * You may use this file only in accordance with the license, terms, conditions, 
  14:.\Generated_Source\PSoC5/isr_timer.c **** * disclaimers, and limitations in the end user license agreement accompanying 
  15:.\Generated_Source\PSoC5/isr_timer.c **** * the software package with which this file was provided.
  16:.\Generated_Source\PSoC5/isr_timer.c **** *******************************************************************************/
  17:.\Generated_Source\PSoC5/isr_timer.c **** 
  18:.\Generated_Source\PSoC5/isr_timer.c **** 
  19:.\Generated_Source\PSoC5/isr_timer.c **** #include <cydevice_trm.h>
  20:.\Generated_Source\PSoC5/isr_timer.c **** #include <CyLib.h>
  21:.\Generated_Source\PSoC5/isr_timer.c **** #include <isr_timer.h>
  22:.\Generated_Source\PSoC5/isr_timer.c **** #include "cyapicallbacks.h"
  23:.\Generated_Source\PSoC5/isr_timer.c **** 
  24:.\Generated_Source\PSoC5/isr_timer.c **** #if !defined(isr_timer__REMOVED) /* Check for removal by optimization */
  25:.\Generated_Source\PSoC5/isr_timer.c **** 
  26:.\Generated_Source\PSoC5/isr_timer.c **** /*******************************************************************************
  27:.\Generated_Source\PSoC5/isr_timer.c **** *  Place your includes, defines and code here 
  28:.\Generated_Source\PSoC5/isr_timer.c **** ********************************************************************************/
  29:.\Generated_Source\PSoC5/isr_timer.c **** /* `#START isr_timer_intc` */
  30:.\Generated_Source\PSoC5/isr_timer.c **** #include "multi_timer.h"
  31:.\Generated_Source\PSoC5/isr_timer.c **** uint16 time_1ms;
ARM GAS  C:\Users\PANXIA~1\AppData\Local\Temp\ccVGkEoa.s 			page 2


  32:.\Generated_Source\PSoC5/isr_timer.c **** uint16 time_1ms_state;
  33:.\Generated_Source\PSoC5/isr_timer.c **** uint16 time_5ms;   
  34:.\Generated_Source\PSoC5/isr_timer.c **** uint8  time_5ms_state;
  35:.\Generated_Source\PSoC5/isr_timer.c **** uint16 time_55s;  
  36:.\Generated_Source\PSoC5/isr_timer.c **** uint16 time_55s_state;   
  37:.\Generated_Source\PSoC5/isr_timer.c **** uint16 time_100ms;
  38:.\Generated_Source\PSoC5/isr_timer.c **** uint16 time_100ms_state;   
  39:.\Generated_Source\PSoC5/isr_timer.c ****     #include "M_thickness.h"
  40:.\Generated_Source\PSoC5/isr_timer.c ****     #include "car.h"
  41:.\Generated_Source\PSoC5/isr_timer.c **** /* `#END` */
  42:.\Generated_Source\PSoC5/isr_timer.c **** 
  43:.\Generated_Source\PSoC5/isr_timer.c **** #ifndef CYINT_IRQ_BASE
  44:.\Generated_Source\PSoC5/isr_timer.c **** #define CYINT_IRQ_BASE      16
  45:.\Generated_Source\PSoC5/isr_timer.c **** #endif /* CYINT_IRQ_BASE */
  46:.\Generated_Source\PSoC5/isr_timer.c **** #ifndef CYINT_VECT_TABLE
  47:.\Generated_Source\PSoC5/isr_timer.c **** #define CYINT_VECT_TABLE    ((cyisraddress **) CYREG_NVIC_VECT_OFFSET)
  48:.\Generated_Source\PSoC5/isr_timer.c **** #endif /* CYINT_VECT_TABLE */
  49:.\Generated_Source\PSoC5/isr_timer.c **** 
  50:.\Generated_Source\PSoC5/isr_timer.c **** /* Declared in startup, used to set unused interrupts to. */
  51:.\Generated_Source\PSoC5/isr_timer.c **** CY_ISR_PROTO(IntDefaultHandler);
  52:.\Generated_Source\PSoC5/isr_timer.c **** 
  53:.\Generated_Source\PSoC5/isr_timer.c **** 
  54:.\Generated_Source\PSoC5/isr_timer.c **** /*******************************************************************************
  55:.\Generated_Source\PSoC5/isr_timer.c **** * Function Name: isr_timer_Start
  56:.\Generated_Source\PSoC5/isr_timer.c **** ********************************************************************************
  57:.\Generated_Source\PSoC5/isr_timer.c **** *
  58:.\Generated_Source\PSoC5/isr_timer.c **** * Summary:
  59:.\Generated_Source\PSoC5/isr_timer.c **** *  Set up the interrupt and enable it. This function disables the interrupt, 
  60:.\Generated_Source\PSoC5/isr_timer.c **** *  sets the default interrupt vector, sets the priority from the value in the
  61:.\Generated_Source\PSoC5/isr_timer.c **** *  Design Wide Resources Interrupt Editor, then enables the interrupt to the 
  62:.\Generated_Source\PSoC5/isr_timer.c **** *  interrupt controller.
  63:.\Generated_Source\PSoC5/isr_timer.c **** *
  64:.\Generated_Source\PSoC5/isr_timer.c **** * Parameters:  
  65:.\Generated_Source\PSoC5/isr_timer.c **** *   None
  66:.\Generated_Source\PSoC5/isr_timer.c **** *
  67:.\Generated_Source\PSoC5/isr_timer.c **** * Return:
  68:.\Generated_Source\PSoC5/isr_timer.c **** *   None
  69:.\Generated_Source\PSoC5/isr_timer.c **** *
  70:.\Generated_Source\PSoC5/isr_timer.c **** *******************************************************************************/
  71:.\Generated_Source\PSoC5/isr_timer.c **** void isr_timer_Start(void)
  72:.\Generated_Source\PSoC5/isr_timer.c **** {
  73:.\Generated_Source\PSoC5/isr_timer.c ****     /* For all we know the interrupt is active. */
  74:.\Generated_Source\PSoC5/isr_timer.c ****     isr_timer_Disable();
  75:.\Generated_Source\PSoC5/isr_timer.c **** 
  76:.\Generated_Source\PSoC5/isr_timer.c ****     /* Set the ISR to point to the isr_timer Interrupt. */
  77:.\Generated_Source\PSoC5/isr_timer.c ****     isr_timer_SetVector(&isr_timer_Interrupt);
  78:.\Generated_Source\PSoC5/isr_timer.c **** 
  79:.\Generated_Source\PSoC5/isr_timer.c ****     /* Set the priority. */
  80:.\Generated_Source\PSoC5/isr_timer.c ****     isr_timer_SetPriority((uint8)isr_timer_INTC_PRIOR_NUMBER);
  81:.\Generated_Source\PSoC5/isr_timer.c **** 
  82:.\Generated_Source\PSoC5/isr_timer.c ****     /* Enable it. */
  83:.\Generated_Source\PSoC5/isr_timer.c ****     isr_timer_Enable();
  84:.\Generated_Source\PSoC5/isr_timer.c **** }
  85:.\Generated_Source\PSoC5/isr_timer.c **** 
  86:.\Generated_Source\PSoC5/isr_timer.c **** 
  87:.\Generated_Source\PSoC5/isr_timer.c **** /*******************************************************************************
  88:.\Generated_Source\PSoC5/isr_timer.c **** * Function Name: isr_timer_StartEx
ARM GAS  C:\Users\PANXIA~1\AppData\Local\Temp\ccVGkEoa.s 			page 3


  89:.\Generated_Source\PSoC5/isr_timer.c **** ********************************************************************************
  90:.\Generated_Source\PSoC5/isr_timer.c **** *
  91:.\Generated_Source\PSoC5/isr_timer.c **** * Summary:
  92:.\Generated_Source\PSoC5/isr_timer.c **** *  Sets up the interrupt and enables it. This function disables the interrupt,
  93:.\Generated_Source\PSoC5/isr_timer.c **** *  sets the interrupt vector based on the address passed in, sets the priority 
  94:.\Generated_Source\PSoC5/isr_timer.c **** *  from the value in the Design Wide Resources Interrupt Editor, then enables 
  95:.\Generated_Source\PSoC5/isr_timer.c **** *  the interrupt to the interrupt controller.
  96:.\Generated_Source\PSoC5/isr_timer.c **** *  
  97:.\Generated_Source\PSoC5/isr_timer.c **** *  When defining ISR functions, the CY_ISR and CY_ISR_PROTO macros should be 
  98:.\Generated_Source\PSoC5/isr_timer.c **** *  used to provide consistent definition across compilers:
  99:.\Generated_Source\PSoC5/isr_timer.c **** *  
 100:.\Generated_Source\PSoC5/isr_timer.c **** *  Function definition example:
 101:.\Generated_Source\PSoC5/isr_timer.c **** *   CY_ISR(MyISR)
 102:.\Generated_Source\PSoC5/isr_timer.c **** *   {
 103:.\Generated_Source\PSoC5/isr_timer.c **** *   }
 104:.\Generated_Source\PSoC5/isr_timer.c **** *   Function prototype example:
 105:.\Generated_Source\PSoC5/isr_timer.c **** *   CY_ISR_PROTO(MyISR);
 106:.\Generated_Source\PSoC5/isr_timer.c **** *
 107:.\Generated_Source\PSoC5/isr_timer.c **** * Parameters:  
 108:.\Generated_Source\PSoC5/isr_timer.c **** *   address: Address of the ISR to set in the interrupt vector table.
 109:.\Generated_Source\PSoC5/isr_timer.c **** *
 110:.\Generated_Source\PSoC5/isr_timer.c **** * Return:
 111:.\Generated_Source\PSoC5/isr_timer.c **** *   None
 112:.\Generated_Source\PSoC5/isr_timer.c **** *
 113:.\Generated_Source\PSoC5/isr_timer.c **** *******************************************************************************/
 114:.\Generated_Source\PSoC5/isr_timer.c **** void isr_timer_StartEx(cyisraddress address)
 115:.\Generated_Source\PSoC5/isr_timer.c **** {
 116:.\Generated_Source\PSoC5/isr_timer.c ****     /* For all we know the interrupt is active. */
 117:.\Generated_Source\PSoC5/isr_timer.c ****     isr_timer_Disable();
 118:.\Generated_Source\PSoC5/isr_timer.c **** 
 119:.\Generated_Source\PSoC5/isr_timer.c ****     /* Set the ISR to point to the isr_timer Interrupt. */
 120:.\Generated_Source\PSoC5/isr_timer.c ****     isr_timer_SetVector(address);
 121:.\Generated_Source\PSoC5/isr_timer.c **** 
 122:.\Generated_Source\PSoC5/isr_timer.c ****     /* Set the priority. */
 123:.\Generated_Source\PSoC5/isr_timer.c ****     isr_timer_SetPriority((uint8)isr_timer_INTC_PRIOR_NUMBER);
 124:.\Generated_Source\PSoC5/isr_timer.c **** 
 125:.\Generated_Source\PSoC5/isr_timer.c ****     /* Enable it. */
 126:.\Generated_Source\PSoC5/isr_timer.c ****     isr_timer_Enable();
 127:.\Generated_Source\PSoC5/isr_timer.c **** }
 128:.\Generated_Source\PSoC5/isr_timer.c **** 
 129:.\Generated_Source\PSoC5/isr_timer.c **** 
 130:.\Generated_Source\PSoC5/isr_timer.c **** /*******************************************************************************
 131:.\Generated_Source\PSoC5/isr_timer.c **** * Function Name: isr_timer_Stop
 132:.\Generated_Source\PSoC5/isr_timer.c **** ********************************************************************************
 133:.\Generated_Source\PSoC5/isr_timer.c **** *
 134:.\Generated_Source\PSoC5/isr_timer.c **** * Summary:
 135:.\Generated_Source\PSoC5/isr_timer.c **** *   Disables and removes the interrupt.
 136:.\Generated_Source\PSoC5/isr_timer.c **** *
 137:.\Generated_Source\PSoC5/isr_timer.c **** * Parameters:  
 138:.\Generated_Source\PSoC5/isr_timer.c **** *   None
 139:.\Generated_Source\PSoC5/isr_timer.c **** *
 140:.\Generated_Source\PSoC5/isr_timer.c **** * Return:
 141:.\Generated_Source\PSoC5/isr_timer.c **** *   None
 142:.\Generated_Source\PSoC5/isr_timer.c **** *
 143:.\Generated_Source\PSoC5/isr_timer.c **** *******************************************************************************/
 144:.\Generated_Source\PSoC5/isr_timer.c **** void isr_timer_Stop(void)
 145:.\Generated_Source\PSoC5/isr_timer.c **** {
ARM GAS  C:\Users\PANXIA~1\AppData\Local\Temp\ccVGkEoa.s 			page 4


 146:.\Generated_Source\PSoC5/isr_timer.c ****     /* Disable this interrupt. */
 147:.\Generated_Source\PSoC5/isr_timer.c ****     isr_timer_Disable();
 148:.\Generated_Source\PSoC5/isr_timer.c **** 
 149:.\Generated_Source\PSoC5/isr_timer.c ****     /* Set the ISR to point to the passive one. */
 150:.\Generated_Source\PSoC5/isr_timer.c ****     isr_timer_SetVector(&IntDefaultHandler);
 151:.\Generated_Source\PSoC5/isr_timer.c **** }
 152:.\Generated_Source\PSoC5/isr_timer.c **** 
 153:.\Generated_Source\PSoC5/isr_timer.c **** 
 154:.\Generated_Source\PSoC5/isr_timer.c **** /*******************************************************************************
 155:.\Generated_Source\PSoC5/isr_timer.c **** * Function Name: isr_timer_Interrupt
 156:.\Generated_Source\PSoC5/isr_timer.c **** ********************************************************************************
 157:.\Generated_Source\PSoC5/isr_timer.c **** *
 158:.\Generated_Source\PSoC5/isr_timer.c **** * Summary:
 159:.\Generated_Source\PSoC5/isr_timer.c **** *   The default Interrupt Service Routine for isr_timer.
 160:.\Generated_Source\PSoC5/isr_timer.c **** *
 161:.\Generated_Source\PSoC5/isr_timer.c **** *   Add custom code between the coments to keep the next version of this file
 162:.\Generated_Source\PSoC5/isr_timer.c **** *   from over writting your code.
 163:.\Generated_Source\PSoC5/isr_timer.c **** *
 164:.\Generated_Source\PSoC5/isr_timer.c **** * Parameters:  
 165:.\Generated_Source\PSoC5/isr_timer.c **** *
 166:.\Generated_Source\PSoC5/isr_timer.c **** * Return:
 167:.\Generated_Source\PSoC5/isr_timer.c **** *   None
 168:.\Generated_Source\PSoC5/isr_timer.c **** *
 169:.\Generated_Source\PSoC5/isr_timer.c **** *******************************************************************************/
 170:.\Generated_Source\PSoC5/isr_timer.c **** CY_ISR(isr_timer_Interrupt)
 171:.\Generated_Source\PSoC5/isr_timer.c **** {
  27              		.loc 1 171 0
  28              		.cfi_startproc
  29              		@ args = 0, pretend = 0, frame = 0
  30              		@ frame_needed = 0, uses_anonymous_args = 0
  31 0000 08B5     		push	{r3, lr}
  32              		.cfi_def_cfa_offset 8
  33              		.cfi_offset 3, -8
  34              		.cfi_offset 14, -4
 172:.\Generated_Source\PSoC5/isr_timer.c ****     #ifdef isr_timer_INTERRUPT_INTERRUPT_CALLBACK
 173:.\Generated_Source\PSoC5/isr_timer.c ****         isr_timer_Interrupt_InterruptCallback();
 174:.\Generated_Source\PSoC5/isr_timer.c ****     #endif /* isr_timer_INTERRUPT_INTERRUPT_CALLBACK */ 
 175:.\Generated_Source\PSoC5/isr_timer.c **** 
 176:.\Generated_Source\PSoC5/isr_timer.c ****     /*  Place your Interrupt code here. */
 177:.\Generated_Source\PSoC5/isr_timer.c ****     /* `#START isr_timer_Interrupt` */
 178:.\Generated_Source\PSoC5/isr_timer.c ****     time_5ms++;
  35              		.loc 1 178 0
  36 0002 2A4A     		ldr	r2, .L9
  37 0004 1388     		ldrh	r3, [r2]
  38 0006 0133     		adds	r3, r3, #1
  39 0008 1380     		strh	r3, [r2]	@ movhi
 179:.\Generated_Source\PSoC5/isr_timer.c ****     if(g_Car.shutdown_flag == 1)
  40              		.loc 1 179 0
  41 000a 294B     		ldr	r3, .L9+4
  42 000c 93F85030 		ldrb	r3, [r3, #80]	@ zero_extendqisi2
  43 0010 012B     		cmp	r3, #1
  44 0012 07D1     		bne	.L2
 180:.\Generated_Source\PSoC5/isr_timer.c ****     {
 181:.\Generated_Source\PSoC5/isr_timer.c ****         g_Car.shutdown_flag = 2 ;
  45              		.loc 1 181 0
  46 0014 0222     		movs	r2, #2
  47 0016 264B     		ldr	r3, .L9+4
ARM GAS  C:\Users\PANXIA~1\AppData\Local\Temp\ccVGkEoa.s 			page 5


  48 0018 83F85020 		strb	r2, [r3, #80]
 182:.\Generated_Source\PSoC5/isr_timer.c ****         time_55s = 0;
  49              		.loc 1 182 0
  50 001c 0022     		movs	r2, #0
  51 001e 254B     		ldr	r3, .L9+8
  52 0020 1A80     		strh	r2, [r3]	@ movhi
  53 0022 03E0     		b	.L3
  54              	.L2:
 183:.\Generated_Source\PSoC5/isr_timer.c ****     }
 184:.\Generated_Source\PSoC5/isr_timer.c ****     else
 185:.\Generated_Source\PSoC5/isr_timer.c ****     {
 186:.\Generated_Source\PSoC5/isr_timer.c ****         time_55s ++;
  55              		.loc 1 186 0
  56 0024 234A     		ldr	r2, .L9+8
  57 0026 1388     		ldrh	r3, [r2]
  58 0028 0133     		adds	r3, r3, #1
  59 002a 1380     		strh	r3, [r2]	@ movhi
  60              	.L3:
 187:.\Generated_Source\PSoC5/isr_timer.c ****     }
 188:.\Generated_Source\PSoC5/isr_timer.c ****     time_1ms ++;
  61              		.loc 1 188 0
  62 002c 224A     		ldr	r2, .L9+12
  63 002e 1388     		ldrh	r3, [r2]
  64 0030 0133     		adds	r3, r3, #1
  65 0032 1380     		strh	r3, [r2]	@ movhi
 189:.\Generated_Source\PSoC5/isr_timer.c ****     time_100ms++;
  66              		.loc 1 189 0
  67 0034 214A     		ldr	r2, .L9+16
  68 0036 1388     		ldrh	r3, [r2]
  69 0038 0133     		adds	r3, r3, #1
  70 003a 1380     		strh	r3, [r2]	@ movhi
 190:.\Generated_Source\PSoC5/isr_timer.c ****    
 191:.\Generated_Source\PSoC5/isr_timer.c ****     if(time_55s >52000 && g_Car.shutdown_flag == 2)
  71              		.loc 1 191 0
  72 003c 1D4B     		ldr	r3, .L9+8
  73 003e 1A88     		ldrh	r2, [r3]
  74 0040 4CF62033 		movw	r3, #52000
  75 0044 9A42     		cmp	r2, r3
  76 0046 0FD9     		bls	.L4
  77              		.loc 1 191 0 is_stmt 0 discriminator 1
  78 0048 194B     		ldr	r3, .L9+4
  79 004a 93F85030 		ldrb	r3, [r3, #80]	@ zero_extendqisi2
  80 004e 022B     		cmp	r3, #2
  81 0050 0AD1     		bne	.L4
 192:.\Generated_Source\PSoC5/isr_timer.c ****     {
 193:.\Generated_Source\PSoC5/isr_timer.c ****         shutdown_50s();
  82              		.loc 1 193 0 is_stmt 1
  83 0052 FFF7FEFF 		bl	shutdown_50s
  84              	.LVL0:
 194:.\Generated_Source\PSoC5/isr_timer.c ****         time_55s_state = 1;
  85              		.loc 1 194 0
  86 0056 0122     		movs	r2, #1
  87 0058 194B     		ldr	r3, .L9+20
  88 005a 1A80     		strh	r2, [r3]	@ movhi
 195:.\Generated_Source\PSoC5/isr_timer.c ****         g_Car.shutdown_flag = 0;
  89              		.loc 1 195 0
  90 005c 0023     		movs	r3, #0
ARM GAS  C:\Users\PANXIA~1\AppData\Local\Temp\ccVGkEoa.s 			page 6


  91 005e 144A     		ldr	r2, .L9+4
  92 0060 82F85030 		strb	r3, [r2, #80]
 196:.\Generated_Source\PSoC5/isr_timer.c ****         time_55s = 0;
  93              		.loc 1 196 0
  94 0064 134A     		ldr	r2, .L9+8
  95 0066 1380     		strh	r3, [r2]	@ movhi
  96              	.L4:
 197:.\Generated_Source\PSoC5/isr_timer.c ****     }
 198:.\Generated_Source\PSoC5/isr_timer.c ****       if(time_5ms > 5)
  97              		.loc 1 198 0
  98 0068 104B     		ldr	r3, .L9
  99 006a 1B88     		ldrh	r3, [r3]
 100 006c 052B     		cmp	r3, #5
 101 006e 05D9     		bls	.L5
 199:.\Generated_Source\PSoC5/isr_timer.c ****       {
 200:.\Generated_Source\PSoC5/isr_timer.c ****         time_5ms_state = 1;
 102              		.loc 1 200 0
 103 0070 0122     		movs	r2, #1
 104 0072 144B     		ldr	r3, .L9+24
 105 0074 1A70     		strb	r2, [r3]
 201:.\Generated_Source\PSoC5/isr_timer.c ****         time_5ms = 0;
 106              		.loc 1 201 0
 107 0076 0022     		movs	r2, #0
 108 0078 0C4B     		ldr	r3, .L9
 109 007a 1A80     		strh	r2, [r3]	@ movhi
 110              	.L5:
 202:.\Generated_Source\PSoC5/isr_timer.c ****       }
 203:.\Generated_Source\PSoC5/isr_timer.c ****     if(time_100ms >100 )
 111              		.loc 1 203 0
 112 007c 0F4B     		ldr	r3, .L9+16
 113 007e 1B88     		ldrh	r3, [r3]
 114 0080 642B     		cmp	r3, #100
 115 0082 05D9     		bls	.L6
 204:.\Generated_Source\PSoC5/isr_timer.c ****     {
 205:.\Generated_Source\PSoC5/isr_timer.c ****         time_100ms = 0;
 116              		.loc 1 205 0
 117 0084 0022     		movs	r2, #0
 118 0086 0D4B     		ldr	r3, .L9+16
 119 0088 1A80     		strh	r2, [r3]	@ movhi
 206:.\Generated_Source\PSoC5/isr_timer.c ****         time_100ms_state = 1;
 120              		.loc 1 206 0
 121 008a 0122     		movs	r2, #1
 122 008c 0E4B     		ldr	r3, .L9+28
 123 008e 1A80     		strh	r2, [r3]	@ movhi
 124              	.L6:
 207:.\Generated_Source\PSoC5/isr_timer.c ****     }
 208:.\Generated_Source\PSoC5/isr_timer.c ****      if(time_1ms >3 )
 125              		.loc 1 208 0
 126 0090 094B     		ldr	r3, .L9+12
 127 0092 1B88     		ldrh	r3, [r3]
 128 0094 032B     		cmp	r3, #3
 129 0096 05D9     		bls	.L7
 209:.\Generated_Source\PSoC5/isr_timer.c ****     {
 210:.\Generated_Source\PSoC5/isr_timer.c ****         time_1ms = 0;
 130              		.loc 1 210 0
 131 0098 0022     		movs	r2, #0
 132 009a 074B     		ldr	r3, .L9+12
ARM GAS  C:\Users\PANXIA~1\AppData\Local\Temp\ccVGkEoa.s 			page 7


 133 009c 1A80     		strh	r2, [r3]	@ movhi
 211:.\Generated_Source\PSoC5/isr_timer.c ****         time_1ms_state = 1;
 134              		.loc 1 211 0
 135 009e 0122     		movs	r2, #1
 136 00a0 0A4B     		ldr	r3, .L9+32
 137 00a2 1A80     		strh	r2, [r3]	@ movhi
 138              	.L7:
 212:.\Generated_Source\PSoC5/isr_timer.c ****     }
 213:.\Generated_Source\PSoC5/isr_timer.c ****      timer_ticks();
 139              		.loc 1 213 0
 140 00a4 FFF7FEFF 		bl	timer_ticks
 141              	.LVL1:
 142 00a8 08BD     		pop	{r3, pc}
 143              	.L10:
 144 00aa 00BF     		.align	2
 145              	.L9:
 146 00ac 00000000 		.word	time_5ms
 147 00b0 00000000 		.word	g_Car
 148 00b4 00000000 		.word	time_55s
 149 00b8 00000000 		.word	time_1ms
 150 00bc 00000000 		.word	time_100ms
 151 00c0 00000000 		.word	time_55s_state
 152 00c4 00000000 		.word	time_5ms_state
 153 00c8 00000000 		.word	time_100ms_state
 154 00cc 00000000 		.word	time_1ms_state
 155              		.cfi_endproc
 156              	.LFE66:
 157              		.size	isr_timer_Interrupt, .-isr_timer_Interrupt
 158              		.section	.text.isr_timer_SetVector,"ax",%progbits
 159              		.align	2
 160              		.global	isr_timer_SetVector
 161              		.thumb
 162              		.thumb_func
 163              		.type	isr_timer_SetVector, %function
 164              	isr_timer_SetVector:
 165              	.LFB67:
 214:.\Generated_Source\PSoC5/isr_timer.c ****     /* `#END` */
 215:.\Generated_Source\PSoC5/isr_timer.c **** }
 216:.\Generated_Source\PSoC5/isr_timer.c **** 
 217:.\Generated_Source\PSoC5/isr_timer.c **** 
 218:.\Generated_Source\PSoC5/isr_timer.c **** /*******************************************************************************
 219:.\Generated_Source\PSoC5/isr_timer.c **** * Function Name: isr_timer_SetVector
 220:.\Generated_Source\PSoC5/isr_timer.c **** ********************************************************************************
 221:.\Generated_Source\PSoC5/isr_timer.c **** *
 222:.\Generated_Source\PSoC5/isr_timer.c **** * Summary:
 223:.\Generated_Source\PSoC5/isr_timer.c **** *   Change the ISR vector for the Interrupt. Note calling isr_timer_Start
 224:.\Generated_Source\PSoC5/isr_timer.c **** *   will override any effect this method would have had. To set the vector 
 225:.\Generated_Source\PSoC5/isr_timer.c **** *   before the component has been started use isr_timer_StartEx instead.
 226:.\Generated_Source\PSoC5/isr_timer.c **** * 
 227:.\Generated_Source\PSoC5/isr_timer.c **** *   When defining ISR functions, the CY_ISR and CY_ISR_PROTO macros should be 
 228:.\Generated_Source\PSoC5/isr_timer.c **** *   used to provide consistent definition across compilers:
 229:.\Generated_Source\PSoC5/isr_timer.c **** *
 230:.\Generated_Source\PSoC5/isr_timer.c **** *   Function definition example:
 231:.\Generated_Source\PSoC5/isr_timer.c **** *   CY_ISR(MyISR)
 232:.\Generated_Source\PSoC5/isr_timer.c **** *   {
 233:.\Generated_Source\PSoC5/isr_timer.c **** *   }
 234:.\Generated_Source\PSoC5/isr_timer.c **** *
ARM GAS  C:\Users\PANXIA~1\AppData\Local\Temp\ccVGkEoa.s 			page 8


 235:.\Generated_Source\PSoC5/isr_timer.c **** *   Function prototype example:
 236:.\Generated_Source\PSoC5/isr_timer.c **** *     CY_ISR_PROTO(MyISR);
 237:.\Generated_Source\PSoC5/isr_timer.c **** *
 238:.\Generated_Source\PSoC5/isr_timer.c **** * Parameters:
 239:.\Generated_Source\PSoC5/isr_timer.c **** *   address: Address of the ISR to set in the interrupt vector table.
 240:.\Generated_Source\PSoC5/isr_timer.c **** *
 241:.\Generated_Source\PSoC5/isr_timer.c **** * Return:
 242:.\Generated_Source\PSoC5/isr_timer.c **** *   None
 243:.\Generated_Source\PSoC5/isr_timer.c **** *
 244:.\Generated_Source\PSoC5/isr_timer.c **** *******************************************************************************/
 245:.\Generated_Source\PSoC5/isr_timer.c **** void isr_timer_SetVector(cyisraddress address)
 246:.\Generated_Source\PSoC5/isr_timer.c **** {
 166              		.loc 1 246 0
 167              		.cfi_startproc
 168              		@ args = 0, pretend = 0, frame = 0
 169              		@ frame_needed = 0, uses_anonymous_args = 0
 170              		@ link register save eliminated.
 171              	.LVL2:
 247:.\Generated_Source\PSoC5/isr_timer.c ****     cyisraddress * ramVectorTable;
 248:.\Generated_Source\PSoC5/isr_timer.c **** 
 249:.\Generated_Source\PSoC5/isr_timer.c ****     ramVectorTable = (cyisraddress *) *CYINT_VECT_TABLE;
 172              		.loc 1 249 0
 173 0000 014B     		ldr	r3, .L12
 174 0002 1B68     		ldr	r3, [r3]
 175              	.LVL3:
 250:.\Generated_Source\PSoC5/isr_timer.c **** 
 251:.\Generated_Source\PSoC5/isr_timer.c ****     ramVectorTable[CYINT_IRQ_BASE + (uint32)isr_timer__INTC_NUMBER] = address;
 176              		.loc 1 251 0
 177 0004 5865     		str	r0, [r3, #84]
 178 0006 7047     		bx	lr
 179              	.L13:
 180              		.align	2
 181              	.L12:
 182 0008 08ED00E0 		.word	-536810232
 183              		.cfi_endproc
 184              	.LFE67:
 185              		.size	isr_timer_SetVector, .-isr_timer_SetVector
 186              		.section	.text.isr_timer_GetVector,"ax",%progbits
 187              		.align	2
 188              		.global	isr_timer_GetVector
 189              		.thumb
 190              		.thumb_func
 191              		.type	isr_timer_GetVector, %function
 192              	isr_timer_GetVector:
 193              	.LFB68:
 252:.\Generated_Source\PSoC5/isr_timer.c **** }
 253:.\Generated_Source\PSoC5/isr_timer.c **** 
 254:.\Generated_Source\PSoC5/isr_timer.c **** 
 255:.\Generated_Source\PSoC5/isr_timer.c **** /*******************************************************************************
 256:.\Generated_Source\PSoC5/isr_timer.c **** * Function Name: isr_timer_GetVector
 257:.\Generated_Source\PSoC5/isr_timer.c **** ********************************************************************************
 258:.\Generated_Source\PSoC5/isr_timer.c **** *
 259:.\Generated_Source\PSoC5/isr_timer.c **** * Summary:
 260:.\Generated_Source\PSoC5/isr_timer.c **** *   Gets the "address" of the current ISR vector for the Interrupt.
 261:.\Generated_Source\PSoC5/isr_timer.c **** *
 262:.\Generated_Source\PSoC5/isr_timer.c **** * Parameters:
 263:.\Generated_Source\PSoC5/isr_timer.c **** *   None
ARM GAS  C:\Users\PANXIA~1\AppData\Local\Temp\ccVGkEoa.s 			page 9


 264:.\Generated_Source\PSoC5/isr_timer.c **** *
 265:.\Generated_Source\PSoC5/isr_timer.c **** * Return:
 266:.\Generated_Source\PSoC5/isr_timer.c **** *   Address of the ISR in the interrupt vector table.
 267:.\Generated_Source\PSoC5/isr_timer.c **** *
 268:.\Generated_Source\PSoC5/isr_timer.c **** *******************************************************************************/
 269:.\Generated_Source\PSoC5/isr_timer.c **** cyisraddress isr_timer_GetVector(void)
 270:.\Generated_Source\PSoC5/isr_timer.c **** {
 194              		.loc 1 270 0
 195              		.cfi_startproc
 196              		@ args = 0, pretend = 0, frame = 0
 197              		@ frame_needed = 0, uses_anonymous_args = 0
 198              		@ link register save eliminated.
 271:.\Generated_Source\PSoC5/isr_timer.c ****     cyisraddress * ramVectorTable;
 272:.\Generated_Source\PSoC5/isr_timer.c **** 
 273:.\Generated_Source\PSoC5/isr_timer.c ****     ramVectorTable = (cyisraddress *) *CYINT_VECT_TABLE;
 199              		.loc 1 273 0
 200 0000 014B     		ldr	r3, .L15
 201 0002 1B68     		ldr	r3, [r3]
 202              	.LVL4:
 274:.\Generated_Source\PSoC5/isr_timer.c **** 
 275:.\Generated_Source\PSoC5/isr_timer.c ****     return ramVectorTable[CYINT_IRQ_BASE + (uint32)isr_timer__INTC_NUMBER];
 276:.\Generated_Source\PSoC5/isr_timer.c **** }
 203              		.loc 1 276 0
 204 0004 586D     		ldr	r0, [r3, #84]
 205 0006 7047     		bx	lr
 206              	.L16:
 207              		.align	2
 208              	.L15:
 209 0008 08ED00E0 		.word	-536810232
 210              		.cfi_endproc
 211              	.LFE68:
 212              		.size	isr_timer_GetVector, .-isr_timer_GetVector
 213              		.section	.text.isr_timer_SetPriority,"ax",%progbits
 214              		.align	2
 215              		.global	isr_timer_SetPriority
 216              		.thumb
 217              		.thumb_func
 218              		.type	isr_timer_SetPriority, %function
 219              	isr_timer_SetPriority:
 220              	.LFB69:
 277:.\Generated_Source\PSoC5/isr_timer.c **** 
 278:.\Generated_Source\PSoC5/isr_timer.c **** 
 279:.\Generated_Source\PSoC5/isr_timer.c **** /*******************************************************************************
 280:.\Generated_Source\PSoC5/isr_timer.c **** * Function Name: isr_timer_SetPriority
 281:.\Generated_Source\PSoC5/isr_timer.c **** ********************************************************************************
 282:.\Generated_Source\PSoC5/isr_timer.c **** *
 283:.\Generated_Source\PSoC5/isr_timer.c **** * Summary:
 284:.\Generated_Source\PSoC5/isr_timer.c **** *   Sets the Priority of the Interrupt. 
 285:.\Generated_Source\PSoC5/isr_timer.c **** *
 286:.\Generated_Source\PSoC5/isr_timer.c **** *   Note calling isr_timer_Start or isr_timer_StartEx will 
 287:.\Generated_Source\PSoC5/isr_timer.c **** *   override any effect this API would have had. This API should only be called
 288:.\Generated_Source\PSoC5/isr_timer.c **** *   after isr_timer_Start or isr_timer_StartEx has been called. 
 289:.\Generated_Source\PSoC5/isr_timer.c **** *   To set the initial priority for the component, use the Design-Wide Resources
 290:.\Generated_Source\PSoC5/isr_timer.c **** *   Interrupt Editor.
 291:.\Generated_Source\PSoC5/isr_timer.c **** *
 292:.\Generated_Source\PSoC5/isr_timer.c **** *   Note This API has no effect on Non-maskable interrupt NMI).
 293:.\Generated_Source\PSoC5/isr_timer.c **** *
ARM GAS  C:\Users\PANXIA~1\AppData\Local\Temp\ccVGkEoa.s 			page 10


 294:.\Generated_Source\PSoC5/isr_timer.c **** * Parameters:
 295:.\Generated_Source\PSoC5/isr_timer.c **** *   priority: Priority of the interrupt, 0 being the highest priority
 296:.\Generated_Source\PSoC5/isr_timer.c **** *             PSoC 3 and PSoC 5LP: Priority is from 0 to 7.
 297:.\Generated_Source\PSoC5/isr_timer.c **** *             PSoC 4: Priority is from 0 to 3.
 298:.\Generated_Source\PSoC5/isr_timer.c **** *
 299:.\Generated_Source\PSoC5/isr_timer.c **** * Return:
 300:.\Generated_Source\PSoC5/isr_timer.c **** *   None
 301:.\Generated_Source\PSoC5/isr_timer.c **** *
 302:.\Generated_Source\PSoC5/isr_timer.c **** *******************************************************************************/
 303:.\Generated_Source\PSoC5/isr_timer.c **** void isr_timer_SetPriority(uint8 priority)
 304:.\Generated_Source\PSoC5/isr_timer.c **** {
 221              		.loc 1 304 0
 222              		.cfi_startproc
 223              		@ args = 0, pretend = 0, frame = 0
 224              		@ frame_needed = 0, uses_anonymous_args = 0
 225              		@ link register save eliminated.
 226              	.LVL5:
 305:.\Generated_Source\PSoC5/isr_timer.c ****     *isr_timer_INTC_PRIOR = priority << 5;
 227              		.loc 1 305 0
 228 0000 4001     		lsls	r0, r0, #5
 229              	.LVL6:
 230 0002 C0B2     		uxtb	r0, r0
 231 0004 014B     		ldr	r3, .L18
 232 0006 1870     		strb	r0, [r3]
 233 0008 7047     		bx	lr
 234              	.L19:
 235 000a 00BF     		.align	2
 236              	.L18:
 237 000c 05E400E0 		.word	-536812539
 238              		.cfi_endproc
 239              	.LFE69:
 240              		.size	isr_timer_SetPriority, .-isr_timer_SetPriority
 241              		.section	.text.isr_timer_GetPriority,"ax",%progbits
 242              		.align	2
 243              		.global	isr_timer_GetPriority
 244              		.thumb
 245              		.thumb_func
 246              		.type	isr_timer_GetPriority, %function
 247              	isr_timer_GetPriority:
 248              	.LFB70:
 306:.\Generated_Source\PSoC5/isr_timer.c **** }
 307:.\Generated_Source\PSoC5/isr_timer.c **** 
 308:.\Generated_Source\PSoC5/isr_timer.c **** 
 309:.\Generated_Source\PSoC5/isr_timer.c **** /*******************************************************************************
 310:.\Generated_Source\PSoC5/isr_timer.c **** * Function Name: isr_timer_GetPriority
 311:.\Generated_Source\PSoC5/isr_timer.c **** ********************************************************************************
 312:.\Generated_Source\PSoC5/isr_timer.c **** *
 313:.\Generated_Source\PSoC5/isr_timer.c **** * Summary:
 314:.\Generated_Source\PSoC5/isr_timer.c **** *   Gets the Priority of the Interrupt.
 315:.\Generated_Source\PSoC5/isr_timer.c **** *
 316:.\Generated_Source\PSoC5/isr_timer.c **** * Parameters:
 317:.\Generated_Source\PSoC5/isr_timer.c **** *   None
 318:.\Generated_Source\PSoC5/isr_timer.c **** *
 319:.\Generated_Source\PSoC5/isr_timer.c **** * Return:
 320:.\Generated_Source\PSoC5/isr_timer.c **** *   Priority of the interrupt, 0 being the highest priority
 321:.\Generated_Source\PSoC5/isr_timer.c **** *    PSoC 3 and PSoC 5LP: Priority is from 0 to 7.
 322:.\Generated_Source\PSoC5/isr_timer.c **** *    PSoC 4: Priority is from 0 to 3.
ARM GAS  C:\Users\PANXIA~1\AppData\Local\Temp\ccVGkEoa.s 			page 11


 323:.\Generated_Source\PSoC5/isr_timer.c **** *
 324:.\Generated_Source\PSoC5/isr_timer.c **** *******************************************************************************/
 325:.\Generated_Source\PSoC5/isr_timer.c **** uint8 isr_timer_GetPriority(void)
 326:.\Generated_Source\PSoC5/isr_timer.c **** {
 249              		.loc 1 326 0
 250              		.cfi_startproc
 251              		@ args = 0, pretend = 0, frame = 0
 252              		@ frame_needed = 0, uses_anonymous_args = 0
 253              		@ link register save eliminated.
 327:.\Generated_Source\PSoC5/isr_timer.c ****     uint8 priority;
 328:.\Generated_Source\PSoC5/isr_timer.c **** 
 329:.\Generated_Source\PSoC5/isr_timer.c **** 
 330:.\Generated_Source\PSoC5/isr_timer.c ****     priority = *isr_timer_INTC_PRIOR >> 5;
 254              		.loc 1 330 0
 255 0000 014B     		ldr	r3, .L21
 256 0002 1878     		ldrb	r0, [r3]	@ zero_extendqisi2
 257              	.LVL7:
 331:.\Generated_Source\PSoC5/isr_timer.c **** 
 332:.\Generated_Source\PSoC5/isr_timer.c ****     return priority;
 333:.\Generated_Source\PSoC5/isr_timer.c **** }
 258              		.loc 1 333 0
 259 0004 4009     		lsrs	r0, r0, #5
 260              	.LVL8:
 261 0006 7047     		bx	lr
 262              	.L22:
 263              		.align	2
 264              	.L21:
 265 0008 05E400E0 		.word	-536812539
 266              		.cfi_endproc
 267              	.LFE70:
 268              		.size	isr_timer_GetPriority, .-isr_timer_GetPriority
 269              		.section	.text.isr_timer_Enable,"ax",%progbits
 270              		.align	2
 271              		.global	isr_timer_Enable
 272              		.thumb
 273              		.thumb_func
 274              		.type	isr_timer_Enable, %function
 275              	isr_timer_Enable:
 276              	.LFB71:
 334:.\Generated_Source\PSoC5/isr_timer.c **** 
 335:.\Generated_Source\PSoC5/isr_timer.c **** 
 336:.\Generated_Source\PSoC5/isr_timer.c **** /*******************************************************************************
 337:.\Generated_Source\PSoC5/isr_timer.c **** * Function Name: isr_timer_Enable
 338:.\Generated_Source\PSoC5/isr_timer.c **** ********************************************************************************
 339:.\Generated_Source\PSoC5/isr_timer.c **** *
 340:.\Generated_Source\PSoC5/isr_timer.c **** * Summary:
 341:.\Generated_Source\PSoC5/isr_timer.c **** *   Enables the interrupt to the interrupt controller. Do not call this function
 342:.\Generated_Source\PSoC5/isr_timer.c **** *   unless ISR_Start() has been called or the functionality of the ISR_Start() 
 343:.\Generated_Source\PSoC5/isr_timer.c **** *   function, which sets the vector and the priority, has been called.
 344:.\Generated_Source\PSoC5/isr_timer.c **** *
 345:.\Generated_Source\PSoC5/isr_timer.c **** * Parameters:
 346:.\Generated_Source\PSoC5/isr_timer.c **** *   None
 347:.\Generated_Source\PSoC5/isr_timer.c **** *
 348:.\Generated_Source\PSoC5/isr_timer.c **** * Return:
 349:.\Generated_Source\PSoC5/isr_timer.c **** *   None
 350:.\Generated_Source\PSoC5/isr_timer.c **** *
 351:.\Generated_Source\PSoC5/isr_timer.c **** *******************************************************************************/
ARM GAS  C:\Users\PANXIA~1\AppData\Local\Temp\ccVGkEoa.s 			page 12


 352:.\Generated_Source\PSoC5/isr_timer.c **** void isr_timer_Enable(void)
 353:.\Generated_Source\PSoC5/isr_timer.c **** {
 277              		.loc 1 353 0
 278              		.cfi_startproc
 279              		@ args = 0, pretend = 0, frame = 0
 280              		@ frame_needed = 0, uses_anonymous_args = 0
 281              		@ link register save eliminated.
 354:.\Generated_Source\PSoC5/isr_timer.c ****     /* Enable the general interrupt. */
 355:.\Generated_Source\PSoC5/isr_timer.c ****     *isr_timer_INTC_SET_EN = isr_timer__INTC_MASK;
 282              		.loc 1 355 0
 283 0000 2022     		movs	r2, #32
 284 0002 014B     		ldr	r3, .L24
 285 0004 1A60     		str	r2, [r3]
 286 0006 7047     		bx	lr
 287              	.L25:
 288              		.align	2
 289              	.L24:
 290 0008 00E100E0 		.word	-536813312
 291              		.cfi_endproc
 292              	.LFE71:
 293              		.size	isr_timer_Enable, .-isr_timer_Enable
 294              		.section	.text.isr_timer_GetState,"ax",%progbits
 295              		.align	2
 296              		.global	isr_timer_GetState
 297              		.thumb
 298              		.thumb_func
 299              		.type	isr_timer_GetState, %function
 300              	isr_timer_GetState:
 301              	.LFB72:
 356:.\Generated_Source\PSoC5/isr_timer.c **** }
 357:.\Generated_Source\PSoC5/isr_timer.c **** 
 358:.\Generated_Source\PSoC5/isr_timer.c **** 
 359:.\Generated_Source\PSoC5/isr_timer.c **** /*******************************************************************************
 360:.\Generated_Source\PSoC5/isr_timer.c **** * Function Name: isr_timer_GetState
 361:.\Generated_Source\PSoC5/isr_timer.c **** ********************************************************************************
 362:.\Generated_Source\PSoC5/isr_timer.c **** *
 363:.\Generated_Source\PSoC5/isr_timer.c **** * Summary:
 364:.\Generated_Source\PSoC5/isr_timer.c **** *   Gets the state (enabled, disabled) of the Interrupt.
 365:.\Generated_Source\PSoC5/isr_timer.c **** *
 366:.\Generated_Source\PSoC5/isr_timer.c **** * Parameters:
 367:.\Generated_Source\PSoC5/isr_timer.c **** *   None
 368:.\Generated_Source\PSoC5/isr_timer.c **** *
 369:.\Generated_Source\PSoC5/isr_timer.c **** * Return:
 370:.\Generated_Source\PSoC5/isr_timer.c **** *   1 if enabled, 0 if disabled.
 371:.\Generated_Source\PSoC5/isr_timer.c **** *
 372:.\Generated_Source\PSoC5/isr_timer.c **** *******************************************************************************/
 373:.\Generated_Source\PSoC5/isr_timer.c **** uint8 isr_timer_GetState(void)
 374:.\Generated_Source\PSoC5/isr_timer.c **** {
 302              		.loc 1 374 0
 303              		.cfi_startproc
 304              		@ args = 0, pretend = 0, frame = 0
 305              		@ frame_needed = 0, uses_anonymous_args = 0
 306              		@ link register save eliminated.
 375:.\Generated_Source\PSoC5/isr_timer.c ****     /* Get the state of the general interrupt. */
 376:.\Generated_Source\PSoC5/isr_timer.c ****     return ((*isr_timer_INTC_SET_EN & (uint32)isr_timer__INTC_MASK) != 0u) ? 1u:0u;
 307              		.loc 1 376 0
 308 0000 044B     		ldr	r3, .L29
ARM GAS  C:\Users\PANXIA~1\AppData\Local\Temp\ccVGkEoa.s 			page 13


 309 0002 1B68     		ldr	r3, [r3]
 310 0004 13F0200F 		tst	r3, #32
 311 0008 01D0     		beq	.L28
 312 000a 0120     		movs	r0, #1
 313 000c 7047     		bx	lr
 314              	.L28:
 315 000e 0020     		movs	r0, #0
 377:.\Generated_Source\PSoC5/isr_timer.c **** }
 316              		.loc 1 377 0
 317 0010 7047     		bx	lr
 318              	.L30:
 319 0012 00BF     		.align	2
 320              	.L29:
 321 0014 00E100E0 		.word	-536813312
 322              		.cfi_endproc
 323              	.LFE72:
 324              		.size	isr_timer_GetState, .-isr_timer_GetState
 325              		.section	.text.isr_timer_Disable,"ax",%progbits
 326              		.align	2
 327              		.global	isr_timer_Disable
 328              		.thumb
 329              		.thumb_func
 330              		.type	isr_timer_Disable, %function
 331              	isr_timer_Disable:
 332              	.LFB73:
 378:.\Generated_Source\PSoC5/isr_timer.c **** 
 379:.\Generated_Source\PSoC5/isr_timer.c **** 
 380:.\Generated_Source\PSoC5/isr_timer.c **** /*******************************************************************************
 381:.\Generated_Source\PSoC5/isr_timer.c **** * Function Name: isr_timer_Disable
 382:.\Generated_Source\PSoC5/isr_timer.c **** ********************************************************************************
 383:.\Generated_Source\PSoC5/isr_timer.c **** *
 384:.\Generated_Source\PSoC5/isr_timer.c **** * Summary:
 385:.\Generated_Source\PSoC5/isr_timer.c **** *   Disables the Interrupt in the interrupt controller.
 386:.\Generated_Source\PSoC5/isr_timer.c **** *
 387:.\Generated_Source\PSoC5/isr_timer.c **** * Parameters:
 388:.\Generated_Source\PSoC5/isr_timer.c **** *   None
 389:.\Generated_Source\PSoC5/isr_timer.c **** *
 390:.\Generated_Source\PSoC5/isr_timer.c **** * Return:
 391:.\Generated_Source\PSoC5/isr_timer.c **** *   None
 392:.\Generated_Source\PSoC5/isr_timer.c **** *
 393:.\Generated_Source\PSoC5/isr_timer.c **** *******************************************************************************/
 394:.\Generated_Source\PSoC5/isr_timer.c **** void isr_timer_Disable(void)
 395:.\Generated_Source\PSoC5/isr_timer.c **** {
 333              		.loc 1 395 0
 334              		.cfi_startproc
 335              		@ args = 0, pretend = 0, frame = 0
 336              		@ frame_needed = 0, uses_anonymous_args = 0
 337              		@ link register save eliminated.
 396:.\Generated_Source\PSoC5/isr_timer.c ****     /* Disable the general interrupt. */
 397:.\Generated_Source\PSoC5/isr_timer.c ****     *isr_timer_INTC_CLR_EN = isr_timer__INTC_MASK;
 338              		.loc 1 397 0
 339 0000 2022     		movs	r2, #32
 340 0002 014B     		ldr	r3, .L32
 341 0004 1A60     		str	r2, [r3]
 342 0006 7047     		bx	lr
 343              	.L33:
 344              		.align	2
ARM GAS  C:\Users\PANXIA~1\AppData\Local\Temp\ccVGkEoa.s 			page 14


 345              	.L32:
 346 0008 80E100E0 		.word	-536813184
 347              		.cfi_endproc
 348              	.LFE73:
 349              		.size	isr_timer_Disable, .-isr_timer_Disable
 350              		.section	.text.isr_timer_Start,"ax",%progbits
 351              		.align	2
 352              		.global	isr_timer_Start
 353              		.thumb
 354              		.thumb_func
 355              		.type	isr_timer_Start, %function
 356              	isr_timer_Start:
 357              	.LFB63:
  72:.\Generated_Source\PSoC5/isr_timer.c ****     /* For all we know the interrupt is active. */
 358              		.loc 1 72 0
 359              		.cfi_startproc
 360              		@ args = 0, pretend = 0, frame = 0
 361              		@ frame_needed = 0, uses_anonymous_args = 0
 362 0000 08B5     		push	{r3, lr}
 363              		.cfi_def_cfa_offset 8
 364              		.cfi_offset 3, -8
 365              		.cfi_offset 14, -4
  74:.\Generated_Source\PSoC5/isr_timer.c **** 
 366              		.loc 1 74 0
 367 0002 FFF7FEFF 		bl	isr_timer_Disable
 368              	.LVL9:
  77:.\Generated_Source\PSoC5/isr_timer.c **** 
 369              		.loc 1 77 0
 370 0006 0448     		ldr	r0, .L36
 371 0008 FFF7FEFF 		bl	isr_timer_SetVector
 372              	.LVL10:
  80:.\Generated_Source\PSoC5/isr_timer.c **** 
 373              		.loc 1 80 0
 374 000c 0720     		movs	r0, #7
 375 000e FFF7FEFF 		bl	isr_timer_SetPriority
 376              	.LVL11:
  83:.\Generated_Source\PSoC5/isr_timer.c **** }
 377              		.loc 1 83 0
 378 0012 FFF7FEFF 		bl	isr_timer_Enable
 379              	.LVL12:
 380 0016 08BD     		pop	{r3, pc}
 381              	.L37:
 382              		.align	2
 383              	.L36:
 384 0018 00000000 		.word	isr_timer_Interrupt
 385              		.cfi_endproc
 386              	.LFE63:
 387              		.size	isr_timer_Start, .-isr_timer_Start
 388              		.section	.text.isr_timer_StartEx,"ax",%progbits
 389              		.align	2
 390              		.global	isr_timer_StartEx
 391              		.thumb
 392              		.thumb_func
 393              		.type	isr_timer_StartEx, %function
 394              	isr_timer_StartEx:
 395              	.LFB64:
 115:.\Generated_Source\PSoC5/isr_timer.c ****     /* For all we know the interrupt is active. */
ARM GAS  C:\Users\PANXIA~1\AppData\Local\Temp\ccVGkEoa.s 			page 15


 396              		.loc 1 115 0
 397              		.cfi_startproc
 398              		@ args = 0, pretend = 0, frame = 0
 399              		@ frame_needed = 0, uses_anonymous_args = 0
 400              	.LVL13:
 401 0000 10B5     		push	{r4, lr}
 402              		.cfi_def_cfa_offset 8
 403              		.cfi_offset 4, -8
 404              		.cfi_offset 14, -4
 405 0002 0446     		mov	r4, r0
 117:.\Generated_Source\PSoC5/isr_timer.c **** 
 406              		.loc 1 117 0
 407 0004 FFF7FEFF 		bl	isr_timer_Disable
 408              	.LVL14:
 120:.\Generated_Source\PSoC5/isr_timer.c **** 
 409              		.loc 1 120 0
 410 0008 2046     		mov	r0, r4
 411 000a FFF7FEFF 		bl	isr_timer_SetVector
 412              	.LVL15:
 123:.\Generated_Source\PSoC5/isr_timer.c **** 
 413              		.loc 1 123 0
 414 000e 0720     		movs	r0, #7
 415 0010 FFF7FEFF 		bl	isr_timer_SetPriority
 416              	.LVL16:
 126:.\Generated_Source\PSoC5/isr_timer.c **** }
 417              		.loc 1 126 0
 418 0014 FFF7FEFF 		bl	isr_timer_Enable
 419              	.LVL17:
 420 0018 10BD     		pop	{r4, pc}
 421              		.cfi_endproc
 422              	.LFE64:
 423              		.size	isr_timer_StartEx, .-isr_timer_StartEx
 424 001a 00BF     		.section	.text.isr_timer_Stop,"ax",%progbits
 425              		.align	2
 426              		.global	isr_timer_Stop
 427              		.thumb
 428              		.thumb_func
 429              		.type	isr_timer_Stop, %function
 430              	isr_timer_Stop:
 431              	.LFB65:
 145:.\Generated_Source\PSoC5/isr_timer.c ****     /* Disable this interrupt. */
 432              		.loc 1 145 0
 433              		.cfi_startproc
 434              		@ args = 0, pretend = 0, frame = 0
 435              		@ frame_needed = 0, uses_anonymous_args = 0
 436 0000 08B5     		push	{r3, lr}
 437              		.cfi_def_cfa_offset 8
 438              		.cfi_offset 3, -8
 439              		.cfi_offset 14, -4
 147:.\Generated_Source\PSoC5/isr_timer.c **** 
 440              		.loc 1 147 0
 441 0002 FFF7FEFF 		bl	isr_timer_Disable
 442              	.LVL18:
 150:.\Generated_Source\PSoC5/isr_timer.c **** }
 443              		.loc 1 150 0
 444 0006 0248     		ldr	r0, .L42
 445 0008 FFF7FEFF 		bl	isr_timer_SetVector
ARM GAS  C:\Users\PANXIA~1\AppData\Local\Temp\ccVGkEoa.s 			page 16


 446              	.LVL19:
 447 000c 08BD     		pop	{r3, pc}
 448              	.L43:
 449 000e 00BF     		.align	2
 450              	.L42:
 451 0010 00000000 		.word	IntDefaultHandler
 452              		.cfi_endproc
 453              	.LFE65:
 454              		.size	isr_timer_Stop, .-isr_timer_Stop
 455              		.section	.text.isr_timer_SetPending,"ax",%progbits
 456              		.align	2
 457              		.global	isr_timer_SetPending
 458              		.thumb
 459              		.thumb_func
 460              		.type	isr_timer_SetPending, %function
 461              	isr_timer_SetPending:
 462              	.LFB74:
 398:.\Generated_Source\PSoC5/isr_timer.c **** }
 399:.\Generated_Source\PSoC5/isr_timer.c **** 
 400:.\Generated_Source\PSoC5/isr_timer.c **** 
 401:.\Generated_Source\PSoC5/isr_timer.c **** /*******************************************************************************
 402:.\Generated_Source\PSoC5/isr_timer.c **** * Function Name: isr_timer_SetPending
 403:.\Generated_Source\PSoC5/isr_timer.c **** ********************************************************************************
 404:.\Generated_Source\PSoC5/isr_timer.c **** *
 405:.\Generated_Source\PSoC5/isr_timer.c **** * Summary:
 406:.\Generated_Source\PSoC5/isr_timer.c **** *   Causes the Interrupt to enter the pending state, a software method of
 407:.\Generated_Source\PSoC5/isr_timer.c **** *   generating the interrupt.
 408:.\Generated_Source\PSoC5/isr_timer.c **** *
 409:.\Generated_Source\PSoC5/isr_timer.c **** * Parameters:
 410:.\Generated_Source\PSoC5/isr_timer.c **** *   None
 411:.\Generated_Source\PSoC5/isr_timer.c **** *
 412:.\Generated_Source\PSoC5/isr_timer.c **** * Return:
 413:.\Generated_Source\PSoC5/isr_timer.c **** *   None
 414:.\Generated_Source\PSoC5/isr_timer.c **** *
 415:.\Generated_Source\PSoC5/isr_timer.c **** * Side Effects:
 416:.\Generated_Source\PSoC5/isr_timer.c **** *   If interrupts are enabled and the interrupt is set up properly, the ISR is
 417:.\Generated_Source\PSoC5/isr_timer.c **** *   entered (depending on the priority of this interrupt and other pending 
 418:.\Generated_Source\PSoC5/isr_timer.c **** *   interrupts).
 419:.\Generated_Source\PSoC5/isr_timer.c **** *
 420:.\Generated_Source\PSoC5/isr_timer.c **** *******************************************************************************/
 421:.\Generated_Source\PSoC5/isr_timer.c **** void isr_timer_SetPending(void)
 422:.\Generated_Source\PSoC5/isr_timer.c **** {
 463              		.loc 1 422 0
 464              		.cfi_startproc
 465              		@ args = 0, pretend = 0, frame = 0
 466              		@ frame_needed = 0, uses_anonymous_args = 0
 467              		@ link register save eliminated.
 423:.\Generated_Source\PSoC5/isr_timer.c ****     *isr_timer_INTC_SET_PD = isr_timer__INTC_MASK;
 468              		.loc 1 423 0
 469 0000 2022     		movs	r2, #32
 470 0002 014B     		ldr	r3, .L45
 471 0004 1A60     		str	r2, [r3]
 472 0006 7047     		bx	lr
 473              	.L46:
 474              		.align	2
 475              	.L45:
 476 0008 00E200E0 		.word	-536813056
ARM GAS  C:\Users\PANXIA~1\AppData\Local\Temp\ccVGkEoa.s 			page 17


 477              		.cfi_endproc
 478              	.LFE74:
 479              		.size	isr_timer_SetPending, .-isr_timer_SetPending
 480              		.section	.text.isr_timer_ClearPending,"ax",%progbits
 481              		.align	2
 482              		.global	isr_timer_ClearPending
 483              		.thumb
 484              		.thumb_func
 485              		.type	isr_timer_ClearPending, %function
 486              	isr_timer_ClearPending:
 487              	.LFB75:
 424:.\Generated_Source\PSoC5/isr_timer.c **** }
 425:.\Generated_Source\PSoC5/isr_timer.c **** 
 426:.\Generated_Source\PSoC5/isr_timer.c **** 
 427:.\Generated_Source\PSoC5/isr_timer.c **** /*******************************************************************************
 428:.\Generated_Source\PSoC5/isr_timer.c **** * Function Name: isr_timer_ClearPending
 429:.\Generated_Source\PSoC5/isr_timer.c **** ********************************************************************************
 430:.\Generated_Source\PSoC5/isr_timer.c **** *
 431:.\Generated_Source\PSoC5/isr_timer.c **** * Summary:
 432:.\Generated_Source\PSoC5/isr_timer.c **** *   Clears a pending interrupt in the interrupt controller.
 433:.\Generated_Source\PSoC5/isr_timer.c **** *
 434:.\Generated_Source\PSoC5/isr_timer.c **** *   Note Some interrupt sources are clear-on-read and require the block 
 435:.\Generated_Source\PSoC5/isr_timer.c **** *   interrupt/status register to be read/cleared with the appropriate block API 
 436:.\Generated_Source\PSoC5/isr_timer.c **** *   (GPIO, UART, and so on). Otherwise the ISR will continue to remain in 
 437:.\Generated_Source\PSoC5/isr_timer.c **** *   pending state even though the interrupt itself is cleared using this API.
 438:.\Generated_Source\PSoC5/isr_timer.c **** *
 439:.\Generated_Source\PSoC5/isr_timer.c **** * Parameters:
 440:.\Generated_Source\PSoC5/isr_timer.c **** *   None
 441:.\Generated_Source\PSoC5/isr_timer.c **** *
 442:.\Generated_Source\PSoC5/isr_timer.c **** * Return:
 443:.\Generated_Source\PSoC5/isr_timer.c **** *   None
 444:.\Generated_Source\PSoC5/isr_timer.c **** *
 445:.\Generated_Source\PSoC5/isr_timer.c **** *******************************************************************************/
 446:.\Generated_Source\PSoC5/isr_timer.c **** void isr_timer_ClearPending(void)
 447:.\Generated_Source\PSoC5/isr_timer.c **** {
 488              		.loc 1 447 0
 489              		.cfi_startproc
 490              		@ args = 0, pretend = 0, frame = 0
 491              		@ frame_needed = 0, uses_anonymous_args = 0
 492              		@ link register save eliminated.
 448:.\Generated_Source\PSoC5/isr_timer.c ****     *isr_timer_INTC_CLR_PD = isr_timer__INTC_MASK;
 493              		.loc 1 448 0
 494 0000 2022     		movs	r2, #32
 495 0002 014B     		ldr	r3, .L48
 496 0004 1A60     		str	r2, [r3]
 497 0006 7047     		bx	lr
 498              	.L49:
 499              		.align	2
 500              	.L48:
 501 0008 80E200E0 		.word	-536812928
 502              		.cfi_endproc
 503              	.LFE75:
 504              		.size	isr_timer_ClearPending, .-isr_timer_ClearPending
 505              		.comm	g_Car,96,4
 506              		.comm	time_100ms_state,2,2
 507              		.comm	time_100ms,2,2
 508              		.comm	time_55s_state,2,2
ARM GAS  C:\Users\PANXIA~1\AppData\Local\Temp\ccVGkEoa.s 			page 18


 509              		.comm	time_55s,2,2
 510              		.comm	time_5ms_state,1,1
 511              		.comm	time_5ms,2,2
 512              		.comm	time_1ms_state,2,2
 513              		.comm	time_1ms,2,2
 514              		.text
 515              	.Letext0:
 516              		.file 2 "d:\\program files (x86)\\cypress\\psoc creator\\3.3\\psoc creator\\import\\gnu\\arm\\4.9.
 517              		.file 3 "d:\\program files (x86)\\cypress\\psoc creator\\3.3\\psoc creator\\import\\gnu\\arm\\4.9.
 518              		.file 4 "Generated_Source\\PSoC5/cytypes.h"
 519              		.file 5 "./car.h"
 520              		.file 6 "Generated_Source\\PSoC5/core_cm3.h"
 521              		.file 7 "./M_thickness.h"
 522              		.file 8 "./multi_timer.h"