ARM GAS  C:\Users\pxc\AppData\Local\Temp\cc0dL0EZ.s 			page 1


   1              		.syntax unified
   2              		.cpu cortex-m3
   3              		.fpu softvfp
   4              		.eabi_attribute 20, 1
   5              		.eabi_attribute 21, 1
   6              		.eabi_attribute 23, 3
   7              		.eabi_attribute 24, 1
   8              		.eabi_attribute 25, 1
   9              		.eabi_attribute 26, 1
  10              		.eabi_attribute 30, 1
  11              		.eabi_attribute 34, 1
  12              		.eabi_attribute 18, 4
  13              		.thumb
  14              		.file	"isr_srf_back.c"
  15              		.text
  16              	.Ltext0:
  17              		.cfi_sections	.debug_frame
  18              		.section	.text.isr_srf_back_Interrupt,"ax",%progbits
  19              		.align	2
  20              		.global	isr_srf_back_Interrupt
  21              		.thumb
  22              		.thumb_func
  23              		.type	isr_srf_back_Interrupt, %function
  24              	isr_srf_back_Interrupt:
  25              	.LFB66:
  26              		.file 1 ".\\Generated_Source\\PSoC5\\isr_srf_back.c"
   1:.\Generated_Source\PSoC5/isr_srf_back.c **** /*******************************************************************************
   2:.\Generated_Source\PSoC5/isr_srf_back.c **** * File Name: isr_srf_back.c  
   3:.\Generated_Source\PSoC5/isr_srf_back.c **** * Version 1.70
   4:.\Generated_Source\PSoC5/isr_srf_back.c **** *
   5:.\Generated_Source\PSoC5/isr_srf_back.c **** *  Description:
   6:.\Generated_Source\PSoC5/isr_srf_back.c **** *   API for controlling the state of an interrupt.
   7:.\Generated_Source\PSoC5/isr_srf_back.c **** *
   8:.\Generated_Source\PSoC5/isr_srf_back.c **** *
   9:.\Generated_Source\PSoC5/isr_srf_back.c **** *  Note:
  10:.\Generated_Source\PSoC5/isr_srf_back.c **** *
  11:.\Generated_Source\PSoC5/isr_srf_back.c **** ********************************************************************************
  12:.\Generated_Source\PSoC5/isr_srf_back.c **** * Copyright 2008-2015, Cypress Semiconductor Corporation.  All rights reserved.
  13:.\Generated_Source\PSoC5/isr_srf_back.c **** * You may use this file only in accordance with the license, terms, conditions, 
  14:.\Generated_Source\PSoC5/isr_srf_back.c **** * disclaimers, and limitations in the end user license agreement accompanying 
  15:.\Generated_Source\PSoC5/isr_srf_back.c **** * the software package with which this file was provided.
  16:.\Generated_Source\PSoC5/isr_srf_back.c **** *******************************************************************************/
  17:.\Generated_Source\PSoC5/isr_srf_back.c **** 
  18:.\Generated_Source\PSoC5/isr_srf_back.c **** 
  19:.\Generated_Source\PSoC5/isr_srf_back.c **** #include <cydevice_trm.h>
  20:.\Generated_Source\PSoC5/isr_srf_back.c **** #include <CyLib.h>
  21:.\Generated_Source\PSoC5/isr_srf_back.c **** #include <isr_srf_back.h>
  22:.\Generated_Source\PSoC5/isr_srf_back.c **** #include "cyapicallbacks.h"
  23:.\Generated_Source\PSoC5/isr_srf_back.c **** 
  24:.\Generated_Source\PSoC5/isr_srf_back.c **** #if !defined(isr_srf_back__REMOVED) /* Check for removal by optimization */
  25:.\Generated_Source\PSoC5/isr_srf_back.c **** 
  26:.\Generated_Source\PSoC5/isr_srf_back.c **** /*******************************************************************************
  27:.\Generated_Source\PSoC5/isr_srf_back.c **** *  Place your includes, defines and code here 
  28:.\Generated_Source\PSoC5/isr_srf_back.c **** ********************************************************************************/
  29:.\Generated_Source\PSoC5/isr_srf_back.c **** /* `#START isr_srf_back_intc` */
  30:.\Generated_Source\PSoC5/isr_srf_back.c **** #include "car.h"
  31:.\Generated_Source\PSoC5/isr_srf_back.c **** static uint16 cap_pre;
ARM GAS  C:\Users\pxc\AppData\Local\Temp\cc0dL0EZ.s 			page 2


  32:.\Generated_Source\PSoC5/isr_srf_back.c **** static   uint16 cap_cur;
  33:.\Generated_Source\PSoC5/isr_srf_back.c **** static  uint16 cap_res;
  34:.\Generated_Source\PSoC5/isr_srf_back.c **** static  uint8  cap_count;
  35:.\Generated_Source\PSoC5/isr_srf_back.c **** static  uint16 distance[4];
  36:.\Generated_Source\PSoC5/isr_srf_back.c **** static  uint8 sample_count;
  37:.\Generated_Source\PSoC5/isr_srf_back.c **** /* `#END` */
  38:.\Generated_Source\PSoC5/isr_srf_back.c **** 
  39:.\Generated_Source\PSoC5/isr_srf_back.c **** #ifndef CYINT_IRQ_BASE
  40:.\Generated_Source\PSoC5/isr_srf_back.c **** #define CYINT_IRQ_BASE      16
  41:.\Generated_Source\PSoC5/isr_srf_back.c **** #endif /* CYINT_IRQ_BASE */
  42:.\Generated_Source\PSoC5/isr_srf_back.c **** #ifndef CYINT_VECT_TABLE
  43:.\Generated_Source\PSoC5/isr_srf_back.c **** #define CYINT_VECT_TABLE    ((cyisraddress **) CYREG_NVIC_VECT_OFFSET)
  44:.\Generated_Source\PSoC5/isr_srf_back.c **** #endif /* CYINT_VECT_TABLE */
  45:.\Generated_Source\PSoC5/isr_srf_back.c **** 
  46:.\Generated_Source\PSoC5/isr_srf_back.c **** /* Declared in startup, used to set unused interrupts to. */
  47:.\Generated_Source\PSoC5/isr_srf_back.c **** CY_ISR_PROTO(IntDefaultHandler);
  48:.\Generated_Source\PSoC5/isr_srf_back.c **** 
  49:.\Generated_Source\PSoC5/isr_srf_back.c **** 
  50:.\Generated_Source\PSoC5/isr_srf_back.c **** /*******************************************************************************
  51:.\Generated_Source\PSoC5/isr_srf_back.c **** * Function Name: isr_srf_back_Start
  52:.\Generated_Source\PSoC5/isr_srf_back.c **** ********************************************************************************
  53:.\Generated_Source\PSoC5/isr_srf_back.c **** *
  54:.\Generated_Source\PSoC5/isr_srf_back.c **** * Summary:
  55:.\Generated_Source\PSoC5/isr_srf_back.c **** *  Set up the interrupt and enable it. This function disables the interrupt, 
  56:.\Generated_Source\PSoC5/isr_srf_back.c **** *  sets the default interrupt vector, sets the priority from the value in the
  57:.\Generated_Source\PSoC5/isr_srf_back.c **** *  Design Wide Resources Interrupt Editor, then enables the interrupt to the 
  58:.\Generated_Source\PSoC5/isr_srf_back.c **** *  interrupt controller.
  59:.\Generated_Source\PSoC5/isr_srf_back.c **** *
  60:.\Generated_Source\PSoC5/isr_srf_back.c **** * Parameters:  
  61:.\Generated_Source\PSoC5/isr_srf_back.c **** *   None
  62:.\Generated_Source\PSoC5/isr_srf_back.c **** *
  63:.\Generated_Source\PSoC5/isr_srf_back.c **** * Return:
  64:.\Generated_Source\PSoC5/isr_srf_back.c **** *   None
  65:.\Generated_Source\PSoC5/isr_srf_back.c **** *
  66:.\Generated_Source\PSoC5/isr_srf_back.c **** *******************************************************************************/
  67:.\Generated_Source\PSoC5/isr_srf_back.c **** void isr_srf_back_Start(void)
  68:.\Generated_Source\PSoC5/isr_srf_back.c **** {
  69:.\Generated_Source\PSoC5/isr_srf_back.c ****     /* For all we know the interrupt is active. */
  70:.\Generated_Source\PSoC5/isr_srf_back.c ****     isr_srf_back_Disable();
  71:.\Generated_Source\PSoC5/isr_srf_back.c **** 
  72:.\Generated_Source\PSoC5/isr_srf_back.c ****     /* Set the ISR to point to the isr_srf_back Interrupt. */
  73:.\Generated_Source\PSoC5/isr_srf_back.c ****     isr_srf_back_SetVector(&isr_srf_back_Interrupt);
  74:.\Generated_Source\PSoC5/isr_srf_back.c **** 
  75:.\Generated_Source\PSoC5/isr_srf_back.c ****     /* Set the priority. */
  76:.\Generated_Source\PSoC5/isr_srf_back.c ****     isr_srf_back_SetPriority((uint8)isr_srf_back_INTC_PRIOR_NUMBER);
  77:.\Generated_Source\PSoC5/isr_srf_back.c **** 
  78:.\Generated_Source\PSoC5/isr_srf_back.c ****     /* Enable it. */
  79:.\Generated_Source\PSoC5/isr_srf_back.c ****     isr_srf_back_Enable();
  80:.\Generated_Source\PSoC5/isr_srf_back.c **** }
  81:.\Generated_Source\PSoC5/isr_srf_back.c **** 
  82:.\Generated_Source\PSoC5/isr_srf_back.c **** 
  83:.\Generated_Source\PSoC5/isr_srf_back.c **** /*******************************************************************************
  84:.\Generated_Source\PSoC5/isr_srf_back.c **** * Function Name: isr_srf_back_StartEx
  85:.\Generated_Source\PSoC5/isr_srf_back.c **** ********************************************************************************
  86:.\Generated_Source\PSoC5/isr_srf_back.c **** *
  87:.\Generated_Source\PSoC5/isr_srf_back.c **** * Summary:
  88:.\Generated_Source\PSoC5/isr_srf_back.c **** *  Sets up the interrupt and enables it. This function disables the interrupt,
ARM GAS  C:\Users\pxc\AppData\Local\Temp\cc0dL0EZ.s 			page 3


  89:.\Generated_Source\PSoC5/isr_srf_back.c **** *  sets the interrupt vector based on the address passed in, sets the priority 
  90:.\Generated_Source\PSoC5/isr_srf_back.c **** *  from the value in the Design Wide Resources Interrupt Editor, then enables 
  91:.\Generated_Source\PSoC5/isr_srf_back.c **** *  the interrupt to the interrupt controller.
  92:.\Generated_Source\PSoC5/isr_srf_back.c **** *  
  93:.\Generated_Source\PSoC5/isr_srf_back.c **** *  When defining ISR functions, the CY_ISR and CY_ISR_PROTO macros should be 
  94:.\Generated_Source\PSoC5/isr_srf_back.c **** *  used to provide consistent definition across compilers:
  95:.\Generated_Source\PSoC5/isr_srf_back.c **** *  
  96:.\Generated_Source\PSoC5/isr_srf_back.c **** *  Function definition example:
  97:.\Generated_Source\PSoC5/isr_srf_back.c **** *   CY_ISR(MyISR)
  98:.\Generated_Source\PSoC5/isr_srf_back.c **** *   {
  99:.\Generated_Source\PSoC5/isr_srf_back.c **** *   }
 100:.\Generated_Source\PSoC5/isr_srf_back.c **** *   Function prototype example:
 101:.\Generated_Source\PSoC5/isr_srf_back.c **** *   CY_ISR_PROTO(MyISR);
 102:.\Generated_Source\PSoC5/isr_srf_back.c **** *
 103:.\Generated_Source\PSoC5/isr_srf_back.c **** * Parameters:  
 104:.\Generated_Source\PSoC5/isr_srf_back.c **** *   address: Address of the ISR to set in the interrupt vector table.
 105:.\Generated_Source\PSoC5/isr_srf_back.c **** *
 106:.\Generated_Source\PSoC5/isr_srf_back.c **** * Return:
 107:.\Generated_Source\PSoC5/isr_srf_back.c **** *   None
 108:.\Generated_Source\PSoC5/isr_srf_back.c **** *
 109:.\Generated_Source\PSoC5/isr_srf_back.c **** *******************************************************************************/
 110:.\Generated_Source\PSoC5/isr_srf_back.c **** void isr_srf_back_StartEx(cyisraddress address)
 111:.\Generated_Source\PSoC5/isr_srf_back.c **** {
 112:.\Generated_Source\PSoC5/isr_srf_back.c ****     /* For all we know the interrupt is active. */
 113:.\Generated_Source\PSoC5/isr_srf_back.c ****     isr_srf_back_Disable();
 114:.\Generated_Source\PSoC5/isr_srf_back.c **** 
 115:.\Generated_Source\PSoC5/isr_srf_back.c ****     /* Set the ISR to point to the isr_srf_back Interrupt. */
 116:.\Generated_Source\PSoC5/isr_srf_back.c ****     isr_srf_back_SetVector(address);
 117:.\Generated_Source\PSoC5/isr_srf_back.c **** 
 118:.\Generated_Source\PSoC5/isr_srf_back.c ****     /* Set the priority. */
 119:.\Generated_Source\PSoC5/isr_srf_back.c ****     isr_srf_back_SetPriority((uint8)isr_srf_back_INTC_PRIOR_NUMBER);
 120:.\Generated_Source\PSoC5/isr_srf_back.c **** 
 121:.\Generated_Source\PSoC5/isr_srf_back.c ****     /* Enable it. */
 122:.\Generated_Source\PSoC5/isr_srf_back.c ****     isr_srf_back_Enable();
 123:.\Generated_Source\PSoC5/isr_srf_back.c **** }
 124:.\Generated_Source\PSoC5/isr_srf_back.c **** 
 125:.\Generated_Source\PSoC5/isr_srf_back.c **** 
 126:.\Generated_Source\PSoC5/isr_srf_back.c **** /*******************************************************************************
 127:.\Generated_Source\PSoC5/isr_srf_back.c **** * Function Name: isr_srf_back_Stop
 128:.\Generated_Source\PSoC5/isr_srf_back.c **** ********************************************************************************
 129:.\Generated_Source\PSoC5/isr_srf_back.c **** *
 130:.\Generated_Source\PSoC5/isr_srf_back.c **** * Summary:
 131:.\Generated_Source\PSoC5/isr_srf_back.c **** *   Disables and removes the interrupt.
 132:.\Generated_Source\PSoC5/isr_srf_back.c **** *
 133:.\Generated_Source\PSoC5/isr_srf_back.c **** * Parameters:  
 134:.\Generated_Source\PSoC5/isr_srf_back.c **** *   None
 135:.\Generated_Source\PSoC5/isr_srf_back.c **** *
 136:.\Generated_Source\PSoC5/isr_srf_back.c **** * Return:
 137:.\Generated_Source\PSoC5/isr_srf_back.c **** *   None
 138:.\Generated_Source\PSoC5/isr_srf_back.c **** *
 139:.\Generated_Source\PSoC5/isr_srf_back.c **** *******************************************************************************/
 140:.\Generated_Source\PSoC5/isr_srf_back.c **** void isr_srf_back_Stop(void)
 141:.\Generated_Source\PSoC5/isr_srf_back.c **** {
 142:.\Generated_Source\PSoC5/isr_srf_back.c ****     /* Disable this interrupt. */
 143:.\Generated_Source\PSoC5/isr_srf_back.c ****     isr_srf_back_Disable();
 144:.\Generated_Source\PSoC5/isr_srf_back.c **** 
 145:.\Generated_Source\PSoC5/isr_srf_back.c ****     /* Set the ISR to point to the passive one. */
ARM GAS  C:\Users\pxc\AppData\Local\Temp\cc0dL0EZ.s 			page 4


 146:.\Generated_Source\PSoC5/isr_srf_back.c ****     isr_srf_back_SetVector(&IntDefaultHandler);
 147:.\Generated_Source\PSoC5/isr_srf_back.c **** }
 148:.\Generated_Source\PSoC5/isr_srf_back.c **** 
 149:.\Generated_Source\PSoC5/isr_srf_back.c **** 
 150:.\Generated_Source\PSoC5/isr_srf_back.c **** /*******************************************************************************
 151:.\Generated_Source\PSoC5/isr_srf_back.c **** * Function Name: isr_srf_back_Interrupt
 152:.\Generated_Source\PSoC5/isr_srf_back.c **** ********************************************************************************
 153:.\Generated_Source\PSoC5/isr_srf_back.c **** *
 154:.\Generated_Source\PSoC5/isr_srf_back.c **** * Summary:
 155:.\Generated_Source\PSoC5/isr_srf_back.c **** *   The default Interrupt Service Routine for isr_srf_back.
 156:.\Generated_Source\PSoC5/isr_srf_back.c **** *
 157:.\Generated_Source\PSoC5/isr_srf_back.c **** *   Add custom code between the coments to keep the next version of this file
 158:.\Generated_Source\PSoC5/isr_srf_back.c **** *   from over writting your code.
 159:.\Generated_Source\PSoC5/isr_srf_back.c **** *
 160:.\Generated_Source\PSoC5/isr_srf_back.c **** * Parameters:  
 161:.\Generated_Source\PSoC5/isr_srf_back.c **** *
 162:.\Generated_Source\PSoC5/isr_srf_back.c **** * Return:
 163:.\Generated_Source\PSoC5/isr_srf_back.c **** *   None
 164:.\Generated_Source\PSoC5/isr_srf_back.c **** *
 165:.\Generated_Source\PSoC5/isr_srf_back.c **** *******************************************************************************/
 166:.\Generated_Source\PSoC5/isr_srf_back.c **** CY_ISR(isr_srf_back_Interrupt)
 167:.\Generated_Source\PSoC5/isr_srf_back.c **** {
  27              		.loc 1 167 0
  28              		.cfi_startproc
  29              		@ args = 0, pretend = 0, frame = 0
  30              		@ frame_needed = 0, uses_anonymous_args = 0
  31 0000 10B5     		push	{r4, lr}
  32              		.cfi_def_cfa_offset 8
  33              		.cfi_offset 4, -8
  34              		.cfi_offset 14, -4
 168:.\Generated_Source\PSoC5/isr_srf_back.c ****     #ifdef isr_srf_back_INTERRUPT_INTERRUPT_CALLBACK
 169:.\Generated_Source\PSoC5/isr_srf_back.c ****         isr_srf_back_Interrupt_InterruptCallback();
 170:.\Generated_Source\PSoC5/isr_srf_back.c ****     #endif /* isr_srf_back_INTERRUPT_INTERRUPT_CALLBACK */ 
 171:.\Generated_Source\PSoC5/isr_srf_back.c **** 
 172:.\Generated_Source\PSoC5/isr_srf_back.c ****     /*  Place your Interrupt code here. */
 173:.\Generated_Source\PSoC5/isr_srf_back.c ****     /* `#START isr_srf_back_Interrupt` */
 174:.\Generated_Source\PSoC5/isr_srf_back.c ****     int32 sum;
 175:.\Generated_Source\PSoC5/isr_srf_back.c **** 
 176:.\Generated_Source\PSoC5/isr_srf_back.c ****     int i ;
 177:.\Generated_Source\PSoC5/isr_srf_back.c ****     cap_count++;
  35              		.loc 1 177 0
  36 0002 154C     		ldr	r4, .L6
  37 0004 2378     		ldrb	r3, [r4]	@ zero_extendqisi2
  38 0006 0133     		adds	r3, r3, #1
  39 0008 2370     		strb	r3, [r4]
 178:.\Generated_Source\PSoC5/isr_srf_back.c ****     
 179:.\Generated_Source\PSoC5/isr_srf_back.c ****     cap_cur = 65535 - SRF_05_Timer_1_ReadCapture();
  40              		.loc 1 179 0
  41 000a FFF7FEFF 		bl	SRF_05_Timer_1_ReadCapture
  42              	.LVL0:
  43 000e C043     		mvns	r0, r0
  44 0010 80B2     		uxth	r0, r0
  45 0012 6080     		strh	r0, [r4, #2]	@ movhi
 180:.\Generated_Source\PSoC5/isr_srf_back.c ****   
 181:.\Generated_Source\PSoC5/isr_srf_back.c ****    // 
 182:.\Generated_Source\PSoC5/isr_srf_back.c ****     if(cap_count == 2)
  46              		.loc 1 182 0
ARM GAS  C:\Users\pxc\AppData\Local\Temp\cc0dL0EZ.s 			page 5


  47 0014 2378     		ldrb	r3, [r4]	@ zero_extendqisi2
  48 0016 022B     		cmp	r3, #2
  49 0018 1AD1     		bne	.L2
 183:.\Generated_Source\PSoC5/isr_srf_back.c ****     {  
 184:.\Generated_Source\PSoC5/isr_srf_back.c ****            
 185:.\Generated_Source\PSoC5/isr_srf_back.c ****         if(cap_cur >= cap_pre)
  50              		.loc 1 185 0
  51 001a A388     		ldrh	r3, [r4, #4]
  52 001c 9842     		cmp	r0, r3
  53 001e 02D3     		bcc	.L3
 186:.\Generated_Source\PSoC5/isr_srf_back.c ****         {
 187:.\Generated_Source\PSoC5/isr_srf_back.c ****             cap_res = cap_cur - cap_pre;
  54              		.loc 1 187 0
  55 0020 C01A     		subs	r0, r0, r3
  56 0022 E080     		strh	r0, [r4, #6]	@ movhi
  57 0024 03E0     		b	.L4
  58              	.L3:
 188:.\Generated_Source\PSoC5/isr_srf_back.c ****         }
 189:.\Generated_Source\PSoC5/isr_srf_back.c ****         else 
 190:.\Generated_Source\PSoC5/isr_srf_back.c ****         {
 191:.\Generated_Source\PSoC5/isr_srf_back.c ****             cap_res = 65535 - (cap_pre - cap_cur);
  59              		.loc 1 191 0
  60 0026 C01A     		subs	r0, r0, r3
  61 0028 0138     		subs	r0, r0, #1
  62 002a 0B4B     		ldr	r3, .L6
  63 002c D880     		strh	r0, [r3, #6]	@ movhi
  64              	.L4:
 192:.\Generated_Source\PSoC5/isr_srf_back.c ****         } 
 193:.\Generated_Source\PSoC5/isr_srf_back.c ****        cap_pre = 0;
  65              		.loc 1 193 0
  66 002e 0A4B     		ldr	r3, .L6
  67 0030 0022     		movs	r2, #0
 194:.\Generated_Source\PSoC5/isr_srf_back.c ****        cap_cur = 0;
  68              		.loc 1 194 0
  69 0032 5A80     		strh	r2, [r3, #2]	@ movhi
 195:.\Generated_Source\PSoC5/isr_srf_back.c ****        cap_count =0;
  70              		.loc 1 195 0
  71 0034 1A70     		strb	r2, [r3]
 196:.\Generated_Source\PSoC5/isr_srf_back.c ****    
 197:.\Generated_Source\PSoC5/isr_srf_back.c ****        g_Car.distance_back = cap_res*100/58;
  72              		.loc 1 197 0
  73 0036 DA88     		ldrh	r2, [r3, #6]
  74 0038 6423     		movs	r3, #100
  75 003a 03FB02F3 		mul	r3, r3, r2
  76 003e 074A     		ldr	r2, .L6+4
  77 0040 82FB0312 		smull	r1, r2, r2, r3
  78 0044 1A44     		add	r2, r2, r3
  79 0046 DB17     		asrs	r3, r3, #31
  80 0048 C3EB6213 		rsb	r3, r3, r2, asr #5
  81 004c 044A     		ldr	r2, .L6+8
  82 004e 9384     		strh	r3, [r2, #36]	@ movhi
  83              	.L2:
 198:.\Generated_Source\PSoC5/isr_srf_back.c **** //       sample_count++; 
 199:.\Generated_Source\PSoC5/isr_srf_back.c **** //       if(sample_count == (Distance_SampleNum +1))
 200:.\Generated_Source\PSoC5/isr_srf_back.c **** //       {
 201:.\Generated_Source\PSoC5/isr_srf_back.c **** //         for(i = 0;i < sample_count;i++)
 202:.\Generated_Source\PSoC5/isr_srf_back.c **** //        {
ARM GAS  C:\Users\pxc\AppData\Local\Temp\cc0dL0EZ.s 			page 6


 203:.\Generated_Source\PSoC5/isr_srf_back.c **** //          sum += distance[i];
 204:.\Generated_Source\PSoC5/isr_srf_back.c **** //        }
 205:.\Generated_Source\PSoC5/isr_srf_back.c **** //         g_Car.distance_front = sum/Distance_SampleNum; 
 206:.\Generated_Source\PSoC5/isr_srf_back.c **** //         sample_count = 0;
 207:.\Generated_Source\PSoC5/isr_srf_back.c **** //       }
 208:.\Generated_Source\PSoC5/isr_srf_back.c ****   
 209:.\Generated_Source\PSoC5/isr_srf_back.c ****        } 
 210:.\Generated_Source\PSoC5/isr_srf_back.c ****        cap_pre = cap_cur;
  84              		.loc 1 210 0
  85 0050 014B     		ldr	r3, .L6
  86 0052 5A88     		ldrh	r2, [r3, #2]
  87 0054 9A80     		strh	r2, [r3, #4]	@ movhi
  88 0056 10BD     		pop	{r4, pc}
  89              	.L7:
  90              		.align	2
  91              	.L6:
  92 0058 00000000 		.word	.LANCHOR0
  93 005c 09CB3D8D 		.word	-1925330167
  94 0060 00000000 		.word	g_Car
  95              		.cfi_endproc
  96              	.LFE66:
  97              		.size	isr_srf_back_Interrupt, .-isr_srf_back_Interrupt
  98              		.section	.text.isr_srf_back_SetVector,"ax",%progbits
  99              		.align	2
 100              		.global	isr_srf_back_SetVector
 101              		.thumb
 102              		.thumb_func
 103              		.type	isr_srf_back_SetVector, %function
 104              	isr_srf_back_SetVector:
 105              	.LFB67:
 211:.\Generated_Source\PSoC5/isr_srf_back.c ****     /* `#END` */
 212:.\Generated_Source\PSoC5/isr_srf_back.c **** }
 213:.\Generated_Source\PSoC5/isr_srf_back.c **** 
 214:.\Generated_Source\PSoC5/isr_srf_back.c **** 
 215:.\Generated_Source\PSoC5/isr_srf_back.c **** /*******************************************************************************
 216:.\Generated_Source\PSoC5/isr_srf_back.c **** * Function Name: isr_srf_back_SetVector
 217:.\Generated_Source\PSoC5/isr_srf_back.c **** ********************************************************************************
 218:.\Generated_Source\PSoC5/isr_srf_back.c **** *
 219:.\Generated_Source\PSoC5/isr_srf_back.c **** * Summary:
 220:.\Generated_Source\PSoC5/isr_srf_back.c **** *   Change the ISR vector for the Interrupt. Note calling isr_srf_back_Start
 221:.\Generated_Source\PSoC5/isr_srf_back.c **** *   will override any effect this method would have had. To set the vector 
 222:.\Generated_Source\PSoC5/isr_srf_back.c **** *   before the component has been started use isr_srf_back_StartEx instead.
 223:.\Generated_Source\PSoC5/isr_srf_back.c **** * 
 224:.\Generated_Source\PSoC5/isr_srf_back.c **** *   When defining ISR functions, the CY_ISR and CY_ISR_PROTO macros should be 
 225:.\Generated_Source\PSoC5/isr_srf_back.c **** *   used to provide consistent definition across compilers:
 226:.\Generated_Source\PSoC5/isr_srf_back.c **** *
 227:.\Generated_Source\PSoC5/isr_srf_back.c **** *   Function definition example:
 228:.\Generated_Source\PSoC5/isr_srf_back.c **** *   CY_ISR(MyISR)
 229:.\Generated_Source\PSoC5/isr_srf_back.c **** *   {
 230:.\Generated_Source\PSoC5/isr_srf_back.c **** *   }
 231:.\Generated_Source\PSoC5/isr_srf_back.c **** *
 232:.\Generated_Source\PSoC5/isr_srf_back.c **** *   Function prototype example:
 233:.\Generated_Source\PSoC5/isr_srf_back.c **** *     CY_ISR_PROTO(MyISR);
 234:.\Generated_Source\PSoC5/isr_srf_back.c **** *
 235:.\Generated_Source\PSoC5/isr_srf_back.c **** * Parameters:
 236:.\Generated_Source\PSoC5/isr_srf_back.c **** *   address: Address of the ISR to set in the interrupt vector table.
 237:.\Generated_Source\PSoC5/isr_srf_back.c **** *
ARM GAS  C:\Users\pxc\AppData\Local\Temp\cc0dL0EZ.s 			page 7


 238:.\Generated_Source\PSoC5/isr_srf_back.c **** * Return:
 239:.\Generated_Source\PSoC5/isr_srf_back.c **** *   None
 240:.\Generated_Source\PSoC5/isr_srf_back.c **** *
 241:.\Generated_Source\PSoC5/isr_srf_back.c **** *******************************************************************************/
 242:.\Generated_Source\PSoC5/isr_srf_back.c **** void isr_srf_back_SetVector(cyisraddress address)
 243:.\Generated_Source\PSoC5/isr_srf_back.c **** {
 106              		.loc 1 243 0
 107              		.cfi_startproc
 108              		@ args = 0, pretend = 0, frame = 0
 109              		@ frame_needed = 0, uses_anonymous_args = 0
 110              		@ link register save eliminated.
 111              	.LVL1:
 244:.\Generated_Source\PSoC5/isr_srf_back.c ****     cyisraddress * ramVectorTable;
 245:.\Generated_Source\PSoC5/isr_srf_back.c **** 
 246:.\Generated_Source\PSoC5/isr_srf_back.c ****     ramVectorTable = (cyisraddress *) *CYINT_VECT_TABLE;
 112              		.loc 1 246 0
 113 0000 014B     		ldr	r3, .L9
 114 0002 1B68     		ldr	r3, [r3]
 115              	.LVL2:
 247:.\Generated_Source\PSoC5/isr_srf_back.c **** 
 248:.\Generated_Source\PSoC5/isr_srf_back.c ****     ramVectorTable[CYINT_IRQ_BASE + (uint32)isr_srf_back__INTC_NUMBER] = address;
 116              		.loc 1 248 0
 117 0004 1865     		str	r0, [r3, #80]
 118 0006 7047     		bx	lr
 119              	.L10:
 120              		.align	2
 121              	.L9:
 122 0008 08ED00E0 		.word	-536810232
 123              		.cfi_endproc
 124              	.LFE67:
 125              		.size	isr_srf_back_SetVector, .-isr_srf_back_SetVector
 126              		.section	.text.isr_srf_back_GetVector,"ax",%progbits
 127              		.align	2
 128              		.global	isr_srf_back_GetVector
 129              		.thumb
 130              		.thumb_func
 131              		.type	isr_srf_back_GetVector, %function
 132              	isr_srf_back_GetVector:
 133              	.LFB68:
 249:.\Generated_Source\PSoC5/isr_srf_back.c **** }
 250:.\Generated_Source\PSoC5/isr_srf_back.c **** 
 251:.\Generated_Source\PSoC5/isr_srf_back.c **** 
 252:.\Generated_Source\PSoC5/isr_srf_back.c **** /*******************************************************************************
 253:.\Generated_Source\PSoC5/isr_srf_back.c **** * Function Name: isr_srf_back_GetVector
 254:.\Generated_Source\PSoC5/isr_srf_back.c **** ********************************************************************************
 255:.\Generated_Source\PSoC5/isr_srf_back.c **** *
 256:.\Generated_Source\PSoC5/isr_srf_back.c **** * Summary:
 257:.\Generated_Source\PSoC5/isr_srf_back.c **** *   Gets the "address" of the current ISR vector for the Interrupt.
 258:.\Generated_Source\PSoC5/isr_srf_back.c **** *
 259:.\Generated_Source\PSoC5/isr_srf_back.c **** * Parameters:
 260:.\Generated_Source\PSoC5/isr_srf_back.c **** *   None
 261:.\Generated_Source\PSoC5/isr_srf_back.c **** *
 262:.\Generated_Source\PSoC5/isr_srf_back.c **** * Return:
 263:.\Generated_Source\PSoC5/isr_srf_back.c **** *   Address of the ISR in the interrupt vector table.
 264:.\Generated_Source\PSoC5/isr_srf_back.c **** *
 265:.\Generated_Source\PSoC5/isr_srf_back.c **** *******************************************************************************/
 266:.\Generated_Source\PSoC5/isr_srf_back.c **** cyisraddress isr_srf_back_GetVector(void)
ARM GAS  C:\Users\pxc\AppData\Local\Temp\cc0dL0EZ.s 			page 8


 267:.\Generated_Source\PSoC5/isr_srf_back.c **** {
 134              		.loc 1 267 0
 135              		.cfi_startproc
 136              		@ args = 0, pretend = 0, frame = 0
 137              		@ frame_needed = 0, uses_anonymous_args = 0
 138              		@ link register save eliminated.
 268:.\Generated_Source\PSoC5/isr_srf_back.c ****     cyisraddress * ramVectorTable;
 269:.\Generated_Source\PSoC5/isr_srf_back.c **** 
 270:.\Generated_Source\PSoC5/isr_srf_back.c ****     ramVectorTable = (cyisraddress *) *CYINT_VECT_TABLE;
 139              		.loc 1 270 0
 140 0000 014B     		ldr	r3, .L12
 141 0002 1B68     		ldr	r3, [r3]
 142              	.LVL3:
 271:.\Generated_Source\PSoC5/isr_srf_back.c **** 
 272:.\Generated_Source\PSoC5/isr_srf_back.c ****     return ramVectorTable[CYINT_IRQ_BASE + (uint32)isr_srf_back__INTC_NUMBER];
 273:.\Generated_Source\PSoC5/isr_srf_back.c **** }
 143              		.loc 1 273 0
 144 0004 186D     		ldr	r0, [r3, #80]
 145 0006 7047     		bx	lr
 146              	.L13:
 147              		.align	2
 148              	.L12:
 149 0008 08ED00E0 		.word	-536810232
 150              		.cfi_endproc
 151              	.LFE68:
 152              		.size	isr_srf_back_GetVector, .-isr_srf_back_GetVector
 153              		.section	.text.isr_srf_back_SetPriority,"ax",%progbits
 154              		.align	2
 155              		.global	isr_srf_back_SetPriority
 156              		.thumb
 157              		.thumb_func
 158              		.type	isr_srf_back_SetPriority, %function
 159              	isr_srf_back_SetPriority:
 160              	.LFB69:
 274:.\Generated_Source\PSoC5/isr_srf_back.c **** 
 275:.\Generated_Source\PSoC5/isr_srf_back.c **** 
 276:.\Generated_Source\PSoC5/isr_srf_back.c **** /*******************************************************************************
 277:.\Generated_Source\PSoC5/isr_srf_back.c **** * Function Name: isr_srf_back_SetPriority
 278:.\Generated_Source\PSoC5/isr_srf_back.c **** ********************************************************************************
 279:.\Generated_Source\PSoC5/isr_srf_back.c **** *
 280:.\Generated_Source\PSoC5/isr_srf_back.c **** * Summary:
 281:.\Generated_Source\PSoC5/isr_srf_back.c **** *   Sets the Priority of the Interrupt. 
 282:.\Generated_Source\PSoC5/isr_srf_back.c **** *
 283:.\Generated_Source\PSoC5/isr_srf_back.c **** *   Note calling isr_srf_back_Start or isr_srf_back_StartEx will 
 284:.\Generated_Source\PSoC5/isr_srf_back.c **** *   override any effect this API would have had. This API should only be called
 285:.\Generated_Source\PSoC5/isr_srf_back.c **** *   after isr_srf_back_Start or isr_srf_back_StartEx has been called. 
 286:.\Generated_Source\PSoC5/isr_srf_back.c **** *   To set the initial priority for the component, use the Design-Wide Resources
 287:.\Generated_Source\PSoC5/isr_srf_back.c **** *   Interrupt Editor.
 288:.\Generated_Source\PSoC5/isr_srf_back.c **** *
 289:.\Generated_Source\PSoC5/isr_srf_back.c **** *   Note This API has no effect on Non-maskable interrupt NMI).
 290:.\Generated_Source\PSoC5/isr_srf_back.c **** *
 291:.\Generated_Source\PSoC5/isr_srf_back.c **** * Parameters:
 292:.\Generated_Source\PSoC5/isr_srf_back.c **** *   priority: Priority of the interrupt, 0 being the highest priority
 293:.\Generated_Source\PSoC5/isr_srf_back.c **** *             PSoC 3 and PSoC 5LP: Priority is from 0 to 7.
 294:.\Generated_Source\PSoC5/isr_srf_back.c **** *             PSoC 4: Priority is from 0 to 3.
 295:.\Generated_Source\PSoC5/isr_srf_back.c **** *
 296:.\Generated_Source\PSoC5/isr_srf_back.c **** * Return:
ARM GAS  C:\Users\pxc\AppData\Local\Temp\cc0dL0EZ.s 			page 9


 297:.\Generated_Source\PSoC5/isr_srf_back.c **** *   None
 298:.\Generated_Source\PSoC5/isr_srf_back.c **** *
 299:.\Generated_Source\PSoC5/isr_srf_back.c **** *******************************************************************************/
 300:.\Generated_Source\PSoC5/isr_srf_back.c **** void isr_srf_back_SetPriority(uint8 priority)
 301:.\Generated_Source\PSoC5/isr_srf_back.c **** {
 161              		.loc 1 301 0
 162              		.cfi_startproc
 163              		@ args = 0, pretend = 0, frame = 0
 164              		@ frame_needed = 0, uses_anonymous_args = 0
 165              		@ link register save eliminated.
 166              	.LVL4:
 302:.\Generated_Source\PSoC5/isr_srf_back.c ****     *isr_srf_back_INTC_PRIOR = priority << 5;
 167              		.loc 1 302 0
 168 0000 4001     		lsls	r0, r0, #5
 169              	.LVL5:
 170 0002 C0B2     		uxtb	r0, r0
 171 0004 014B     		ldr	r3, .L15
 172 0006 1870     		strb	r0, [r3]
 173 0008 7047     		bx	lr
 174              	.L16:
 175 000a 00BF     		.align	2
 176              	.L15:
 177 000c 04E400E0 		.word	-536812540
 178              		.cfi_endproc
 179              	.LFE69:
 180              		.size	isr_srf_back_SetPriority, .-isr_srf_back_SetPriority
 181              		.section	.text.isr_srf_back_GetPriority,"ax",%progbits
 182              		.align	2
 183              		.global	isr_srf_back_GetPriority
 184              		.thumb
 185              		.thumb_func
 186              		.type	isr_srf_back_GetPriority, %function
 187              	isr_srf_back_GetPriority:
 188              	.LFB70:
 303:.\Generated_Source\PSoC5/isr_srf_back.c **** }
 304:.\Generated_Source\PSoC5/isr_srf_back.c **** 
 305:.\Generated_Source\PSoC5/isr_srf_back.c **** 
 306:.\Generated_Source\PSoC5/isr_srf_back.c **** /*******************************************************************************
 307:.\Generated_Source\PSoC5/isr_srf_back.c **** * Function Name: isr_srf_back_GetPriority
 308:.\Generated_Source\PSoC5/isr_srf_back.c **** ********************************************************************************
 309:.\Generated_Source\PSoC5/isr_srf_back.c **** *
 310:.\Generated_Source\PSoC5/isr_srf_back.c **** * Summary:
 311:.\Generated_Source\PSoC5/isr_srf_back.c **** *   Gets the Priority of the Interrupt.
 312:.\Generated_Source\PSoC5/isr_srf_back.c **** *
 313:.\Generated_Source\PSoC5/isr_srf_back.c **** * Parameters:
 314:.\Generated_Source\PSoC5/isr_srf_back.c **** *   None
 315:.\Generated_Source\PSoC5/isr_srf_back.c **** *
 316:.\Generated_Source\PSoC5/isr_srf_back.c **** * Return:
 317:.\Generated_Source\PSoC5/isr_srf_back.c **** *   Priority of the interrupt, 0 being the highest priority
 318:.\Generated_Source\PSoC5/isr_srf_back.c **** *    PSoC 3 and PSoC 5LP: Priority is from 0 to 7.
 319:.\Generated_Source\PSoC5/isr_srf_back.c **** *    PSoC 4: Priority is from 0 to 3.
 320:.\Generated_Source\PSoC5/isr_srf_back.c **** *
 321:.\Generated_Source\PSoC5/isr_srf_back.c **** *******************************************************************************/
 322:.\Generated_Source\PSoC5/isr_srf_back.c **** uint8 isr_srf_back_GetPriority(void)
 323:.\Generated_Source\PSoC5/isr_srf_back.c **** {
 189              		.loc 1 323 0
 190              		.cfi_startproc
ARM GAS  C:\Users\pxc\AppData\Local\Temp\cc0dL0EZ.s 			page 10


 191              		@ args = 0, pretend = 0, frame = 0
 192              		@ frame_needed = 0, uses_anonymous_args = 0
 193              		@ link register save eliminated.
 324:.\Generated_Source\PSoC5/isr_srf_back.c ****     uint8 priority;
 325:.\Generated_Source\PSoC5/isr_srf_back.c **** 
 326:.\Generated_Source\PSoC5/isr_srf_back.c **** 
 327:.\Generated_Source\PSoC5/isr_srf_back.c ****     priority = *isr_srf_back_INTC_PRIOR >> 5;
 194              		.loc 1 327 0
 195 0000 014B     		ldr	r3, .L18
 196 0002 1878     		ldrb	r0, [r3]	@ zero_extendqisi2
 197              	.LVL6:
 328:.\Generated_Source\PSoC5/isr_srf_back.c **** 
 329:.\Generated_Source\PSoC5/isr_srf_back.c ****     return priority;
 330:.\Generated_Source\PSoC5/isr_srf_back.c **** }
 198              		.loc 1 330 0
 199 0004 4009     		lsrs	r0, r0, #5
 200              	.LVL7:
 201 0006 7047     		bx	lr
 202              	.L19:
 203              		.align	2
 204              	.L18:
 205 0008 04E400E0 		.word	-536812540
 206              		.cfi_endproc
 207              	.LFE70:
 208              		.size	isr_srf_back_GetPriority, .-isr_srf_back_GetPriority
 209              		.section	.text.isr_srf_back_Enable,"ax",%progbits
 210              		.align	2
 211              		.global	isr_srf_back_Enable
 212              		.thumb
 213              		.thumb_func
 214              		.type	isr_srf_back_Enable, %function
 215              	isr_srf_back_Enable:
 216              	.LFB71:
 331:.\Generated_Source\PSoC5/isr_srf_back.c **** 
 332:.\Generated_Source\PSoC5/isr_srf_back.c **** 
 333:.\Generated_Source\PSoC5/isr_srf_back.c **** /*******************************************************************************
 334:.\Generated_Source\PSoC5/isr_srf_back.c **** * Function Name: isr_srf_back_Enable
 335:.\Generated_Source\PSoC5/isr_srf_back.c **** ********************************************************************************
 336:.\Generated_Source\PSoC5/isr_srf_back.c **** *
 337:.\Generated_Source\PSoC5/isr_srf_back.c **** * Summary:
 338:.\Generated_Source\PSoC5/isr_srf_back.c **** *   Enables the interrupt to the interrupt controller. Do not call this function
 339:.\Generated_Source\PSoC5/isr_srf_back.c **** *   unless ISR_Start() has been called or the functionality of the ISR_Start() 
 340:.\Generated_Source\PSoC5/isr_srf_back.c **** *   function, which sets the vector and the priority, has been called.
 341:.\Generated_Source\PSoC5/isr_srf_back.c **** *
 342:.\Generated_Source\PSoC5/isr_srf_back.c **** * Parameters:
 343:.\Generated_Source\PSoC5/isr_srf_back.c **** *   None
 344:.\Generated_Source\PSoC5/isr_srf_back.c **** *
 345:.\Generated_Source\PSoC5/isr_srf_back.c **** * Return:
 346:.\Generated_Source\PSoC5/isr_srf_back.c **** *   None
 347:.\Generated_Source\PSoC5/isr_srf_back.c **** *
 348:.\Generated_Source\PSoC5/isr_srf_back.c **** *******************************************************************************/
 349:.\Generated_Source\PSoC5/isr_srf_back.c **** void isr_srf_back_Enable(void)
 350:.\Generated_Source\PSoC5/isr_srf_back.c **** {
 217              		.loc 1 350 0
 218              		.cfi_startproc
 219              		@ args = 0, pretend = 0, frame = 0
 220              		@ frame_needed = 0, uses_anonymous_args = 0
ARM GAS  C:\Users\pxc\AppData\Local\Temp\cc0dL0EZ.s 			page 11


 221              		@ link register save eliminated.
 351:.\Generated_Source\PSoC5/isr_srf_back.c ****     /* Enable the general interrupt. */
 352:.\Generated_Source\PSoC5/isr_srf_back.c ****     *isr_srf_back_INTC_SET_EN = isr_srf_back__INTC_MASK;
 222              		.loc 1 352 0
 223 0000 1022     		movs	r2, #16
 224 0002 014B     		ldr	r3, .L21
 225 0004 1A60     		str	r2, [r3]
 226 0006 7047     		bx	lr
 227              	.L22:
 228              		.align	2
 229              	.L21:
 230 0008 00E100E0 		.word	-536813312
 231              		.cfi_endproc
 232              	.LFE71:
 233              		.size	isr_srf_back_Enable, .-isr_srf_back_Enable
 234              		.section	.text.isr_srf_back_GetState,"ax",%progbits
 235              		.align	2
 236              		.global	isr_srf_back_GetState
 237              		.thumb
 238              		.thumb_func
 239              		.type	isr_srf_back_GetState, %function
 240              	isr_srf_back_GetState:
 241              	.LFB72:
 353:.\Generated_Source\PSoC5/isr_srf_back.c **** }
 354:.\Generated_Source\PSoC5/isr_srf_back.c **** 
 355:.\Generated_Source\PSoC5/isr_srf_back.c **** 
 356:.\Generated_Source\PSoC5/isr_srf_back.c **** /*******************************************************************************
 357:.\Generated_Source\PSoC5/isr_srf_back.c **** * Function Name: isr_srf_back_GetState
 358:.\Generated_Source\PSoC5/isr_srf_back.c **** ********************************************************************************
 359:.\Generated_Source\PSoC5/isr_srf_back.c **** *
 360:.\Generated_Source\PSoC5/isr_srf_back.c **** * Summary:
 361:.\Generated_Source\PSoC5/isr_srf_back.c **** *   Gets the state (enabled, disabled) of the Interrupt.
 362:.\Generated_Source\PSoC5/isr_srf_back.c **** *
 363:.\Generated_Source\PSoC5/isr_srf_back.c **** * Parameters:
 364:.\Generated_Source\PSoC5/isr_srf_back.c **** *   None
 365:.\Generated_Source\PSoC5/isr_srf_back.c **** *
 366:.\Generated_Source\PSoC5/isr_srf_back.c **** * Return:
 367:.\Generated_Source\PSoC5/isr_srf_back.c **** *   1 if enabled, 0 if disabled.
 368:.\Generated_Source\PSoC5/isr_srf_back.c **** *
 369:.\Generated_Source\PSoC5/isr_srf_back.c **** *******************************************************************************/
 370:.\Generated_Source\PSoC5/isr_srf_back.c **** uint8 isr_srf_back_GetState(void)
 371:.\Generated_Source\PSoC5/isr_srf_back.c **** {
 242              		.loc 1 371 0
 243              		.cfi_startproc
 244              		@ args = 0, pretend = 0, frame = 0
 245              		@ frame_needed = 0, uses_anonymous_args = 0
 246              		@ link register save eliminated.
 372:.\Generated_Source\PSoC5/isr_srf_back.c ****     /* Get the state of the general interrupt. */
 373:.\Generated_Source\PSoC5/isr_srf_back.c ****     return ((*isr_srf_back_INTC_SET_EN & (uint32)isr_srf_back__INTC_MASK) != 0u) ? 1u:0u;
 247              		.loc 1 373 0
 248 0000 044B     		ldr	r3, .L26
 249 0002 1B68     		ldr	r3, [r3]
 250 0004 13F0100F 		tst	r3, #16
 251 0008 01D0     		beq	.L25
 252 000a 0120     		movs	r0, #1
 253 000c 7047     		bx	lr
 254              	.L25:
ARM GAS  C:\Users\pxc\AppData\Local\Temp\cc0dL0EZ.s 			page 12


 255 000e 0020     		movs	r0, #0
 374:.\Generated_Source\PSoC5/isr_srf_back.c **** }
 256              		.loc 1 374 0
 257 0010 7047     		bx	lr
 258              	.L27:
 259 0012 00BF     		.align	2
 260              	.L26:
 261 0014 00E100E0 		.word	-536813312
 262              		.cfi_endproc
 263              	.LFE72:
 264              		.size	isr_srf_back_GetState, .-isr_srf_back_GetState
 265              		.section	.text.isr_srf_back_Disable,"ax",%progbits
 266              		.align	2
 267              		.global	isr_srf_back_Disable
 268              		.thumb
 269              		.thumb_func
 270              		.type	isr_srf_back_Disable, %function
 271              	isr_srf_back_Disable:
 272              	.LFB73:
 375:.\Generated_Source\PSoC5/isr_srf_back.c **** 
 376:.\Generated_Source\PSoC5/isr_srf_back.c **** 
 377:.\Generated_Source\PSoC5/isr_srf_back.c **** /*******************************************************************************
 378:.\Generated_Source\PSoC5/isr_srf_back.c **** * Function Name: isr_srf_back_Disable
 379:.\Generated_Source\PSoC5/isr_srf_back.c **** ********************************************************************************
 380:.\Generated_Source\PSoC5/isr_srf_back.c **** *
 381:.\Generated_Source\PSoC5/isr_srf_back.c **** * Summary:
 382:.\Generated_Source\PSoC5/isr_srf_back.c **** *   Disables the Interrupt in the interrupt controller.
 383:.\Generated_Source\PSoC5/isr_srf_back.c **** *
 384:.\Generated_Source\PSoC5/isr_srf_back.c **** * Parameters:
 385:.\Generated_Source\PSoC5/isr_srf_back.c **** *   None
 386:.\Generated_Source\PSoC5/isr_srf_back.c **** *
 387:.\Generated_Source\PSoC5/isr_srf_back.c **** * Return:
 388:.\Generated_Source\PSoC5/isr_srf_back.c **** *   None
 389:.\Generated_Source\PSoC5/isr_srf_back.c **** *
 390:.\Generated_Source\PSoC5/isr_srf_back.c **** *******************************************************************************/
 391:.\Generated_Source\PSoC5/isr_srf_back.c **** void isr_srf_back_Disable(void)
 392:.\Generated_Source\PSoC5/isr_srf_back.c **** {
 273              		.loc 1 392 0
 274              		.cfi_startproc
 275              		@ args = 0, pretend = 0, frame = 0
 276              		@ frame_needed = 0, uses_anonymous_args = 0
 277              		@ link register save eliminated.
 393:.\Generated_Source\PSoC5/isr_srf_back.c ****     /* Disable the general interrupt. */
 394:.\Generated_Source\PSoC5/isr_srf_back.c ****     *isr_srf_back_INTC_CLR_EN = isr_srf_back__INTC_MASK;
 278              		.loc 1 394 0
 279 0000 1022     		movs	r2, #16
 280 0002 014B     		ldr	r3, .L29
 281 0004 1A60     		str	r2, [r3]
 282 0006 7047     		bx	lr
 283              	.L30:
 284              		.align	2
 285              	.L29:
 286 0008 80E100E0 		.word	-536813184
 287              		.cfi_endproc
 288              	.LFE73:
 289              		.size	isr_srf_back_Disable, .-isr_srf_back_Disable
 290              		.section	.text.isr_srf_back_Start,"ax",%progbits
ARM GAS  C:\Users\pxc\AppData\Local\Temp\cc0dL0EZ.s 			page 13


 291              		.align	2
 292              		.global	isr_srf_back_Start
 293              		.thumb
 294              		.thumb_func
 295              		.type	isr_srf_back_Start, %function
 296              	isr_srf_back_Start:
 297              	.LFB63:
  68:.\Generated_Source\PSoC5/isr_srf_back.c ****     /* For all we know the interrupt is active. */
 298              		.loc 1 68 0
 299              		.cfi_startproc
 300              		@ args = 0, pretend = 0, frame = 0
 301              		@ frame_needed = 0, uses_anonymous_args = 0
 302 0000 08B5     		push	{r3, lr}
 303              		.cfi_def_cfa_offset 8
 304              		.cfi_offset 3, -8
 305              		.cfi_offset 14, -4
  70:.\Generated_Source\PSoC5/isr_srf_back.c **** 
 306              		.loc 1 70 0
 307 0002 FFF7FEFF 		bl	isr_srf_back_Disable
 308              	.LVL8:
  73:.\Generated_Source\PSoC5/isr_srf_back.c **** 
 309              		.loc 1 73 0
 310 0006 0448     		ldr	r0, .L33
 311 0008 FFF7FEFF 		bl	isr_srf_back_SetVector
 312              	.LVL9:
  76:.\Generated_Source\PSoC5/isr_srf_back.c **** 
 313              		.loc 1 76 0
 314 000c 0720     		movs	r0, #7
 315 000e FFF7FEFF 		bl	isr_srf_back_SetPriority
 316              	.LVL10:
  79:.\Generated_Source\PSoC5/isr_srf_back.c **** }
 317              		.loc 1 79 0
 318 0012 FFF7FEFF 		bl	isr_srf_back_Enable
 319              	.LVL11:
 320 0016 08BD     		pop	{r3, pc}
 321              	.L34:
 322              		.align	2
 323              	.L33:
 324 0018 00000000 		.word	isr_srf_back_Interrupt
 325              		.cfi_endproc
 326              	.LFE63:
 327              		.size	isr_srf_back_Start, .-isr_srf_back_Start
 328              		.section	.text.isr_srf_back_StartEx,"ax",%progbits
 329              		.align	2
 330              		.global	isr_srf_back_StartEx
 331              		.thumb
 332              		.thumb_func
 333              		.type	isr_srf_back_StartEx, %function
 334              	isr_srf_back_StartEx:
 335              	.LFB64:
 111:.\Generated_Source\PSoC5/isr_srf_back.c ****     /* For all we know the interrupt is active. */
 336              		.loc 1 111 0
 337              		.cfi_startproc
 338              		@ args = 0, pretend = 0, frame = 0
 339              		@ frame_needed = 0, uses_anonymous_args = 0
 340              	.LVL12:
 341 0000 10B5     		push	{r4, lr}
ARM GAS  C:\Users\pxc\AppData\Local\Temp\cc0dL0EZ.s 			page 14


 342              		.cfi_def_cfa_offset 8
 343              		.cfi_offset 4, -8
 344              		.cfi_offset 14, -4
 345 0002 0446     		mov	r4, r0
 113:.\Generated_Source\PSoC5/isr_srf_back.c **** 
 346              		.loc 1 113 0
 347 0004 FFF7FEFF 		bl	isr_srf_back_Disable
 348              	.LVL13:
 116:.\Generated_Source\PSoC5/isr_srf_back.c **** 
 349              		.loc 1 116 0
 350 0008 2046     		mov	r0, r4
 351 000a FFF7FEFF 		bl	isr_srf_back_SetVector
 352              	.LVL14:
 119:.\Generated_Source\PSoC5/isr_srf_back.c **** 
 353              		.loc 1 119 0
 354 000e 0720     		movs	r0, #7
 355 0010 FFF7FEFF 		bl	isr_srf_back_SetPriority
 356              	.LVL15:
 122:.\Generated_Source\PSoC5/isr_srf_back.c **** }
 357              		.loc 1 122 0
 358 0014 FFF7FEFF 		bl	isr_srf_back_Enable
 359              	.LVL16:
 360 0018 10BD     		pop	{r4, pc}
 361              		.cfi_endproc
 362              	.LFE64:
 363              		.size	isr_srf_back_StartEx, .-isr_srf_back_StartEx
 364 001a 00BF     		.section	.text.isr_srf_back_Stop,"ax",%progbits
 365              		.align	2
 366              		.global	isr_srf_back_Stop
 367              		.thumb
 368              		.thumb_func
 369              		.type	isr_srf_back_Stop, %function
 370              	isr_srf_back_Stop:
 371              	.LFB65:
 141:.\Generated_Source\PSoC5/isr_srf_back.c ****     /* Disable this interrupt. */
 372              		.loc 1 141 0
 373              		.cfi_startproc
 374              		@ args = 0, pretend = 0, frame = 0
 375              		@ frame_needed = 0, uses_anonymous_args = 0
 376 0000 08B5     		push	{r3, lr}
 377              		.cfi_def_cfa_offset 8
 378              		.cfi_offset 3, -8
 379              		.cfi_offset 14, -4
 143:.\Generated_Source\PSoC5/isr_srf_back.c **** 
 380              		.loc 1 143 0
 381 0002 FFF7FEFF 		bl	isr_srf_back_Disable
 382              	.LVL17:
 146:.\Generated_Source\PSoC5/isr_srf_back.c **** }
 383              		.loc 1 146 0
 384 0006 0248     		ldr	r0, .L39
 385 0008 FFF7FEFF 		bl	isr_srf_back_SetVector
 386              	.LVL18:
 387 000c 08BD     		pop	{r3, pc}
 388              	.L40:
 389 000e 00BF     		.align	2
 390              	.L39:
 391 0010 00000000 		.word	IntDefaultHandler
ARM GAS  C:\Users\pxc\AppData\Local\Temp\cc0dL0EZ.s 			page 15


 392              		.cfi_endproc
 393              	.LFE65:
 394              		.size	isr_srf_back_Stop, .-isr_srf_back_Stop
 395              		.section	.text.isr_srf_back_SetPending,"ax",%progbits
 396              		.align	2
 397              		.global	isr_srf_back_SetPending
 398              		.thumb
 399              		.thumb_func
 400              		.type	isr_srf_back_SetPending, %function
 401              	isr_srf_back_SetPending:
 402              	.LFB74:
 395:.\Generated_Source\PSoC5/isr_srf_back.c **** }
 396:.\Generated_Source\PSoC5/isr_srf_back.c **** 
 397:.\Generated_Source\PSoC5/isr_srf_back.c **** 
 398:.\Generated_Source\PSoC5/isr_srf_back.c **** /*******************************************************************************
 399:.\Generated_Source\PSoC5/isr_srf_back.c **** * Function Name: isr_srf_back_SetPending
 400:.\Generated_Source\PSoC5/isr_srf_back.c **** ********************************************************************************
 401:.\Generated_Source\PSoC5/isr_srf_back.c **** *
 402:.\Generated_Source\PSoC5/isr_srf_back.c **** * Summary:
 403:.\Generated_Source\PSoC5/isr_srf_back.c **** *   Causes the Interrupt to enter the pending state, a software method of
 404:.\Generated_Source\PSoC5/isr_srf_back.c **** *   generating the interrupt.
 405:.\Generated_Source\PSoC5/isr_srf_back.c **** *
 406:.\Generated_Source\PSoC5/isr_srf_back.c **** * Parameters:
 407:.\Generated_Source\PSoC5/isr_srf_back.c **** *   None
 408:.\Generated_Source\PSoC5/isr_srf_back.c **** *
 409:.\Generated_Source\PSoC5/isr_srf_back.c **** * Return:
 410:.\Generated_Source\PSoC5/isr_srf_back.c **** *   None
 411:.\Generated_Source\PSoC5/isr_srf_back.c **** *
 412:.\Generated_Source\PSoC5/isr_srf_back.c **** * Side Effects:
 413:.\Generated_Source\PSoC5/isr_srf_back.c **** *   If interrupts are enabled and the interrupt is set up properly, the ISR is
 414:.\Generated_Source\PSoC5/isr_srf_back.c **** *   entered (depending on the priority of this interrupt and other pending 
 415:.\Generated_Source\PSoC5/isr_srf_back.c **** *   interrupts).
 416:.\Generated_Source\PSoC5/isr_srf_back.c **** *
 417:.\Generated_Source\PSoC5/isr_srf_back.c **** *******************************************************************************/
 418:.\Generated_Source\PSoC5/isr_srf_back.c **** void isr_srf_back_SetPending(void)
 419:.\Generated_Source\PSoC5/isr_srf_back.c **** {
 403              		.loc 1 419 0
 404              		.cfi_startproc
 405              		@ args = 0, pretend = 0, frame = 0
 406              		@ frame_needed = 0, uses_anonymous_args = 0
 407              		@ link register save eliminated.
 420:.\Generated_Source\PSoC5/isr_srf_back.c ****     *isr_srf_back_INTC_SET_PD = isr_srf_back__INTC_MASK;
 408              		.loc 1 420 0
 409 0000 1022     		movs	r2, #16
 410 0002 014B     		ldr	r3, .L42
 411 0004 1A60     		str	r2, [r3]
 412 0006 7047     		bx	lr
 413              	.L43:
 414              		.align	2
 415              	.L42:
 416 0008 00E200E0 		.word	-536813056
 417              		.cfi_endproc
 418              	.LFE74:
 419              		.size	isr_srf_back_SetPending, .-isr_srf_back_SetPending
 420              		.section	.text.isr_srf_back_ClearPending,"ax",%progbits
 421              		.align	2
 422              		.global	isr_srf_back_ClearPending
ARM GAS  C:\Users\pxc\AppData\Local\Temp\cc0dL0EZ.s 			page 16


 423              		.thumb
 424              		.thumb_func
 425              		.type	isr_srf_back_ClearPending, %function
 426              	isr_srf_back_ClearPending:
 427              	.LFB75:
 421:.\Generated_Source\PSoC5/isr_srf_back.c **** }
 422:.\Generated_Source\PSoC5/isr_srf_back.c **** 
 423:.\Generated_Source\PSoC5/isr_srf_back.c **** 
 424:.\Generated_Source\PSoC5/isr_srf_back.c **** /*******************************************************************************
 425:.\Generated_Source\PSoC5/isr_srf_back.c **** * Function Name: isr_srf_back_ClearPending
 426:.\Generated_Source\PSoC5/isr_srf_back.c **** ********************************************************************************
 427:.\Generated_Source\PSoC5/isr_srf_back.c **** *
 428:.\Generated_Source\PSoC5/isr_srf_back.c **** * Summary:
 429:.\Generated_Source\PSoC5/isr_srf_back.c **** *   Clears a pending interrupt in the interrupt controller.
 430:.\Generated_Source\PSoC5/isr_srf_back.c **** *
 431:.\Generated_Source\PSoC5/isr_srf_back.c **** *   Note Some interrupt sources are clear-on-read and require the block 
 432:.\Generated_Source\PSoC5/isr_srf_back.c **** *   interrupt/status register to be read/cleared with the appropriate block API 
 433:.\Generated_Source\PSoC5/isr_srf_back.c **** *   (GPIO, UART, and so on). Otherwise the ISR will continue to remain in 
 434:.\Generated_Source\PSoC5/isr_srf_back.c **** *   pending state even though the interrupt itself is cleared using this API.
 435:.\Generated_Source\PSoC5/isr_srf_back.c **** *
 436:.\Generated_Source\PSoC5/isr_srf_back.c **** * Parameters:
 437:.\Generated_Source\PSoC5/isr_srf_back.c **** *   None
 438:.\Generated_Source\PSoC5/isr_srf_back.c **** *
 439:.\Generated_Source\PSoC5/isr_srf_back.c **** * Return:
 440:.\Generated_Source\PSoC5/isr_srf_back.c **** *   None
 441:.\Generated_Source\PSoC5/isr_srf_back.c **** *
 442:.\Generated_Source\PSoC5/isr_srf_back.c **** *******************************************************************************/
 443:.\Generated_Source\PSoC5/isr_srf_back.c **** void isr_srf_back_ClearPending(void)
 444:.\Generated_Source\PSoC5/isr_srf_back.c **** {
 428              		.loc 1 444 0
 429              		.cfi_startproc
 430              		@ args = 0, pretend = 0, frame = 0
 431              		@ frame_needed = 0, uses_anonymous_args = 0
 432              		@ link register save eliminated.
 445:.\Generated_Source\PSoC5/isr_srf_back.c ****     *isr_srf_back_INTC_CLR_PD = isr_srf_back__INTC_MASK;
 433              		.loc 1 445 0
 434 0000 1022     		movs	r2, #16
 435 0002 014B     		ldr	r3, .L45
 436 0004 1A60     		str	r2, [r3]
 437 0006 7047     		bx	lr
 438              	.L46:
 439              		.align	2
 440              	.L45:
 441 0008 80E200E0 		.word	-536812928
 442              		.cfi_endproc
 443              	.LFE75:
 444              		.size	isr_srf_back_ClearPending, .-isr_srf_back_ClearPending
 445              		.comm	g_Car,60,4
 446              		.bss
 447              		.align	1
 448              		.set	.LANCHOR0,. + 0
 449              		.type	cap_count, %object
 450              		.size	cap_count, 1
 451              	cap_count:
 452 0000 00       		.space	1
 453 0001 00       		.space	1
 454              		.type	cap_cur, %object
ARM GAS  C:\Users\pxc\AppData\Local\Temp\cc0dL0EZ.s 			page 17


 455              		.size	cap_cur, 2
 456              	cap_cur:
 457 0002 0000     		.space	2
 458              		.type	cap_pre, %object
 459              		.size	cap_pre, 2
 460              	cap_pre:
 461 0004 0000     		.space	2
 462              		.type	cap_res, %object
 463              		.size	cap_res, 2
 464              	cap_res:
 465 0006 0000     		.space	2
 466              		.text
 467              	.Letext0:
 468              		.file 2 "c:\\program files (x86)\\cypress\\psoc creator\\3.3\\psoc creator\\import\\gnu\\arm\\4.9.
 469              		.file 3 "c:\\program files (x86)\\cypress\\psoc creator\\3.3\\psoc creator\\import\\gnu\\arm\\4.9.
 470              		.file 4 "Generated_Source\\PSoC5/cytypes.h"
 471              		.file 5 "./car.h"
 472              		.file 6 "Generated_Source\\PSoC5/core_cm3.h"
 473              		.file 7 "Generated_Source\\PSoC5/SRF_05_Timer_1.h"