ARM GAS  C:\Users\pxc\AppData\Local\Temp\ccL7ut31.s 			page 1


   1              		.syntax unified
   2              		.cpu cortex-m3
   3              		.fpu softvfp
   4              		.eabi_attribute 20, 1
   5              		.eabi_attribute 21, 1
   6              		.eabi_attribute 23, 3
   7              		.eabi_attribute 24, 1
   8              		.eabi_attribute 25, 1
   9              		.eabi_attribute 26, 1
  10              		.eabi_attribute 30, 1
  11              		.eabi_attribute 34, 1
  12              		.eabi_attribute 18, 4
  13              		.thumb
  14              		.file	"isr_srf.c"
  15              		.text
  16              	.Ltext0:
  17              		.cfi_sections	.debug_frame
  18              		.section	.text.isr_srf_Interrupt,"ax",%progbits
  19              		.align	2
  20              		.global	isr_srf_Interrupt
  21              		.thumb
  22              		.thumb_func
  23              		.type	isr_srf_Interrupt, %function
  24              	isr_srf_Interrupt:
  25              	.LFB66:
  26              		.file 1 ".\\Generated_Source\\PSoC5\\isr_srf.c"
   1:.\Generated_Source\PSoC5/isr_srf.c **** /*******************************************************************************
   2:.\Generated_Source\PSoC5/isr_srf.c **** * File Name: isr_srf.c  
   3:.\Generated_Source\PSoC5/isr_srf.c **** * Version 1.70
   4:.\Generated_Source\PSoC5/isr_srf.c **** *
   5:.\Generated_Source\PSoC5/isr_srf.c **** *  Description:
   6:.\Generated_Source\PSoC5/isr_srf.c **** *   API for controlling the state of an interrupt.
   7:.\Generated_Source\PSoC5/isr_srf.c **** *
   8:.\Generated_Source\PSoC5/isr_srf.c **** *
   9:.\Generated_Source\PSoC5/isr_srf.c **** *  Note:
  10:.\Generated_Source\PSoC5/isr_srf.c **** *
  11:.\Generated_Source\PSoC5/isr_srf.c **** ********************************************************************************
  12:.\Generated_Source\PSoC5/isr_srf.c **** * Copyright 2008-2015, Cypress Semiconductor Corporation.  All rights reserved.
  13:.\Generated_Source\PSoC5/isr_srf.c **** * You may use this file only in accordance with the license, terms, conditions, 
  14:.\Generated_Source\PSoC5/isr_srf.c **** * disclaimers, and limitations in the end user license agreement accompanying 
  15:.\Generated_Source\PSoC5/isr_srf.c **** * the software package with which this file was provided.
  16:.\Generated_Source\PSoC5/isr_srf.c **** *******************************************************************************/
  17:.\Generated_Source\PSoC5/isr_srf.c **** 
  18:.\Generated_Source\PSoC5/isr_srf.c **** 
  19:.\Generated_Source\PSoC5/isr_srf.c **** #include <cydevice_trm.h>
  20:.\Generated_Source\PSoC5/isr_srf.c **** #include <CyLib.h>
  21:.\Generated_Source\PSoC5/isr_srf.c **** #include <isr_srf.h>
  22:.\Generated_Source\PSoC5/isr_srf.c **** #include "cyapicallbacks.h"
  23:.\Generated_Source\PSoC5/isr_srf.c **** 
  24:.\Generated_Source\PSoC5/isr_srf.c **** #if !defined(isr_srf__REMOVED) /* Check for removal by optimization */
  25:.\Generated_Source\PSoC5/isr_srf.c **** 
  26:.\Generated_Source\PSoC5/isr_srf.c **** /*******************************************************************************
  27:.\Generated_Source\PSoC5/isr_srf.c **** *  Place your includes, defines and code here 
  28:.\Generated_Source\PSoC5/isr_srf.c **** ********************************************************************************/
  29:.\Generated_Source\PSoC5/isr_srf.c **** /* `#START isr_srf_intc` */
  30:.\Generated_Source\PSoC5/isr_srf.c **** #include "car.h"
  31:.\Generated_Source\PSoC5/isr_srf.c ****     uint16 cap_pre;
ARM GAS  C:\Users\pxc\AppData\Local\Temp\ccL7ut31.s 			page 2


  32:.\Generated_Source\PSoC5/isr_srf.c ****     uint16 cap_cur;
  33:.\Generated_Source\PSoC5/isr_srf.c ****     uint16 cap_res;
  34:.\Generated_Source\PSoC5/isr_srf.c ****     uint8  cap_count;
  35:.\Generated_Source\PSoC5/isr_srf.c ****     uint16 distance[4];
  36:.\Generated_Source\PSoC5/isr_srf.c ****     uint8 sample_count;
  37:.\Generated_Source\PSoC5/isr_srf.c **** 
  38:.\Generated_Source\PSoC5/isr_srf.c **** #define    Distance_SampleNum 4
  39:.\Generated_Source\PSoC5/isr_srf.c **** /* `#END` */
  40:.\Generated_Source\PSoC5/isr_srf.c **** 
  41:.\Generated_Source\PSoC5/isr_srf.c **** #ifndef CYINT_IRQ_BASE
  42:.\Generated_Source\PSoC5/isr_srf.c **** #define CYINT_IRQ_BASE      16
  43:.\Generated_Source\PSoC5/isr_srf.c **** #endif /* CYINT_IRQ_BASE */
  44:.\Generated_Source\PSoC5/isr_srf.c **** #ifndef CYINT_VECT_TABLE
  45:.\Generated_Source\PSoC5/isr_srf.c **** #define CYINT_VECT_TABLE    ((cyisraddress **) CYREG_NVIC_VECT_OFFSET)
  46:.\Generated_Source\PSoC5/isr_srf.c **** #endif /* CYINT_VECT_TABLE */
  47:.\Generated_Source\PSoC5/isr_srf.c **** 
  48:.\Generated_Source\PSoC5/isr_srf.c **** /* Declared in startup, used to set unused interrupts to. */
  49:.\Generated_Source\PSoC5/isr_srf.c **** CY_ISR_PROTO(IntDefaultHandler);
  50:.\Generated_Source\PSoC5/isr_srf.c **** 
  51:.\Generated_Source\PSoC5/isr_srf.c **** 
  52:.\Generated_Source\PSoC5/isr_srf.c **** /*******************************************************************************
  53:.\Generated_Source\PSoC5/isr_srf.c **** * Function Name: isr_srf_Start
  54:.\Generated_Source\PSoC5/isr_srf.c **** ********************************************************************************
  55:.\Generated_Source\PSoC5/isr_srf.c **** *
  56:.\Generated_Source\PSoC5/isr_srf.c **** * Summary:
  57:.\Generated_Source\PSoC5/isr_srf.c **** *  Set up the interrupt and enable it. This function disables the interrupt, 
  58:.\Generated_Source\PSoC5/isr_srf.c **** *  sets the default interrupt vector, sets the priority from the value in the
  59:.\Generated_Source\PSoC5/isr_srf.c **** *  Design Wide Resources Interrupt Editor, then enables the interrupt to the 
  60:.\Generated_Source\PSoC5/isr_srf.c **** *  interrupt controller.
  61:.\Generated_Source\PSoC5/isr_srf.c **** *
  62:.\Generated_Source\PSoC5/isr_srf.c **** * Parameters:  
  63:.\Generated_Source\PSoC5/isr_srf.c **** *   None
  64:.\Generated_Source\PSoC5/isr_srf.c **** *
  65:.\Generated_Source\PSoC5/isr_srf.c **** * Return:
  66:.\Generated_Source\PSoC5/isr_srf.c **** *   None
  67:.\Generated_Source\PSoC5/isr_srf.c **** *
  68:.\Generated_Source\PSoC5/isr_srf.c **** *******************************************************************************/
  69:.\Generated_Source\PSoC5/isr_srf.c **** void isr_srf_Start(void)
  70:.\Generated_Source\PSoC5/isr_srf.c **** {
  71:.\Generated_Source\PSoC5/isr_srf.c ****     /* For all we know the interrupt is active. */
  72:.\Generated_Source\PSoC5/isr_srf.c ****     isr_srf_Disable();
  73:.\Generated_Source\PSoC5/isr_srf.c **** 
  74:.\Generated_Source\PSoC5/isr_srf.c ****     /* Set the ISR to point to the isr_srf Interrupt. */
  75:.\Generated_Source\PSoC5/isr_srf.c ****     isr_srf_SetVector(&isr_srf_Interrupt);
  76:.\Generated_Source\PSoC5/isr_srf.c **** 
  77:.\Generated_Source\PSoC5/isr_srf.c ****     /* Set the priority. */
  78:.\Generated_Source\PSoC5/isr_srf.c ****     isr_srf_SetPriority((uint8)isr_srf_INTC_PRIOR_NUMBER);
  79:.\Generated_Source\PSoC5/isr_srf.c **** 
  80:.\Generated_Source\PSoC5/isr_srf.c ****     /* Enable it. */
  81:.\Generated_Source\PSoC5/isr_srf.c ****     isr_srf_Enable();
  82:.\Generated_Source\PSoC5/isr_srf.c **** }
  83:.\Generated_Source\PSoC5/isr_srf.c **** 
  84:.\Generated_Source\PSoC5/isr_srf.c **** 
  85:.\Generated_Source\PSoC5/isr_srf.c **** /*******************************************************************************
  86:.\Generated_Source\PSoC5/isr_srf.c **** * Function Name: isr_srf_StartEx
  87:.\Generated_Source\PSoC5/isr_srf.c **** ********************************************************************************
  88:.\Generated_Source\PSoC5/isr_srf.c **** *
ARM GAS  C:\Users\pxc\AppData\Local\Temp\ccL7ut31.s 			page 3


  89:.\Generated_Source\PSoC5/isr_srf.c **** * Summary:
  90:.\Generated_Source\PSoC5/isr_srf.c **** *  Sets up the interrupt and enables it. This function disables the interrupt,
  91:.\Generated_Source\PSoC5/isr_srf.c **** *  sets the interrupt vector based on the address passed in, sets the priority 
  92:.\Generated_Source\PSoC5/isr_srf.c **** *  from the value in the Design Wide Resources Interrupt Editor, then enables 
  93:.\Generated_Source\PSoC5/isr_srf.c **** *  the interrupt to the interrupt controller.
  94:.\Generated_Source\PSoC5/isr_srf.c **** *  
  95:.\Generated_Source\PSoC5/isr_srf.c **** *  When defining ISR functions, the CY_ISR and CY_ISR_PROTO macros should be 
  96:.\Generated_Source\PSoC5/isr_srf.c **** *  used to provide consistent definition across compilers:
  97:.\Generated_Source\PSoC5/isr_srf.c **** *  
  98:.\Generated_Source\PSoC5/isr_srf.c **** *  Function definition example:
  99:.\Generated_Source\PSoC5/isr_srf.c **** *   CY_ISR(MyISR)
 100:.\Generated_Source\PSoC5/isr_srf.c **** *   {
 101:.\Generated_Source\PSoC5/isr_srf.c **** *   }
 102:.\Generated_Source\PSoC5/isr_srf.c **** *   Function prototype example:
 103:.\Generated_Source\PSoC5/isr_srf.c **** *   CY_ISR_PROTO(MyISR);
 104:.\Generated_Source\PSoC5/isr_srf.c **** *
 105:.\Generated_Source\PSoC5/isr_srf.c **** * Parameters:  
 106:.\Generated_Source\PSoC5/isr_srf.c **** *   address: Address of the ISR to set in the interrupt vector table.
 107:.\Generated_Source\PSoC5/isr_srf.c **** *
 108:.\Generated_Source\PSoC5/isr_srf.c **** * Return:
 109:.\Generated_Source\PSoC5/isr_srf.c **** *   None
 110:.\Generated_Source\PSoC5/isr_srf.c **** *
 111:.\Generated_Source\PSoC5/isr_srf.c **** *******************************************************************************/
 112:.\Generated_Source\PSoC5/isr_srf.c **** void isr_srf_StartEx(cyisraddress address)
 113:.\Generated_Source\PSoC5/isr_srf.c **** {
 114:.\Generated_Source\PSoC5/isr_srf.c ****     /* For all we know the interrupt is active. */
 115:.\Generated_Source\PSoC5/isr_srf.c ****     isr_srf_Disable();
 116:.\Generated_Source\PSoC5/isr_srf.c **** 
 117:.\Generated_Source\PSoC5/isr_srf.c ****     /* Set the ISR to point to the isr_srf Interrupt. */
 118:.\Generated_Source\PSoC5/isr_srf.c ****     isr_srf_SetVector(address);
 119:.\Generated_Source\PSoC5/isr_srf.c **** 
 120:.\Generated_Source\PSoC5/isr_srf.c ****     /* Set the priority. */
 121:.\Generated_Source\PSoC5/isr_srf.c ****     isr_srf_SetPriority((uint8)isr_srf_INTC_PRIOR_NUMBER);
 122:.\Generated_Source\PSoC5/isr_srf.c **** 
 123:.\Generated_Source\PSoC5/isr_srf.c ****     /* Enable it. */
 124:.\Generated_Source\PSoC5/isr_srf.c ****     isr_srf_Enable();
 125:.\Generated_Source\PSoC5/isr_srf.c **** }
 126:.\Generated_Source\PSoC5/isr_srf.c **** 
 127:.\Generated_Source\PSoC5/isr_srf.c **** 
 128:.\Generated_Source\PSoC5/isr_srf.c **** /*******************************************************************************
 129:.\Generated_Source\PSoC5/isr_srf.c **** * Function Name: isr_srf_Stop
 130:.\Generated_Source\PSoC5/isr_srf.c **** ********************************************************************************
 131:.\Generated_Source\PSoC5/isr_srf.c **** *
 132:.\Generated_Source\PSoC5/isr_srf.c **** * Summary:
 133:.\Generated_Source\PSoC5/isr_srf.c **** *   Disables and removes the interrupt.
 134:.\Generated_Source\PSoC5/isr_srf.c **** *
 135:.\Generated_Source\PSoC5/isr_srf.c **** * Parameters:  
 136:.\Generated_Source\PSoC5/isr_srf.c **** *   None
 137:.\Generated_Source\PSoC5/isr_srf.c **** *
 138:.\Generated_Source\PSoC5/isr_srf.c **** * Return:
 139:.\Generated_Source\PSoC5/isr_srf.c **** *   None
 140:.\Generated_Source\PSoC5/isr_srf.c **** *
 141:.\Generated_Source\PSoC5/isr_srf.c **** *******************************************************************************/
 142:.\Generated_Source\PSoC5/isr_srf.c **** void isr_srf_Stop(void)
 143:.\Generated_Source\PSoC5/isr_srf.c **** {
 144:.\Generated_Source\PSoC5/isr_srf.c ****     /* Disable this interrupt. */
 145:.\Generated_Source\PSoC5/isr_srf.c ****     isr_srf_Disable();
ARM GAS  C:\Users\pxc\AppData\Local\Temp\ccL7ut31.s 			page 4


 146:.\Generated_Source\PSoC5/isr_srf.c **** 
 147:.\Generated_Source\PSoC5/isr_srf.c ****     /* Set the ISR to point to the passive one. */
 148:.\Generated_Source\PSoC5/isr_srf.c ****     isr_srf_SetVector(&IntDefaultHandler);
 149:.\Generated_Source\PSoC5/isr_srf.c **** }
 150:.\Generated_Source\PSoC5/isr_srf.c **** 
 151:.\Generated_Source\PSoC5/isr_srf.c **** 
 152:.\Generated_Source\PSoC5/isr_srf.c **** /*******************************************************************************
 153:.\Generated_Source\PSoC5/isr_srf.c **** * Function Name: isr_srf_Interrupt
 154:.\Generated_Source\PSoC5/isr_srf.c **** ********************************************************************************
 155:.\Generated_Source\PSoC5/isr_srf.c **** *
 156:.\Generated_Source\PSoC5/isr_srf.c **** * Summary:
 157:.\Generated_Source\PSoC5/isr_srf.c **** *   The default Interrupt Service Routine for isr_srf.
 158:.\Generated_Source\PSoC5/isr_srf.c **** *
 159:.\Generated_Source\PSoC5/isr_srf.c **** *   Add custom code between the coments to keep the next version of this file
 160:.\Generated_Source\PSoC5/isr_srf.c **** *   from over writting your code.
 161:.\Generated_Source\PSoC5/isr_srf.c **** *
 162:.\Generated_Source\PSoC5/isr_srf.c **** * Parameters:  
 163:.\Generated_Source\PSoC5/isr_srf.c **** *
 164:.\Generated_Source\PSoC5/isr_srf.c **** * Return:
 165:.\Generated_Source\PSoC5/isr_srf.c **** *   None
 166:.\Generated_Source\PSoC5/isr_srf.c **** *
 167:.\Generated_Source\PSoC5/isr_srf.c **** *******************************************************************************/
 168:.\Generated_Source\PSoC5/isr_srf.c **** CY_ISR(isr_srf_Interrupt)
 169:.\Generated_Source\PSoC5/isr_srf.c **** {
  27              		.loc 1 169 0
  28              		.cfi_startproc
  29              		@ args = 0, pretend = 0, frame = 0
  30              		@ frame_needed = 0, uses_anonymous_args = 0
  31 0000 10B5     		push	{r4, lr}
  32              		.cfi_def_cfa_offset 8
  33              		.cfi_offset 4, -8
  34              		.cfi_offset 14, -4
 170:.\Generated_Source\PSoC5/isr_srf.c ****     #ifdef isr_srf_INTERRUPT_INTERRUPT_CALLBACK
 171:.\Generated_Source\PSoC5/isr_srf.c ****         isr_srf_Interrupt_InterruptCallback();
 172:.\Generated_Source\PSoC5/isr_srf.c ****     #endif /* isr_srf_INTERRUPT_INTERRUPT_CALLBACK */ 
 173:.\Generated_Source\PSoC5/isr_srf.c **** 
 174:.\Generated_Source\PSoC5/isr_srf.c ****     /*  Place your Interrupt code here. */
 175:.\Generated_Source\PSoC5/isr_srf.c ****     /* `#START isr_srf_Interrupt` */
 176:.\Generated_Source\PSoC5/isr_srf.c ****     int32 sum;
 177:.\Generated_Source\PSoC5/isr_srf.c **** 
 178:.\Generated_Source\PSoC5/isr_srf.c ****     int i ;
 179:.\Generated_Source\PSoC5/isr_srf.c ****     cap_count++;
  35              		.loc 1 179 0
  36 0002 184C     		ldr	r4, .L6
  37 0004 2378     		ldrb	r3, [r4]	@ zero_extendqisi2
  38 0006 0133     		adds	r3, r3, #1
  39 0008 2370     		strb	r3, [r4]
 180:.\Generated_Source\PSoC5/isr_srf.c ****     
 181:.\Generated_Source\PSoC5/isr_srf.c ****     cap_cur = 65535 - SRF_05_Timer_ReadCapture();
  40              		.loc 1 181 0
  41 000a FFF7FEFF 		bl	SRF_05_Timer_ReadCapture
  42              	.LVL0:
  43 000e C043     		mvns	r0, r0
  44 0010 80B2     		uxth	r0, r0
  45 0012 154B     		ldr	r3, .L6+4
  46 0014 1880     		strh	r0, [r3]	@ movhi
 182:.\Generated_Source\PSoC5/isr_srf.c ****   
ARM GAS  C:\Users\pxc\AppData\Local\Temp\ccL7ut31.s 			page 5


 183:.\Generated_Source\PSoC5/isr_srf.c ****    // 
 184:.\Generated_Source\PSoC5/isr_srf.c ****     if(cap_count == 2)
  47              		.loc 1 184 0
  48 0016 2378     		ldrb	r3, [r4]	@ zero_extendqisi2
  49 0018 022B     		cmp	r3, #2
  50 001a 1ED1     		bne	.L2
 185:.\Generated_Source\PSoC5/isr_srf.c ****     {  
 186:.\Generated_Source\PSoC5/isr_srf.c ****            
 187:.\Generated_Source\PSoC5/isr_srf.c ****         if(cap_cur >= cap_pre)
  51              		.loc 1 187 0
  52 001c 134B     		ldr	r3, .L6+8
  53 001e 1B88     		ldrh	r3, [r3]
  54 0020 9842     		cmp	r0, r3
  55 0022 03D3     		bcc	.L3
 188:.\Generated_Source\PSoC5/isr_srf.c ****         {
 189:.\Generated_Source\PSoC5/isr_srf.c ****             cap_res = cap_cur - cap_pre;
  56              		.loc 1 189 0
  57 0024 C01A     		subs	r0, r0, r3
  58 0026 124B     		ldr	r3, .L6+12
  59 0028 1880     		strh	r0, [r3]	@ movhi
  60 002a 03E0     		b	.L4
  61              	.L3:
 190:.\Generated_Source\PSoC5/isr_srf.c ****         }
 191:.\Generated_Source\PSoC5/isr_srf.c ****         else 
 192:.\Generated_Source\PSoC5/isr_srf.c ****         {
 193:.\Generated_Source\PSoC5/isr_srf.c ****             cap_res = 65535 - (cap_pre - cap_cur);
  62              		.loc 1 193 0
  63 002c C01A     		subs	r0, r0, r3
  64 002e 0138     		subs	r0, r0, #1
  65 0030 0F4B     		ldr	r3, .L6+12
  66 0032 1880     		strh	r0, [r3]	@ movhi
  67              	.L4:
 194:.\Generated_Source\PSoC5/isr_srf.c ****         } 
 195:.\Generated_Source\PSoC5/isr_srf.c ****        cap_pre = 0;
  68              		.loc 1 195 0
  69 0034 0023     		movs	r3, #0
 196:.\Generated_Source\PSoC5/isr_srf.c ****        cap_cur = 0;
  70              		.loc 1 196 0
  71 0036 0C4A     		ldr	r2, .L6+4
  72 0038 1380     		strh	r3, [r2]	@ movhi
 197:.\Generated_Source\PSoC5/isr_srf.c ****        cap_count =0;
  73              		.loc 1 197 0
  74 003a 0A4A     		ldr	r2, .L6
  75 003c 1370     		strb	r3, [r2]
 198:.\Generated_Source\PSoC5/isr_srf.c ****    
 199:.\Generated_Source\PSoC5/isr_srf.c ****        g_Car.distance_front = cap_res*100/58;
  76              		.loc 1 199 0
  77 003e 0C4B     		ldr	r3, .L6+12
  78 0040 1A88     		ldrh	r2, [r3]
  79 0042 6423     		movs	r3, #100
  80 0044 03FB02F3 		mul	r3, r3, r2
  81 0048 0A4A     		ldr	r2, .L6+16
  82 004a 82FB0312 		smull	r1, r2, r2, r3
  83 004e 1A44     		add	r2, r2, r3
  84 0050 DB17     		asrs	r3, r3, #31
  85 0052 C3EB6213 		rsb	r3, r3, r2, asr #5
  86 0056 084A     		ldr	r2, .L6+20
ARM GAS  C:\Users\pxc\AppData\Local\Temp\ccL7ut31.s 			page 6


  87 0058 1384     		strh	r3, [r2, #32]	@ movhi
  88              	.L2:
 200:.\Generated_Source\PSoC5/isr_srf.c **** //       sample_count++; 
 201:.\Generated_Source\PSoC5/isr_srf.c **** //       if(sample_count == (Distance_SampleNum +1))
 202:.\Generated_Source\PSoC5/isr_srf.c **** //       {
 203:.\Generated_Source\PSoC5/isr_srf.c **** //         for(i = 0;i < sample_count;i++)
 204:.\Generated_Source\PSoC5/isr_srf.c **** //        {
 205:.\Generated_Source\PSoC5/isr_srf.c **** //          sum += distance[i];
 206:.\Generated_Source\PSoC5/isr_srf.c **** //        }
 207:.\Generated_Source\PSoC5/isr_srf.c **** //         g_Car.distance_front = sum/Distance_SampleNum; 
 208:.\Generated_Source\PSoC5/isr_srf.c **** //         sample_count = 0;
 209:.\Generated_Source\PSoC5/isr_srf.c **** //       }
 210:.\Generated_Source\PSoC5/isr_srf.c ****   
 211:.\Generated_Source\PSoC5/isr_srf.c ****        } 
 212:.\Generated_Source\PSoC5/isr_srf.c ****        cap_pre = cap_cur;
  89              		.loc 1 212 0
  90 005a 034B     		ldr	r3, .L6+4
  91 005c 1A88     		ldrh	r2, [r3]
  92 005e 034B     		ldr	r3, .L6+8
  93 0060 1A80     		strh	r2, [r3]	@ movhi
  94 0062 10BD     		pop	{r4, pc}
  95              	.L7:
  96              		.align	2
  97              	.L6:
  98 0064 00000000 		.word	cap_count
  99 0068 00000000 		.word	cap_cur
 100 006c 00000000 		.word	cap_pre
 101 0070 00000000 		.word	cap_res
 102 0074 09CB3D8D 		.word	-1925330167
 103 0078 00000000 		.word	g_Car
 104              		.cfi_endproc
 105              	.LFE66:
 106              		.size	isr_srf_Interrupt, .-isr_srf_Interrupt
 107              		.section	.text.isr_srf_SetVector,"ax",%progbits
 108              		.align	2
 109              		.global	isr_srf_SetVector
 110              		.thumb
 111              		.thumb_func
 112              		.type	isr_srf_SetVector, %function
 113              	isr_srf_SetVector:
 114              	.LFB67:
 213:.\Generated_Source\PSoC5/isr_srf.c **** 
 214:.\Generated_Source\PSoC5/isr_srf.c ****     /* `#END` */
 215:.\Generated_Source\PSoC5/isr_srf.c **** }
 216:.\Generated_Source\PSoC5/isr_srf.c **** 
 217:.\Generated_Source\PSoC5/isr_srf.c **** 
 218:.\Generated_Source\PSoC5/isr_srf.c **** /*******************************************************************************
 219:.\Generated_Source\PSoC5/isr_srf.c **** * Function Name: isr_srf_SetVector
 220:.\Generated_Source\PSoC5/isr_srf.c **** ********************************************************************************
 221:.\Generated_Source\PSoC5/isr_srf.c **** *
 222:.\Generated_Source\PSoC5/isr_srf.c **** * Summary:
 223:.\Generated_Source\PSoC5/isr_srf.c **** *   Change the ISR vector for the Interrupt. Note calling isr_srf_Start
 224:.\Generated_Source\PSoC5/isr_srf.c **** *   will override any effect this method would have had. To set the vector 
 225:.\Generated_Source\PSoC5/isr_srf.c **** *   before the component has been started use isr_srf_StartEx instead.
 226:.\Generated_Source\PSoC5/isr_srf.c **** * 
 227:.\Generated_Source\PSoC5/isr_srf.c **** *   When defining ISR functions, the CY_ISR and CY_ISR_PROTO macros should be 
 228:.\Generated_Source\PSoC5/isr_srf.c **** *   used to provide consistent definition across compilers:
ARM GAS  C:\Users\pxc\AppData\Local\Temp\ccL7ut31.s 			page 7


 229:.\Generated_Source\PSoC5/isr_srf.c **** *
 230:.\Generated_Source\PSoC5/isr_srf.c **** *   Function definition example:
 231:.\Generated_Source\PSoC5/isr_srf.c **** *   CY_ISR(MyISR)
 232:.\Generated_Source\PSoC5/isr_srf.c **** *   {
 233:.\Generated_Source\PSoC5/isr_srf.c **** *   }
 234:.\Generated_Source\PSoC5/isr_srf.c **** *
 235:.\Generated_Source\PSoC5/isr_srf.c **** *   Function prototype example:
 236:.\Generated_Source\PSoC5/isr_srf.c **** *     CY_ISR_PROTO(MyISR);
 237:.\Generated_Source\PSoC5/isr_srf.c **** *
 238:.\Generated_Source\PSoC5/isr_srf.c **** * Parameters:
 239:.\Generated_Source\PSoC5/isr_srf.c **** *   address: Address of the ISR to set in the interrupt vector table.
 240:.\Generated_Source\PSoC5/isr_srf.c **** *
 241:.\Generated_Source\PSoC5/isr_srf.c **** * Return:
 242:.\Generated_Source\PSoC5/isr_srf.c **** *   None
 243:.\Generated_Source\PSoC5/isr_srf.c **** *
 244:.\Generated_Source\PSoC5/isr_srf.c **** *******************************************************************************/
 245:.\Generated_Source\PSoC5/isr_srf.c **** void isr_srf_SetVector(cyisraddress address)
 246:.\Generated_Source\PSoC5/isr_srf.c **** {
 115              		.loc 1 246 0
 116              		.cfi_startproc
 117              		@ args = 0, pretend = 0, frame = 0
 118              		@ frame_needed = 0, uses_anonymous_args = 0
 119              		@ link register save eliminated.
 120              	.LVL1:
 247:.\Generated_Source\PSoC5/isr_srf.c ****     cyisraddress * ramVectorTable;
 248:.\Generated_Source\PSoC5/isr_srf.c **** 
 249:.\Generated_Source\PSoC5/isr_srf.c ****     ramVectorTable = (cyisraddress *) *CYINT_VECT_TABLE;
 121              		.loc 1 249 0
 122 0000 014B     		ldr	r3, .L9
 123 0002 1B68     		ldr	r3, [r3]
 124              	.LVL2:
 250:.\Generated_Source\PSoC5/isr_srf.c **** 
 251:.\Generated_Source\PSoC5/isr_srf.c ****     ramVectorTable[CYINT_IRQ_BASE + (uint32)isr_srf__INTC_NUMBER] = address;
 125              		.loc 1 251 0
 126 0004 9865     		str	r0, [r3, #88]
 127 0006 7047     		bx	lr
 128              	.L10:
 129              		.align	2
 130              	.L9:
 131 0008 08ED00E0 		.word	-536810232
 132              		.cfi_endproc
 133              	.LFE67:
 134              		.size	isr_srf_SetVector, .-isr_srf_SetVector
 135              		.section	.text.isr_srf_GetVector,"ax",%progbits
 136              		.align	2
 137              		.global	isr_srf_GetVector
 138              		.thumb
 139              		.thumb_func
 140              		.type	isr_srf_GetVector, %function
 141              	isr_srf_GetVector:
 142              	.LFB68:
 252:.\Generated_Source\PSoC5/isr_srf.c **** }
 253:.\Generated_Source\PSoC5/isr_srf.c **** 
 254:.\Generated_Source\PSoC5/isr_srf.c **** 
 255:.\Generated_Source\PSoC5/isr_srf.c **** /*******************************************************************************
 256:.\Generated_Source\PSoC5/isr_srf.c **** * Function Name: isr_srf_GetVector
 257:.\Generated_Source\PSoC5/isr_srf.c **** ********************************************************************************
ARM GAS  C:\Users\pxc\AppData\Local\Temp\ccL7ut31.s 			page 8


 258:.\Generated_Source\PSoC5/isr_srf.c **** *
 259:.\Generated_Source\PSoC5/isr_srf.c **** * Summary:
 260:.\Generated_Source\PSoC5/isr_srf.c **** *   Gets the "address" of the current ISR vector for the Interrupt.
 261:.\Generated_Source\PSoC5/isr_srf.c **** *
 262:.\Generated_Source\PSoC5/isr_srf.c **** * Parameters:
 263:.\Generated_Source\PSoC5/isr_srf.c **** *   None
 264:.\Generated_Source\PSoC5/isr_srf.c **** *
 265:.\Generated_Source\PSoC5/isr_srf.c **** * Return:
 266:.\Generated_Source\PSoC5/isr_srf.c **** *   Address of the ISR in the interrupt vector table.
 267:.\Generated_Source\PSoC5/isr_srf.c **** *
 268:.\Generated_Source\PSoC5/isr_srf.c **** *******************************************************************************/
 269:.\Generated_Source\PSoC5/isr_srf.c **** cyisraddress isr_srf_GetVector(void)
 270:.\Generated_Source\PSoC5/isr_srf.c **** {
 143              		.loc 1 270 0
 144              		.cfi_startproc
 145              		@ args = 0, pretend = 0, frame = 0
 146              		@ frame_needed = 0, uses_anonymous_args = 0
 147              		@ link register save eliminated.
 271:.\Generated_Source\PSoC5/isr_srf.c ****     cyisraddress * ramVectorTable;
 272:.\Generated_Source\PSoC5/isr_srf.c **** 
 273:.\Generated_Source\PSoC5/isr_srf.c ****     ramVectorTable = (cyisraddress *) *CYINT_VECT_TABLE;
 148              		.loc 1 273 0
 149 0000 014B     		ldr	r3, .L12
 150 0002 1B68     		ldr	r3, [r3]
 151              	.LVL3:
 274:.\Generated_Source\PSoC5/isr_srf.c **** 
 275:.\Generated_Source\PSoC5/isr_srf.c ****     return ramVectorTable[CYINT_IRQ_BASE + (uint32)isr_srf__INTC_NUMBER];
 276:.\Generated_Source\PSoC5/isr_srf.c **** }
 152              		.loc 1 276 0
 153 0004 986D     		ldr	r0, [r3, #88]
 154 0006 7047     		bx	lr
 155              	.L13:
 156              		.align	2
 157              	.L12:
 158 0008 08ED00E0 		.word	-536810232
 159              		.cfi_endproc
 160              	.LFE68:
 161              		.size	isr_srf_GetVector, .-isr_srf_GetVector
 162              		.section	.text.isr_srf_SetPriority,"ax",%progbits
 163              		.align	2
 164              		.global	isr_srf_SetPriority
 165              		.thumb
 166              		.thumb_func
 167              		.type	isr_srf_SetPriority, %function
 168              	isr_srf_SetPriority:
 169              	.LFB69:
 277:.\Generated_Source\PSoC5/isr_srf.c **** 
 278:.\Generated_Source\PSoC5/isr_srf.c **** 
 279:.\Generated_Source\PSoC5/isr_srf.c **** /*******************************************************************************
 280:.\Generated_Source\PSoC5/isr_srf.c **** * Function Name: isr_srf_SetPriority
 281:.\Generated_Source\PSoC5/isr_srf.c **** ********************************************************************************
 282:.\Generated_Source\PSoC5/isr_srf.c **** *
 283:.\Generated_Source\PSoC5/isr_srf.c **** * Summary:
 284:.\Generated_Source\PSoC5/isr_srf.c **** *   Sets the Priority of the Interrupt. 
 285:.\Generated_Source\PSoC5/isr_srf.c **** *
 286:.\Generated_Source\PSoC5/isr_srf.c **** *   Note calling isr_srf_Start or isr_srf_StartEx will 
 287:.\Generated_Source\PSoC5/isr_srf.c **** *   override any effect this API would have had. This API should only be called
ARM GAS  C:\Users\pxc\AppData\Local\Temp\ccL7ut31.s 			page 9


 288:.\Generated_Source\PSoC5/isr_srf.c **** *   after isr_srf_Start or isr_srf_StartEx has been called. 
 289:.\Generated_Source\PSoC5/isr_srf.c **** *   To set the initial priority for the component, use the Design-Wide Resources
 290:.\Generated_Source\PSoC5/isr_srf.c **** *   Interrupt Editor.
 291:.\Generated_Source\PSoC5/isr_srf.c **** *
 292:.\Generated_Source\PSoC5/isr_srf.c **** *   Note This API has no effect on Non-maskable interrupt NMI).
 293:.\Generated_Source\PSoC5/isr_srf.c **** *
 294:.\Generated_Source\PSoC5/isr_srf.c **** * Parameters:
 295:.\Generated_Source\PSoC5/isr_srf.c **** *   priority: Priority of the interrupt, 0 being the highest priority
 296:.\Generated_Source\PSoC5/isr_srf.c **** *             PSoC 3 and PSoC 5LP: Priority is from 0 to 7.
 297:.\Generated_Source\PSoC5/isr_srf.c **** *             PSoC 4: Priority is from 0 to 3.
 298:.\Generated_Source\PSoC5/isr_srf.c **** *
 299:.\Generated_Source\PSoC5/isr_srf.c **** * Return:
 300:.\Generated_Source\PSoC5/isr_srf.c **** *   None
 301:.\Generated_Source\PSoC5/isr_srf.c **** *
 302:.\Generated_Source\PSoC5/isr_srf.c **** *******************************************************************************/
 303:.\Generated_Source\PSoC5/isr_srf.c **** void isr_srf_SetPriority(uint8 priority)
 304:.\Generated_Source\PSoC5/isr_srf.c **** {
 170              		.loc 1 304 0
 171              		.cfi_startproc
 172              		@ args = 0, pretend = 0, frame = 0
 173              		@ frame_needed = 0, uses_anonymous_args = 0
 174              		@ link register save eliminated.
 175              	.LVL4:
 305:.\Generated_Source\PSoC5/isr_srf.c ****     *isr_srf_INTC_PRIOR = priority << 5;
 176              		.loc 1 305 0
 177 0000 4001     		lsls	r0, r0, #5
 178              	.LVL5:
 179 0002 C0B2     		uxtb	r0, r0
 180 0004 014B     		ldr	r3, .L15
 181 0006 1870     		strb	r0, [r3]
 182 0008 7047     		bx	lr
 183              	.L16:
 184 000a 00BF     		.align	2
 185              	.L15:
 186 000c 06E400E0 		.word	-536812538
 187              		.cfi_endproc
 188              	.LFE69:
 189              		.size	isr_srf_SetPriority, .-isr_srf_SetPriority
 190              		.section	.text.isr_srf_GetPriority,"ax",%progbits
 191              		.align	2
 192              		.global	isr_srf_GetPriority
 193              		.thumb
 194              		.thumb_func
 195              		.type	isr_srf_GetPriority, %function
 196              	isr_srf_GetPriority:
 197              	.LFB70:
 306:.\Generated_Source\PSoC5/isr_srf.c **** }
 307:.\Generated_Source\PSoC5/isr_srf.c **** 
 308:.\Generated_Source\PSoC5/isr_srf.c **** 
 309:.\Generated_Source\PSoC5/isr_srf.c **** /*******************************************************************************
 310:.\Generated_Source\PSoC5/isr_srf.c **** * Function Name: isr_srf_GetPriority
 311:.\Generated_Source\PSoC5/isr_srf.c **** ********************************************************************************
 312:.\Generated_Source\PSoC5/isr_srf.c **** *
 313:.\Generated_Source\PSoC5/isr_srf.c **** * Summary:
 314:.\Generated_Source\PSoC5/isr_srf.c **** *   Gets the Priority of the Interrupt.
 315:.\Generated_Source\PSoC5/isr_srf.c **** *
 316:.\Generated_Source\PSoC5/isr_srf.c **** * Parameters:
ARM GAS  C:\Users\pxc\AppData\Local\Temp\ccL7ut31.s 			page 10


 317:.\Generated_Source\PSoC5/isr_srf.c **** *   None
 318:.\Generated_Source\PSoC5/isr_srf.c **** *
 319:.\Generated_Source\PSoC5/isr_srf.c **** * Return:
 320:.\Generated_Source\PSoC5/isr_srf.c **** *   Priority of the interrupt, 0 being the highest priority
 321:.\Generated_Source\PSoC5/isr_srf.c **** *    PSoC 3 and PSoC 5LP: Priority is from 0 to 7.
 322:.\Generated_Source\PSoC5/isr_srf.c **** *    PSoC 4: Priority is from 0 to 3.
 323:.\Generated_Source\PSoC5/isr_srf.c **** *
 324:.\Generated_Source\PSoC5/isr_srf.c **** *******************************************************************************/
 325:.\Generated_Source\PSoC5/isr_srf.c **** uint8 isr_srf_GetPriority(void)
 326:.\Generated_Source\PSoC5/isr_srf.c **** {
 198              		.loc 1 326 0
 199              		.cfi_startproc
 200              		@ args = 0, pretend = 0, frame = 0
 201              		@ frame_needed = 0, uses_anonymous_args = 0
 202              		@ link register save eliminated.
 327:.\Generated_Source\PSoC5/isr_srf.c ****     uint8 priority;
 328:.\Generated_Source\PSoC5/isr_srf.c **** 
 329:.\Generated_Source\PSoC5/isr_srf.c **** 
 330:.\Generated_Source\PSoC5/isr_srf.c ****     priority = *isr_srf_INTC_PRIOR >> 5;
 203              		.loc 1 330 0
 204 0000 014B     		ldr	r3, .L18
 205 0002 1878     		ldrb	r0, [r3]	@ zero_extendqisi2
 206              	.LVL6:
 331:.\Generated_Source\PSoC5/isr_srf.c **** 
 332:.\Generated_Source\PSoC5/isr_srf.c ****     return priority;
 333:.\Generated_Source\PSoC5/isr_srf.c **** }
 207              		.loc 1 333 0
 208 0004 4009     		lsrs	r0, r0, #5
 209              	.LVL7:
 210 0006 7047     		bx	lr
 211              	.L19:
 212              		.align	2
 213              	.L18:
 214 0008 06E400E0 		.word	-536812538
 215              		.cfi_endproc
 216              	.LFE70:
 217              		.size	isr_srf_GetPriority, .-isr_srf_GetPriority
 218              		.section	.text.isr_srf_Enable,"ax",%progbits
 219              		.align	2
 220              		.global	isr_srf_Enable
 221              		.thumb
 222              		.thumb_func
 223              		.type	isr_srf_Enable, %function
 224              	isr_srf_Enable:
 225              	.LFB71:
 334:.\Generated_Source\PSoC5/isr_srf.c **** 
 335:.\Generated_Source\PSoC5/isr_srf.c **** 
 336:.\Generated_Source\PSoC5/isr_srf.c **** /*******************************************************************************
 337:.\Generated_Source\PSoC5/isr_srf.c **** * Function Name: isr_srf_Enable
 338:.\Generated_Source\PSoC5/isr_srf.c **** ********************************************************************************
 339:.\Generated_Source\PSoC5/isr_srf.c **** *
 340:.\Generated_Source\PSoC5/isr_srf.c **** * Summary:
 341:.\Generated_Source\PSoC5/isr_srf.c **** *   Enables the interrupt to the interrupt controller. Do not call this function
 342:.\Generated_Source\PSoC5/isr_srf.c **** *   unless ISR_Start() has been called or the functionality of the ISR_Start() 
 343:.\Generated_Source\PSoC5/isr_srf.c **** *   function, which sets the vector and the priority, has been called.
 344:.\Generated_Source\PSoC5/isr_srf.c **** *
 345:.\Generated_Source\PSoC5/isr_srf.c **** * Parameters:
ARM GAS  C:\Users\pxc\AppData\Local\Temp\ccL7ut31.s 			page 11


 346:.\Generated_Source\PSoC5/isr_srf.c **** *   None
 347:.\Generated_Source\PSoC5/isr_srf.c **** *
 348:.\Generated_Source\PSoC5/isr_srf.c **** * Return:
 349:.\Generated_Source\PSoC5/isr_srf.c **** *   None
 350:.\Generated_Source\PSoC5/isr_srf.c **** *
 351:.\Generated_Source\PSoC5/isr_srf.c **** *******************************************************************************/
 352:.\Generated_Source\PSoC5/isr_srf.c **** void isr_srf_Enable(void)
 353:.\Generated_Source\PSoC5/isr_srf.c **** {
 226              		.loc 1 353 0
 227              		.cfi_startproc
 228              		@ args = 0, pretend = 0, frame = 0
 229              		@ frame_needed = 0, uses_anonymous_args = 0
 230              		@ link register save eliminated.
 354:.\Generated_Source\PSoC5/isr_srf.c ****     /* Enable the general interrupt. */
 355:.\Generated_Source\PSoC5/isr_srf.c ****     *isr_srf_INTC_SET_EN = isr_srf__INTC_MASK;
 231              		.loc 1 355 0
 232 0000 4022     		movs	r2, #64
 233 0002 014B     		ldr	r3, .L21
 234 0004 1A60     		str	r2, [r3]
 235 0006 7047     		bx	lr
 236              	.L22:
 237              		.align	2
 238              	.L21:
 239 0008 00E100E0 		.word	-536813312
 240              		.cfi_endproc
 241              	.LFE71:
 242              		.size	isr_srf_Enable, .-isr_srf_Enable
 243              		.section	.text.isr_srf_GetState,"ax",%progbits
 244              		.align	2
 245              		.global	isr_srf_GetState
 246              		.thumb
 247              		.thumb_func
 248              		.type	isr_srf_GetState, %function
 249              	isr_srf_GetState:
 250              	.LFB72:
 356:.\Generated_Source\PSoC5/isr_srf.c **** }
 357:.\Generated_Source\PSoC5/isr_srf.c **** 
 358:.\Generated_Source\PSoC5/isr_srf.c **** 
 359:.\Generated_Source\PSoC5/isr_srf.c **** /*******************************************************************************
 360:.\Generated_Source\PSoC5/isr_srf.c **** * Function Name: isr_srf_GetState
 361:.\Generated_Source\PSoC5/isr_srf.c **** ********************************************************************************
 362:.\Generated_Source\PSoC5/isr_srf.c **** *
 363:.\Generated_Source\PSoC5/isr_srf.c **** * Summary:
 364:.\Generated_Source\PSoC5/isr_srf.c **** *   Gets the state (enabled, disabled) of the Interrupt.
 365:.\Generated_Source\PSoC5/isr_srf.c **** *
 366:.\Generated_Source\PSoC5/isr_srf.c **** * Parameters:
 367:.\Generated_Source\PSoC5/isr_srf.c **** *   None
 368:.\Generated_Source\PSoC5/isr_srf.c **** *
 369:.\Generated_Source\PSoC5/isr_srf.c **** * Return:
 370:.\Generated_Source\PSoC5/isr_srf.c **** *   1 if enabled, 0 if disabled.
 371:.\Generated_Source\PSoC5/isr_srf.c **** *
 372:.\Generated_Source\PSoC5/isr_srf.c **** *******************************************************************************/
 373:.\Generated_Source\PSoC5/isr_srf.c **** uint8 isr_srf_GetState(void)
 374:.\Generated_Source\PSoC5/isr_srf.c **** {
 251              		.loc 1 374 0
 252              		.cfi_startproc
 253              		@ args = 0, pretend = 0, frame = 0
ARM GAS  C:\Users\pxc\AppData\Local\Temp\ccL7ut31.s 			page 12


 254              		@ frame_needed = 0, uses_anonymous_args = 0
 255              		@ link register save eliminated.
 375:.\Generated_Source\PSoC5/isr_srf.c ****     /* Get the state of the general interrupt. */
 376:.\Generated_Source\PSoC5/isr_srf.c ****     return ((*isr_srf_INTC_SET_EN & (uint32)isr_srf__INTC_MASK) != 0u) ? 1u:0u;
 256              		.loc 1 376 0
 257 0000 044B     		ldr	r3, .L26
 258 0002 1B68     		ldr	r3, [r3]
 259 0004 13F0400F 		tst	r3, #64
 260 0008 01D0     		beq	.L25
 261 000a 0120     		movs	r0, #1
 262 000c 7047     		bx	lr
 263              	.L25:
 264 000e 0020     		movs	r0, #0
 377:.\Generated_Source\PSoC5/isr_srf.c **** }
 265              		.loc 1 377 0
 266 0010 7047     		bx	lr
 267              	.L27:
 268 0012 00BF     		.align	2
 269              	.L26:
 270 0014 00E100E0 		.word	-536813312
 271              		.cfi_endproc
 272              	.LFE72:
 273              		.size	isr_srf_GetState, .-isr_srf_GetState
 274              		.section	.text.isr_srf_Disable,"ax",%progbits
 275              		.align	2
 276              		.global	isr_srf_Disable
 277              		.thumb
 278              		.thumb_func
 279              		.type	isr_srf_Disable, %function
 280              	isr_srf_Disable:
 281              	.LFB73:
 378:.\Generated_Source\PSoC5/isr_srf.c **** 
 379:.\Generated_Source\PSoC5/isr_srf.c **** 
 380:.\Generated_Source\PSoC5/isr_srf.c **** /*******************************************************************************
 381:.\Generated_Source\PSoC5/isr_srf.c **** * Function Name: isr_srf_Disable
 382:.\Generated_Source\PSoC5/isr_srf.c **** ********************************************************************************
 383:.\Generated_Source\PSoC5/isr_srf.c **** *
 384:.\Generated_Source\PSoC5/isr_srf.c **** * Summary:
 385:.\Generated_Source\PSoC5/isr_srf.c **** *   Disables the Interrupt in the interrupt controller.
 386:.\Generated_Source\PSoC5/isr_srf.c **** *
 387:.\Generated_Source\PSoC5/isr_srf.c **** * Parameters:
 388:.\Generated_Source\PSoC5/isr_srf.c **** *   None
 389:.\Generated_Source\PSoC5/isr_srf.c **** *
 390:.\Generated_Source\PSoC5/isr_srf.c **** * Return:
 391:.\Generated_Source\PSoC5/isr_srf.c **** *   None
 392:.\Generated_Source\PSoC5/isr_srf.c **** *
 393:.\Generated_Source\PSoC5/isr_srf.c **** *******************************************************************************/
 394:.\Generated_Source\PSoC5/isr_srf.c **** void isr_srf_Disable(void)
 395:.\Generated_Source\PSoC5/isr_srf.c **** {
 282              		.loc 1 395 0
 283              		.cfi_startproc
 284              		@ args = 0, pretend = 0, frame = 0
 285              		@ frame_needed = 0, uses_anonymous_args = 0
 286              		@ link register save eliminated.
 396:.\Generated_Source\PSoC5/isr_srf.c ****     /* Disable the general interrupt. */
 397:.\Generated_Source\PSoC5/isr_srf.c ****     *isr_srf_INTC_CLR_EN = isr_srf__INTC_MASK;
 287              		.loc 1 397 0
ARM GAS  C:\Users\pxc\AppData\Local\Temp\ccL7ut31.s 			page 13


 288 0000 4022     		movs	r2, #64
 289 0002 014B     		ldr	r3, .L29
 290 0004 1A60     		str	r2, [r3]
 291 0006 7047     		bx	lr
 292              	.L30:
 293              		.align	2
 294              	.L29:
 295 0008 80E100E0 		.word	-536813184
 296              		.cfi_endproc
 297              	.LFE73:
 298              		.size	isr_srf_Disable, .-isr_srf_Disable
 299              		.section	.text.isr_srf_Start,"ax",%progbits
 300              		.align	2
 301              		.global	isr_srf_Start
 302              		.thumb
 303              		.thumb_func
 304              		.type	isr_srf_Start, %function
 305              	isr_srf_Start:
 306              	.LFB63:
  70:.\Generated_Source\PSoC5/isr_srf.c ****     /* For all we know the interrupt is active. */
 307              		.loc 1 70 0
 308              		.cfi_startproc
 309              		@ args = 0, pretend = 0, frame = 0
 310              		@ frame_needed = 0, uses_anonymous_args = 0
 311 0000 08B5     		push	{r3, lr}
 312              		.cfi_def_cfa_offset 8
 313              		.cfi_offset 3, -8
 314              		.cfi_offset 14, -4
  72:.\Generated_Source\PSoC5/isr_srf.c **** 
 315              		.loc 1 72 0
 316 0002 FFF7FEFF 		bl	isr_srf_Disable
 317              	.LVL8:
  75:.\Generated_Source\PSoC5/isr_srf.c **** 
 318              		.loc 1 75 0
 319 0006 0448     		ldr	r0, .L33
 320 0008 FFF7FEFF 		bl	isr_srf_SetVector
 321              	.LVL9:
  78:.\Generated_Source\PSoC5/isr_srf.c **** 
 322              		.loc 1 78 0
 323 000c 0720     		movs	r0, #7
 324 000e FFF7FEFF 		bl	isr_srf_SetPriority
 325              	.LVL10:
  81:.\Generated_Source\PSoC5/isr_srf.c **** }
 326              		.loc 1 81 0
 327 0012 FFF7FEFF 		bl	isr_srf_Enable
 328              	.LVL11:
 329 0016 08BD     		pop	{r3, pc}
 330              	.L34:
 331              		.align	2
 332              	.L33:
 333 0018 00000000 		.word	isr_srf_Interrupt
 334              		.cfi_endproc
 335              	.LFE63:
 336              		.size	isr_srf_Start, .-isr_srf_Start
 337              		.section	.text.isr_srf_StartEx,"ax",%progbits
 338              		.align	2
 339              		.global	isr_srf_StartEx
ARM GAS  C:\Users\pxc\AppData\Local\Temp\ccL7ut31.s 			page 14


 340              		.thumb
 341              		.thumb_func
 342              		.type	isr_srf_StartEx, %function
 343              	isr_srf_StartEx:
 344              	.LFB64:
 113:.\Generated_Source\PSoC5/isr_srf.c ****     /* For all we know the interrupt is active. */
 345              		.loc 1 113 0
 346              		.cfi_startproc
 347              		@ args = 0, pretend = 0, frame = 0
 348              		@ frame_needed = 0, uses_anonymous_args = 0
 349              	.LVL12:
 350 0000 10B5     		push	{r4, lr}
 351              		.cfi_def_cfa_offset 8
 352              		.cfi_offset 4, -8
 353              		.cfi_offset 14, -4
 354 0002 0446     		mov	r4, r0
 115:.\Generated_Source\PSoC5/isr_srf.c **** 
 355              		.loc 1 115 0
 356 0004 FFF7FEFF 		bl	isr_srf_Disable
 357              	.LVL13:
 118:.\Generated_Source\PSoC5/isr_srf.c **** 
 358              		.loc 1 118 0
 359 0008 2046     		mov	r0, r4
 360 000a FFF7FEFF 		bl	isr_srf_SetVector
 361              	.LVL14:
 121:.\Generated_Source\PSoC5/isr_srf.c **** 
 362              		.loc 1 121 0
 363 000e 0720     		movs	r0, #7
 364 0010 FFF7FEFF 		bl	isr_srf_SetPriority
 365              	.LVL15:
 124:.\Generated_Source\PSoC5/isr_srf.c **** }
 366              		.loc 1 124 0
 367 0014 FFF7FEFF 		bl	isr_srf_Enable
 368              	.LVL16:
 369 0018 10BD     		pop	{r4, pc}
 370              		.cfi_endproc
 371              	.LFE64:
 372              		.size	isr_srf_StartEx, .-isr_srf_StartEx
 373 001a 00BF     		.section	.text.isr_srf_Stop,"ax",%progbits
 374              		.align	2
 375              		.global	isr_srf_Stop
 376              		.thumb
 377              		.thumb_func
 378              		.type	isr_srf_Stop, %function
 379              	isr_srf_Stop:
 380              	.LFB65:
 143:.\Generated_Source\PSoC5/isr_srf.c ****     /* Disable this interrupt. */
 381              		.loc 1 143 0
 382              		.cfi_startproc
 383              		@ args = 0, pretend = 0, frame = 0
 384              		@ frame_needed = 0, uses_anonymous_args = 0
 385 0000 08B5     		push	{r3, lr}
 386              		.cfi_def_cfa_offset 8
 387              		.cfi_offset 3, -8
 388              		.cfi_offset 14, -4
 145:.\Generated_Source\PSoC5/isr_srf.c **** 
 389              		.loc 1 145 0
ARM GAS  C:\Users\pxc\AppData\Local\Temp\ccL7ut31.s 			page 15


 390 0002 FFF7FEFF 		bl	isr_srf_Disable
 391              	.LVL17:
 148:.\Generated_Source\PSoC5/isr_srf.c **** }
 392              		.loc 1 148 0
 393 0006 0248     		ldr	r0, .L39
 394 0008 FFF7FEFF 		bl	isr_srf_SetVector
 395              	.LVL18:
 396 000c 08BD     		pop	{r3, pc}
 397              	.L40:
 398 000e 00BF     		.align	2
 399              	.L39:
 400 0010 00000000 		.word	IntDefaultHandler
 401              		.cfi_endproc
 402              	.LFE65:
 403              		.size	isr_srf_Stop, .-isr_srf_Stop
 404              		.section	.text.isr_srf_SetPending,"ax",%progbits
 405              		.align	2
 406              		.global	isr_srf_SetPending
 407              		.thumb
 408              		.thumb_func
 409              		.type	isr_srf_SetPending, %function
 410              	isr_srf_SetPending:
 411              	.LFB74:
 398:.\Generated_Source\PSoC5/isr_srf.c **** }
 399:.\Generated_Source\PSoC5/isr_srf.c **** 
 400:.\Generated_Source\PSoC5/isr_srf.c **** 
 401:.\Generated_Source\PSoC5/isr_srf.c **** /*******************************************************************************
 402:.\Generated_Source\PSoC5/isr_srf.c **** * Function Name: isr_srf_SetPending
 403:.\Generated_Source\PSoC5/isr_srf.c **** ********************************************************************************
 404:.\Generated_Source\PSoC5/isr_srf.c **** *
 405:.\Generated_Source\PSoC5/isr_srf.c **** * Summary:
 406:.\Generated_Source\PSoC5/isr_srf.c **** *   Causes the Interrupt to enter the pending state, a software method of
 407:.\Generated_Source\PSoC5/isr_srf.c **** *   generating the interrupt.
 408:.\Generated_Source\PSoC5/isr_srf.c **** *
 409:.\Generated_Source\PSoC5/isr_srf.c **** * Parameters:
 410:.\Generated_Source\PSoC5/isr_srf.c **** *   None
 411:.\Generated_Source\PSoC5/isr_srf.c **** *
 412:.\Generated_Source\PSoC5/isr_srf.c **** * Return:
 413:.\Generated_Source\PSoC5/isr_srf.c **** *   None
 414:.\Generated_Source\PSoC5/isr_srf.c **** *
 415:.\Generated_Source\PSoC5/isr_srf.c **** * Side Effects:
 416:.\Generated_Source\PSoC5/isr_srf.c **** *   If interrupts are enabled and the interrupt is set up properly, the ISR is
 417:.\Generated_Source\PSoC5/isr_srf.c **** *   entered (depending on the priority of this interrupt and other pending 
 418:.\Generated_Source\PSoC5/isr_srf.c **** *   interrupts).
 419:.\Generated_Source\PSoC5/isr_srf.c **** *
 420:.\Generated_Source\PSoC5/isr_srf.c **** *******************************************************************************/
 421:.\Generated_Source\PSoC5/isr_srf.c **** void isr_srf_SetPending(void)
 422:.\Generated_Source\PSoC5/isr_srf.c **** {
 412              		.loc 1 422 0
 413              		.cfi_startproc
 414              		@ args = 0, pretend = 0, frame = 0
 415              		@ frame_needed = 0, uses_anonymous_args = 0
 416              		@ link register save eliminated.
 423:.\Generated_Source\PSoC5/isr_srf.c ****     *isr_srf_INTC_SET_PD = isr_srf__INTC_MASK;
 417              		.loc 1 423 0
 418 0000 4022     		movs	r2, #64
 419 0002 014B     		ldr	r3, .L42
ARM GAS  C:\Users\pxc\AppData\Local\Temp\ccL7ut31.s 			page 16


 420 0004 1A60     		str	r2, [r3]
 421 0006 7047     		bx	lr
 422              	.L43:
 423              		.align	2
 424              	.L42:
 425 0008 00E200E0 		.word	-536813056
 426              		.cfi_endproc
 427              	.LFE74:
 428              		.size	isr_srf_SetPending, .-isr_srf_SetPending
 429              		.section	.text.isr_srf_ClearPending,"ax",%progbits
 430              		.align	2
 431              		.global	isr_srf_ClearPending
 432              		.thumb
 433              		.thumb_func
 434              		.type	isr_srf_ClearPending, %function
 435              	isr_srf_ClearPending:
 436              	.LFB75:
 424:.\Generated_Source\PSoC5/isr_srf.c **** }
 425:.\Generated_Source\PSoC5/isr_srf.c **** 
 426:.\Generated_Source\PSoC5/isr_srf.c **** 
 427:.\Generated_Source\PSoC5/isr_srf.c **** /*******************************************************************************
 428:.\Generated_Source\PSoC5/isr_srf.c **** * Function Name: isr_srf_ClearPending
 429:.\Generated_Source\PSoC5/isr_srf.c **** ********************************************************************************
 430:.\Generated_Source\PSoC5/isr_srf.c **** *
 431:.\Generated_Source\PSoC5/isr_srf.c **** * Summary:
 432:.\Generated_Source\PSoC5/isr_srf.c **** *   Clears a pending interrupt in the interrupt controller.
 433:.\Generated_Source\PSoC5/isr_srf.c **** *
 434:.\Generated_Source\PSoC5/isr_srf.c **** *   Note Some interrupt sources are clear-on-read and require the block 
 435:.\Generated_Source\PSoC5/isr_srf.c **** *   interrupt/status register to be read/cleared with the appropriate block API 
 436:.\Generated_Source\PSoC5/isr_srf.c **** *   (GPIO, UART, and so on). Otherwise the ISR will continue to remain in 
 437:.\Generated_Source\PSoC5/isr_srf.c **** *   pending state even though the interrupt itself is cleared using this API.
 438:.\Generated_Source\PSoC5/isr_srf.c **** *
 439:.\Generated_Source\PSoC5/isr_srf.c **** * Parameters:
 440:.\Generated_Source\PSoC5/isr_srf.c **** *   None
 441:.\Generated_Source\PSoC5/isr_srf.c **** *
 442:.\Generated_Source\PSoC5/isr_srf.c **** * Return:
 443:.\Generated_Source\PSoC5/isr_srf.c **** *   None
 444:.\Generated_Source\PSoC5/isr_srf.c **** *
 445:.\Generated_Source\PSoC5/isr_srf.c **** *******************************************************************************/
 446:.\Generated_Source\PSoC5/isr_srf.c **** void isr_srf_ClearPending(void)
 447:.\Generated_Source\PSoC5/isr_srf.c **** {
 437              		.loc 1 447 0
 438              		.cfi_startproc
 439              		@ args = 0, pretend = 0, frame = 0
 440              		@ frame_needed = 0, uses_anonymous_args = 0
 441              		@ link register save eliminated.
 448:.\Generated_Source\PSoC5/isr_srf.c ****     *isr_srf_INTC_CLR_PD = isr_srf__INTC_MASK;
 442              		.loc 1 448 0
 443 0000 4022     		movs	r2, #64
 444 0002 014B     		ldr	r3, .L45
 445 0004 1A60     		str	r2, [r3]
 446 0006 7047     		bx	lr
 447              	.L46:
 448              		.align	2
 449              	.L45:
 450 0008 80E200E0 		.word	-536812928
 451              		.cfi_endproc
ARM GAS  C:\Users\pxc\AppData\Local\Temp\ccL7ut31.s 			page 17


 452              	.LFE75:
 453              		.size	isr_srf_ClearPending, .-isr_srf_ClearPending
 454              		.comm	sample_count,1,1
 455              		.comm	distance,8,4
 456              		.comm	cap_count,1,1
 457              		.comm	cap_res,2,2
 458              		.comm	cap_cur,2,2
 459              		.comm	cap_pre,2,2
 460              		.comm	g_Car,38,4
 461              		.text
 462              	.Letext0:
 463              		.file 2 "c:\\program files (x86)\\cypress\\psoc creator\\3.3\\psoc creator\\import\\gnu\\arm\\4.9.
 464              		.file 3 "c:\\program files (x86)\\cypress\\psoc creator\\3.3\\psoc creator\\import\\gnu\\arm\\4.9.
 465              		.file 4 "Generated_Source\\PSoC5/cytypes.h"
 466              		.file 5 "./car.h"
 467              		.file 6 "Generated_Source\\PSoC5/core_cm3.h"
 468              		.file 7 "Generated_Source\\PSoC5/SRF_05_Timer.h"