ARM GAS  C:\Users\pxc\AppData\Local\Temp\ccUsaYck.s 			page 1


   1              		.syntax unified
   2              		.cpu cortex-m3
   3              		.fpu softvfp
   4              		.eabi_attribute 20, 1
   5              		.eabi_attribute 21, 1
   6              		.eabi_attribute 23, 3
   7              		.eabi_attribute 24, 1
   8              		.eabi_attribute 25, 1
   9              		.eabi_attribute 26, 1
  10              		.eabi_attribute 30, 1
  11              		.eabi_attribute 34, 1
  12              		.eabi_attribute 18, 4
  13              		.thumb
  14              		.file	"isr_echo.c"
  15              		.text
  16              	.Ltext0:
  17              		.cfi_sections	.debug_frame
  18              		.section	.text.isr_echo_Interrupt,"ax",%progbits
  19              		.align	2
  20              		.global	isr_echo_Interrupt
  21              		.thumb
  22              		.thumb_func
  23              		.type	isr_echo_Interrupt, %function
  24              	isr_echo_Interrupt:
  25              	.LFB3:
  26              		.file 1 ".\\Generated_Source\\PSoC5\\isr_echo.c"
   1:.\Generated_Source\PSoC5/isr_echo.c **** /*******************************************************************************
   2:.\Generated_Source\PSoC5/isr_echo.c **** * File Name: isr_echo.c  
   3:.\Generated_Source\PSoC5/isr_echo.c **** * Version 1.70
   4:.\Generated_Source\PSoC5/isr_echo.c **** *
   5:.\Generated_Source\PSoC5/isr_echo.c **** *  Description:
   6:.\Generated_Source\PSoC5/isr_echo.c **** *   API for controlling the state of an interrupt.
   7:.\Generated_Source\PSoC5/isr_echo.c **** *
   8:.\Generated_Source\PSoC5/isr_echo.c **** *
   9:.\Generated_Source\PSoC5/isr_echo.c **** *  Note:
  10:.\Generated_Source\PSoC5/isr_echo.c **** *
  11:.\Generated_Source\PSoC5/isr_echo.c **** ********************************************************************************
  12:.\Generated_Source\PSoC5/isr_echo.c **** * Copyright 2008-2015, Cypress Semiconductor Corporation.  All rights reserved.
  13:.\Generated_Source\PSoC5/isr_echo.c **** * You may use this file only in accordance with the license, terms, conditions, 
  14:.\Generated_Source\PSoC5/isr_echo.c **** * disclaimers, and limitations in the end user license agreement accompanying 
  15:.\Generated_Source\PSoC5/isr_echo.c **** * the software package with which this file was provided.
  16:.\Generated_Source\PSoC5/isr_echo.c **** *******************************************************************************/
  17:.\Generated_Source\PSoC5/isr_echo.c **** 
  18:.\Generated_Source\PSoC5/isr_echo.c **** 
  19:.\Generated_Source\PSoC5/isr_echo.c **** #include <cydevice_trm.h>
  20:.\Generated_Source\PSoC5/isr_echo.c **** #include <CyLib.h>
  21:.\Generated_Source\PSoC5/isr_echo.c **** #include <isr_echo.h>
  22:.\Generated_Source\PSoC5/isr_echo.c **** #include "cyapicallbacks.h"
  23:.\Generated_Source\PSoC5/isr_echo.c **** 
  24:.\Generated_Source\PSoC5/isr_echo.c **** #if !defined(isr_echo__REMOVED) /* Check for removal by optimization */
  25:.\Generated_Source\PSoC5/isr_echo.c **** 
  26:.\Generated_Source\PSoC5/isr_echo.c **** /*******************************************************************************
  27:.\Generated_Source\PSoC5/isr_echo.c **** *  Place your includes, defines and code here 
  28:.\Generated_Source\PSoC5/isr_echo.c **** ********************************************************************************/
  29:.\Generated_Source\PSoC5/isr_echo.c **** /* `#START isr_echo_intc` */
  30:.\Generated_Source\PSoC5/isr_echo.c **** 
  31:.\Generated_Source\PSoC5/isr_echo.c **** /* `#END` */
ARM GAS  C:\Users\pxc\AppData\Local\Temp\ccUsaYck.s 			page 2


  32:.\Generated_Source\PSoC5/isr_echo.c **** 
  33:.\Generated_Source\PSoC5/isr_echo.c **** #ifndef CYINT_IRQ_BASE
  34:.\Generated_Source\PSoC5/isr_echo.c **** #define CYINT_IRQ_BASE      16
  35:.\Generated_Source\PSoC5/isr_echo.c **** #endif /* CYINT_IRQ_BASE */
  36:.\Generated_Source\PSoC5/isr_echo.c **** #ifndef CYINT_VECT_TABLE
  37:.\Generated_Source\PSoC5/isr_echo.c **** #define CYINT_VECT_TABLE    ((cyisraddress **) CYREG_NVIC_VECT_OFFSET)
  38:.\Generated_Source\PSoC5/isr_echo.c **** #endif /* CYINT_VECT_TABLE */
  39:.\Generated_Source\PSoC5/isr_echo.c **** 
  40:.\Generated_Source\PSoC5/isr_echo.c **** /* Declared in startup, used to set unused interrupts to. */
  41:.\Generated_Source\PSoC5/isr_echo.c **** CY_ISR_PROTO(IntDefaultHandler);
  42:.\Generated_Source\PSoC5/isr_echo.c **** 
  43:.\Generated_Source\PSoC5/isr_echo.c **** 
  44:.\Generated_Source\PSoC5/isr_echo.c **** /*******************************************************************************
  45:.\Generated_Source\PSoC5/isr_echo.c **** * Function Name: isr_echo_Start
  46:.\Generated_Source\PSoC5/isr_echo.c **** ********************************************************************************
  47:.\Generated_Source\PSoC5/isr_echo.c **** *
  48:.\Generated_Source\PSoC5/isr_echo.c **** * Summary:
  49:.\Generated_Source\PSoC5/isr_echo.c **** *  Set up the interrupt and enable it. This function disables the interrupt, 
  50:.\Generated_Source\PSoC5/isr_echo.c **** *  sets the default interrupt vector, sets the priority from the value in the
  51:.\Generated_Source\PSoC5/isr_echo.c **** *  Design Wide Resources Interrupt Editor, then enables the interrupt to the 
  52:.\Generated_Source\PSoC5/isr_echo.c **** *  interrupt controller.
  53:.\Generated_Source\PSoC5/isr_echo.c **** *
  54:.\Generated_Source\PSoC5/isr_echo.c **** * Parameters:  
  55:.\Generated_Source\PSoC5/isr_echo.c **** *   None
  56:.\Generated_Source\PSoC5/isr_echo.c **** *
  57:.\Generated_Source\PSoC5/isr_echo.c **** * Return:
  58:.\Generated_Source\PSoC5/isr_echo.c **** *   None
  59:.\Generated_Source\PSoC5/isr_echo.c **** *
  60:.\Generated_Source\PSoC5/isr_echo.c **** *******************************************************************************/
  61:.\Generated_Source\PSoC5/isr_echo.c **** void isr_echo_Start(void)
  62:.\Generated_Source\PSoC5/isr_echo.c **** {
  63:.\Generated_Source\PSoC5/isr_echo.c ****     /* For all we know the interrupt is active. */
  64:.\Generated_Source\PSoC5/isr_echo.c ****     isr_echo_Disable();
  65:.\Generated_Source\PSoC5/isr_echo.c **** 
  66:.\Generated_Source\PSoC5/isr_echo.c ****     /* Set the ISR to point to the isr_echo Interrupt. */
  67:.\Generated_Source\PSoC5/isr_echo.c ****     isr_echo_SetVector(&isr_echo_Interrupt);
  68:.\Generated_Source\PSoC5/isr_echo.c **** 
  69:.\Generated_Source\PSoC5/isr_echo.c ****     /* Set the priority. */
  70:.\Generated_Source\PSoC5/isr_echo.c ****     isr_echo_SetPriority((uint8)isr_echo_INTC_PRIOR_NUMBER);
  71:.\Generated_Source\PSoC5/isr_echo.c **** 
  72:.\Generated_Source\PSoC5/isr_echo.c ****     /* Enable it. */
  73:.\Generated_Source\PSoC5/isr_echo.c ****     isr_echo_Enable();
  74:.\Generated_Source\PSoC5/isr_echo.c **** }
  75:.\Generated_Source\PSoC5/isr_echo.c **** 
  76:.\Generated_Source\PSoC5/isr_echo.c **** 
  77:.\Generated_Source\PSoC5/isr_echo.c **** /*******************************************************************************
  78:.\Generated_Source\PSoC5/isr_echo.c **** * Function Name: isr_echo_StartEx
  79:.\Generated_Source\PSoC5/isr_echo.c **** ********************************************************************************
  80:.\Generated_Source\PSoC5/isr_echo.c **** *
  81:.\Generated_Source\PSoC5/isr_echo.c **** * Summary:
  82:.\Generated_Source\PSoC5/isr_echo.c **** *  Sets up the interrupt and enables it. This function disables the interrupt,
  83:.\Generated_Source\PSoC5/isr_echo.c **** *  sets the interrupt vector based on the address passed in, sets the priority 
  84:.\Generated_Source\PSoC5/isr_echo.c **** *  from the value in the Design Wide Resources Interrupt Editor, then enables 
  85:.\Generated_Source\PSoC5/isr_echo.c **** *  the interrupt to the interrupt controller.
  86:.\Generated_Source\PSoC5/isr_echo.c **** *  
  87:.\Generated_Source\PSoC5/isr_echo.c **** *  When defining ISR functions, the CY_ISR and CY_ISR_PROTO macros should be 
  88:.\Generated_Source\PSoC5/isr_echo.c **** *  used to provide consistent definition across compilers:
ARM GAS  C:\Users\pxc\AppData\Local\Temp\ccUsaYck.s 			page 3


  89:.\Generated_Source\PSoC5/isr_echo.c **** *  
  90:.\Generated_Source\PSoC5/isr_echo.c **** *  Function definition example:
  91:.\Generated_Source\PSoC5/isr_echo.c **** *   CY_ISR(MyISR)
  92:.\Generated_Source\PSoC5/isr_echo.c **** *   {
  93:.\Generated_Source\PSoC5/isr_echo.c **** *   }
  94:.\Generated_Source\PSoC5/isr_echo.c **** *   Function prototype example:
  95:.\Generated_Source\PSoC5/isr_echo.c **** *   CY_ISR_PROTO(MyISR);
  96:.\Generated_Source\PSoC5/isr_echo.c **** *
  97:.\Generated_Source\PSoC5/isr_echo.c **** * Parameters:  
  98:.\Generated_Source\PSoC5/isr_echo.c **** *   address: Address of the ISR to set in the interrupt vector table.
  99:.\Generated_Source\PSoC5/isr_echo.c **** *
 100:.\Generated_Source\PSoC5/isr_echo.c **** * Return:
 101:.\Generated_Source\PSoC5/isr_echo.c **** *   None
 102:.\Generated_Source\PSoC5/isr_echo.c **** *
 103:.\Generated_Source\PSoC5/isr_echo.c **** *******************************************************************************/
 104:.\Generated_Source\PSoC5/isr_echo.c **** void isr_echo_StartEx(cyisraddress address)
 105:.\Generated_Source\PSoC5/isr_echo.c **** {
 106:.\Generated_Source\PSoC5/isr_echo.c ****     /* For all we know the interrupt is active. */
 107:.\Generated_Source\PSoC5/isr_echo.c ****     isr_echo_Disable();
 108:.\Generated_Source\PSoC5/isr_echo.c **** 
 109:.\Generated_Source\PSoC5/isr_echo.c ****     /* Set the ISR to point to the isr_echo Interrupt. */
 110:.\Generated_Source\PSoC5/isr_echo.c ****     isr_echo_SetVector(address);
 111:.\Generated_Source\PSoC5/isr_echo.c **** 
 112:.\Generated_Source\PSoC5/isr_echo.c ****     /* Set the priority. */
 113:.\Generated_Source\PSoC5/isr_echo.c ****     isr_echo_SetPriority((uint8)isr_echo_INTC_PRIOR_NUMBER);
 114:.\Generated_Source\PSoC5/isr_echo.c **** 
 115:.\Generated_Source\PSoC5/isr_echo.c ****     /* Enable it. */
 116:.\Generated_Source\PSoC5/isr_echo.c ****     isr_echo_Enable();
 117:.\Generated_Source\PSoC5/isr_echo.c **** }
 118:.\Generated_Source\PSoC5/isr_echo.c **** 
 119:.\Generated_Source\PSoC5/isr_echo.c **** 
 120:.\Generated_Source\PSoC5/isr_echo.c **** /*******************************************************************************
 121:.\Generated_Source\PSoC5/isr_echo.c **** * Function Name: isr_echo_Stop
 122:.\Generated_Source\PSoC5/isr_echo.c **** ********************************************************************************
 123:.\Generated_Source\PSoC5/isr_echo.c **** *
 124:.\Generated_Source\PSoC5/isr_echo.c **** * Summary:
 125:.\Generated_Source\PSoC5/isr_echo.c **** *   Disables and removes the interrupt.
 126:.\Generated_Source\PSoC5/isr_echo.c **** *
 127:.\Generated_Source\PSoC5/isr_echo.c **** * Parameters:  
 128:.\Generated_Source\PSoC5/isr_echo.c **** *   None
 129:.\Generated_Source\PSoC5/isr_echo.c **** *
 130:.\Generated_Source\PSoC5/isr_echo.c **** * Return:
 131:.\Generated_Source\PSoC5/isr_echo.c **** *   None
 132:.\Generated_Source\PSoC5/isr_echo.c **** *
 133:.\Generated_Source\PSoC5/isr_echo.c **** *******************************************************************************/
 134:.\Generated_Source\PSoC5/isr_echo.c **** void isr_echo_Stop(void)
 135:.\Generated_Source\PSoC5/isr_echo.c **** {
 136:.\Generated_Source\PSoC5/isr_echo.c ****     /* Disable this interrupt. */
 137:.\Generated_Source\PSoC5/isr_echo.c ****     isr_echo_Disable();
 138:.\Generated_Source\PSoC5/isr_echo.c **** 
 139:.\Generated_Source\PSoC5/isr_echo.c ****     /* Set the ISR to point to the passive one. */
 140:.\Generated_Source\PSoC5/isr_echo.c ****     isr_echo_SetVector(&IntDefaultHandler);
 141:.\Generated_Source\PSoC5/isr_echo.c **** }
 142:.\Generated_Source\PSoC5/isr_echo.c **** 
 143:.\Generated_Source\PSoC5/isr_echo.c **** 
 144:.\Generated_Source\PSoC5/isr_echo.c **** /*******************************************************************************
 145:.\Generated_Source\PSoC5/isr_echo.c **** * Function Name: isr_echo_Interrupt
ARM GAS  C:\Users\pxc\AppData\Local\Temp\ccUsaYck.s 			page 4


 146:.\Generated_Source\PSoC5/isr_echo.c **** ********************************************************************************
 147:.\Generated_Source\PSoC5/isr_echo.c **** *
 148:.\Generated_Source\PSoC5/isr_echo.c **** * Summary:
 149:.\Generated_Source\PSoC5/isr_echo.c **** *   The default Interrupt Service Routine for isr_echo.
 150:.\Generated_Source\PSoC5/isr_echo.c **** *
 151:.\Generated_Source\PSoC5/isr_echo.c **** *   Add custom code between the coments to keep the next version of this file
 152:.\Generated_Source\PSoC5/isr_echo.c **** *   from over writting your code.
 153:.\Generated_Source\PSoC5/isr_echo.c **** *
 154:.\Generated_Source\PSoC5/isr_echo.c **** * Parameters:  
 155:.\Generated_Source\PSoC5/isr_echo.c **** *
 156:.\Generated_Source\PSoC5/isr_echo.c **** * Return:
 157:.\Generated_Source\PSoC5/isr_echo.c **** *   None
 158:.\Generated_Source\PSoC5/isr_echo.c **** *
 159:.\Generated_Source\PSoC5/isr_echo.c **** *******************************************************************************/
 160:.\Generated_Source\PSoC5/isr_echo.c **** CY_ISR(isr_echo_Interrupt)
 161:.\Generated_Source\PSoC5/isr_echo.c **** {
  27              		.loc 1 161 0
  28              		.cfi_startproc
  29              		@ args = 0, pretend = 0, frame = 0
  30              		@ frame_needed = 0, uses_anonymous_args = 0
  31              		@ link register save eliminated.
  32              	.LVL0:
  33 0000 7047     		bx	lr
  34              		.cfi_endproc
  35              	.LFE3:
  36              		.size	isr_echo_Interrupt, .-isr_echo_Interrupt
  37 0002 00BF     		.section	.text.isr_echo_SetVector,"ax",%progbits
  38              		.align	2
  39              		.global	isr_echo_SetVector
  40              		.thumb
  41              		.thumb_func
  42              		.type	isr_echo_SetVector, %function
  43              	isr_echo_SetVector:
  44              	.LFB4:
 162:.\Generated_Source\PSoC5/isr_echo.c ****     #ifdef isr_echo_INTERRUPT_INTERRUPT_CALLBACK
 163:.\Generated_Source\PSoC5/isr_echo.c ****         isr_echo_Interrupt_InterruptCallback();
 164:.\Generated_Source\PSoC5/isr_echo.c ****     #endif /* isr_echo_INTERRUPT_INTERRUPT_CALLBACK */ 
 165:.\Generated_Source\PSoC5/isr_echo.c **** 
 166:.\Generated_Source\PSoC5/isr_echo.c ****     /*  Place your Interrupt code here. */
 167:.\Generated_Source\PSoC5/isr_echo.c ****     /* `#START isr_echo_Interrupt` */
 168:.\Generated_Source\PSoC5/isr_echo.c ****     uint8 count;
 169:.\Generated_Source\PSoC5/isr_echo.c ****     
 170:.\Generated_Source\PSoC5/isr_echo.c ****     count = 1;
 171:.\Generated_Source\PSoC5/isr_echo.c ****     /* `#END` */
 172:.\Generated_Source\PSoC5/isr_echo.c **** }
 173:.\Generated_Source\PSoC5/isr_echo.c **** 
 174:.\Generated_Source\PSoC5/isr_echo.c **** 
 175:.\Generated_Source\PSoC5/isr_echo.c **** /*******************************************************************************
 176:.\Generated_Source\PSoC5/isr_echo.c **** * Function Name: isr_echo_SetVector
 177:.\Generated_Source\PSoC5/isr_echo.c **** ********************************************************************************
 178:.\Generated_Source\PSoC5/isr_echo.c **** *
 179:.\Generated_Source\PSoC5/isr_echo.c **** * Summary:
 180:.\Generated_Source\PSoC5/isr_echo.c **** *   Change the ISR vector for the Interrupt. Note calling isr_echo_Start
 181:.\Generated_Source\PSoC5/isr_echo.c **** *   will override any effect this method would have had. To set the vector 
 182:.\Generated_Source\PSoC5/isr_echo.c **** *   before the component has been started use isr_echo_StartEx instead.
 183:.\Generated_Source\PSoC5/isr_echo.c **** * 
 184:.\Generated_Source\PSoC5/isr_echo.c **** *   When defining ISR functions, the CY_ISR and CY_ISR_PROTO macros should be 
ARM GAS  C:\Users\pxc\AppData\Local\Temp\ccUsaYck.s 			page 5


 185:.\Generated_Source\PSoC5/isr_echo.c **** *   used to provide consistent definition across compilers:
 186:.\Generated_Source\PSoC5/isr_echo.c **** *
 187:.\Generated_Source\PSoC5/isr_echo.c **** *   Function definition example:
 188:.\Generated_Source\PSoC5/isr_echo.c **** *   CY_ISR(MyISR)
 189:.\Generated_Source\PSoC5/isr_echo.c **** *   {
 190:.\Generated_Source\PSoC5/isr_echo.c **** *   }
 191:.\Generated_Source\PSoC5/isr_echo.c **** *
 192:.\Generated_Source\PSoC5/isr_echo.c **** *   Function prototype example:
 193:.\Generated_Source\PSoC5/isr_echo.c **** *     CY_ISR_PROTO(MyISR);
 194:.\Generated_Source\PSoC5/isr_echo.c **** *
 195:.\Generated_Source\PSoC5/isr_echo.c **** * Parameters:
 196:.\Generated_Source\PSoC5/isr_echo.c **** *   address: Address of the ISR to set in the interrupt vector table.
 197:.\Generated_Source\PSoC5/isr_echo.c **** *
 198:.\Generated_Source\PSoC5/isr_echo.c **** * Return:
 199:.\Generated_Source\PSoC5/isr_echo.c **** *   None
 200:.\Generated_Source\PSoC5/isr_echo.c **** *
 201:.\Generated_Source\PSoC5/isr_echo.c **** *******************************************************************************/
 202:.\Generated_Source\PSoC5/isr_echo.c **** void isr_echo_SetVector(cyisraddress address)
 203:.\Generated_Source\PSoC5/isr_echo.c **** {
  45              		.loc 1 203 0
  46              		.cfi_startproc
  47              		@ args = 0, pretend = 0, frame = 0
  48              		@ frame_needed = 0, uses_anonymous_args = 0
  49              		@ link register save eliminated.
  50              	.LVL1:
 204:.\Generated_Source\PSoC5/isr_echo.c ****     cyisraddress * ramVectorTable;
 205:.\Generated_Source\PSoC5/isr_echo.c **** 
 206:.\Generated_Source\PSoC5/isr_echo.c ****     ramVectorTable = (cyisraddress *) *CYINT_VECT_TABLE;
  51              		.loc 1 206 0
  52 0000 014B     		ldr	r3, .L3
  53 0002 1B68     		ldr	r3, [r3]
  54              	.LVL2:
 207:.\Generated_Source\PSoC5/isr_echo.c **** 
 208:.\Generated_Source\PSoC5/isr_echo.c ****     ramVectorTable[CYINT_IRQ_BASE + (uint32)isr_echo__INTC_NUMBER] = address;
  55              		.loc 1 208 0
  56 0004 D864     		str	r0, [r3, #76]
  57 0006 7047     		bx	lr
  58              	.L4:
  59              		.align	2
  60              	.L3:
  61 0008 08ED00E0 		.word	-536810232
  62              		.cfi_endproc
  63              	.LFE4:
  64              		.size	isr_echo_SetVector, .-isr_echo_SetVector
  65              		.section	.text.isr_echo_GetVector,"ax",%progbits
  66              		.align	2
  67              		.global	isr_echo_GetVector
  68              		.thumb
  69              		.thumb_func
  70              		.type	isr_echo_GetVector, %function
  71              	isr_echo_GetVector:
  72              	.LFB5:
 209:.\Generated_Source\PSoC5/isr_echo.c **** }
 210:.\Generated_Source\PSoC5/isr_echo.c **** 
 211:.\Generated_Source\PSoC5/isr_echo.c **** 
 212:.\Generated_Source\PSoC5/isr_echo.c **** /*******************************************************************************
 213:.\Generated_Source\PSoC5/isr_echo.c **** * Function Name: isr_echo_GetVector
ARM GAS  C:\Users\pxc\AppData\Local\Temp\ccUsaYck.s 			page 6


 214:.\Generated_Source\PSoC5/isr_echo.c **** ********************************************************************************
 215:.\Generated_Source\PSoC5/isr_echo.c **** *
 216:.\Generated_Source\PSoC5/isr_echo.c **** * Summary:
 217:.\Generated_Source\PSoC5/isr_echo.c **** *   Gets the "address" of the current ISR vector for the Interrupt.
 218:.\Generated_Source\PSoC5/isr_echo.c **** *
 219:.\Generated_Source\PSoC5/isr_echo.c **** * Parameters:
 220:.\Generated_Source\PSoC5/isr_echo.c **** *   None
 221:.\Generated_Source\PSoC5/isr_echo.c **** *
 222:.\Generated_Source\PSoC5/isr_echo.c **** * Return:
 223:.\Generated_Source\PSoC5/isr_echo.c **** *   Address of the ISR in the interrupt vector table.
 224:.\Generated_Source\PSoC5/isr_echo.c **** *
 225:.\Generated_Source\PSoC5/isr_echo.c **** *******************************************************************************/
 226:.\Generated_Source\PSoC5/isr_echo.c **** cyisraddress isr_echo_GetVector(void)
 227:.\Generated_Source\PSoC5/isr_echo.c **** {
  73              		.loc 1 227 0
  74              		.cfi_startproc
  75              		@ args = 0, pretend = 0, frame = 0
  76              		@ frame_needed = 0, uses_anonymous_args = 0
  77              		@ link register save eliminated.
 228:.\Generated_Source\PSoC5/isr_echo.c ****     cyisraddress * ramVectorTable;
 229:.\Generated_Source\PSoC5/isr_echo.c **** 
 230:.\Generated_Source\PSoC5/isr_echo.c ****     ramVectorTable = (cyisraddress *) *CYINT_VECT_TABLE;
  78              		.loc 1 230 0
  79 0000 014B     		ldr	r3, .L6
  80 0002 1B68     		ldr	r3, [r3]
  81              	.LVL3:
 231:.\Generated_Source\PSoC5/isr_echo.c **** 
 232:.\Generated_Source\PSoC5/isr_echo.c ****     return ramVectorTable[CYINT_IRQ_BASE + (uint32)isr_echo__INTC_NUMBER];
 233:.\Generated_Source\PSoC5/isr_echo.c **** }
  82              		.loc 1 233 0
  83 0004 D86C     		ldr	r0, [r3, #76]
  84 0006 7047     		bx	lr
  85              	.L7:
  86              		.align	2
  87              	.L6:
  88 0008 08ED00E0 		.word	-536810232
  89              		.cfi_endproc
  90              	.LFE5:
  91              		.size	isr_echo_GetVector, .-isr_echo_GetVector
  92              		.section	.text.isr_echo_SetPriority,"ax",%progbits
  93              		.align	2
  94              		.global	isr_echo_SetPriority
  95              		.thumb
  96              		.thumb_func
  97              		.type	isr_echo_SetPriority, %function
  98              	isr_echo_SetPriority:
  99              	.LFB6:
 234:.\Generated_Source\PSoC5/isr_echo.c **** 
 235:.\Generated_Source\PSoC5/isr_echo.c **** 
 236:.\Generated_Source\PSoC5/isr_echo.c **** /*******************************************************************************
 237:.\Generated_Source\PSoC5/isr_echo.c **** * Function Name: isr_echo_SetPriority
 238:.\Generated_Source\PSoC5/isr_echo.c **** ********************************************************************************
 239:.\Generated_Source\PSoC5/isr_echo.c **** *
 240:.\Generated_Source\PSoC5/isr_echo.c **** * Summary:
 241:.\Generated_Source\PSoC5/isr_echo.c **** *   Sets the Priority of the Interrupt. 
 242:.\Generated_Source\PSoC5/isr_echo.c **** *
 243:.\Generated_Source\PSoC5/isr_echo.c **** *   Note calling isr_echo_Start or isr_echo_StartEx will 
ARM GAS  C:\Users\pxc\AppData\Local\Temp\ccUsaYck.s 			page 7


 244:.\Generated_Source\PSoC5/isr_echo.c **** *   override any effect this API would have had. This API should only be called
 245:.\Generated_Source\PSoC5/isr_echo.c **** *   after isr_echo_Start or isr_echo_StartEx has been called. 
 246:.\Generated_Source\PSoC5/isr_echo.c **** *   To set the initial priority for the component, use the Design-Wide Resources
 247:.\Generated_Source\PSoC5/isr_echo.c **** *   Interrupt Editor.
 248:.\Generated_Source\PSoC5/isr_echo.c **** *
 249:.\Generated_Source\PSoC5/isr_echo.c **** *   Note This API has no effect on Non-maskable interrupt NMI).
 250:.\Generated_Source\PSoC5/isr_echo.c **** *
 251:.\Generated_Source\PSoC5/isr_echo.c **** * Parameters:
 252:.\Generated_Source\PSoC5/isr_echo.c **** *   priority: Priority of the interrupt, 0 being the highest priority
 253:.\Generated_Source\PSoC5/isr_echo.c **** *             PSoC 3 and PSoC 5LP: Priority is from 0 to 7.
 254:.\Generated_Source\PSoC5/isr_echo.c **** *             PSoC 4: Priority is from 0 to 3.
 255:.\Generated_Source\PSoC5/isr_echo.c **** *
 256:.\Generated_Source\PSoC5/isr_echo.c **** * Return:
 257:.\Generated_Source\PSoC5/isr_echo.c **** *   None
 258:.\Generated_Source\PSoC5/isr_echo.c **** *
 259:.\Generated_Source\PSoC5/isr_echo.c **** *******************************************************************************/
 260:.\Generated_Source\PSoC5/isr_echo.c **** void isr_echo_SetPriority(uint8 priority)
 261:.\Generated_Source\PSoC5/isr_echo.c **** {
 100              		.loc 1 261 0
 101              		.cfi_startproc
 102              		@ args = 0, pretend = 0, frame = 0
 103              		@ frame_needed = 0, uses_anonymous_args = 0
 104              		@ link register save eliminated.
 105              	.LVL4:
 262:.\Generated_Source\PSoC5/isr_echo.c ****     *isr_echo_INTC_PRIOR = priority << 5;
 106              		.loc 1 262 0
 107 0000 4001     		lsls	r0, r0, #5
 108              	.LVL5:
 109 0002 C0B2     		uxtb	r0, r0
 110 0004 014B     		ldr	r3, .L9
 111 0006 1870     		strb	r0, [r3]
 112 0008 7047     		bx	lr
 113              	.L10:
 114 000a 00BF     		.align	2
 115              	.L9:
 116 000c 03E400E0 		.word	-536812541
 117              		.cfi_endproc
 118              	.LFE6:
 119              		.size	isr_echo_SetPriority, .-isr_echo_SetPriority
 120              		.section	.text.isr_echo_GetPriority,"ax",%progbits
 121              		.align	2
 122              		.global	isr_echo_GetPriority
 123              		.thumb
 124              		.thumb_func
 125              		.type	isr_echo_GetPriority, %function
 126              	isr_echo_GetPriority:
 127              	.LFB7:
 263:.\Generated_Source\PSoC5/isr_echo.c **** }
 264:.\Generated_Source\PSoC5/isr_echo.c **** 
 265:.\Generated_Source\PSoC5/isr_echo.c **** 
 266:.\Generated_Source\PSoC5/isr_echo.c **** /*******************************************************************************
 267:.\Generated_Source\PSoC5/isr_echo.c **** * Function Name: isr_echo_GetPriority
 268:.\Generated_Source\PSoC5/isr_echo.c **** ********************************************************************************
 269:.\Generated_Source\PSoC5/isr_echo.c **** *
 270:.\Generated_Source\PSoC5/isr_echo.c **** * Summary:
 271:.\Generated_Source\PSoC5/isr_echo.c **** *   Gets the Priority of the Interrupt.
 272:.\Generated_Source\PSoC5/isr_echo.c **** *
ARM GAS  C:\Users\pxc\AppData\Local\Temp\ccUsaYck.s 			page 8


 273:.\Generated_Source\PSoC5/isr_echo.c **** * Parameters:
 274:.\Generated_Source\PSoC5/isr_echo.c **** *   None
 275:.\Generated_Source\PSoC5/isr_echo.c **** *
 276:.\Generated_Source\PSoC5/isr_echo.c **** * Return:
 277:.\Generated_Source\PSoC5/isr_echo.c **** *   Priority of the interrupt, 0 being the highest priority
 278:.\Generated_Source\PSoC5/isr_echo.c **** *    PSoC 3 and PSoC 5LP: Priority is from 0 to 7.
 279:.\Generated_Source\PSoC5/isr_echo.c **** *    PSoC 4: Priority is from 0 to 3.
 280:.\Generated_Source\PSoC5/isr_echo.c **** *
 281:.\Generated_Source\PSoC5/isr_echo.c **** *******************************************************************************/
 282:.\Generated_Source\PSoC5/isr_echo.c **** uint8 isr_echo_GetPriority(void)
 283:.\Generated_Source\PSoC5/isr_echo.c **** {
 128              		.loc 1 283 0
 129              		.cfi_startproc
 130              		@ args = 0, pretend = 0, frame = 0
 131              		@ frame_needed = 0, uses_anonymous_args = 0
 132              		@ link register save eliminated.
 284:.\Generated_Source\PSoC5/isr_echo.c ****     uint8 priority;
 285:.\Generated_Source\PSoC5/isr_echo.c **** 
 286:.\Generated_Source\PSoC5/isr_echo.c **** 
 287:.\Generated_Source\PSoC5/isr_echo.c ****     priority = *isr_echo_INTC_PRIOR >> 5;
 133              		.loc 1 287 0
 134 0000 014B     		ldr	r3, .L12
 135 0002 1878     		ldrb	r0, [r3]	@ zero_extendqisi2
 136              	.LVL6:
 288:.\Generated_Source\PSoC5/isr_echo.c **** 
 289:.\Generated_Source\PSoC5/isr_echo.c ****     return priority;
 290:.\Generated_Source\PSoC5/isr_echo.c **** }
 137              		.loc 1 290 0
 138 0004 4009     		lsrs	r0, r0, #5
 139              	.LVL7:
 140 0006 7047     		bx	lr
 141              	.L13:
 142              		.align	2
 143              	.L12:
 144 0008 03E400E0 		.word	-536812541
 145              		.cfi_endproc
 146              	.LFE7:
 147              		.size	isr_echo_GetPriority, .-isr_echo_GetPriority
 148              		.section	.text.isr_echo_Enable,"ax",%progbits
 149              		.align	2
 150              		.global	isr_echo_Enable
 151              		.thumb
 152              		.thumb_func
 153              		.type	isr_echo_Enable, %function
 154              	isr_echo_Enable:
 155              	.LFB8:
 291:.\Generated_Source\PSoC5/isr_echo.c **** 
 292:.\Generated_Source\PSoC5/isr_echo.c **** 
 293:.\Generated_Source\PSoC5/isr_echo.c **** /*******************************************************************************
 294:.\Generated_Source\PSoC5/isr_echo.c **** * Function Name: isr_echo_Enable
 295:.\Generated_Source\PSoC5/isr_echo.c **** ********************************************************************************
 296:.\Generated_Source\PSoC5/isr_echo.c **** *
 297:.\Generated_Source\PSoC5/isr_echo.c **** * Summary:
 298:.\Generated_Source\PSoC5/isr_echo.c **** *   Enables the interrupt to the interrupt controller. Do not call this function
 299:.\Generated_Source\PSoC5/isr_echo.c **** *   unless ISR_Start() has been called or the functionality of the ISR_Start() 
 300:.\Generated_Source\PSoC5/isr_echo.c **** *   function, which sets the vector and the priority, has been called.
 301:.\Generated_Source\PSoC5/isr_echo.c **** *
ARM GAS  C:\Users\pxc\AppData\Local\Temp\ccUsaYck.s 			page 9


 302:.\Generated_Source\PSoC5/isr_echo.c **** * Parameters:
 303:.\Generated_Source\PSoC5/isr_echo.c **** *   None
 304:.\Generated_Source\PSoC5/isr_echo.c **** *
 305:.\Generated_Source\PSoC5/isr_echo.c **** * Return:
 306:.\Generated_Source\PSoC5/isr_echo.c **** *   None
 307:.\Generated_Source\PSoC5/isr_echo.c **** *
 308:.\Generated_Source\PSoC5/isr_echo.c **** *******************************************************************************/
 309:.\Generated_Source\PSoC5/isr_echo.c **** void isr_echo_Enable(void)
 310:.\Generated_Source\PSoC5/isr_echo.c **** {
 156              		.loc 1 310 0
 157              		.cfi_startproc
 158              		@ args = 0, pretend = 0, frame = 0
 159              		@ frame_needed = 0, uses_anonymous_args = 0
 160              		@ link register save eliminated.
 311:.\Generated_Source\PSoC5/isr_echo.c ****     /* Enable the general interrupt. */
 312:.\Generated_Source\PSoC5/isr_echo.c ****     *isr_echo_INTC_SET_EN = isr_echo__INTC_MASK;
 161              		.loc 1 312 0
 162 0000 0822     		movs	r2, #8
 163 0002 014B     		ldr	r3, .L15
 164 0004 1A60     		str	r2, [r3]
 165 0006 7047     		bx	lr
 166              	.L16:
 167              		.align	2
 168              	.L15:
 169 0008 00E100E0 		.word	-536813312
 170              		.cfi_endproc
 171              	.LFE8:
 172              		.size	isr_echo_Enable, .-isr_echo_Enable
 173              		.section	.text.isr_echo_GetState,"ax",%progbits
 174              		.align	2
 175              		.global	isr_echo_GetState
 176              		.thumb
 177              		.thumb_func
 178              		.type	isr_echo_GetState, %function
 179              	isr_echo_GetState:
 180              	.LFB9:
 313:.\Generated_Source\PSoC5/isr_echo.c **** }
 314:.\Generated_Source\PSoC5/isr_echo.c **** 
 315:.\Generated_Source\PSoC5/isr_echo.c **** 
 316:.\Generated_Source\PSoC5/isr_echo.c **** /*******************************************************************************
 317:.\Generated_Source\PSoC5/isr_echo.c **** * Function Name: isr_echo_GetState
 318:.\Generated_Source\PSoC5/isr_echo.c **** ********************************************************************************
 319:.\Generated_Source\PSoC5/isr_echo.c **** *
 320:.\Generated_Source\PSoC5/isr_echo.c **** * Summary:
 321:.\Generated_Source\PSoC5/isr_echo.c **** *   Gets the state (enabled, disabled) of the Interrupt.
 322:.\Generated_Source\PSoC5/isr_echo.c **** *
 323:.\Generated_Source\PSoC5/isr_echo.c **** * Parameters:
 324:.\Generated_Source\PSoC5/isr_echo.c **** *   None
 325:.\Generated_Source\PSoC5/isr_echo.c **** *
 326:.\Generated_Source\PSoC5/isr_echo.c **** * Return:
 327:.\Generated_Source\PSoC5/isr_echo.c **** *   1 if enabled, 0 if disabled.
 328:.\Generated_Source\PSoC5/isr_echo.c **** *
 329:.\Generated_Source\PSoC5/isr_echo.c **** *******************************************************************************/
 330:.\Generated_Source\PSoC5/isr_echo.c **** uint8 isr_echo_GetState(void)
 331:.\Generated_Source\PSoC5/isr_echo.c **** {
 181              		.loc 1 331 0
 182              		.cfi_startproc
ARM GAS  C:\Users\pxc\AppData\Local\Temp\ccUsaYck.s 			page 10


 183              		@ args = 0, pretend = 0, frame = 0
 184              		@ frame_needed = 0, uses_anonymous_args = 0
 185              		@ link register save eliminated.
 332:.\Generated_Source\PSoC5/isr_echo.c ****     /* Get the state of the general interrupt. */
 333:.\Generated_Source\PSoC5/isr_echo.c ****     return ((*isr_echo_INTC_SET_EN & (uint32)isr_echo__INTC_MASK) != 0u) ? 1u:0u;
 186              		.loc 1 333 0
 187 0000 044B     		ldr	r3, .L20
 188 0002 1B68     		ldr	r3, [r3]
 189 0004 13F0080F 		tst	r3, #8
 190 0008 01D0     		beq	.L19
 191 000a 0120     		movs	r0, #1
 192 000c 7047     		bx	lr
 193              	.L19:
 194 000e 0020     		movs	r0, #0
 334:.\Generated_Source\PSoC5/isr_echo.c **** }
 195              		.loc 1 334 0
 196 0010 7047     		bx	lr
 197              	.L21:
 198 0012 00BF     		.align	2
 199              	.L20:
 200 0014 00E100E0 		.word	-536813312
 201              		.cfi_endproc
 202              	.LFE9:
 203              		.size	isr_echo_GetState, .-isr_echo_GetState
 204              		.section	.text.isr_echo_Disable,"ax",%progbits
 205              		.align	2
 206              		.global	isr_echo_Disable
 207              		.thumb
 208              		.thumb_func
 209              		.type	isr_echo_Disable, %function
 210              	isr_echo_Disable:
 211              	.LFB10:
 335:.\Generated_Source\PSoC5/isr_echo.c **** 
 336:.\Generated_Source\PSoC5/isr_echo.c **** 
 337:.\Generated_Source\PSoC5/isr_echo.c **** /*******************************************************************************
 338:.\Generated_Source\PSoC5/isr_echo.c **** * Function Name: isr_echo_Disable
 339:.\Generated_Source\PSoC5/isr_echo.c **** ********************************************************************************
 340:.\Generated_Source\PSoC5/isr_echo.c **** *
 341:.\Generated_Source\PSoC5/isr_echo.c **** * Summary:
 342:.\Generated_Source\PSoC5/isr_echo.c **** *   Disables the Interrupt in the interrupt controller.
 343:.\Generated_Source\PSoC5/isr_echo.c **** *
 344:.\Generated_Source\PSoC5/isr_echo.c **** * Parameters:
 345:.\Generated_Source\PSoC5/isr_echo.c **** *   None
 346:.\Generated_Source\PSoC5/isr_echo.c **** *
 347:.\Generated_Source\PSoC5/isr_echo.c **** * Return:
 348:.\Generated_Source\PSoC5/isr_echo.c **** *   None
 349:.\Generated_Source\PSoC5/isr_echo.c **** *
 350:.\Generated_Source\PSoC5/isr_echo.c **** *******************************************************************************/
 351:.\Generated_Source\PSoC5/isr_echo.c **** void isr_echo_Disable(void)
 352:.\Generated_Source\PSoC5/isr_echo.c **** {
 212              		.loc 1 352 0
 213              		.cfi_startproc
 214              		@ args = 0, pretend = 0, frame = 0
 215              		@ frame_needed = 0, uses_anonymous_args = 0
 216              		@ link register save eliminated.
 353:.\Generated_Source\PSoC5/isr_echo.c ****     /* Disable the general interrupt. */
 354:.\Generated_Source\PSoC5/isr_echo.c ****     *isr_echo_INTC_CLR_EN = isr_echo__INTC_MASK;
ARM GAS  C:\Users\pxc\AppData\Local\Temp\ccUsaYck.s 			page 11


 217              		.loc 1 354 0
 218 0000 0822     		movs	r2, #8
 219 0002 014B     		ldr	r3, .L23
 220 0004 1A60     		str	r2, [r3]
 221 0006 7047     		bx	lr
 222              	.L24:
 223              		.align	2
 224              	.L23:
 225 0008 80E100E0 		.word	-536813184
 226              		.cfi_endproc
 227              	.LFE10:
 228              		.size	isr_echo_Disable, .-isr_echo_Disable
 229              		.section	.text.isr_echo_Start,"ax",%progbits
 230              		.align	2
 231              		.global	isr_echo_Start
 232              		.thumb
 233              		.thumb_func
 234              		.type	isr_echo_Start, %function
 235              	isr_echo_Start:
 236              	.LFB0:
  62:.\Generated_Source\PSoC5/isr_echo.c ****     /* For all we know the interrupt is active. */
 237              		.loc 1 62 0
 238              		.cfi_startproc
 239              		@ args = 0, pretend = 0, frame = 0
 240              		@ frame_needed = 0, uses_anonymous_args = 0
 241 0000 08B5     		push	{r3, lr}
 242              		.cfi_def_cfa_offset 8
 243              		.cfi_offset 3, -8
 244              		.cfi_offset 14, -4
  64:.\Generated_Source\PSoC5/isr_echo.c **** 
 245              		.loc 1 64 0
 246 0002 FFF7FEFF 		bl	isr_echo_Disable
 247              	.LVL8:
  67:.\Generated_Source\PSoC5/isr_echo.c **** 
 248              		.loc 1 67 0
 249 0006 0448     		ldr	r0, .L27
 250 0008 FFF7FEFF 		bl	isr_echo_SetVector
 251              	.LVL9:
  70:.\Generated_Source\PSoC5/isr_echo.c **** 
 252              		.loc 1 70 0
 253 000c 0720     		movs	r0, #7
 254 000e FFF7FEFF 		bl	isr_echo_SetPriority
 255              	.LVL10:
  73:.\Generated_Source\PSoC5/isr_echo.c **** }
 256              		.loc 1 73 0
 257 0012 FFF7FEFF 		bl	isr_echo_Enable
 258              	.LVL11:
 259 0016 08BD     		pop	{r3, pc}
 260              	.L28:
 261              		.align	2
 262              	.L27:
 263 0018 00000000 		.word	isr_echo_Interrupt
 264              		.cfi_endproc
 265              	.LFE0:
 266              		.size	isr_echo_Start, .-isr_echo_Start
 267              		.section	.text.isr_echo_StartEx,"ax",%progbits
 268              		.align	2
ARM GAS  C:\Users\pxc\AppData\Local\Temp\ccUsaYck.s 			page 12


 269              		.global	isr_echo_StartEx
 270              		.thumb
 271              		.thumb_func
 272              		.type	isr_echo_StartEx, %function
 273              	isr_echo_StartEx:
 274              	.LFB1:
 105:.\Generated_Source\PSoC5/isr_echo.c ****     /* For all we know the interrupt is active. */
 275              		.loc 1 105 0
 276              		.cfi_startproc
 277              		@ args = 0, pretend = 0, frame = 0
 278              		@ frame_needed = 0, uses_anonymous_args = 0
 279              	.LVL12:
 280 0000 10B5     		push	{r4, lr}
 281              		.cfi_def_cfa_offset 8
 282              		.cfi_offset 4, -8
 283              		.cfi_offset 14, -4
 284 0002 0446     		mov	r4, r0
 107:.\Generated_Source\PSoC5/isr_echo.c **** 
 285              		.loc 1 107 0
 286 0004 FFF7FEFF 		bl	isr_echo_Disable
 287              	.LVL13:
 110:.\Generated_Source\PSoC5/isr_echo.c **** 
 288              		.loc 1 110 0
 289 0008 2046     		mov	r0, r4
 290 000a FFF7FEFF 		bl	isr_echo_SetVector
 291              	.LVL14:
 113:.\Generated_Source\PSoC5/isr_echo.c **** 
 292              		.loc 1 113 0
 293 000e 0720     		movs	r0, #7
 294 0010 FFF7FEFF 		bl	isr_echo_SetPriority
 295              	.LVL15:
 116:.\Generated_Source\PSoC5/isr_echo.c **** }
 296              		.loc 1 116 0
 297 0014 FFF7FEFF 		bl	isr_echo_Enable
 298              	.LVL16:
 299 0018 10BD     		pop	{r4, pc}
 300              		.cfi_endproc
 301              	.LFE1:
 302              		.size	isr_echo_StartEx, .-isr_echo_StartEx
 303 001a 00BF     		.section	.text.isr_echo_Stop,"ax",%progbits
 304              		.align	2
 305              		.global	isr_echo_Stop
 306              		.thumb
 307              		.thumb_func
 308              		.type	isr_echo_Stop, %function
 309              	isr_echo_Stop:
 310              	.LFB2:
 135:.\Generated_Source\PSoC5/isr_echo.c ****     /* Disable this interrupt. */
 311              		.loc 1 135 0
 312              		.cfi_startproc
 313              		@ args = 0, pretend = 0, frame = 0
 314              		@ frame_needed = 0, uses_anonymous_args = 0
 315 0000 08B5     		push	{r3, lr}
 316              		.cfi_def_cfa_offset 8
 317              		.cfi_offset 3, -8
 318              		.cfi_offset 14, -4
 137:.\Generated_Source\PSoC5/isr_echo.c **** 
ARM GAS  C:\Users\pxc\AppData\Local\Temp\ccUsaYck.s 			page 13


 319              		.loc 1 137 0
 320 0002 FFF7FEFF 		bl	isr_echo_Disable
 321              	.LVL17:
 140:.\Generated_Source\PSoC5/isr_echo.c **** }
 322              		.loc 1 140 0
 323 0006 0248     		ldr	r0, .L33
 324 0008 FFF7FEFF 		bl	isr_echo_SetVector
 325              	.LVL18:
 326 000c 08BD     		pop	{r3, pc}
 327              	.L34:
 328 000e 00BF     		.align	2
 329              	.L33:
 330 0010 00000000 		.word	IntDefaultHandler
 331              		.cfi_endproc
 332              	.LFE2:
 333              		.size	isr_echo_Stop, .-isr_echo_Stop
 334              		.section	.text.isr_echo_SetPending,"ax",%progbits
 335              		.align	2
 336              		.global	isr_echo_SetPending
 337              		.thumb
 338              		.thumb_func
 339              		.type	isr_echo_SetPending, %function
 340              	isr_echo_SetPending:
 341              	.LFB11:
 355:.\Generated_Source\PSoC5/isr_echo.c **** }
 356:.\Generated_Source\PSoC5/isr_echo.c **** 
 357:.\Generated_Source\PSoC5/isr_echo.c **** 
 358:.\Generated_Source\PSoC5/isr_echo.c **** /*******************************************************************************
 359:.\Generated_Source\PSoC5/isr_echo.c **** * Function Name: isr_echo_SetPending
 360:.\Generated_Source\PSoC5/isr_echo.c **** ********************************************************************************
 361:.\Generated_Source\PSoC5/isr_echo.c **** *
 362:.\Generated_Source\PSoC5/isr_echo.c **** * Summary:
 363:.\Generated_Source\PSoC5/isr_echo.c **** *   Causes the Interrupt to enter the pending state, a software method of
 364:.\Generated_Source\PSoC5/isr_echo.c **** *   generating the interrupt.
 365:.\Generated_Source\PSoC5/isr_echo.c **** *
 366:.\Generated_Source\PSoC5/isr_echo.c **** * Parameters:
 367:.\Generated_Source\PSoC5/isr_echo.c **** *   None
 368:.\Generated_Source\PSoC5/isr_echo.c **** *
 369:.\Generated_Source\PSoC5/isr_echo.c **** * Return:
 370:.\Generated_Source\PSoC5/isr_echo.c **** *   None
 371:.\Generated_Source\PSoC5/isr_echo.c **** *
 372:.\Generated_Source\PSoC5/isr_echo.c **** * Side Effects:
 373:.\Generated_Source\PSoC5/isr_echo.c **** *   If interrupts are enabled and the interrupt is set up properly, the ISR is
 374:.\Generated_Source\PSoC5/isr_echo.c **** *   entered (depending on the priority of this interrupt and other pending 
 375:.\Generated_Source\PSoC5/isr_echo.c **** *   interrupts).
 376:.\Generated_Source\PSoC5/isr_echo.c **** *
 377:.\Generated_Source\PSoC5/isr_echo.c **** *******************************************************************************/
 378:.\Generated_Source\PSoC5/isr_echo.c **** void isr_echo_SetPending(void)
 379:.\Generated_Source\PSoC5/isr_echo.c **** {
 342              		.loc 1 379 0
 343              		.cfi_startproc
 344              		@ args = 0, pretend = 0, frame = 0
 345              		@ frame_needed = 0, uses_anonymous_args = 0
 346              		@ link register save eliminated.
 380:.\Generated_Source\PSoC5/isr_echo.c ****     *isr_echo_INTC_SET_PD = isr_echo__INTC_MASK;
 347              		.loc 1 380 0
 348 0000 0822     		movs	r2, #8
ARM GAS  C:\Users\pxc\AppData\Local\Temp\ccUsaYck.s 			page 14


 349 0002 014B     		ldr	r3, .L36
 350 0004 1A60     		str	r2, [r3]
 351 0006 7047     		bx	lr
 352              	.L37:
 353              		.align	2
 354              	.L36:
 355 0008 00E200E0 		.word	-536813056
 356              		.cfi_endproc
 357              	.LFE11:
 358              		.size	isr_echo_SetPending, .-isr_echo_SetPending
 359              		.section	.text.isr_echo_ClearPending,"ax",%progbits
 360              		.align	2
 361              		.global	isr_echo_ClearPending
 362              		.thumb
 363              		.thumb_func
 364              		.type	isr_echo_ClearPending, %function
 365              	isr_echo_ClearPending:
 366              	.LFB12:
 381:.\Generated_Source\PSoC5/isr_echo.c **** }
 382:.\Generated_Source\PSoC5/isr_echo.c **** 
 383:.\Generated_Source\PSoC5/isr_echo.c **** 
 384:.\Generated_Source\PSoC5/isr_echo.c **** /*******************************************************************************
 385:.\Generated_Source\PSoC5/isr_echo.c **** * Function Name: isr_echo_ClearPending
 386:.\Generated_Source\PSoC5/isr_echo.c **** ********************************************************************************
 387:.\Generated_Source\PSoC5/isr_echo.c **** *
 388:.\Generated_Source\PSoC5/isr_echo.c **** * Summary:
 389:.\Generated_Source\PSoC5/isr_echo.c **** *   Clears a pending interrupt in the interrupt controller.
 390:.\Generated_Source\PSoC5/isr_echo.c **** *
 391:.\Generated_Source\PSoC5/isr_echo.c **** *   Note Some interrupt sources are clear-on-read and require the block 
 392:.\Generated_Source\PSoC5/isr_echo.c **** *   interrupt/status register to be read/cleared with the appropriate block API 
 393:.\Generated_Source\PSoC5/isr_echo.c **** *   (GPIO, UART, and so on). Otherwise the ISR will continue to remain in 
 394:.\Generated_Source\PSoC5/isr_echo.c **** *   pending state even though the interrupt itself is cleared using this API.
 395:.\Generated_Source\PSoC5/isr_echo.c **** *
 396:.\Generated_Source\PSoC5/isr_echo.c **** * Parameters:
 397:.\Generated_Source\PSoC5/isr_echo.c **** *   None
 398:.\Generated_Source\PSoC5/isr_echo.c **** *
 399:.\Generated_Source\PSoC5/isr_echo.c **** * Return:
 400:.\Generated_Source\PSoC5/isr_echo.c **** *   None
 401:.\Generated_Source\PSoC5/isr_echo.c **** *
 402:.\Generated_Source\PSoC5/isr_echo.c **** *******************************************************************************/
 403:.\Generated_Source\PSoC5/isr_echo.c **** void isr_echo_ClearPending(void)
 404:.\Generated_Source\PSoC5/isr_echo.c **** {
 367              		.loc 1 404 0
 368              		.cfi_startproc
 369              		@ args = 0, pretend = 0, frame = 0
 370              		@ frame_needed = 0, uses_anonymous_args = 0
 371              		@ link register save eliminated.
 405:.\Generated_Source\PSoC5/isr_echo.c ****     *isr_echo_INTC_CLR_PD = isr_echo__INTC_MASK;
 372              		.loc 1 405 0
 373 0000 0822     		movs	r2, #8
 374 0002 014B     		ldr	r3, .L39
 375 0004 1A60     		str	r2, [r3]
 376 0006 7047     		bx	lr
 377              	.L40:
 378              		.align	2
 379              	.L39:
 380 0008 80E200E0 		.word	-536812928
ARM GAS  C:\Users\pxc\AppData\Local\Temp\ccUsaYck.s 			page 15


 381              		.cfi_endproc
 382              	.LFE12:
 383              		.size	isr_echo_ClearPending, .-isr_echo_ClearPending
 384              		.text
 385              	.Letext0:
 386              		.file 2 "Generated_Source\\PSoC5/cytypes.h"