ARM GAS  C:\Users\PANXIA~1\AppData\Local\Temp\ccHaikkU.s 			page 1


   1              		.syntax unified
   2              		.cpu cortex-m3
   3              		.fpu softvfp
   4              		.eabi_attribute 20, 1
   5              		.eabi_attribute 21, 1
   6              		.eabi_attribute 23, 3
   7              		.eabi_attribute 24, 1
   8              		.eabi_attribute 25, 1
   9              		.eabi_attribute 26, 1
  10              		.eabi_attribute 30, 1
  11              		.eabi_attribute 34, 1
  12              		.eabi_attribute 18, 4
  13              		.thumb
  14              		.file	"led.c"
  15              		.text
  16              	.Ltext0:
  17              		.cfi_sections	.debug_frame
  18              		.section	.text.led_init,"ax",%progbits
  19              		.align	2
  20              		.global	led_init
  21              		.thumb
  22              		.thumb_func
  23              		.type	led_init, %function
  24              	led_init:
  25              	.LFB63:
  26              		.file 1 ".\\led.c"
   1:.\led.c       **** /* ========================================
   2:.\led.c       ****  *
   3:.\led.c       ****  * Copyright YOUR COMPANY, THE YEAR
   4:.\led.c       ****  * All Rights Reserved
   5:.\led.c       ****  * UNPUBLISHED, LICENSED SOFTWARE.
   6:.\led.c       ****  *
   7:.\led.c       ****  * CONFIDENTIAL AND PROPRIETARY INFORMATION
   8:.\led.c       ****  * WHICH IS THE PROPERTY OF your company.
   9:.\led.c       ****  *
  10:.\led.c       ****  * ========================================
  11:.\led.c       **** */
  12:.\led.c       **** 
  13:.\led.c       **** /* [] END OF FILE */
  14:.\led.c       **** #include "led.h"
  15:.\led.c       **** #include "car.h"
  16:.\led.c       **** 
  17:.\led.c       **** static uint8 led_togle;
  18:.\led.c       **** static uint8 led_num;
  19:.\led.c       **** static uint8 led_cur;
  20:.\led.c       **** static uint8 led_per;
  21:.\led.c       **** 
  22:.\led.c       **** void led_init()
  23:.\led.c       **** {
  27              		.loc 1 23 0
  28              		.cfi_startproc
  29              		@ args = 0, pretend = 0, frame = 0
  30              		@ frame_needed = 0, uses_anonymous_args = 0
  31              		@ link register save eliminated.
  32 0000 7047     		bx	lr
  33              		.cfi_endproc
  34              	.LFE63:
ARM GAS  C:\Users\PANXIA~1\AppData\Local\Temp\ccHaikkU.s 			page 2


  35              		.size	led_init, .-led_init
  36 0002 00BF     		.section	.text.LED_SET_NUM,"ax",%progbits
  37              		.align	2
  38              		.global	LED_SET_NUM
  39              		.thumb
  40              		.thumb_func
  41              		.type	LED_SET_NUM, %function
  42              	LED_SET_NUM:
  43              	.LFB64:
  24:.\led.c       ****     
  25:.\led.c       **** }
  26:.\led.c       **** void LED_SET_NUM(uint8 num)
  27:.\led.c       **** {
  44              		.loc 1 27 0
  45              		.cfi_startproc
  46              		@ args = 0, pretend = 0, frame = 0
  47              		@ frame_needed = 0, uses_anonymous_args = 0
  48              		@ link register save eliminated.
  49              	.LVL0:
  28:.\led.c       ****     led_num = num;
  50              		.loc 1 28 0
  51 0000 014B     		ldr	r3, .L3
  52 0002 1870     		strb	r0, [r3]
  53 0004 7047     		bx	lr
  54              	.L4:
  55 0006 00BF     		.align	2
  56              	.L3:
  57 0008 00000000 		.word	.LANCHOR0
  58              		.cfi_endproc
  59              	.LFE64:
  60              		.size	LED_SET_NUM, .-LED_SET_NUM
  61              		.section	.text.LED_loop,"ax",%progbits
  62              		.align	2
  63              		.global	LED_loop
  64              		.thumb
  65              		.thumb_func
  66              		.type	LED_loop, %function
  67              	LED_loop:
  68              	.LFB65:
  29:.\led.c       **** }
  30:.\led.c       **** void LED_loop()
  31:.\led.c       **** {
  69              		.loc 1 31 0
  70              		.cfi_startproc
  71              		@ args = 0, pretend = 0, frame = 0
  72              		@ frame_needed = 0, uses_anonymous_args = 0
  73 0000 08B5     		push	{r3, lr}
  74              		.cfi_def_cfa_offset 8
  75              		.cfi_offset 3, -8
  76              		.cfi_offset 14, -4
  32:.\led.c       ****     int i ;
  33:.\led.c       ****     
  34:.\led.c       ****     
  35:.\led.c       ****     if(led_num >0)
  77              		.loc 1 35 0
  78 0002 244B     		ldr	r3, .L12
  79 0004 1B78     		ldrb	r3, [r3]	@ zero_extendqisi2
ARM GAS  C:\Users\PANXIA~1\AppData\Local\Temp\ccHaikkU.s 			page 3


  80 0006 8BB3     		cbz	r3, .L6
  36:.\led.c       ****     {
  37:.\led.c       ****         led_togle ++;
  81              		.loc 1 37 0
  82 0008 224A     		ldr	r2, .L12
  83 000a 5378     		ldrb	r3, [r2, #1]	@ zero_extendqisi2
  84 000c 0133     		adds	r3, r3, #1
  85 000e DBB2     		uxtb	r3, r3
  86 0010 5370     		strb	r3, [r2, #1]
  38:.\led.c       ****         if(led_togle == 1)
  87              		.loc 1 38 0
  88 0012 012B     		cmp	r3, #1
  89 0014 0FD1     		bne	.L7
  39:.\led.c       ****         {
  40:.\led.c       ****           PWM_LED_1_WriteCompare(0);
  90              		.loc 1 40 0
  91 0016 0020     		movs	r0, #0
  92 0018 FFF7FEFF 		bl	PWM_LED_1_WriteCompare
  93              	.LVL1:
  41:.\led.c       ****           PWM_LED_2_WriteCompare(0);
  94              		.loc 1 41 0
  95 001c 0020     		movs	r0, #0
  96 001e FFF7FEFF 		bl	PWM_LED_2_WriteCompare
  97              	.LVL2:
  42:.\led.c       ****           PWM_LED_3_WriteCompare(0);
  98              		.loc 1 42 0
  99 0022 0020     		movs	r0, #0
 100 0024 FFF7FEFF 		bl	PWM_LED_3_WriteCompare
 101              	.LVL3:
  43:.\led.c       ****           PWM_LED_4_WriteCompare(0);
 102              		.loc 1 43 0
 103 0028 0020     		movs	r0, #0
 104 002a FFF7FEFF 		bl	PWM_LED_4_WriteCompare
 105              	.LVL4:
  44:.\led.c       ****         debug_time_Write(0);
 106              		.loc 1 44 0
 107 002e 0020     		movs	r0, #0
 108 0030 FFF7FEFF 		bl	debug_time_Write
 109              	.LVL5:
 110 0034 1AE0     		b	.L6
 111              	.L7:
  45:.\led.c       ****         }  
  46:.\led.c       ****         else if(led_togle == 2)
 112              		.loc 1 46 0
 113 0036 022B     		cmp	r3, #2
 114 0038 18D1     		bne	.L6
  47:.\led.c       ****         {   
  48:.\led.c       ****           PWM_LED_1_WriteCompare(10000);
 115              		.loc 1 48 0
 116 003a 42F21070 		movw	r0, #10000
 117 003e FFF7FEFF 		bl	PWM_LED_1_WriteCompare
 118              	.LVL6:
  49:.\led.c       ****           PWM_LED_2_WriteCompare(10000);
 119              		.loc 1 49 0
 120 0042 42F21070 		movw	r0, #10000
 121 0046 FFF7FEFF 		bl	PWM_LED_2_WriteCompare
 122              	.LVL7:
ARM GAS  C:\Users\PANXIA~1\AppData\Local\Temp\ccHaikkU.s 			page 4


  50:.\led.c       ****           PWM_LED_3_WriteCompare(10000);
 123              		.loc 1 50 0
 124 004a 42F21070 		movw	r0, #10000
 125 004e FFF7FEFF 		bl	PWM_LED_3_WriteCompare
 126              	.LVL8:
  51:.\led.c       ****           PWM_LED_4_WriteCompare(10000);
 127              		.loc 1 51 0
 128 0052 42F21070 		movw	r0, #10000
 129 0056 FFF7FEFF 		bl	PWM_LED_4_WriteCompare
 130              	.LVL9:
  52:.\led.c       ****            debug_time_Write(1);
 131              		.loc 1 52 0
 132 005a 0120     		movs	r0, #1
 133 005c FFF7FEFF 		bl	debug_time_Write
 134              	.LVL10:
  53:.\led.c       ****           led_togle = 0;
 135              		.loc 1 53 0
 136 0060 0C4B     		ldr	r3, .L12
 137 0062 0022     		movs	r2, #0
 138 0064 5A70     		strb	r2, [r3, #1]
  54:.\led.c       ****           led_num--;
 139              		.loc 1 54 0
 140 0066 1A78     		ldrb	r2, [r3]	@ zero_extendqisi2
 141 0068 013A     		subs	r2, r2, #1
 142 006a 1A70     		strb	r2, [r3]
 143              	.L6:
  55:.\led.c       ****         }
  56:.\led.c       ****     }
  57:.\led.c       ****     led_cur = g_Car.error;
 144              		.loc 1 57 0
 145 006c 0A4B     		ldr	r3, .L12+4
 146 006e 5B78     		ldrb	r3, [r3, #1]	@ zero_extendqisi2
 147 0070 084A     		ldr	r2, .L12
 148 0072 9370     		strb	r3, [r2, #2]
  58:.\led.c       ****     if(led_cur != led_per)
 149              		.loc 1 58 0
 150 0074 D278     		ldrb	r2, [r2, #3]	@ zero_extendqisi2
 151 0076 9342     		cmp	r3, r2
 152 0078 0BD0     		beq	.L5
  59:.\led.c       ****     {
  60:.\led.c       ****        if(g_Car.error == 1)
 153              		.loc 1 60 0
 154 007a 012B     		cmp	r3, #1
 155 007c 03D1     		bne	.L9
  61:.\led.c       ****        {
  62:.\led.c       ****          LED_SET_NUM(30);
 156              		.loc 1 62 0
 157 007e 1E20     		movs	r0, #30
 158 0080 FFF7FEFF 		bl	LED_SET_NUM
 159              	.LVL11:
 160 0084 02E0     		b	.L10
 161              	.L9:
  63:.\led.c       ****        }
  64:.\led.c       ****        else
  65:.\led.c       ****        {
  66:.\led.c       ****          LED_SET_NUM(1);
 162              		.loc 1 66 0
ARM GAS  C:\Users\PANXIA~1\AppData\Local\Temp\ccHaikkU.s 			page 5


 163 0086 0120     		movs	r0, #1
 164 0088 FFF7FEFF 		bl	LED_SET_NUM
 165              	.LVL12:
 166              	.L10:
  67:.\led.c       ****        }
  68:.\led.c       ****       led_per = led_cur;
 167              		.loc 1 68 0
 168 008c 014B     		ldr	r3, .L12
 169 008e 9A78     		ldrb	r2, [r3, #2]	@ zero_extendqisi2
 170 0090 DA70     		strb	r2, [r3, #3]
 171              	.L5:
 172 0092 08BD     		pop	{r3, pc}
 173              	.L13:
 174              		.align	2
 175              	.L12:
 176 0094 00000000 		.word	.LANCHOR0
 177 0098 00000000 		.word	g_Car
 178              		.cfi_endproc
 179              	.LFE65:
 180              		.size	LED_loop, .-LED_loop
 181              		.section	.text.LED_DIS_ERROR,"ax",%progbits
 182              		.align	2
 183              		.global	LED_DIS_ERROR
 184              		.thumb
 185              		.thumb_func
 186              		.type	LED_DIS_ERROR, %function
 187              	LED_DIS_ERROR:
 188              	.LFB66:
  69:.\led.c       ****     }
  70:.\led.c       **** 
  71:.\led.c       ****     
  72:.\led.c       **** 
  73:.\led.c       **** }
  74:.\led.c       **** 
  75:.\led.c       **** void LED_DIS_ERROR(uint8 num)
  76:.\led.c       **** {
 189              		.loc 1 76 0
 190              		.cfi_startproc
 191              		@ args = 0, pretend = 0, frame = 0
 192              		@ frame_needed = 0, uses_anonymous_args = 0
 193              		@ link register save eliminated.
 194              	.LVL13:
 195 0000 7047     		bx	lr
 196              		.cfi_endproc
 197              	.LFE66:
 198              		.size	LED_DIS_ERROR, .-LED_DIS_ERROR
 199              		.comm	g_Car,96,4
 200 0002 00BF     		.bss
 201              		.set	.LANCHOR0,. + 0
 202              		.type	led_num, %object
 203              		.size	led_num, 1
 204              	led_num:
 205 0000 00       		.space	1
 206              		.type	led_togle, %object
 207              		.size	led_togle, 1
 208              	led_togle:
 209 0001 00       		.space	1
ARM GAS  C:\Users\PANXIA~1\AppData\Local\Temp\ccHaikkU.s 			page 6


 210              		.type	led_cur, %object
 211              		.size	led_cur, 1
 212              	led_cur:
 213 0002 00       		.space	1
 214              		.type	led_per, %object
 215              		.size	led_per, 1
 216              	led_per:
 217 0003 00       		.space	1
 218              		.text
 219              	.Letext0:
 220              		.file 2 "d:\\program files (x86)\\cypress\\psoc creator\\3.3\\psoc creator\\import\\gnu\\arm\\4.9.
 221              		.file 3 "d:\\program files (x86)\\cypress\\psoc creator\\3.3\\psoc creator\\import\\gnu\\arm\\4.9.
 222              		.file 4 "Generated_Source\\PSoC5/cytypes.h"
 223              		.file 5 ".\\car.h"
 224              		.file 6 "Generated_Source\\PSoC5/core_cm3.h"
 225              		.file 7 "Generated_Source\\PSoC5/PWM_LED_1.h"
 226              		.file 8 "Generated_Source\\PSoC5/PWM_LED_2.h"
 227              		.file 9 "Generated_Source\\PSoC5/PWM_LED_3.h"
 228              		.file 10 "Generated_Source\\PSoC5/PWM_LED_4.h"
 229              		.file 11 "Generated_Source\\PSoC5/debug_time.h"