ARM GAS  C:\Users\PANXIA~1\AppData\Local\Temp\ccSiu7P5.s 			page 1


   1              		.syntax unified
   2              		.cpu cortex-m3
   3              		.fpu softvfp
   4              		.eabi_attribute 20, 1
   5              		.eabi_attribute 21, 1
   6              		.eabi_attribute 23, 3
   7              		.eabi_attribute 24, 1
   8              		.eabi_attribute 25, 1
   9              		.eabi_attribute 26, 1
  10              		.eabi_attribute 30, 1
  11              		.eabi_attribute 34, 1
  12              		.eabi_attribute 18, 4
  13              		.thumb
  14              		.file	"Lidar.c"
  15              		.text
  16              	.Ltext0:
  17              		.cfi_sections	.debug_frame
  18              		.section	.text.Lidar_init,"ax",%progbits
  19              		.align	2
  20              		.global	Lidar_init
  21              		.thumb
  22              		.thumb_func
  23              		.type	Lidar_init, %function
  24              	Lidar_init:
  25              	.LFB63:
  26              		.file 1 ".\\Lidar.c"
   1:.\Lidar.c     **** /* ========================================
   2:.\Lidar.c     ****  *
   3:.\Lidar.c     ****  * Copyright YOUR COMPANY, THE YEAR
   4:.\Lidar.c     ****  * All Rights Reserved
   5:.\Lidar.c     ****  * UNPUBLISHED, LICENSED SOFTWARE.
   6:.\Lidar.c     ****  *
   7:.\Lidar.c     ****  * CONFIDENTIAL AND PROPRIETARY INFORMATION
   8:.\Lidar.c     ****  * WHICH IS THE PROPERTY OF your company.
   9:.\Lidar.c     ****  *
  10:.\Lidar.c     ****  * ========================================
  11:.\Lidar.c     **** */
  12:.\Lidar.c     **** #include "Lidar.h"
  13:.\Lidar.c     **** #include "uart_net.h"
  14:.\Lidar.c     **** #include "UART_LIDAR.h"
  15:.\Lidar.c     **** #include "Transfer.h"
  16:.\Lidar.c     **** #include <stdio.h>
  17:.\Lidar.c     **** uint8 nodeBuffer[100];
  18:.\Lidar.c     **** uint8 net_nodeBuffer[100];
  19:.\Lidar.c     **** uint8 arrtest[5] = {0x01,0x02,0x03,0x04,0x05};
  20:.\Lidar.c     **** uint8 EXPRESS_SCAN[9] = {0xA5,0x82,0x05,00,00,00,00,00,0x22};
  21:.\Lidar.c     **** uint8 NORMAL_SCAN[2] =  {0xA5,0x20};
  22:.\Lidar.c     **** uint8 GET_HEALTH[2] =  {0xA5,0x52};
  23:.\Lidar.c     **** uint8  _is_previous_capsuledataRdy = true;
  24:.\Lidar.c     **** uint8 rx_lidar_flag =0;
  25:.\Lidar.c     **** uint8 rx_lidar_count = 0;
  26:.\Lidar.c     **** rplidar_response_capsule_measurement_nodes_t *node;
  27:.\Lidar.c     **** uint8 start;
  28:.\Lidar.c     **** uint8 end;
  29:.\Lidar.c     **** uint8 normal_size ;
  30:.\Lidar.c     **** uint8 output_t;
  31:.\Lidar.c     **** rplidar_response_measurement_node_t test1[500];
ARM GAS  C:\Users\PANXIA~1\AppData\Local\Temp\ccSiu7P5.s 			page 2


  32:.\Lidar.c     **** rplidar_response_measurement_node_t test2[500];
  33:.\Lidar.c     **** rplidar_response_measurement_node_t test3[500];
  34:.\Lidar.c     **** float test_f_suzu[500];
  35:.\Lidar.c     **** static uint8 test_i = 0;
  36:.\Lidar.c     **** static uint16 count;
  37:.\Lidar.c     **** uint8 ascendScanData(rplidar_response_measurement_node_t * nodebuffer, size_t count);
  38:.\Lidar.c     **** void Lidar_init()
  39:.\Lidar.c     **** {
  27              		.loc 1 39 0
  28              		.cfi_startproc
  29              		@ args = 0, pretend = 0, frame = 0
  30              		@ frame_needed = 0, uses_anonymous_args = 0
  31              		@ link register save eliminated.
  40:.\Lidar.c     ****     start = offsetof(rplidar_response_capsule_measurement_nodes_t, start_angle_sync_q6);
  32              		.loc 1 40 0
  33 0000 0222     		movs	r2, #2
  34 0002 044B     		ldr	r3, .L2
  35 0004 1A70     		strb	r2, [r3]
  41:.\Lidar.c     ****     end   =sizeof(rplidar_response_capsule_measurement_nodes_t);
  36              		.loc 1 41 0
  37 0006 5422     		movs	r2, #84
  38 0008 034B     		ldr	r3, .L2+4
  39 000a 1A70     		strb	r2, [r3]
  42:.\Lidar.c     ****     normal_size = sizeof(rplidar_response_measurement_node_t);
  40              		.loc 1 42 0
  41 000c 0522     		movs	r2, #5
  42 000e 034B     		ldr	r3, .L2+8
  43 0010 1A70     		strb	r2, [r3]
  44 0012 7047     		bx	lr
  45              	.L3:
  46              		.align	2
  47              	.L2:
  48 0014 00000000 		.word	start
  49 0018 00000000 		.word	end
  50 001c 00000000 		.word	normal_size
  51              		.cfi_endproc
  52              	.LFE63:
  53              		.size	Lidar_init, .-Lidar_init
  54              		.section	.text.Lidar_Normal_Data_Receive_Prepare_4,"ax",%progbits
  55              		.align	2
  56              		.global	Lidar_Normal_Data_Receive_Prepare_4
  57              		.thumb
  58              		.thumb_func
  59              		.type	Lidar_Normal_Data_Receive_Prepare_4, %function
  60              	Lidar_Normal_Data_Receive_Prepare_4:
  61              	.LFB64:
  43:.\Lidar.c     ****    // UART_LIDAR_PutArray(GET_HEALTH,sizeof(GET_HEALTH));
  44:.\Lidar.c     ****     
  45:.\Lidar.c     **** //    UART_LIDAR_PutArray(NORMAL_SCAN,sizeof(NORMAL_SCAN));
  46:.\Lidar.c     ****     
  47:.\Lidar.c     **** }
  48:.\Lidar.c     **** int  recvPos = 0;
  49:.\Lidar.c     **** #define RPLIDAR_RESP_MEASUREMENT_SYNCBIT        (0x1<<0)
  50:.\Lidar.c     **** #define RPLIDAR_RESP_MEASUREMENT_QUALITY_SHIFT  2
  51:.\Lidar.c     **** #define RPLIDAR_RESP_MEASUREMENT_CHECKBIT       (0x1<<0)
  52:.\Lidar.c     **** #define RPLIDAR_RESP_MEASUREMENT_ANGLE_SHIFT    1
  53:.\Lidar.c     **** rplidar_response_measurement_node_t nodeBuffer1;
ARM GAS  C:\Users\PANXIA~1\AppData\Local\Temp\ccSiu7P5.s 			page 3


  54:.\Lidar.c     **** void Lidar_Normal_Data_Receive_Prepare_4(uint8 data)
  55:.\Lidar.c     **** {
  62              		.loc 1 55 0
  63              		.cfi_startproc
  64              		@ args = 0, pretend = 0, frame = 0
  65              		@ frame_needed = 0, uses_anonymous_args = 0
  66              	.LVL0:
  67 0000 70B5     		push	{r4, r5, r6, lr}
  68              		.cfi_def_cfa_offset 16
  69              		.cfi_offset 4, -16
  70              		.cfi_offset 5, -12
  71              		.cfi_offset 6, -8
  72              		.cfi_offset 14, -4
  73 0002 0446     		mov	r4, r0
  56:.\Lidar.c     ****     uint8 tmp;
  57:.\Lidar.c     ****     uint16 test;
  58:.\Lidar.c     ****     float test_f;
  59:.\Lidar.c     **** 	static uint8 _data_len = 0,_data_cnt = 0;
  60:.\Lidar.c     **** 	static uint8 state = 0;
  61:.\Lidar.c     ****     
  62:.\Lidar.c     ****     tmp  = (data>>1);
  74              		.loc 1 62 0
  75 0004 4208     		lsrs	r2, r0, #1
  76              	.LVL1:
  63:.\Lidar.c     ****   
  64:.\Lidar.c     **** 	if(state==0&&(tmp ^ data) & 0x1)  //sys1
  77              		.loc 1 64 0
  78 0006 2D4B     		ldr	r3, .L12
  79 0008 1B78     		ldrb	r3, [r3]	@ zero_extendqisi2
  80 000a 63B9     		cbnz	r3, .L5
  81              		.loc 1 64 0 is_stmt 0 discriminator 1
  82 000c 4240     		eors	r2, r2, r0
  83              	.LVL2:
  84 000e 12F0010F 		tst	r2, #1
  85 0012 08D0     		beq	.L5
  65:.\Lidar.c     **** 	{
  66:.\Lidar.c     ****         debug_time_Write(1);
  86              		.loc 1 66 0 is_stmt 1
  87 0014 0120     		movs	r0, #1
  88              	.LVL3:
  89 0016 FFF7FEFF 		bl	debug_time_Write
  90              	.LVL4:
  67:.\Lidar.c     **** 		state=1;
  91              		.loc 1 67 0
  92 001a 0122     		movs	r2, #1
  93 001c 274B     		ldr	r3, .L12
  94 001e 1A70     		strb	r2, [r3]
  68:.\Lidar.c     **** 		nodeBuffer[0]=data;
  95              		.loc 1 68 0
  96 0020 274B     		ldr	r3, .L12+4
  97 0022 1C70     		strb	r4, [r3]
  98 0024 70BD     		pop	{r4, r5, r6, pc}
  99              	.LVL5:
 100              	.L5:
  69:.\Lidar.c     ****        //debug_time_Write(1);
  70:.\Lidar.c     **** 	}
  71:.\Lidar.c     ****     else if(state == 1 && ((data&0x1) == 1)) //
ARM GAS  C:\Users\PANXIA~1\AppData\Local\Temp\ccSiu7P5.s 			page 4


 101              		.loc 1 71 0
 102 0026 012B     		cmp	r3, #1
 103 0028 0ED1     		bne	.L7
 104              		.loc 1 71 0 is_stmt 0 discriminator 1
 105 002a 14F0010F 		tst	r4, #1
 106 002e 0BD0     		beq	.L7
 107              	.LVL6:
  72:.\Lidar.c     ****     {
  73:.\Lidar.c     ****         test = (tmp&0x1);
  74:.\Lidar.c     ****         state=2;
 108              		.loc 1 74 0 is_stmt 1
 109 0030 224B     		ldr	r3, .L12
 110 0032 0222     		movs	r2, #2
 111 0034 1A70     		strb	r2, [r3]
  75:.\Lidar.c     **** 		nodeBuffer[1]= data;
 112              		.loc 1 75 0
 113 0036 224A     		ldr	r2, .L12+4
 114 0038 5470     		strb	r4, [r2, #1]
  76:.\Lidar.c     ****         _data_cnt = 0;
 115              		.loc 1 76 0
 116 003a 0022     		movs	r2, #0
 117 003c 5A70     		strb	r2, [r3, #1]
  77:.\Lidar.c     ****         _data_len = normal_size-2;
 118              		.loc 1 77 0
 119 003e 214A     		ldr	r2, .L12+8
 120 0040 1278     		ldrb	r2, [r2]	@ zero_extendqisi2
 121 0042 023A     		subs	r2, r2, #2
 122 0044 9A70     		strb	r2, [r3, #2]
 123 0046 70BD     		pop	{r4, r5, r6, pc}
 124              	.LVL7:
 125              	.L7:
  78:.\Lidar.c     ****     }
  79:.\Lidar.c     **** 	else if(state== 2 && _data_len>0) //
 126              		.loc 1 79 0
 127 0048 022B     		cmp	r3, #2
 128 004a 32D1     		bne	.L8
 129              		.loc 1 79 0 is_stmt 0 discriminator 1
 130 004c 1B4B     		ldr	r3, .L12
 131 004e 9B78     		ldrb	r3, [r3, #2]	@ zero_extendqisi2
 132 0050 002B     		cmp	r3, #0
 133 0052 2ED0     		beq	.L8
  80:.\Lidar.c     **** 	{
  81:.\Lidar.c     **** 		_data_len--;
 134              		.loc 1 81 0 is_stmt 1
 135 0054 013B     		subs	r3, r3, #1
 136 0056 DBB2     		uxtb	r3, r3
 137 0058 1849     		ldr	r1, .L12
 138 005a 8B70     		strb	r3, [r1, #2]
  82:.\Lidar.c     **** 		nodeBuffer[2+_data_cnt++] = data;
 139              		.loc 1 82 0
 140 005c 4A78     		ldrb	r2, [r1, #1]	@ zero_extendqisi2
 141 005e 501C     		adds	r0, r2, #1
 142              	.LVL8:
 143 0060 4870     		strb	r0, [r1, #1]
 144 0062 0232     		adds	r2, r2, #2
 145 0064 1649     		ldr	r1, .L12+4
 146 0066 8C54     		strb	r4, [r1, r2]
ARM GAS  C:\Users\PANXIA~1\AppData\Local\Temp\ccSiu7P5.s 			page 5


  83:.\Lidar.c     ****    
  84:.\Lidar.c     **** 		if(_data_len == 0)
 147              		.loc 1 84 0
 148 0068 33BB     		cbnz	r3, .L4
  85:.\Lidar.c     ****         {
  86:.\Lidar.c     ****             count++;
 149              		.loc 1 86 0
 150 006a 144A     		ldr	r2, .L12
 151 006c 9388     		ldrh	r3, [r2, #4]
 152 006e 0133     		adds	r3, r3, #1
 153 0070 9380     		strh	r3, [r2, #4]	@ movhi
  87:.\Lidar.c     ****             if((nodeBuffer[0] & 0x1) ==1)
 154              		.loc 1 87 0
 155 0072 0B78     		ldrb	r3, [r1]	@ zero_extendqisi2
 156 0074 13F0010F 		tst	r3, #1
 157 0078 02D0     		beq	.L9
  88:.\Lidar.c     ****             {
  89:.\Lidar.c     ****                  count =0;
 158              		.loc 1 89 0
 159 007a 0022     		movs	r2, #0
 160 007c 0F4B     		ldr	r3, .L12
 161 007e 9A80     		strh	r2, [r3, #4]	@ movhi
 162              	.L9:
  90:.\Lidar.c     ****             }
  91:.\Lidar.c     **** //            test = ((nodeBuffer[2]<<8)|(nodeBuffer[1]))>>1;
  92:.\Lidar.c     **** //            test_f = ((float)test)/64.0f;
  93:.\Lidar.c     **** //            test_f_suzu[test_i] = test_f; 
  94:.\Lidar.c     **** //            if(test_i == 200)
  95:.\Lidar.c     **** //            {
  96:.\Lidar.c     **** //                test_i =0;
  97:.\Lidar.c     **** //                rx_lidar_flag = 1;
  98:.\Lidar.c     **** //            } 
  99:.\Lidar.c     ****        
 100:.\Lidar.c     ****             // if(rx_lidar_flag == 0)
 101:.\Lidar.c     ****             //  {
 102:.\Lidar.c     ****               
 103:.\Lidar.c     **** //           test1[test_i].angle_q6_checkbit = (((nodeBuffer[2]<<8)|(nodeBuffer[1])));
 104:.\Lidar.c     **** //           test1[test_i].sync_quality      =  nodeBuffer[0];
 105:.\Lidar.c     **** //           test1[test_i].distance_q2       = ((nodeBuffer[4]<<8)|(nodeBuffer[3]));               
 106:.\Lidar.c     **** //           printf("%d\n   ",test);
 107:.\Lidar.c     **** // 
 108:.\Lidar.c     ****               memcpy(net_nodeBuffer+test_i*5,nodeBuffer,5);
 163              		.loc 1 108 0
 164 0080 0E4A     		ldr	r2, .L12
 165 0082 9379     		ldrb	r3, [r2, #6]	@ zero_extendqisi2
 166 0084 03EB8304 		add	r4, r3, r3, lsl #2
 167              	.LVL9:
 168 0088 0F48     		ldr	r0, .L12+12
 169 008a 2518     		adds	r5, r4, r0
 170 008c 0C49     		ldr	r1, .L12+4
 171 008e 0E68     		ldr	r6, [r1]	@ unaligned
 172 0090 2650     		str	r6, [r4, r0]	@ unaligned
 173 0092 0979     		ldrb	r1, [r1, #4]	@ zero_extendqisi2
 174 0094 2971     		strb	r1, [r5, #4]
 109:.\Lidar.c     ****               test_i ++;
 175              		.loc 1 109 0
 176 0096 0133     		adds	r3, r3, #1
ARM GAS  C:\Users\PANXIA~1\AppData\Local\Temp\ccSiu7P5.s 			page 6


 177 0098 DBB2     		uxtb	r3, r3
 178 009a 9371     		strb	r3, [r2, #6]
 110:.\Lidar.c     ****               if(test_i == 5)
 179              		.loc 1 110 0
 180 009c 052B     		cmp	r3, #5
 181 009e 04D1     		bne	.L10
 111:.\Lidar.c     ****               {  
 112:.\Lidar.c     ****                 
 113:.\Lidar.c     ****                    rx_lidar_flag = 1; 
 182              		.loc 1 113 0
 183 00a0 1346     		mov	r3, r2
 184 00a2 0122     		movs	r2, #1
 185 00a4 DA71     		strb	r2, [r3, #7]
 114:.\Lidar.c     ****                  
 115:.\Lidar.c     ****                    test_i = 0;
 186              		.loc 1 115 0
 187 00a6 0022     		movs	r2, #0
 188 00a8 9A71     		strb	r2, [r3, #6]
 189              	.L10:
 116:.\Lidar.c     ****               }
 117:.\Lidar.c     ****               //   
 118:.\Lidar.c     ****                 
 119:.\Lidar.c     **** 
 120:.\Lidar.c     ****             // }
 121:.\Lidar.c     ****          
 122:.\Lidar.c     ****             
 123:.\Lidar.c     ****             state = 0;
 190              		.loc 1 123 0
 191 00aa 0022     		movs	r2, #0
 192 00ac 034B     		ldr	r3, .L12
 193 00ae 1A70     		strb	r2, [r3]
 194 00b0 70BD     		pop	{r4, r5, r6, pc}
 195              	.LVL10:
 196              	.L8:
 124:.\Lidar.c     ****         }
 125:.\Lidar.c     **** 	}  
 126:.\Lidar.c     ****   
 127:.\Lidar.c     ****  //                      if(output_t == 0)
 128:.\Lidar.c     **** //                   {
 129:.\Lidar.c     **** //                   debug_time_Write(1);
 130:.\Lidar.c     **** //                   output_t++;
 131:.\Lidar.c     **** //                   }
 132:.\Lidar.c     **** //                   else
 133:.\Lidar.c     **** //                  {
 134:.\Lidar.c     **** //                   debug_time_Write(0);
 135:.\Lidar.c     **** //                    output_t = 0;
 136:.\Lidar.c     **** //                  }
 137:.\Lidar.c     ****     else
 138:.\Lidar.c     ****     state = 0;
 197              		.loc 1 138 0
 198 00b2 0022     		movs	r2, #0
 199 00b4 014B     		ldr	r3, .L12
 200 00b6 1A70     		strb	r2, [r3]
 201              	.LVL11:
 202              	.L4:
 203 00b8 70BD     		pop	{r4, r5, r6, pc}
 204              	.LVL12:
ARM GAS  C:\Users\PANXIA~1\AppData\Local\Temp\ccSiu7P5.s 			page 7


 205              	.L13:
 206 00ba 00BF     		.align	2
 207              	.L12:
 208 00bc 00000000 		.word	.LANCHOR0
 209 00c0 00000000 		.word	nodeBuffer
 210 00c4 00000000 		.word	normal_size
 211 00c8 00000000 		.word	net_nodeBuffer
 212              		.cfi_endproc
 213              	.LFE64:
 214              		.size	Lidar_Normal_Data_Receive_Prepare_4, .-Lidar_Normal_Data_Receive_Prepare_4
 215              		.section	.text.Lidar_Normal_Data_Receive_Prepare,"ax",%progbits
 216              		.align	2
 217              		.global	Lidar_Normal_Data_Receive_Prepare
 218              		.thumb
 219              		.thumb_func
 220              		.type	Lidar_Normal_Data_Receive_Prepare, %function
 221              	Lidar_Normal_Data_Receive_Prepare:
 222              	.LFB65:
 139:.\Lidar.c     ****      
 140:.\Lidar.c     **** }
 141:.\Lidar.c     **** //void Lidar_Normal_pc(uint8 data)
 142:.\Lidar.c     **** //{
 143:.\Lidar.c     **** //       uint8 currentByte = data;
 144:.\Lidar.c     **** //    uint8 *nodeBuffer_p ;
 145:.\Lidar.c     **** //     nodeBuffer_p = &nodeBuffer1;
 146:.\Lidar.c     **** //      for (size_t pos = 0; pos < 1; ++pos)
 147:.\Lidar.c     **** //      {
 148:.\Lidar.c     **** //            switch (recvPos) {
 149:.\Lidar.c     **** //            case 0: // expect the sync bit and its reverse in this byte
 150:.\Lidar.c     **** //                {
 151:.\Lidar.c     **** //                    uint8 tmp = (currentByte>>1);
 152:.\Lidar.c     **** //                    if ( (tmp ^ currentByte) & 0x1 ) {
 153:.\Lidar.c     **** //                        // pass
 154:.\Lidar.c     **** //                    } else {
 155:.\Lidar.c     **** //                        continue;
 156:.\Lidar.c     **** //                    }
 157:.\Lidar.c     **** //
 158:.\Lidar.c     **** //                }
 159:.\Lidar.c     **** //                break;
 160:.\Lidar.c     **** //            case 1: // expect the highest bit to be 1
 161:.\Lidar.c     **** //                {
 162:.\Lidar.c     **** //                    if (currentByte & RPLIDAR_RESP_MEASUREMENT_CHECKBIT) {
 163:.\Lidar.c     **** //                        // pass
 164:.\Lidar.c     **** //                    } else {
 165:.\Lidar.c     **** //                        recvPos = 0;
 166:.\Lidar.c     **** //                        continue;
 167:.\Lidar.c     **** //                    }
 168:.\Lidar.c     **** //                }
 169:.\Lidar.c     **** //                break;
 170:.\Lidar.c     **** //            }
 171:.\Lidar.c     **** //            nodeBuffer_p[recvPos++] = currentByte;
 172:.\Lidar.c     **** //
 173:.\Lidar.c     **** //            if (recvPos == sizeof(rplidar_response_measurement_node_t)) {
 174:.\Lidar.c     **** //               // return 1;
 175:.\Lidar.c     **** //            }
 176:.\Lidar.c     **** //    }
 177:.\Lidar.c     **** //}
ARM GAS  C:\Users\PANXIA~1\AppData\Local\Temp\ccSiu7P5.s 			page 8


 178:.\Lidar.c     **** 
 179:.\Lidar.c     **** 
 180:.\Lidar.c     **** 
 181:.\Lidar.c     **** 
 182:.\Lidar.c     **** static int count_time_1ms = 0;
 183:.\Lidar.c     **** void Lidar_Normal_Data_Receive_Prepare(uint8 data)
 184:.\Lidar.c     **** {
 223              		.loc 1 184 0
 224              		.cfi_startproc
 225              		@ args = 0, pretend = 0, frame = 0
 226              		@ frame_needed = 0, uses_anonymous_args = 0
 227              	.LVL13:
 185:.\Lidar.c     ****     uint8 tmp;
 186:.\Lidar.c     ****     uint16 test;
 187:.\Lidar.c     ****     float test_f;
 188:.\Lidar.c     **** 	static uint8 _data_len = 0,_data_cnt = 0;
 189:.\Lidar.c     **** 	static uint8 state = 0;
 190:.\Lidar.c     ****     
 191:.\Lidar.c     ****     tmp  = (data>>1);
 228              		.loc 1 191 0
 229 0000 4208     		lsrs	r2, r0, #1
 230              	.LVL14:
 192:.\Lidar.c     ****   
 193:.\Lidar.c     **** 	if(state==0&&(tmp ^ data) & 0x1)  //sys1
 231              		.loc 1 193 0
 232 0002 244B     		ldr	r3, .L22
 233 0004 1B7A     		ldrb	r3, [r3, #8]	@ zero_extendqisi2
 234 0006 4BB9     		cbnz	r3, .L15
 235              		.loc 1 193 0 is_stmt 0 discriminator 1
 236 0008 4240     		eors	r2, r2, r0
 237              	.LVL15:
 238 000a 12F0010F 		tst	r2, #1
 239 000e 05D0     		beq	.L15
 194:.\Lidar.c     **** 	{
 195:.\Lidar.c     **** 		state=1;
 240              		.loc 1 195 0 is_stmt 1
 241 0010 0122     		movs	r2, #1
 242 0012 204B     		ldr	r3, .L22
 243 0014 1A72     		strb	r2, [r3, #8]
 196:.\Lidar.c     **** 		nodeBuffer[0]=data;
 244              		.loc 1 196 0
 245 0016 204B     		ldr	r3, .L22+4
 246 0018 1870     		strb	r0, [r3]
 247 001a 7047     		bx	lr
 248              	.L15:
 197:.\Lidar.c     ****        //debug_time_Write(1);
 198:.\Lidar.c     **** 	}
 199:.\Lidar.c     ****     else if(state == 1 && ((data&0x1) == 1)) //
 249              		.loc 1 199 0
 250 001c 012B     		cmp	r3, #1
 251 001e 0ED1     		bne	.L17
 252              		.loc 1 199 0 is_stmt 0 discriminator 1
 253 0020 10F0010F 		tst	r0, #1
 254 0024 0BD0     		beq	.L17
 255              	.LVL16:
 200:.\Lidar.c     ****     {
 201:.\Lidar.c     ****         test = (tmp&0x1);
ARM GAS  C:\Users\PANXIA~1\AppData\Local\Temp\ccSiu7P5.s 			page 9


 202:.\Lidar.c     ****         state=2;
 256              		.loc 1 202 0 is_stmt 1
 257 0026 1B4B     		ldr	r3, .L22
 258 0028 0222     		movs	r2, #2
 259 002a 1A72     		strb	r2, [r3, #8]
 203:.\Lidar.c     **** 		nodeBuffer[1]= data;
 260              		.loc 1 203 0
 261 002c 1A4A     		ldr	r2, .L22+4
 262 002e 5070     		strb	r0, [r2, #1]
 204:.\Lidar.c     ****         _data_cnt = 0;
 263              		.loc 1 204 0
 264 0030 0022     		movs	r2, #0
 265 0032 5A72     		strb	r2, [r3, #9]
 205:.\Lidar.c     ****         _data_len = normal_size-2;
 266              		.loc 1 205 0
 267 0034 194A     		ldr	r2, .L22+8
 268 0036 1278     		ldrb	r2, [r2]	@ zero_extendqisi2
 269 0038 023A     		subs	r2, r2, #2
 270 003a 9A72     		strb	r2, [r3, #10]
 271 003c 7047     		bx	lr
 272              	.LVL17:
 273              	.L17:
 206:.\Lidar.c     ****     }
 207:.\Lidar.c     **** 	else if(state== 2 && _data_len>0) //
 274              		.loc 1 207 0
 275 003e 022B     		cmp	r3, #2
 276 0040 22D1     		bne	.L18
 277              		.loc 1 207 0 is_stmt 0 discriminator 1
 278 0042 144B     		ldr	r3, .L22
 279 0044 9B7A     		ldrb	r3, [r3, #10]	@ zero_extendqisi2
 280 0046 FBB1     		cbz	r3, .L18
 184:.\Lidar.c     ****     uint8 tmp;
 281              		.loc 1 184 0 is_stmt 1
 282 0048 10B5     		push	{r4, lr}
 283              		.cfi_def_cfa_offset 8
 284              		.cfi_offset 4, -8
 285              		.cfi_offset 14, -4
 208:.\Lidar.c     **** 	{
 209:.\Lidar.c     **** 		_data_len--;
 286              		.loc 1 209 0
 287 004a 013B     		subs	r3, r3, #1
 288 004c DBB2     		uxtb	r3, r3
 289 004e 1149     		ldr	r1, .L22
 290 0050 8B72     		strb	r3, [r1, #10]
 210:.\Lidar.c     **** 		nodeBuffer[2+_data_cnt++] = data;
 291              		.loc 1 210 0
 292 0052 4A7A     		ldrb	r2, [r1, #9]	@ zero_extendqisi2
 293 0054 541C     		adds	r4, r2, #1
 294 0056 4C72     		strb	r4, [r1, #9]
 295 0058 0232     		adds	r2, r2, #2
 296 005a 0F49     		ldr	r1, .L22+4
 297 005c 8854     		strb	r0, [r1, r2]
 211:.\Lidar.c     ****    
 212:.\Lidar.c     **** 		if(_data_len == 0)
 298              		.loc 1 212 0
 299 005e BBB9     		cbnz	r3, .L14
 213:.\Lidar.c     ****         {
ARM GAS  C:\Users\PANXIA~1\AppData\Local\Temp\ccSiu7P5.s 			page 10


 214:.\Lidar.c     ****           
 215:.\Lidar.c     **** //            if((nodeBuffer[0] & 0x1) ==1)
 216:.\Lidar.c     **** //            {
 217:.\Lidar.c     **** //                 test_i =0;
 218:.\Lidar.c     **** //            }
 219:.\Lidar.c     **** //            test = ((nodeBuffer[2]<<8)|(nodeBuffer[1]))>>1;
 220:.\Lidar.c     **** //            test_f = ((float)test)/64.0f;
 221:.\Lidar.c     **** //            test_f_suzu[test_i] = test_f; 
 222:.\Lidar.c     **** //            if(test_i == 200)
 223:.\Lidar.c     **** //            {
 224:.\Lidar.c     **** //                test_i =0;
 225:.\Lidar.c     **** //                rx_lidar_flag = 1;
 226:.\Lidar.c     **** //            } 
 227:.\Lidar.c     ****           
 228:.\Lidar.c     ****             if(rx_lidar_flag == 0)
 300              		.loc 1 228 0
 301 0060 0C4B     		ldr	r3, .L22
 302 0062 DB79     		ldrb	r3, [r3, #7]	@ zero_extendqisi2
 303 0064 63B9     		cbnz	r3, .L19
 229:.\Lidar.c     ****             {
 230:.\Lidar.c     ****               
 231:.\Lidar.c     **** //           test1[test_i].angle_q6_checkbit = (((nodeBuffer[2]<<8)|(nodeBuffer[1])));
 232:.\Lidar.c     **** //           test1[test_i].sync_quality      =  nodeBuffer[0];
 233:.\Lidar.c     **** //           test1[test_i].distance_q2       = ((nodeBuffer[4]<<8)|(nodeBuffer[3]));               
 234:.\Lidar.c     ****           //      printf("%d\n   ",test);
 235:.\Lidar.c     ****                  //memcpy(net_nodeBuffer,nodeBuffer,5);
 236:.\Lidar.c     ****               //  if(test_i < 100)
 237:.\Lidar.c     ****               //  { 
 238:.\Lidar.c     ****                    test_i ++;
 304              		.loc 1 238 0
 305 0066 0B4A     		ldr	r2, .L22
 306 0068 9379     		ldrb	r3, [r2, #6]	@ zero_extendqisi2
 307 006a 0133     		adds	r3, r3, #1
 308 006c 9371     		strb	r3, [r2, #6]
 239:.\Lidar.c     ****                    debug_time_Write(1);
 309              		.loc 1 239 0
 310 006e 0120     		movs	r0, #1
 311              	.LVL18:
 312 0070 FFF7FEFF 		bl	debug_time_Write
 313              	.LVL19:
 240:.\Lidar.c     ****                    DT_Send_Lidar_normal(nodeBuffer); 
 314              		.loc 1 240 0
 315 0074 0848     		ldr	r0, .L22+4
 316 0076 FFF7FEFF 		bl	DT_Send_Lidar_normal
 317              	.LVL20:
 241:.\Lidar.c     ****                    debug_time_Write(0);
 318              		.loc 1 241 0
 319 007a 0020     		movs	r0, #0
 320 007c FFF7FEFF 		bl	debug_time_Write
 321              	.LVL21:
 322              	.L19:
 242:.\Lidar.c     ****             //    }
 243:.\Lidar.c     ****               //   rx_lidar_flag = 1; 
 244:.\Lidar.c     ****                 
 245:.\Lidar.c     **** 
 246:.\Lidar.c     ****              }
 247:.\Lidar.c     ****             
ARM GAS  C:\Users\PANXIA~1\AppData\Local\Temp\ccSiu7P5.s 			page 11


 248:.\Lidar.c     ****             state = 0;
 323              		.loc 1 248 0
 324 0080 0022     		movs	r2, #0
 325 0082 044B     		ldr	r3, .L22
 326 0084 1A72     		strb	r2, [r3, #8]
 327 0086 10BD     		pop	{r4, pc}
 328              	.LVL22:
 329              	.L18:
 330              		.cfi_def_cfa_offset 0
 331              		.cfi_restore 4
 332              		.cfi_restore 14
 249:.\Lidar.c     ****         }
 250:.\Lidar.c     **** 	}  
 251:.\Lidar.c     ****   
 252:.\Lidar.c     ****  //                      if(output_t == 0)
 253:.\Lidar.c     **** //                   {
 254:.\Lidar.c     **** //                   debug_time_Write(1);
 255:.\Lidar.c     **** //                   output_t++;
 256:.\Lidar.c     **** //                   }
 257:.\Lidar.c     **** //                   else
 258:.\Lidar.c     **** //                  {
 259:.\Lidar.c     **** //                   debug_time_Write(0);
 260:.\Lidar.c     **** //                    output_t = 0;
 261:.\Lidar.c     **** //                  }
 262:.\Lidar.c     ****     else
 263:.\Lidar.c     ****     state = 0;
 333              		.loc 1 263 0
 334 0088 0022     		movs	r2, #0
 335 008a 024B     		ldr	r3, .L22
 336 008c 1A72     		strb	r2, [r3, #8]
 337 008e 7047     		bx	lr
 338              	.L14:
 339              		.cfi_def_cfa_offset 8
 340              		.cfi_offset 4, -8
 341              		.cfi_offset 14, -4
 342 0090 10BD     		pop	{r4, pc}
 343              	.L23:
 344 0092 00BF     		.align	2
 345              	.L22:
 346 0094 00000000 		.word	.LANCHOR0
 347 0098 00000000 		.word	nodeBuffer
 348 009c 00000000 		.word	normal_size
 349              		.cfi_endproc
 350              	.LFE65:
 351              		.size	Lidar_Normal_Data_Receive_Prepare, .-Lidar_Normal_Data_Receive_Prepare
 352              		.section	.text.Lidar_Normal_Data_Receive_Prepare_2,"ax",%progbits
 353              		.align	2
 354              		.global	Lidar_Normal_Data_Receive_Prepare_2
 355              		.thumb
 356              		.thumb_func
 357              		.type	Lidar_Normal_Data_Receive_Prepare_2, %function
 358              	Lidar_Normal_Data_Receive_Prepare_2:
 359              	.LFB66:
 264:.\Lidar.c     ****      
 265:.\Lidar.c     **** }
 266:.\Lidar.c     **** void Lidar_Normal_Data_Receive_Prepare_2(uint8 data)
 267:.\Lidar.c     **** {
ARM GAS  C:\Users\PANXIA~1\AppData\Local\Temp\ccSiu7P5.s 			page 12


 360              		.loc 1 267 0
 361              		.cfi_startproc
 362              		@ args = 0, pretend = 0, frame = 0
 363              		@ frame_needed = 0, uses_anonymous_args = 0
 364              	.LVL23:
 268:.\Lidar.c     ****     uint8 tmp;
 269:.\Lidar.c     ****     uint16 test;
 270:.\Lidar.c     ****     float test_f;
 271:.\Lidar.c     **** 	static uint8 _data_len = 0,_data_cnt = 0;
 272:.\Lidar.c     **** 	static uint8 state = 0;
 273:.\Lidar.c     ****     
 274:.\Lidar.c     ****      tmp  = (data>>1);
 365              		.loc 1 274 0
 366 0000 4208     		lsrs	r2, r0, #1
 367              	.LVL24:
 275:.\Lidar.c     ****     
 276:.\Lidar.c     **** 	if(state==0&&(tmp ^ data) & 0x1)  //sys1
 368              		.loc 1 276 0
 369 0002 434B     		ldr	r3, .L36
 370 0004 DB7A     		ldrb	r3, [r3, #11]	@ zero_extendqisi2
 371 0006 53B9     		cbnz	r3, .L25
 372              		.loc 1 276 0 is_stmt 0 discriminator 1
 373 0008 82EA0001 		eor	r1, r2, r0
 374 000c 11F0010F 		tst	r1, #1
 375 0010 05D0     		beq	.L25
 277:.\Lidar.c     **** 	{
 278:.\Lidar.c     **** 		state=1;
 376              		.loc 1 278 0 is_stmt 1
 377 0012 0122     		movs	r2, #1
 378              	.LVL25:
 379 0014 3E4B     		ldr	r3, .L36
 380 0016 DA72     		strb	r2, [r3, #11]
 279:.\Lidar.c     **** 		nodeBuffer[0]=data;
 381              		.loc 1 279 0
 382 0018 3E4B     		ldr	r3, .L36+4
 383 001a 1870     		strb	r0, [r3]
 384 001c 7047     		bx	lr
 385              	.LVL26:
 386              	.L25:
 280:.\Lidar.c     ****       
 281:.\Lidar.c     **** 	}
 282:.\Lidar.c     ****     else if(state == 1 && ((data&0x1) == 1)) //
 387              		.loc 1 282 0
 388 001e 012B     		cmp	r3, #1
 389 0020 0ED1     		bne	.L27
 390              		.loc 1 282 0 is_stmt 0 discriminator 1
 391 0022 10F0010F 		tst	r0, #1
 392 0026 0BD0     		beq	.L27
 393              	.LVL27:
 283:.\Lidar.c     ****     {
 284:.\Lidar.c     ****         test = (tmp&0x1);
 285:.\Lidar.c     ****         state=2;
 394              		.loc 1 285 0 is_stmt 1
 395 0028 394B     		ldr	r3, .L36
 396 002a 0222     		movs	r2, #2
 397              	.LVL28:
 398 002c DA72     		strb	r2, [r3, #11]
ARM GAS  C:\Users\PANXIA~1\AppData\Local\Temp\ccSiu7P5.s 			page 13


 286:.\Lidar.c     **** 		nodeBuffer[1]= data;
 399              		.loc 1 286 0
 400 002e 394A     		ldr	r2, .L36+4
 401 0030 5070     		strb	r0, [r2, #1]
 287:.\Lidar.c     ****         _data_cnt = 0;
 402              		.loc 1 287 0
 403 0032 0022     		movs	r2, #0
 404 0034 1A73     		strb	r2, [r3, #12]
 288:.\Lidar.c     ****         _data_len = normal_size-2;
 405              		.loc 1 288 0
 406 0036 384A     		ldr	r2, .L36+8
 407 0038 1278     		ldrb	r2, [r2]	@ zero_extendqisi2
 408 003a 023A     		subs	r2, r2, #2
 409 003c 5A73     		strb	r2, [r3, #13]
 410 003e 7047     		bx	lr
 411              	.LVL29:
 412              	.L27:
 289:.\Lidar.c     ****     }
 290:.\Lidar.c     **** 	else if(state== 2 && _data_len>0) //
 413              		.loc 1 290 0
 414 0040 022B     		cmp	r3, #2
 415 0042 0ED1     		bne	.L28
 416              		.loc 1 290 0 is_stmt 0 discriminator 1
 417 0044 3249     		ldr	r1, .L36
 418 0046 497B     		ldrb	r1, [r1, #13]	@ zero_extendqisi2
 419 0048 59B1     		cbz	r1, .L28
 291:.\Lidar.c     **** 	{
 292:.\Lidar.c     **** 		_data_len--;
 420              		.loc 1 292 0 is_stmt 1
 421 004a 314B     		ldr	r3, .L36
 422 004c 0139     		subs	r1, r1, #1
 423 004e 5973     		strb	r1, [r3, #13]
 293:.\Lidar.c     **** 		nodeBuffer[2+_data_cnt++] = data;
 424              		.loc 1 293 0
 425 0050 1A7B     		ldrb	r2, [r3, #12]	@ zero_extendqisi2
 426              	.LVL30:
 427 0052 511C     		adds	r1, r2, #1
 428 0054 1973     		strb	r1, [r3, #12]
 429 0056 0232     		adds	r2, r2, #2
 430 0058 2E49     		ldr	r1, .L36+4
 431 005a 8854     		strb	r0, [r1, r2]
 294:.\Lidar.c     ****         state = 3;
 432              		.loc 1 294 0
 433 005c 0322     		movs	r2, #3
 434 005e DA72     		strb	r2, [r3, #11]
 435 0060 7047     		bx	lr
 436              	.LVL31:
 437              	.L28:
 295:.\Lidar.c     **** 	} 
 296:.\Lidar.c     ****     else if(state == 3 && (tmp ^ data) & 0x1)  //sys1
 438              		.loc 1 296 0
 439 0062 032B     		cmp	r3, #3
 440 0064 09D1     		bne	.L29
 441              		.loc 1 296 0 is_stmt 0 discriminator 1
 442 0066 4240     		eors	r2, r2, r0
 443              	.LVL32:
 444 0068 12F0010F 		tst	r2, #1
ARM GAS  C:\Users\PANXIA~1\AppData\Local\Temp\ccSiu7P5.s 			page 14


 445 006c 05D0     		beq	.L29
 297:.\Lidar.c     **** 	{
 298:.\Lidar.c     **** 		state = 4;
 446              		.loc 1 298 0 is_stmt 1
 447 006e 0422     		movs	r2, #4
 448 0070 274B     		ldr	r3, .L36
 449 0072 DA72     		strb	r2, [r3, #11]
 299:.\Lidar.c     **** 		nodeBuffer[5]=data;
 450              		.loc 1 299 0
 451 0074 274B     		ldr	r3, .L36+4
 452 0076 5871     		strb	r0, [r3, #5]
 453 0078 7047     		bx	lr
 454              	.L29:
 300:.\Lidar.c     ****       
 301:.\Lidar.c     **** 	}
 302:.\Lidar.c     ****     else if(state == 4 && ((data&0x1) == 1)) //
 455              		.loc 1 302 0
 456 007a 042B     		cmp	r3, #4
 457 007c 0ED1     		bne	.L30
 458              		.loc 1 302 0 is_stmt 0 discriminator 1
 459 007e 10F0010F 		tst	r0, #1
 460 0082 0BD0     		beq	.L30
 461              	.LVL33:
 303:.\Lidar.c     ****     {
 304:.\Lidar.c     ****         test = (tmp&0x1);
 305:.\Lidar.c     ****         state=5;
 462              		.loc 1 305 0 is_stmt 1
 463 0084 224B     		ldr	r3, .L36
 464 0086 0522     		movs	r2, #5
 465 0088 DA72     		strb	r2, [r3, #11]
 306:.\Lidar.c     **** 		nodeBuffer[6]= data;
 466              		.loc 1 306 0
 467 008a 224A     		ldr	r2, .L36+4
 468 008c 9071     		strb	r0, [r2, #6]
 307:.\Lidar.c     ****         _data_cnt = 0;
 469              		.loc 1 307 0
 470 008e 0022     		movs	r2, #0
 471 0090 1A73     		strb	r2, [r3, #12]
 308:.\Lidar.c     ****         _data_len = normal_size-2;
 472              		.loc 1 308 0
 473 0092 214A     		ldr	r2, .L36+8
 474 0094 1278     		ldrb	r2, [r2]	@ zero_extendqisi2
 475 0096 023A     		subs	r2, r2, #2
 476 0098 5A73     		strb	r2, [r3, #13]
 477 009a 7047     		bx	lr
 478              	.LVL34:
 479              	.L30:
 309:.\Lidar.c     ****     }
 310:.\Lidar.c     **** 	else if(state== 5 && _data_len>0) //
 480              		.loc 1 310 0
 481 009c 052B     		cmp	r3, #5
 482 009e 32D1     		bne	.L31
 483              		.loc 1 310 0 is_stmt 0 discriminator 1
 484 00a0 1B4B     		ldr	r3, .L36
 485 00a2 5B7B     		ldrb	r3, [r3, #13]	@ zero_extendqisi2
 486 00a4 7BB3     		cbz	r3, .L31
 267:.\Lidar.c     ****     uint8 tmp;
ARM GAS  C:\Users\PANXIA~1\AppData\Local\Temp\ccSiu7P5.s 			page 15


 487              		.loc 1 267 0 is_stmt 1
 488 00a6 10B5     		push	{r4, lr}
 489              		.cfi_def_cfa_offset 8
 490              		.cfi_offset 4, -8
 491              		.cfi_offset 14, -4
 311:.\Lidar.c     **** 	{
 312:.\Lidar.c     **** 		_data_len--;
 492              		.loc 1 312 0
 493 00a8 013B     		subs	r3, r3, #1
 494 00aa DBB2     		uxtb	r3, r3
 495 00ac 1849     		ldr	r1, .L36
 496 00ae 4B73     		strb	r3, [r1, #13]
 313:.\Lidar.c     **** 		nodeBuffer[7+_data_cnt++] = data;
 497              		.loc 1 313 0
 498 00b0 0A7B     		ldrb	r2, [r1, #12]	@ zero_extendqisi2
 499 00b2 541C     		adds	r4, r2, #1
 500 00b4 0C73     		strb	r4, [r1, #12]
 501 00b6 0732     		adds	r2, r2, #7
 502 00b8 1649     		ldr	r1, .L36+4
 503 00ba 8854     		strb	r0, [r1, r2]
 314:.\Lidar.c     ****    
 315:.\Lidar.c     **** 		if(_data_len == 0)
 504              		.loc 1 315 0
 505 00bc 3BBB     		cbnz	r3, .L24
 316:.\Lidar.c     ****         {
 317:.\Lidar.c     ****             if(rx_lidar_flag == 0)
 506              		.loc 1 317 0
 507 00be 144B     		ldr	r3, .L36
 508 00c0 DB79     		ldrb	r3, [r3, #7]	@ zero_extendqisi2
 509 00c2 E3B9     		cbnz	r3, .L32
 318:.\Lidar.c     ****             {		  
 319:.\Lidar.c     ****                   if(rx_lidar_flag == 0)
 510              		.loc 1 319 0
 511 00c4 DBB9     		cbnz	r3, .L32
 320:.\Lidar.c     ****                   {
 321:.\Lidar.c     ****                    memcpy(net_nodeBuffer,nodeBuffer,10); 
 512              		.loc 1 321 0
 513 00c6 154B     		ldr	r3, .L36+12
 514 00c8 0A46     		mov	r2, r1
 515 00ca 0868     		ldr	r0, [r1]	@ unaligned
 516              	.LVL35:
 517 00cc 4968     		ldr	r1, [r1, #4]	@ unaligned
 518              	.LVL36:
 519 00ce 1860     		str	r0, [r3]	@ unaligned
 520 00d0 5960     		str	r1, [r3, #4]	@ unaligned
 521 00d2 1289     		ldrh	r2, [r2, #8]	@ unaligned
 522              	.LVL37:
 523 00d4 1A81     		strh	r2, [r3, #8]	@ unaligned
 322:.\Lidar.c     ****                    rx_lidar_flag = 1;
 524              		.loc 1 322 0
 525 00d6 0122     		movs	r2, #1
 526 00d8 0D4B     		ldr	r3, .L36
 527 00da DA71     		strb	r2, [r3, #7]
 323:.\Lidar.c     ****                    
 324:.\Lidar.c     ****                    if(output_t == 0)
 528              		.loc 1 324 0
 529 00dc 104B     		ldr	r3, .L36+16
ARM GAS  C:\Users\PANXIA~1\AppData\Local\Temp\ccSiu7P5.s 			page 16


 530 00de 1B78     		ldrb	r3, [r3]	@ zero_extendqisi2
 531 00e0 3BB9     		cbnz	r3, .L33
 325:.\Lidar.c     ****                    {
 326:.\Lidar.c     ****                    debug_time_Write(1);
 532              		.loc 1 326 0
 533 00e2 1046     		mov	r0, r2
 534 00e4 FFF7FEFF 		bl	debug_time_Write
 535              	.LVL38:
 327:.\Lidar.c     ****                    output_t++;
 536              		.loc 1 327 0
 537 00e8 0D4A     		ldr	r2, .L36+16
 538 00ea 1378     		ldrb	r3, [r2]	@ zero_extendqisi2
 539 00ec 0133     		adds	r3, r3, #1
 540 00ee 1370     		strb	r3, [r2]
 541 00f0 05E0     		b	.L32
 542              	.LVL39:
 543              	.L33:
 328:.\Lidar.c     ****                    }
 329:.\Lidar.c     ****                    else
 330:.\Lidar.c     ****                   {
 331:.\Lidar.c     ****                     debug_time_Write(0);
 544              		.loc 1 331 0
 545 00f2 0020     		movs	r0, #0
 546 00f4 FFF7FEFF 		bl	debug_time_Write
 547              	.LVL40:
 332:.\Lidar.c     ****                     output_t = 0;
 548              		.loc 1 332 0
 549 00f8 0022     		movs	r2, #0
 550 00fa 094B     		ldr	r3, .L36+16
 551 00fc 1A70     		strb	r2, [r3]
 552              	.L32:
 333:.\Lidar.c     ****                   }
 334:.\Lidar.c     ****                    
 335:.\Lidar.c     ****                   }
 336:.\Lidar.c     ****             }
 337:.\Lidar.c     ****             state = 0;
 553              		.loc 1 337 0
 554 00fe 0022     		movs	r2, #0
 555 0100 034B     		ldr	r3, .L36
 556 0102 DA72     		strb	r2, [r3, #11]
 557 0104 10BD     		pop	{r4, pc}
 558              	.LVL41:
 559              	.L31:
 560              		.cfi_def_cfa_offset 0
 561              		.cfi_restore 4
 562              		.cfi_restore 14
 338:.\Lidar.c     ****         }
 339:.\Lidar.c     **** 	} 
 340:.\Lidar.c     **** 
 341:.\Lidar.c     ****     else
 342:.\Lidar.c     ****     state = 0;
 563              		.loc 1 342 0
 564 0106 0022     		movs	r2, #0
 565 0108 014B     		ldr	r3, .L36
 566 010a DA72     		strb	r2, [r3, #11]
 567 010c 7047     		bx	lr
 568              	.L24:
ARM GAS  C:\Users\PANXIA~1\AppData\Local\Temp\ccSiu7P5.s 			page 17


 569              		.cfi_def_cfa_offset 8
 570              		.cfi_offset 4, -8
 571              		.cfi_offset 14, -4
 572 010e 10BD     		pop	{r4, pc}
 573              	.L37:
 574              		.align	2
 575              	.L36:
 576 0110 00000000 		.word	.LANCHOR0
 577 0114 00000000 		.word	nodeBuffer
 578 0118 00000000 		.word	normal_size
 579 011c 00000000 		.word	net_nodeBuffer
 580 0120 00000000 		.word	output_t
 581              		.cfi_endproc
 582              	.LFE66:
 583              		.size	Lidar_Normal_Data_Receive_Prepare_2, .-Lidar_Normal_Data_Receive_Prepare_2
 584              		.global	__aeabi_i2f
 585              		.global	__aeabi_fmul
 586              		.section	.text.scan_lidar,"ax",%progbits
 587              		.align	2
 588              		.global	scan_lidar
 589              		.thumb
 590              		.thumb_func
 591              		.type	scan_lidar, %function
 592              	scan_lidar:
 593              	.LFB67:
 343:.\Lidar.c     **** }
 344:.\Lidar.c     **** void scan_lidar()
 345:.\Lidar.c     **** {
 594              		.loc 1 345 0
 595              		.cfi_startproc
 596              		@ args = 0, pretend = 0, frame = 0
 597              		@ frame_needed = 0, uses_anonymous_args = 0
 598 0000 F8B5     		push	{r3, r4, r5, r6, r7, lr}
 599              		.cfi_def_cfa_offset 24
 600              		.cfi_offset 3, -24
 601              		.cfi_offset 4, -20
 602              		.cfi_offset 5, -16
 603              		.cfi_offset 6, -12
 604              		.cfi_offset 7, -8
 605              		.cfi_offset 14, -4
 606              	.LVL42:
 346:.\Lidar.c     ****     uint16 scan_count = 0;
 347:.\Lidar.c     ****     uint8 pos;
 348:.\Lidar.c     ****     uint8 i;
 349:.\Lidar.c     ****     uint8 tttt;
 350:.\Lidar.c     ****     if(rx_lidar_flag == 1)
 607              		.loc 1 350 0
 608 0002 244B     		ldr	r3, .L49
 609 0004 DB79     		ldrb	r3, [r3, #7]	@ zero_extendqisi2
 610 0006 012B     		cmp	r3, #1
 611 0008 3FD1     		bne	.L40
 612 000a 3AE0     		b	.L46
 613              	.LVL43:
 614              	.L45:
 351:.\Lidar.c     ****     {
 352:.\Lidar.c     ****           for ( pos = 0; pos < 200; ++pos)
 353:.\Lidar.c     ****         {
ARM GAS  C:\Users\PANXIA~1\AppData\Local\Temp\ccSiu7P5.s 			page 18


 354:.\Lidar.c     ****             if (test1[pos].sync_quality & RPLIDAR_RESP_MEASUREMENT_SYNCBIT)
 615              		.loc 1 354 0
 616 000c 2F46     		mov	r7, r5
 617 000e 05EB8503 		add	r3, r5, r5, lsl #2
 618 0012 214A     		ldr	r2, .L49+4
 619 0014 D35C     		ldrb	r3, [r2, r3]	@ zero_extendqisi2
 620 0016 13F0010F 		tst	r3, #1
 621 001a 1ED0     		beq	.L41
 355:.\Lidar.c     ****             {
 356:.\Lidar.c     ****                 // only publish the data when it contains a full 360 degree scan 
 357:.\Lidar.c     ****                 
 358:.\Lidar.c     ****                 if ((test2[0].sync_quality & RPLIDAR_RESP_MEASUREMENT_SYNCBIT)) {
 622              		.loc 1 358 0
 623 001c 1F4B     		ldr	r3, .L49+8
 624 001e 1B78     		ldrb	r3, [r3]	@ zero_extendqisi2
 625 0020 13F0010F 		tst	r3, #1
 626 0024 14D1     		bne	.L47
 359:.\Lidar.c     ****                     
 360:.\Lidar.c     **** 		
 361:.\Lidar.c     ****                   //  memcpy(test3, test1, scan_count*sizeof(rplidar_response_measurement_node_t));
 362:.\Lidar.c     ****                     //_cached_scan_node_count = 128;
 363:.\Lidar.c     ****                   //  _dataEvt.set();
 364:.\Lidar.c     ****                   //  _lock.unlock();
 365:.\Lidar.c     ****                   //ascendScanData(test2,scan_count);
 366:.\Lidar.c     ****                     for(i = 0;i<scan_count;i++)
 367:.\Lidar.c     ****                     {
 368:.\Lidar.c     ****                     test_f_suzu[i]= (test2[i].angle_q6_checkbit >> RPLIDAR_RESP_MEASUREMENT_ANGLE_S
 369:.\Lidar.c     ****                     tttt =1;
 370:.\Lidar.c     ****                     }
 371:.\Lidar.c     ****                 }
 372:.\Lidar.c     ****                 scan_count = 0;
 627              		.loc 1 372 0
 628 0026 0026     		movs	r6, #0
 629              	.LVL44:
 630 0028 17E0     		b	.L41
 631              	.LVL45:
 632              	.L43:
 368:.\Lidar.c     ****                     tttt =1;
 633              		.loc 1 368 0 discriminator 3
 634 002a 04EB8403 		add	r3, r4, r4, lsl #2
 635 002e 1B4A     		ldr	r2, .L49+8
 636 0030 1344     		add	r3, r3, r2
 637 0032 B3F80100 		ldrh	r0, [r3, #1]	@ unaligned
 638 0036 4008     		lsrs	r0, r0, #1
 639 0038 FFF7FEFF 		bl	__aeabi_i2f
 640              	.LVL46:
 641 003c 4FF07251 		mov	r1, #1015021568
 642 0040 FFF7FEFF 		bl	__aeabi_fmul
 643              	.LVL47:
 644 0044 164B     		ldr	r3, .L49+12
 645 0046 43F82400 		str	r0, [r3, r4, lsl #2]	@ float
 646              	.LVL48:
 366:.\Lidar.c     ****                     {
 647              		.loc 1 366 0 discriminator 3
 648 004a 0134     		adds	r4, r4, #1
 649              	.LVL49:
 650 004c E4B2     		uxtb	r4, r4
ARM GAS  C:\Users\PANXIA~1\AppData\Local\Temp\ccSiu7P5.s 			page 19


 651              	.LVL50:
 652 004e 00E0     		b	.L42
 653              	.LVL51:
 654              	.L47:
 655 0050 0024     		movs	r4, #0
 656              	.L42:
 657              	.LVL52:
 366:.\Lidar.c     ****                     {
 658              		.loc 1 366 0 is_stmt 0 discriminator 1
 659 0052 A3B2     		uxth	r3, r4
 660 0054 B342     		cmp	r3, r6
 661 0056 E8D3     		bcc	.L43
 662              		.loc 1 372 0 is_stmt 1
 663 0058 0026     		movs	r6, #0
 664              	.LVL53:
 665              	.L41:
 373:.\Lidar.c     ****             }
 374:.\Lidar.c     ****             test2[scan_count++] = test1[pos];
 666              		.loc 1 374 0
 667 005a 721C     		adds	r2, r6, #1
 668 005c 92B2     		uxth	r2, r2
 669              	.LVL54:
 670 005e 0F48     		ldr	r0, .L49+8
 671 0060 06EB8601 		add	r1, r6, r6, lsl #2
 672 0064 4418     		adds	r4, r0, r1
 673 0066 07EB8703 		add	r3, r7, r7, lsl #2
 674 006a 0B4F     		ldr	r7, .L49+4
 675 006c 3B44     		add	r3, r3, r7
 676 006e 1F68     		ldr	r7, [r3]	@ unaligned
 677 0070 4750     		str	r7, [r0, r1]	@ unaligned
 678 0072 1B79     		ldrb	r3, [r3, #4]	@ zero_extendqisi2
 679 0074 2371     		strb	r3, [r4, #4]
 375:.\Lidar.c     **** //			test[scan_count++].angle_q6_checkbit = (local_scan[0].angle_q6_checkbit >>1)/64.0f;
 376:.\Lidar.c     ****             if (scan_count >200) scan_count-=1; // prevent overflow
 680              		.loc 1 376 0
 681 0076 C82A     		cmp	r2, #200
 682 0078 00D8     		bhi	.L44
 374:.\Lidar.c     **** //			test[scan_count++].angle_q6_checkbit = (local_scan[0].angle_q6_checkbit >>1)/64.0f;
 683              		.loc 1 374 0
 684 007a 1646     		mov	r6, r2
 685              	.L44:
 686              	.LVL55:
 352:.\Lidar.c     ****         {
 687              		.loc 1 352 0 discriminator 2
 688 007c 0135     		adds	r5, r5, #1
 689              	.LVL56:
 690 007e EDB2     		uxtb	r5, r5
 691              	.LVL57:
 692 0080 01E0     		b	.L39
 693              	.LVL58:
 694              	.L46:
 695 0082 0025     		movs	r5, #0
 696 0084 2E46     		mov	r6, r5
 697              	.LVL59:
 698              	.L39:
 352:.\Lidar.c     ****         {
 699              		.loc 1 352 0 is_stmt 0 discriminator 1
ARM GAS  C:\Users\PANXIA~1\AppData\Local\Temp\ccSiu7P5.s 			page 20


 700 0086 C72D     		cmp	r5, #199
 701 0088 C0D9     		bls	.L45
 702              	.LVL60:
 703              	.L40:
 377:.\Lidar.c     ****         }
 378:.\Lidar.c     ****     }
 379:.\Lidar.c     ****     rx_lidar_flag = 0;
 704              		.loc 1 379 0 is_stmt 1
 705 008a 0022     		movs	r2, #0
 706 008c 014B     		ldr	r3, .L49
 707 008e DA71     		strb	r2, [r3, #7]
 708 0090 F8BD     		pop	{r3, r4, r5, r6, r7, pc}
 709              	.L50:
 710 0092 00BF     		.align	2
 711              	.L49:
 712 0094 00000000 		.word	.LANCHOR0
 713 0098 00000000 		.word	test1
 714 009c 00000000 		.word	test2
 715 00a0 00000000 		.word	test_f_suzu
 716              		.cfi_endproc
 717              	.LFE67:
 718              		.size	scan_lidar, .-scan_lidar
 719              		.global	__aeabi_ui2d
 720              		.global	__aeabi_ddiv
 721              		.global	__aeabi_d2f
 722              		.global	__aeabi_fsub
 723              		.global	__aeabi_fcmplt
 724              		.global	__aeabi_f2uiz
 725              		.global	__aeabi_fadd
 726              		.global	__aeabi_fcmpgt
 727              		.global	__aeabi_ui2f
 728              		.section	.text.ascendScanData,"ax",%progbits
 729              		.align	2
 730              		.global	ascendScanData
 731              		.thumb
 732              		.thumb_func
 733              		.type	ascendScanData, %function
 734              	ascendScanData:
 735              	.LFB68:
 380:.\Lidar.c     **** }
 381:.\Lidar.c     **** uint8 ascendScanData(rplidar_response_measurement_node_t * nodebuffer, size_t count)
 382:.\Lidar.c     **** {
 736              		.loc 1 382 0
 737              		.cfi_startproc
 738              		@ args = 0, pretend = 0, frame = 16
 739              		@ frame_needed = 0, uses_anonymous_args = 0
 740              	.LVL61:
 741 0000 2DE9F04F 		push	{r4, r5, r6, r7, r8, r9, r10, fp, lr}
 742              		.cfi_def_cfa_offset 36
 743              		.cfi_offset 4, -36
 744              		.cfi_offset 5, -32
 745              		.cfi_offset 6, -28
 746              		.cfi_offset 7, -24
 747              		.cfi_offset 8, -20
 748              		.cfi_offset 9, -16
 749              		.cfi_offset 10, -12
 750              		.cfi_offset 11, -8
ARM GAS  C:\Users\PANXIA~1\AppData\Local\Temp\ccSiu7P5.s 			page 21


 751              		.cfi_offset 14, -4
 752 0004 85B0     		sub	sp, sp, #20
 753              		.cfi_def_cfa_offset 56
 754 0006 0446     		mov	r4, r0
 755 0008 0D46     		mov	r5, r1
 383:.\Lidar.c     ****     float inc_origin_angle = 360.0/count;
 756              		.loc 1 383 0
 757 000a 0846     		mov	r0, r1
 758              	.LVL62:
 759 000c FFF7FEFF 		bl	__aeabi_ui2d
 760              	.LVL63:
 761 0010 0246     		mov	r2, r0
 762 0012 0B46     		mov	r3, r1
 763 0014 0020     		movs	r0, #0
 764 0016 7349     		ldr	r1, .L83
 765 0018 FFF7FEFF 		bl	__aeabi_ddiv
 766              	.LVL64:
 767 001c FFF7FEFF 		bl	__aeabi_d2f
 768              	.LVL65:
 769 0020 8046     		mov	r8, r0
 770              	.LVL66:
 384:.\Lidar.c     ****     size_t i = 0;
 385:.\Lidar.c     ****     size_t j;
 386:.\Lidar.c     ****     //Tune head
 387:.\Lidar.c     ****     for (i = 0; i < count; i++) {
 771              		.loc 1 387 0
 772 0022 0023     		movs	r3, #0
 773 0024 35E0     		b	.L52
 774              	.LVL67:
 775              	.L58:
 388:.\Lidar.c     ****         if(nodebuffer[i].distance_q2 == 0) {
 776              		.loc 1 388 0
 777 0026 03EB8302 		add	r2, r3, r3, lsl #2
 778 002a 2244     		add	r2, r2, r4
 779 002c B2F80320 		ldrh	r2, [r2, #3]	@ unaligned
 780 0030 62BB     		cbnz	r2, .L54
 387:.\Lidar.c     ****         if(nodebuffer[i].distance_q2 == 0) {
 781              		.loc 1 387 0
 782 0032 0133     		adds	r3, r3, #1
 783              	.LVL68:
 784 0034 2DE0     		b	.L52
 785              	.LVL69:
 786              	.L56:
 787              	.LBB2:
 389:.\Lidar.c     ****             continue;
 390:.\Lidar.c     ****         } else {
 391:.\Lidar.c     ****             while(i != 0) {
 392:.\Lidar.c     ****                 i--;
 788              		.loc 1 392 0
 789 0036 5F1E     		subs	r7, r3, #1
 790              	.LVL70:
 393:.\Lidar.c     ****                 float expect_angle = (nodebuffer[i+1].angle_q6_checkbit >> RPLIDAR_RESP_MEASUREMENT
 791              		.loc 1 393 0
 792 0038 03EB8303 		add	r3, r3, r3, lsl #2
 793 003c 2344     		add	r3, r3, r4
 794 003e B3F80100 		ldrh	r0, [r3, #1]	@ unaligned
 795 0042 4008     		lsrs	r0, r0, #1
ARM GAS  C:\Users\PANXIA~1\AppData\Local\Temp\ccSiu7P5.s 			page 22


 796 0044 FFF7FEFF 		bl	__aeabi_i2f
 797              	.LVL71:
 798 0048 4FF07251 		mov	r1, #1015021568
 799 004c FFF7FEFF 		bl	__aeabi_fmul
 800              	.LVL72:
 801 0050 4146     		mov	r1, r8
 802 0052 FFF7FEFF 		bl	__aeabi_fsub
 803              	.LVL73:
 804 0056 8246     		mov	r10, r0
 805              	.LVL74:
 394:.\Lidar.c     ****                 if (expect_angle < 0.0f) expect_angle = 0.0f;
 806              		.loc 1 394 0
 807 0058 0021     		movs	r1, #0
 808 005a FFF7FEFF 		bl	__aeabi_fcmplt
 809              	.LVL75:
 810 005e 08B1     		cbz	r0, .L55
 811 0060 4FF0000A 		mov	r10, #0
 812              	.LVL76:
 813              	.L55:
 395:.\Lidar.c     ****                 uint16 checkbit = nodebuffer[i].angle_q6_checkbit & RPLIDAR_RESP_MEASUREMENT_CHECKB
 814              		.loc 1 395 0
 815 0064 07EB8709 		add	r9, r7, r7, lsl #2
 816 0068 A144     		add	r9, r9, r4
 817 006a B9F80160 		ldrh	r6, [r9, #1]	@ unaligned
 818 006e 06F00106 		and	r6, r6, #1
 819              	.LVL77:
 396:.\Lidar.c     ****                 nodebuffer[i].angle_q6_checkbit = (((uint16)(expect_angle * 64.0f)) << RPLIDAR_RESP
 820              		.loc 1 396 0
 821 0072 5046     		mov	r0, r10
 822 0074 4FF08541 		mov	r1, #1115684864
 823 0078 FFF7FEFF 		bl	__aeabi_fmul
 824              	.LVL78:
 825 007c FFF7FEFF 		bl	__aeabi_f2uiz
 826              	.LVL79:
 827 0080 80B2     		uxth	r0, r0
 828 0082 06EB4006 		add	r6, r6, r0, lsl #1
 829              	.LVL80:
 830 0086 A9F80160 		strh	r6, [r9, #1]	@ unaligned
 392:.\Lidar.c     ****                 float expect_angle = (nodebuffer[i+1].angle_q6_checkbit >> RPLIDAR_RESP_MEASUREMENT
 831              		.loc 1 392 0
 832 008a 3B46     		mov	r3, r7
 833              	.LVL81:
 834              	.L54:
 835              	.LBE2:
 391:.\Lidar.c     ****                 i--;
 836              		.loc 1 391 0
 837 008c 002B     		cmp	r3, #0
 838 008e D2D1     		bne	.L56
 839 0090 01E0     		b	.L57
 840              	.LVL82:
 841              	.L52:
 387:.\Lidar.c     ****         if(nodebuffer[i].distance_q2 == 0) {
 842              		.loc 1 387 0 discriminator 1
 843 0092 AB42     		cmp	r3, r5
 844 0094 C7D3     		bcc	.L58
 845              	.LVL83:
 846              	.L57:
ARM GAS  C:\Users\PANXIA~1\AppData\Local\Temp\ccSiu7P5.s 			page 23


 397:.\Lidar.c     ****             }
 398:.\Lidar.c     ****             break;
 399:.\Lidar.c     ****         }
 400:.\Lidar.c     ****     }
 401:.\Lidar.c     **** 
 402:.\Lidar.c     ****     // all the data is invalid
 403:.\Lidar.c     ****     if (i == count) return 2;
 847              		.loc 1 403 0
 848 0096 AB42     		cmp	r3, r5
 849 0098 00F09F80 		beq	.L79
 404:.\Lidar.c     **** 
 405:.\Lidar.c     ****     //Tune tail
 406:.\Lidar.c     ****     for (i = count - 1; i > 0; i--) {
 850              		.loc 1 406 0
 851 009c 05F1FF3A 		add	r10, r5, #-1
 852              	.LVL84:
 853 00a0 D146     		mov	r9, r10
 854 00a2 38E0     		b	.L60
 855              	.LVL85:
 856              	.L67:
 407:.\Lidar.c     ****         if(nodebuffer[i].distance_q2 == 0) {
 857              		.loc 1 407 0
 858 00a4 09EB8903 		add	r3, r9, r9, lsl #2
 859 00a8 2344     		add	r3, r3, r4
 860 00aa B3F80330 		ldrh	r3, [r3, #3]	@ unaligned
 861 00ae 7BBB     		cbnz	r3, .L62
 406:.\Lidar.c     ****         if(nodebuffer[i].distance_q2 == 0) {
 862              		.loc 1 406 0
 863 00b0 09F1FF39 		add	r9, r9, #-1
 864              	.LVL86:
 865 00b4 2FE0     		b	.L60
 866              	.L65:
 867              	.LBB3:
 408:.\Lidar.c     ****             continue;
 409:.\Lidar.c     ****         } else {
 410:.\Lidar.c     ****             while(i != (count - 1)) {
 411:.\Lidar.c     ****                 i++;
 868              		.loc 1 411 0
 869 00b6 09F10109 		add	r9, r9, #1
 870              	.LVL87:
 412:.\Lidar.c     ****                 float expect_angle = (nodebuffer[i-1].angle_q6_checkbit >> RPLIDAR_RESP_MEASUREMENT
 871              		.loc 1 412 0
 872 00ba 09EB8906 		add	r6, r9, r9, lsl #2
 873 00be 731F     		subs	r3, r6, #5
 874 00c0 2344     		add	r3, r3, r4
 875 00c2 B3F80100 		ldrh	r0, [r3, #1]	@ unaligned
 876 00c6 4008     		lsrs	r0, r0, #1
 877 00c8 FFF7FEFF 		bl	__aeabi_i2f
 878              	.LVL88:
 879 00cc 4FF07251 		mov	r1, #1015021568
 880 00d0 FFF7FEFF 		bl	__aeabi_fmul
 881              	.LVL89:
 882 00d4 4146     		mov	r1, r8
 883 00d6 FFF7FEFF 		bl	__aeabi_fadd
 884              	.LVL90:
 885 00da 8346     		mov	fp, r0
 886              	.LVL91:
ARM GAS  C:\Users\PANXIA~1\AppData\Local\Temp\ccSiu7P5.s 			page 24


 413:.\Lidar.c     ****                 if (expect_angle > 360.0f) expect_angle -= 360.0f;
 887              		.loc 1 413 0
 888 00dc 4249     		ldr	r1, .L83+4
 889 00de FFF7FEFF 		bl	__aeabi_fcmpgt
 890              	.LVL92:
 891 00e2 20B1     		cbz	r0, .L63
 892              		.loc 1 413 0 is_stmt 0 discriminator 1
 893 00e4 5846     		mov	r0, fp
 894 00e6 4049     		ldr	r1, .L83+4
 895 00e8 FFF7FEFF 		bl	__aeabi_fsub
 896              	.LVL93:
 897 00ec 8346     		mov	fp, r0
 898              	.LVL94:
 899              	.L63:
 414:.\Lidar.c     ****                 uint16 checkbit = nodebuffer[i].angle_q6_checkbit & RPLIDAR_RESP_MEASUREMENT_CHECKB
 900              		.loc 1 414 0 is_stmt 1
 901 00ee 2644     		add	r6, r6, r4
 902 00f0 B6F80170 		ldrh	r7, [r6, #1]	@ unaligned
 903 00f4 07F00107 		and	r7, r7, #1
 904              	.LVL95:
 415:.\Lidar.c     ****                 nodebuffer[i].angle_q6_checkbit = (((uint16)(expect_angle * 64.0f)) << RPLIDAR_RESP
 905              		.loc 1 415 0
 906 00f8 5846     		mov	r0, fp
 907 00fa 4FF08541 		mov	r1, #1115684864
 908 00fe FFF7FEFF 		bl	__aeabi_fmul
 909              	.LVL96:
 910 0102 FFF7FEFF 		bl	__aeabi_f2uiz
 911              	.LVL97:
 912 0106 80B2     		uxth	r0, r0
 913 0108 07EB4007 		add	r7, r7, r0, lsl #1
 914              	.LVL98:
 915 010c A6F80170 		strh	r7, [r6, #1]	@ unaligned
 916              	.LVL99:
 917              	.L62:
 918              	.LBE3:
 410:.\Lidar.c     ****                 i++;
 919              		.loc 1 410 0
 920 0110 D145     		cmp	r9, r10
 921 0112 D0D1     		bne	.L65
 922 0114 02E0     		b	.L66
 923              	.L60:
 406:.\Lidar.c     ****         if(nodebuffer[i].distance_q2 == 0) {
 924              		.loc 1 406 0 discriminator 1
 925 0116 B9F1000F 		cmp	r9, #0
 926 011a C3D1     		bne	.L67
 927              	.L66:
 416:.\Lidar.c     ****             }
 417:.\Lidar.c     ****             break;
 418:.\Lidar.c     ****         }
 419:.\Lidar.c     ****     }
 420:.\Lidar.c     **** 
 421:.\Lidar.c     ****     //Fill invalid angle in the scan
 422:.\Lidar.c     ****     float frontAngle = (nodebuffer[0].angle_q6_checkbit >> RPLIDAR_RESP_MEASUREMENT_ANGLE_SHIFT)/64
 928              		.loc 1 422 0
 929 011c B4F80100 		ldrh	r0, [r4, #1]	@ unaligned
 930 0120 4008     		lsrs	r0, r0, #1
 931 0122 FFF7FEFF 		bl	__aeabi_i2f
ARM GAS  C:\Users\PANXIA~1\AppData\Local\Temp\ccSiu7P5.s 			page 25


 932              	.LVL100:
 933 0126 4FF07251 		mov	r1, #1015021568
 934 012a FFF7FEFF 		bl	__aeabi_fmul
 935              	.LVL101:
 936 012e 0190     		str	r0, [sp, #4]	@ float
 937              	.LVL102:
 423:.\Lidar.c     ****     for (i = 1; i < count; i++) {
 938              		.loc 1 423 0
 939 0130 0126     		movs	r6, #1
 940 0132 29E0     		b	.L68
 941              	.LVL103:
 942              	.L72:
 424:.\Lidar.c     ****         if(nodebuffer[i].distance_q2 == 0) {
 943              		.loc 1 424 0
 944 0134 06EB8607 		add	r7, r6, r6, lsl #2
 945 0138 2744     		add	r7, r7, r4
 946 013a B7F80330 		ldrh	r3, [r7, #3]	@ unaligned
 947 013e 13BB     		cbnz	r3, .L69
 948              	.LBB4:
 425:.\Lidar.c     ****             float expect_angle =  frontAngle + i * inc_origin_angle;
 949              		.loc 1 425 0
 950 0140 3046     		mov	r0, r6
 951 0142 FFF7FEFF 		bl	__aeabi_ui2f
 952              	.LVL104:
 953 0146 4146     		mov	r1, r8
 954 0148 FFF7FEFF 		bl	__aeabi_fmul
 955              	.LVL105:
 956 014c 0199     		ldr	r1, [sp, #4]	@ float
 957 014e FFF7FEFF 		bl	__aeabi_fadd
 958              	.LVL106:
 959 0152 8346     		mov	fp, r0
 960              	.LVL107:
 426:.\Lidar.c     ****             if (expect_angle > 360.0f) expect_angle -= 360.0f;
 961              		.loc 1 426 0
 962 0154 2449     		ldr	r1, .L83+4
 963 0156 FFF7FEFF 		bl	__aeabi_fcmpgt
 964              	.LVL108:
 965 015a 20B1     		cbz	r0, .L70
 966              		.loc 1 426 0 is_stmt 0 discriminator 1
 967 015c 5846     		mov	r0, fp
 968 015e 2249     		ldr	r1, .L83+4
 969 0160 FFF7FEFF 		bl	__aeabi_fsub
 970              	.LVL109:
 971 0164 8346     		mov	fp, r0
 972              	.LVL110:
 973              	.L70:
 427:.\Lidar.c     ****             uint16 checkbit = nodebuffer[i].angle_q6_checkbit & RPLIDAR_RESP_MEASUREMENT_CHECKBIT;
 974              		.loc 1 427 0 is_stmt 1
 975 0166 B7F80190 		ldrh	r9, [r7, #1]	@ unaligned
 976 016a 09F00109 		and	r9, r9, #1
 977              	.LVL111:
 428:.\Lidar.c     ****             nodebuffer[i].angle_q6_checkbit = (((uint16)(expect_angle * 64.0f)) << RPLIDAR_RESP_MEA
 978              		.loc 1 428 0
 979 016e 5846     		mov	r0, fp
 980 0170 4FF08541 		mov	r1, #1115684864
 981 0174 FFF7FEFF 		bl	__aeabi_fmul
 982              	.LVL112:
ARM GAS  C:\Users\PANXIA~1\AppData\Local\Temp\ccSiu7P5.s 			page 26


 983 0178 FFF7FEFF 		bl	__aeabi_f2uiz
 984              	.LVL113:
 985 017c 80B2     		uxth	r0, r0
 986 017e 09EB4009 		add	r9, r9, r0, lsl #1
 987              	.LVL114:
 988 0182 A7F80190 		strh	r9, [r7, #1]	@ unaligned
 989              	.LVL115:
 990              	.L69:
 991              	.LBE4:
 423:.\Lidar.c     ****         if(nodebuffer[i].distance_q2 == 0) {
 992              		.loc 1 423 0 discriminator 2
 993 0186 0136     		adds	r6, r6, #1
 994              	.LVL116:
 995              	.L68:
 423:.\Lidar.c     ****         if(nodebuffer[i].distance_q2 == 0) {
 996              		.loc 1 423 0 is_stmt 0 discriminator 1
 997 0188 AE42     		cmp	r6, r5
 998 018a D3D3     		bcc	.L72
 999 018c 4FF0000E 		mov	lr, #0
 1000 0190 1FE0     		b	.L73
 1001              	.LVL117:
 1002              	.L77:
 429:.\Lidar.c     ****         }
 430:.\Lidar.c     ****     }
 431:.\Lidar.c     **** 
 432:.\Lidar.c     ****     // Reorder the scan according to the angle value
 433:.\Lidar.c     ****     for (i = 0; i < (count-1); i++){
 434:.\Lidar.c     ****         for (j = (i+1); j < count; j++){
 1003              		.loc 1 434 0 is_stmt 1
 1004 0192 0EF10108 		add	r8, lr, #1
 1005              	.LVL118:
 1006 0196 4346     		mov	r3, r8
 1007 0198 18E0     		b	.L74
 1008              	.LVL119:
 1009              	.L76:
 435:.\Lidar.c     ****             if(nodebuffer[i].angle_q6_checkbit > nodebuffer[j].angle_q6_checkbit){
 1010              		.loc 1 435 0
 1011 019a 0EEB8E07 		add	r7, lr, lr, lsl #2
 1012 019e E119     		adds	r1, r4, r7
 1013 01a0 B1F801C0 		ldrh	ip, [r1, #1]	@ unaligned
 1014 01a4 03EB8306 		add	r6, r3, r3, lsl #2
 1015 01a8 A219     		adds	r2, r4, r6
 1016 01aa B2F80100 		ldrh	r0, [r2, #1]	@ unaligned
 1017 01ae 8445     		cmp	ip, r0
 1018 01b0 0BD9     		bls	.L75
 1019              	.LBB5:
 436:.\Lidar.c     ****                 rplidar_response_measurement_node_t temp = nodebuffer[i];
 1020              		.loc 1 436 0
 1021 01b2 0868     		ldr	r0, [r1]	@ unaligned
 1022 01b4 0290     		str	r0, [sp, #8]	@ unaligned
 1023 01b6 91F804C0 		ldrb	ip, [r1, #4]	@ zero_extendqisi2
 437:.\Lidar.c     ****                 nodebuffer[i] = nodebuffer[j];
 1024              		.loc 1 437 0
 1025 01ba 1068     		ldr	r0, [r2]	@ unaligned
 1026 01bc E051     		str	r0, [r4, r7]	@ unaligned
 1027 01be 1079     		ldrb	r0, [r2, #4]	@ zero_extendqisi2
 1028 01c0 0871     		strb	r0, [r1, #4]
ARM GAS  C:\Users\PANXIA~1\AppData\Local\Temp\ccSiu7P5.s 			page 27


 438:.\Lidar.c     ****                 nodebuffer[j] = temp;
 1029              		.loc 1 438 0
 1030 01c2 0298     		ldr	r0, [sp, #8]	@ unaligned
 1031 01c4 A051     		str	r0, [r4, r6]	@ unaligned
 1032 01c6 82F804C0 		strb	ip, [r2, #4]
 1033              	.L75:
 1034              	.LBE5:
 434:.\Lidar.c     ****             if(nodebuffer[i].angle_q6_checkbit > nodebuffer[j].angle_q6_checkbit){
 1035              		.loc 1 434 0 discriminator 2
 1036 01ca 0133     		adds	r3, r3, #1
 1037              	.LVL120:
 1038              	.L74:
 434:.\Lidar.c     ****             if(nodebuffer[i].angle_q6_checkbit > nodebuffer[j].angle_q6_checkbit){
 1039              		.loc 1 434 0 is_stmt 0 discriminator 1
 1040 01cc AB42     		cmp	r3, r5
 1041 01ce E4D3     		bcc	.L76
 433:.\Lidar.c     ****         for (j = (i+1); j < count; j++){
 1042              		.loc 1 433 0 is_stmt 1
 1043 01d0 C646     		mov	lr, r8
 1044              	.LVL121:
 1045              	.L73:
 433:.\Lidar.c     ****         for (j = (i+1); j < count; j++){
 1046              		.loc 1 433 0 is_stmt 0 discriminator 1
 1047 01d2 D645     		cmp	lr, r10
 1048 01d4 DDD3     		bcc	.L77
 439:.\Lidar.c     ****             }
 440:.\Lidar.c     ****         }
 441:.\Lidar.c     ****     }
 442:.\Lidar.c     **** 
 443:.\Lidar.c     ****     return 1;
 1049              		.loc 1 443 0 is_stmt 1
 1050 01d6 0120     		movs	r0, #1
 1051 01d8 00E0     		b	.L59
 1052              	.LVL122:
 1053              	.L79:
 403:.\Lidar.c     **** 
 1054              		.loc 1 403 0
 1055 01da 0220     		movs	r0, #2
 1056              	.LVL123:
 1057              	.L59:
 444:.\Lidar.c     **** }
 1058              		.loc 1 444 0
 1059 01dc 05B0     		add	sp, sp, #20
 1060              		.cfi_def_cfa_offset 36
 1061              		@ sp needed
 1062 01de BDE8F08F 		pop	{r4, r5, r6, r7, r8, r9, r10, fp, pc}
 1063              	.LVL124:
 1064              	.L84:
 1065 01e2 00BF     		.align	2
 1066              	.L83:
 1067 01e4 00807640 		.word	1081507840
 1068 01e8 0000B443 		.word	1135869952
 1069              		.cfi_endproc
 1070              	.LFE68:
 1071              		.size	ascendScanData, .-ascendScanData
 1072              		.section	.text.Lidar_Data_Receive_Prepare,"ax",%progbits
 1073              		.align	2
ARM GAS  C:\Users\PANXIA~1\AppData\Local\Temp\ccSiu7P5.s 			page 28


 1074              		.global	Lidar_Data_Receive_Prepare
 1075              		.thumb
 1076              		.thumb_func
 1077              		.type	Lidar_Data_Receive_Prepare, %function
 1078              	Lidar_Data_Receive_Prepare:
 1079              	.LFB69:
 445:.\Lidar.c     **** 
 446:.\Lidar.c     **** void Lidar_Data_Receive_Prepare(uint8 data)
 447:.\Lidar.c     **** {
 1080              		.loc 1 447 0
 1081              		.cfi_startproc
 1082              		@ args = 0, pretend = 0, frame = 0
 1083              		@ frame_needed = 0, uses_anonymous_args = 0
 1084              	.LVL125:
 1085 0000 10B5     		push	{r4, lr}
 1086              		.cfi_def_cfa_offset 8
 1087              		.cfi_offset 4, -8
 1088              		.cfi_offset 14, -4
 1089              	.LVL126:
 448:.\Lidar.c     ****  
 449:.\Lidar.c     ****     uint8 temp_sys;
 450:.\Lidar.c     **** 	static uint8 _data_len = 0,_data_cnt = 0;
 451:.\Lidar.c     **** 	static uint8 state = 0;
 452:.\Lidar.c     ****     temp_sys= offsetof(rplidar_response_capsule_measurement_nodes_t, start_angle_sync_q6);
 453:.\Lidar.c     **** 	temp_sys = data>>4;
 1090              		.loc 1 453 0
 1091 0002 0209     		lsrs	r2, r0, #4
 1092              	.LVL127:
 454:.\Lidar.c     ****     
 455:.\Lidar.c     **** 	if(state==0&&temp_sys==0xA)  //sys1
 1093              		.loc 1 455 0
 1094 0004 2D4B     		ldr	r3, .L95
 1095 0006 9B7B     		ldrb	r3, [r3, #14]	@ zero_extendqisi2
 1096 0008 3BB9     		cbnz	r3, .L86
 1097              		.loc 1 455 0 is_stmt 0 discriminator 1
 1098 000a 0A2A     		cmp	r2, #10
 1099 000c 05D1     		bne	.L86
 456:.\Lidar.c     **** 	{
 457:.\Lidar.c     **** 		state=1;
 1100              		.loc 1 457 0 is_stmt 1
 1101 000e 0122     		movs	r2, #1
 1102              	.LVL128:
 1103 0010 2A4B     		ldr	r3, .L95
 1104 0012 9A73     		strb	r2, [r3, #14]
 458:.\Lidar.c     **** 		nodeBuffer[0]=data;
 1105              		.loc 1 458 0
 1106 0014 2A4B     		ldr	r3, .L95+4
 1107 0016 1870     		strb	r0, [r3]
 1108 0018 10BD     		pop	{r4, pc}
 1109              	.LVL129:
 1110              	.L86:
 459:.\Lidar.c     **** 	}
 460:.\Lidar.c     **** 
 461:.\Lidar.c     **** 	else if(state==1&&temp_sys==0x5) //sys2
 1111              		.loc 1 461 0
 1112 001a 012B     		cmp	r3, #1
 1113 001c 0CD1     		bne	.L88
ARM GAS  C:\Users\PANXIA~1\AppData\Local\Temp\ccSiu7P5.s 			page 29


 1114              		.loc 1 461 0 is_stmt 0 discriminator 1
 1115 001e 052A     		cmp	r2, #5
 1116 0020 0AD1     		bne	.L88
 462:.\Lidar.c     **** 	{
 463:.\Lidar.c     **** 		state=2;
 1117              		.loc 1 463 0 is_stmt 1
 1118 0022 264B     		ldr	r3, .L95
 1119 0024 0222     		movs	r2, #2
 1120              	.LVL130:
 1121 0026 9A73     		strb	r2, [r3, #14]
 464:.\Lidar.c     **** 		nodeBuffer[1]=data>>1;
 1122              		.loc 1 464 0
 1123 0028 4008     		lsrs	r0, r0, #1
 1124              	.LVL131:
 1125 002a 254A     		ldr	r2, .L95+4
 1126 002c 5070     		strb	r0, [r2, #1]
 465:.\Lidar.c     ****         _data_cnt = 0;
 1127              		.loc 1 465 0
 1128 002e 0022     		movs	r2, #0
 1129 0030 DA73     		strb	r2, [r3, #15]
 466:.\Lidar.c     ****         _data_len = sizeof(rplidar_response_capsule_measurement_nodes_t);
 1130              		.loc 1 466 0
 1131 0032 5422     		movs	r2, #84
 1132 0034 1A74     		strb	r2, [r3, #16]
 1133 0036 10BD     		pop	{r4, pc}
 1134              	.LVL132:
 1135              	.L88:
 467:.\Lidar.c     **** 	}
 468:.\Lidar.c     **** 	else if(state == 2&&_data_len>0)//data
 1136              		.loc 1 468 0
 1137 0038 022B     		cmp	r3, #2
 1138 003a 12D1     		bne	.L89
 1139              		.loc 1 468 0 is_stmt 0 discriminator 1
 1140 003c 1F4A     		ldr	r2, .L95
 1141              	.LVL133:
 1142 003e 127C     		ldrb	r2, [r2, #16]	@ zero_extendqisi2
 1143 0040 7AB1     		cbz	r2, .L89
 469:.\Lidar.c     **** 	{
 470:.\Lidar.c     **** 		_data_len--;
 1144              		.loc 1 470 0 is_stmt 1
 1145 0042 531E     		subs	r3, r2, #1
 1146 0044 DBB2     		uxtb	r3, r3
 1147 0046 1D49     		ldr	r1, .L95
 1148 0048 0B74     		strb	r3, [r1, #16]
 471:.\Lidar.c     **** 		nodeBuffer[2+_data_cnt++] = data;
 1149              		.loc 1 471 0
 1150 004a CA7B     		ldrb	r2, [r1, #15]	@ zero_extendqisi2
 1151 004c 541C     		adds	r4, r2, #1
 1152 004e CC73     		strb	r4, [r1, #15]
 1153 0050 0232     		adds	r2, r2, #2
 1154 0052 1B49     		ldr	r1, .L95+4
 1155 0054 8854     		strb	r0, [r1, r2]
 472:.\Lidar.c     **** 		if(_data_len == 0)
 1156              		.loc 1 472 0
 1157 0056 002B     		cmp	r3, #0
 1158 0058 2ED1     		bne	.L85
 473:.\Lidar.c     **** 		state = 3;
ARM GAS  C:\Users\PANXIA~1\AppData\Local\Temp\ccSiu7P5.s 			page 30


 1159              		.loc 1 473 0
 1160 005a 0322     		movs	r2, #3
 1161 005c 174B     		ldr	r3, .L95
 1162 005e 9A73     		strb	r2, [r3, #14]
 1163 0060 10BD     		pop	{r4, pc}
 1164              	.L89:
 474:.\Lidar.c     **** 
 475:.\Lidar.c     **** 	}
 476:.\Lidar.c     **** 	else if(state == 3)//sum
 1165              		.loc 1 476 0
 1166 0062 032B     		cmp	r3, #3
 1167 0064 25D1     		bne	.L90
 1168              	.LBB6:
 477:.\Lidar.c     **** 	{
 478:.\Lidar.c     ****      //  UART_net_PutChar(0);
 479:.\Lidar.c     **** 		state = 0;
 1169              		.loc 1 479 0
 1170 0066 0023     		movs	r3, #0
 1171 0068 144A     		ldr	r2, .L95
 1172 006a 9373     		strb	r3, [r2, #14]
 1173              	.LVL134:
 480:.\Lidar.c     ****         size_t cpos; // = offsetof(rplidar_response_capsule_measurement_nodes_t, start_angle_sync_q
 481:.\Lidar.c     ****         
 482:.\Lidar.c     ****         uint8 checksum = 0;
 483:.\Lidar.c     ****         node = (rplidar_response_capsule_measurement_nodes_t *)nodeBuffer;
 1174              		.loc 1 483 0
 1175 006c 1449     		ldr	r1, .L95+4
 1176 006e 154A     		ldr	r2, .L95+8
 1177 0070 1160     		str	r1, [r2]
 484:.\Lidar.c     ****         
 485:.\Lidar.c     ****         uint8 recvChecksum = ((node->s_checksum_1 & 0xF) | (node->s_checksum_2<<4)); //
 1178              		.loc 1 485 0
 1179 0072 0A78     		ldrb	r2, [r1]	@ zero_extendqisi2
 1180 0074 4978     		ldrb	r1, [r1, #1]	@ zero_extendqisi2
 1181 0076 02F00F02 		and	r2, r2, #15
 1182 007a 42EA0111 		orr	r1, r2, r1, lsl #4
 1183 007e C9B2     		uxtb	r1, r1
 1184              	.LVL135:
 486:.\Lidar.c     ****         for ( cpos = 2 ;cpos < end; ++cpos)
 1185              		.loc 1 486 0
 1186 0080 0224     		movs	r4, #2
 1187 0082 03E0     		b	.L91
 1188              	.LVL136:
 1189              	.L92:
 487:.\Lidar.c     ****             {
 488:.\Lidar.c     ****                 checksum ^= nodeBuffer[cpos];
 1190              		.loc 1 488 0 discriminator 3
 1191 0084 0E4A     		ldr	r2, .L95+4
 1192 0086 125D     		ldrb	r2, [r2, r4]	@ zero_extendqisi2
 1193 0088 5340     		eors	r3, r3, r2
 1194              	.LVL137:
 486:.\Lidar.c     ****         for ( cpos = 2 ;cpos < end; ++cpos)
 1195              		.loc 1 486 0 discriminator 3
 1196 008a 0134     		adds	r4, r4, #1
 1197              	.LVL138:
 1198              	.L91:
 486:.\Lidar.c     ****         for ( cpos = 2 ;cpos < end; ++cpos)
ARM GAS  C:\Users\PANXIA~1\AppData\Local\Temp\ccSiu7P5.s 			page 31


 1199              		.loc 1 486 0 is_stmt 0 discriminator 1
 1200 008c 0E4A     		ldr	r2, .L95+12
 1201 008e 1278     		ldrb	r2, [r2]	@ zero_extendqisi2
 1202 0090 A242     		cmp	r2, r4
 1203 0092 F7D8     		bhi	.L92
 489:.\Lidar.c     ****                
 490:.\Lidar.c     ****             }
 491:.\Lidar.c     ****             if (recvChecksum == checksum)
 1204              		.loc 1 491 0 is_stmt 1
 1205 0094 9942     		cmp	r1, r3
 1206 0096 0FD1     		bne	.L85
 492:.\Lidar.c     ****             {
 493:.\Lidar.c     ****                 
 494:.\Lidar.c     ****                 if (node->start_angle_sync_q6 & RPLIDAR_RESP_MEASUREMENT_EXP_SYNCBIT) 
 495:.\Lidar.c     ****                 {
 496:.\Lidar.c     ****                     // this is the first capsule frame in logic, discard the previous cached data..
 497:.\Lidar.c     ****                 //    _is_previous_capsuledataRdy = false;
 498:.\Lidar.c     ****                     
 499:.\Lidar.c     ****                 }
 500:.\Lidar.c     ****                 if(rx_lidar_flag == 0)
 1207              		.loc 1 500 0
 1208 0098 084B     		ldr	r3, .L95
 1209              	.LVL139:
 1210 009a DB79     		ldrb	r3, [r3, #7]	@ zero_extendqisi2
 1211 009c 23B9     		cbnz	r3, .L93
 501:.\Lidar.c     ****                 {
 502:.\Lidar.c     ****                  memcpy(net_nodeBuffer,nodeBuffer,84);
 1212              		.loc 1 502 0
 1213 009e 0B48     		ldr	r0, .L95+16
 1214              	.LVL140:
 1215 00a0 0749     		ldr	r1, .L95+4
 1216              	.LVL141:
 1217 00a2 5422     		movs	r2, #84
 1218 00a4 FFF7FEFF 		bl	memcpy
 1219              	.LVL142:
 1220              	.L93:
 503:.\Lidar.c     ****                 }
 504:.\Lidar.c     ****                  rx_lidar_flag = 1;
 1221              		.loc 1 504 0
 1222 00a8 044B     		ldr	r3, .L95
 1223 00aa 0122     		movs	r2, #1
 1224 00ac DA71     		strb	r2, [r3, #7]
 505:.\Lidar.c     ****                  rx_lidar_count = cpos;
 1225              		.loc 1 505 0
 1226 00ae 5C74     		strb	r4, [r3, #17]
 1227 00b0 10BD     		pop	{r4, pc}
 1228              	.LVL143:
 1229              	.L90:
 1230              	.LBE6:
 506:.\Lidar.c     ****                //UART_net_PutChar('A');
 507:.\Lidar.c     ****             }
 508:.\Lidar.c     **** 	}
 509:.\Lidar.c     **** 	else
 510:.\Lidar.c     **** 		state = 0;
 1231              		.loc 1 510 0
 1232 00b2 0022     		movs	r2, #0
 1233 00b4 014B     		ldr	r3, .L95
ARM GAS  C:\Users\PANXIA~1\AppData\Local\Temp\ccSiu7P5.s 			page 32


 1234 00b6 9A73     		strb	r2, [r3, #14]
 1235              	.L85:
 1236 00b8 10BD     		pop	{r4, pc}
 1237              	.L96:
 1238 00ba 00BF     		.align	2
 1239              	.L95:
 1240 00bc 00000000 		.word	.LANCHOR0
 1241 00c0 00000000 		.word	nodeBuffer
 1242 00c4 00000000 		.word	node
 1243 00c8 00000000 		.word	end
 1244 00cc 00000000 		.word	net_nodeBuffer
 1245              		.cfi_endproc
 1246              	.LFE69:
 1247              		.size	Lidar_Data_Receive_Prepare, .-Lidar_Data_Receive_Prepare
 1248              		.comm	nodeBuffer1,5,4
 1249              		.global	recvPos
 1250              		.comm	test_f_suzu,2000,4
 1251              		.comm	test3,2500,4
 1252              		.comm	test2,2500,4
 1253              		.comm	test1,2500,4
 1254              		.comm	output_t,1,1
 1255              		.comm	normal_size,1,1
 1256              		.comm	end,1,1
 1257              		.comm	start,1,1
 1258              		.comm	node,4,4
 1259              		.global	rx_lidar_count
 1260              		.global	rx_lidar_flag
 1261              		.global	_is_previous_capsuledataRdy
 1262              		.global	GET_HEALTH
 1263              		.global	NORMAL_SCAN
 1264              		.global	EXPRESS_SCAN
 1265              		.global	arrtest
 1266              		.comm	net_nodeBuffer,100,4
 1267              		.comm	nodeBuffer,100,4
 1268              		.comm	S_IMU,20,4
 1269              		.comm	g_Car,96,4
 1270              		.data
 1271              		.align	2
 1272              		.type	GET_HEALTH, %object
 1273              		.size	GET_HEALTH, 2
 1274              	GET_HEALTH:
 1275 0000 A5       		.byte	-91
 1276 0001 52       		.byte	82
 1277 0002 0000     		.space	2
 1278              		.type	NORMAL_SCAN, %object
 1279              		.size	NORMAL_SCAN, 2
 1280              	NORMAL_SCAN:
 1281 0004 A5       		.byte	-91
 1282 0005 20       		.byte	32
 1283 0006 0000     		.space	2
 1284              		.type	EXPRESS_SCAN, %object
 1285              		.size	EXPRESS_SCAN, 9
 1286              	EXPRESS_SCAN:
 1287 0008 A5       		.byte	-91
 1288 0009 82       		.byte	-126
 1289 000a 05       		.byte	5
 1290 000b 00       		.byte	0
ARM GAS  C:\Users\PANXIA~1\AppData\Local\Temp\ccSiu7P5.s 			page 33


 1291 000c 00       		.byte	0
 1292 000d 00       		.byte	0
 1293 000e 00       		.byte	0
 1294 000f 00       		.byte	0
 1295 0010 22       		.byte	34
 1296 0011 000000   		.space	3
 1297              		.type	arrtest, %object
 1298              		.size	arrtest, 5
 1299              	arrtest:
 1300 0014 01       		.byte	1
 1301 0015 02       		.byte	2
 1302 0016 03       		.byte	3
 1303 0017 04       		.byte	4
 1304 0018 05       		.byte	5
 1305 0019 000000   		.bss
 1306              		.align	2
 1307              		.set	.LANCHOR0,. + 0
 1308              		.type	state.7810, %object
 1309              		.size	state.7810, 1
 1310              	state.7810:
 1311 0000 00       		.space	1
 1312              		.type	_data_cnt.7809, %object
 1313              		.size	_data_cnt.7809, 1
 1314              	_data_cnt.7809:
 1315 0001 00       		.space	1
 1316              		.type	_data_len.7808, %object
 1317              		.size	_data_len.7808, 1
 1318              	_data_len.7808:
 1319 0002 00       		.space	1
 1320 0003 00       		.space	1
 1321              		.type	count, %object
 1322              		.size	count, 2
 1323              	count:
 1324 0004 0000     		.space	2
 1325              		.type	test_i, %object
 1326              		.size	test_i, 1
 1327              	test_i:
 1328 0006 00       		.space	1
 1329              		.type	rx_lidar_flag, %object
 1330              		.size	rx_lidar_flag, 1
 1331              	rx_lidar_flag:
 1332 0007 00       		.space	1
 1333              		.type	state.7820, %object
 1334              		.size	state.7820, 1
 1335              	state.7820:
 1336 0008 00       		.space	1
 1337              		.type	_data_cnt.7819, %object
 1338              		.size	_data_cnt.7819, 1
 1339              	_data_cnt.7819:
 1340 0009 00       		.space	1
 1341              		.type	_data_len.7818, %object
 1342              		.size	_data_len.7818, 1
 1343              	_data_len.7818:
 1344 000a 00       		.space	1
 1345              		.type	state.7829, %object
 1346              		.size	state.7829, 1
 1347              	state.7829:
ARM GAS  C:\Users\PANXIA~1\AppData\Local\Temp\ccSiu7P5.s 			page 34


 1348 000b 00       		.space	1
 1349              		.type	_data_cnt.7828, %object
 1350              		.size	_data_cnt.7828, 1
 1351              	_data_cnt.7828:
 1352 000c 00       		.space	1
 1353              		.type	_data_len.7827, %object
 1354              		.size	_data_len.7827, 1
 1355              	_data_len.7827:
 1356 000d 00       		.space	1
 1357              		.type	state.7886, %object
 1358              		.size	state.7886, 1
 1359              	state.7886:
 1360 000e 00       		.space	1
 1361              		.type	_data_cnt.7885, %object
 1362              		.size	_data_cnt.7885, 1
 1363              	_data_cnt.7885:
 1364 000f 00       		.space	1
 1365              		.type	_data_len.7884, %object
 1366              		.size	_data_len.7884, 1
 1367              	_data_len.7884:
 1368 0010 00       		.space	1
 1369              		.type	rx_lidar_count, %object
 1370              		.size	rx_lidar_count, 1
 1371              	rx_lidar_count:
 1372 0011 00       		.space	1
 1373 0012 0000     		.space	2
 1374              		.type	recvPos, %object
 1375              		.size	recvPos, 4
 1376              	recvPos:
 1377 0014 00000000 		.space	4
 1378              		.type	_is_previous_capsuledataRdy, %object
 1379              		.size	_is_previous_capsuledataRdy, 1
 1380              	_is_previous_capsuledataRdy:
 1381 0018 00       		.space	1
 1382 0019 000000   		.text
 1383              	.Letext0:
 1384              		.file 2 "d:\\program files (x86)\\cypress\\psoc creator\\3.3\\psoc creator\\import\\gnu\\arm\\4.9.
 1385              		.file 3 "d:\\program files (x86)\\cypress\\psoc creator\\3.3\\psoc creator\\import\\gnu\\arm\\4.9.
 1386              		.file 4 "Generated_Source\\PSoC5/cytypes.h"
 1387              		.file 5 "d:\\program files (x86)\\cypress\\psoc creator\\3.3\\psoc creator\\import\\gnu\\arm\\4.9.
 1388              		.file 6 ".\\Lidar.h"
 1389              		.file 7 ".\\car.h"
 1390              		.file 8 ".\\Transfer.h"
 1391              		.file 9 "Generated_Source\\PSoC5/core_cm3.h"
 1392              		.file 10 "Generated_Source\\PSoC5/debug_time.h"