ARM GAS  C:\Users\PANXIA~1\AppData\Local\Temp\ccfIXroa.s 			page 1


   1              		.syntax unified
   2              		.cpu cortex-m3
   3              		.fpu softvfp
   4              		.eabi_attribute 20, 1
   5              		.eabi_attribute 21, 1
   6              		.eabi_attribute 23, 3
   7              		.eabi_attribute 24, 1
   8              		.eabi_attribute 25, 1
   9              		.eabi_attribute 26, 1
  10              		.eabi_attribute 30, 1
  11              		.eabi_attribute 34, 1
  12              		.eabi_attribute 18, 4
  13              		.thumb
  14              		.file	"M_thickness.c"
  15              		.text
  16              	.Ltext0:
  17              		.cfi_sections	.debug_frame
  18              		.section	.text.shutdown_50s,"ax",%progbits
  19              		.align	2
  20              		.global	shutdown_50s
  21              		.thumb
  22              		.thumb_func
  23              		.type	shutdown_50s, %function
  24              	shutdown_50s:
  25              	.LFB63:
  26              		.file 1 ".\\M_thickness.c"
   1:.\M_thickness.c **** /* ========================================
   2:.\M_thickness.c ****  *
   3:.\M_thickness.c ****  * Copyright YOUR COMPANY, THE YEAR
   4:.\M_thickness.c ****  * All Rights Reserved
   5:.\M_thickness.c ****  * UNPUBLISHED, LICENSED SOFTWARE.
   6:.\M_thickness.c ****  *
   7:.\M_thickness.c ****  * CONFIDENTIAL AND PROPRIETARY INFORMATION
   8:.\M_thickness.c ****  * WHICH IS THE PROPERTY OF your company.
   9:.\M_thickness.c ****  *
  10:.\M_thickness.c ****  * ========================================
  11:.\M_thickness.c **** */
  12:.\M_thickness.c **** #include "M_thickness.h"
  13:.\M_thickness.c **** #include "Car.h"
  14:.\M_thickness.c **** 
  15:.\M_thickness.c **** 
  16:.\M_thickness.c **** uint8 change_flag = 0;
  17:.\M_thickness.c **** void M_Data_Receive_Anl(uint8 *data_buf,uint8 num);
  18:.\M_thickness.c **** void shutdown_50s()
  19:.\M_thickness.c **** {
  27              		.loc 1 19 0
  28              		.cfi_startproc
  29              		@ args = 0, pretend = 0, frame = 0
  30              		@ frame_needed = 0, uses_anonymous_args = 0
  31 0000 08B5     		push	{r3, lr}
  32              		.cfi_def_cfa_offset 8
  33              		.cfi_offset 3, -8
  34              		.cfi_offset 14, -4
  20:.\M_thickness.c ****  
  21:.\M_thickness.c ****      M_DOWN_Write(1);
  35              		.loc 1 21 0
  36 0002 0120     		movs	r0, #1
ARM GAS  C:\Users\PANXIA~1\AppData\Local\Temp\ccfIXroa.s 			page 2


  37 0004 FFF7FEFF 		bl	M_DOWN_Write
  38              	.LVL0:
  22:.\M_thickness.c ****      M_UP_Write(1);
  39              		.loc 1 22 0
  40 0008 0120     		movs	r0, #1
  41 000a FFF7FEFF 		bl	M_UP_Write
  42              	.LVL1:
  23:.\M_thickness.c ****      M_ZERO_Write(1);
  43              		.loc 1 23 0
  44 000e 0120     		movs	r0, #1
  45 0010 FFF7FEFF 		bl	M_ZERO_Write
  46              	.LVL2:
  47 0014 08BD     		pop	{r3, pc}
  48              		.cfi_endproc
  49              	.LFE63:
  50              		.size	shutdown_50s, .-shutdown_50s
  51 0016 00BF     		.section	.text.Control_M_loop,"ax",%progbits
  52              		.align	2
  53              		.global	Control_M_loop
  54              		.thumb
  55              		.thumb_func
  56              		.type	Control_M_loop, %function
  57              	Control_M_loop:
  58              	.LFB64:
  24:.\M_thickness.c **** }
  25:.\M_thickness.c **** void Control_M_loop()
  26:.\M_thickness.c **** {
  59              		.loc 1 26 0
  60              		.cfi_startproc
  61              		@ args = 0, pretend = 0, frame = 0
  62              		@ frame_needed = 0, uses_anonymous_args = 0
  63 0000 08B5     		push	{r3, lr}
  64              		.cfi_def_cfa_offset 8
  65              		.cfi_offset 3, -8
  66              		.cfi_offset 14, -4
  27:.\M_thickness.c ****     if(g_Car.M_Command == M_POWER_ON)
  67              		.loc 1 27 0
  68 0002 444B     		ldr	r3, .L15
  69 0004 93F82C30 		ldrb	r3, [r3, #44]	@ zero_extendqisi2
  70 0008 012B     		cmp	r3, #1
  71 000a 1FD1     		bne	.L4
  28:.\M_thickness.c ****     {
  29:.\M_thickness.c ****         if(change_flag == 0) 
  72              		.loc 1 29 0
  73 000c 424B     		ldr	r3, .L15+4
  74 000e 1B78     		ldrb	r3, [r3]	@ zero_extendqisi2
  75 0010 7BB9     		cbnz	r3, .L5
  30:.\M_thickness.c ****         {
  31:.\M_thickness.c ****             M_PWR_Write(1) ;//导通继电器输出5v
  76              		.loc 1 31 0
  77 0012 0120     		movs	r0, #1
  78 0014 FFF7FEFF 		bl	M_PWR_Write
  79              	.LVL3:
  32:.\M_thickness.c ****             M_DOWN_Write(0);
  80              		.loc 1 32 0
  81 0018 0020     		movs	r0, #0
  82 001a FFF7FEFF 		bl	M_DOWN_Write
ARM GAS  C:\Users\PANXIA~1\AppData\Local\Temp\ccfIXroa.s 			page 3


  83              	.LVL4:
  33:.\M_thickness.c ****             M_UP_Write(0)  ;
  84              		.loc 1 33 0
  85 001e 0020     		movs	r0, #0
  86 0020 FFF7FEFF 		bl	M_UP_Write
  87              	.LVL5:
  34:.\M_thickness.c ****             M_ZERO_Write(0);
  88              		.loc 1 34 0
  89 0024 0020     		movs	r0, #0
  90 0026 FFF7FEFF 		bl	M_ZERO_Write
  91              	.LVL6:
  35:.\M_thickness.c ****             
  36:.\M_thickness.c ****             change_flag = 1;
  92              		.loc 1 36 0
  93 002a 0122     		movs	r2, #1
  94 002c 3A4B     		ldr	r3, .L15+4
  95 002e 1A70     		strb	r2, [r3]
  96 0030 08BD     		pop	{r3, pc}
  97              	.L5:
  37:.\M_thickness.c ****         }
  38:.\M_thickness.c ****         else
  39:.\M_thickness.c ****         {
  40:.\M_thickness.c ****             M_PWR_Write(0);
  98              		.loc 1 40 0
  99 0032 0020     		movs	r0, #0
 100 0034 FFF7FEFF 		bl	M_PWR_Write
 101              	.LVL7:
  41:.\M_thickness.c ****             change_flag = 0; 
 102              		.loc 1 41 0
 103 0038 0022     		movs	r2, #0
 104 003a 374B     		ldr	r3, .L15+4
 105 003c 1A70     		strb	r2, [r3]
  42:.\M_thickness.c ****             g_Car.M_Command = M_NONE;
 106              		.loc 1 42 0
 107 003e 354B     		ldr	r3, .L15
 108 0040 83F82C20 		strb	r2, [r3, #44]
  43:.\M_thickness.c ****             g_Car.shutdown_flag = 1;
 109              		.loc 1 43 0
 110 0044 0122     		movs	r2, #1
 111 0046 83F85020 		strb	r2, [r3, #80]
 112 004a 08BD     		pop	{r3, pc}
 113              	.L4:
  44:.\M_thickness.c ****         }
  45:.\M_thickness.c ****         
  46:.\M_thickness.c ****     }
  47:.\M_thickness.c ****     else if(g_Car.M_Command == M_SHUT_DOWN)
 114              		.loc 1 47 0
 115 004c 022B     		cmp	r3, #2
 116 004e 16D1     		bne	.L7
  48:.\M_thickness.c ****     {
  49:.\M_thickness.c ****         if(change_flag == 0) 
 117              		.loc 1 49 0
 118 0050 314B     		ldr	r3, .L15+4
 119 0052 1B78     		ldrb	r3, [r3]	@ zero_extendqisi2
 120 0054 1BB9     		cbnz	r3, .L8
  50:.\M_thickness.c ****         {
  51:.\M_thickness.c ****         
ARM GAS  C:\Users\PANXIA~1\AppData\Local\Temp\ccfIXroa.s 			page 4


  52:.\M_thickness.c ****             change_flag = 1;
 121              		.loc 1 52 0
 122 0056 0122     		movs	r2, #1
 123 0058 2F4B     		ldr	r3, .L15+4
 124 005a 1A70     		strb	r2, [r3]
 125 005c 08BD     		pop	{r3, pc}
 126              	.L8:
  53:.\M_thickness.c ****         }
  54:.\M_thickness.c ****         else
  55:.\M_thickness.c ****         { 
  56:.\M_thickness.c ****     
  57:.\M_thickness.c ****             
  58:.\M_thickness.c ****             M_DOWN_Write(1);
 127              		.loc 1 58 0
 128 005e 0120     		movs	r0, #1
 129 0060 FFF7FEFF 		bl	M_DOWN_Write
 130              	.LVL8:
  59:.\M_thickness.c ****             M_UP_Write(1);
 131              		.loc 1 59 0
 132 0064 0120     		movs	r0, #1
 133 0066 FFF7FEFF 		bl	M_UP_Write
 134              	.LVL9:
  60:.\M_thickness.c ****             M_ZERO_Write(1);
 135              		.loc 1 60 0
 136 006a 0120     		movs	r0, #1
 137 006c FFF7FEFF 		bl	M_ZERO_Write
 138              	.LVL10:
  61:.\M_thickness.c ****           
  62:.\M_thickness.c ****             change_flag = 0; 
 139              		.loc 1 62 0
 140 0070 0023     		movs	r3, #0
 141 0072 294A     		ldr	r2, .L15+4
 142 0074 1370     		strb	r3, [r2]
  63:.\M_thickness.c ****             g_Car.M_Command = M_NONE;
 143              		.loc 1 63 0
 144 0076 274A     		ldr	r2, .L15
 145 0078 82F82C30 		strb	r3, [r2, #44]
 146 007c 08BD     		pop	{r3, pc}
 147              	.L7:
  64:.\M_thickness.c ****         }
  65:.\M_thickness.c ****     }
  66:.\M_thickness.c ****     else if (g_Car.M_Command == M_UP)
 148              		.loc 1 66 0
 149 007e 032B     		cmp	r3, #3
 150 0080 16D1     		bne	.L9
  67:.\M_thickness.c ****     {
  68:.\M_thickness.c ****         if(change_flag == 0) 
 151              		.loc 1 68 0
 152 0082 254B     		ldr	r3, .L15+4
 153 0084 1B78     		ldrb	r3, [r3]	@ zero_extendqisi2
 154 0086 33B9     		cbnz	r3, .L10
  69:.\M_thickness.c ****         {
  70:.\M_thickness.c ****             M_UP_Write(1) ;
 155              		.loc 1 70 0
 156 0088 0120     		movs	r0, #1
 157 008a FFF7FEFF 		bl	M_UP_Write
 158              	.LVL11:
ARM GAS  C:\Users\PANXIA~1\AppData\Local\Temp\ccfIXroa.s 			page 5


  71:.\M_thickness.c ****             change_flag = 1;
 159              		.loc 1 71 0
 160 008e 0122     		movs	r2, #1
 161 0090 214B     		ldr	r3, .L15+4
 162 0092 1A70     		strb	r2, [r3]
 163 0094 08BD     		pop	{r3, pc}
 164              	.L10:
  72:.\M_thickness.c ****         }
  73:.\M_thickness.c ****         else
  74:.\M_thickness.c ****         { 
  75:.\M_thickness.c ****             M_UP_Write(0);
 165              		.loc 1 75 0
 166 0096 0020     		movs	r0, #0
 167 0098 FFF7FEFF 		bl	M_UP_Write
 168              	.LVL12:
  76:.\M_thickness.c ****        
  77:.\M_thickness.c ****             change_flag = 0; 
 169              		.loc 1 77 0
 170 009c 0022     		movs	r2, #0
 171 009e 1E4B     		ldr	r3, .L15+4
 172 00a0 1A70     		strb	r2, [r3]
  78:.\M_thickness.c ****             g_Car.M_Command  =  M_NONE;
 173              		.loc 1 78 0
 174 00a2 1C4B     		ldr	r3, .L15
 175 00a4 83F82C20 		strb	r2, [r3, #44]
  79:.\M_thickness.c ****              g_Car.shutdown_flag = 1;
 176              		.loc 1 79 0
 177 00a8 0122     		movs	r2, #1
 178 00aa 83F85020 		strb	r2, [r3, #80]
 179 00ae 08BD     		pop	{r3, pc}
 180              	.L9:
  80:.\M_thickness.c ****         }
  81:.\M_thickness.c ****     }
  82:.\M_thickness.c ****     else if (g_Car.M_Command == M_DOWN)
 181              		.loc 1 82 0
 182 00b0 042B     		cmp	r3, #4
 183 00b2 16D1     		bne	.L11
  83:.\M_thickness.c ****     {
  84:.\M_thickness.c ****         if(change_flag == 0) 
 184              		.loc 1 84 0
 185 00b4 184B     		ldr	r3, .L15+4
 186 00b6 1B78     		ldrb	r3, [r3]	@ zero_extendqisi2
 187 00b8 33B9     		cbnz	r3, .L12
  85:.\M_thickness.c ****         {
  86:.\M_thickness.c ****             M_DOWN_Write(1) ;
 188              		.loc 1 86 0
 189 00ba 0120     		movs	r0, #1
 190 00bc FFF7FEFF 		bl	M_DOWN_Write
 191              	.LVL13:
  87:.\M_thickness.c ****             change_flag = 1;
 192              		.loc 1 87 0
 193 00c0 0122     		movs	r2, #1
 194 00c2 154B     		ldr	r3, .L15+4
 195 00c4 1A70     		strb	r2, [r3]
 196 00c6 08BD     		pop	{r3, pc}
 197              	.L12:
  88:.\M_thickness.c ****         }
ARM GAS  C:\Users\PANXIA~1\AppData\Local\Temp\ccfIXroa.s 			page 6


  89:.\M_thickness.c ****         else
  90:.\M_thickness.c ****         { 
  91:.\M_thickness.c ****             M_DOWN_Write(0);
 198              		.loc 1 91 0
 199 00c8 0020     		movs	r0, #0
 200 00ca FFF7FEFF 		bl	M_DOWN_Write
 201              	.LVL14:
  92:.\M_thickness.c ****        
  93:.\M_thickness.c ****             change_flag = 0; 
 202              		.loc 1 93 0
 203 00ce 0022     		movs	r2, #0
 204 00d0 114B     		ldr	r3, .L15+4
 205 00d2 1A70     		strb	r2, [r3]
  94:.\M_thickness.c ****             g_Car.M_Command = M_NONE;
 206              		.loc 1 94 0
 207 00d4 0F4B     		ldr	r3, .L15
 208 00d6 83F82C20 		strb	r2, [r3, #44]
  95:.\M_thickness.c ****              g_Car.shutdown_flag = 1;
 209              		.loc 1 95 0
 210 00da 0122     		movs	r2, #1
 211 00dc 83F85020 		strb	r2, [r3, #80]
 212 00e0 08BD     		pop	{r3, pc}
 213              	.L11:
  96:.\M_thickness.c ****         }
  97:.\M_thickness.c ****     }
  98:.\M_thickness.c ****     else if (g_Car.M_Command == M_ZERO)
 214              		.loc 1 98 0
 215 00e2 052B     		cmp	r3, #5
 216 00e4 15D1     		bne	.L3
  99:.\M_thickness.c ****     {
 100:.\M_thickness.c ****         if(change_flag == 0) 
 217              		.loc 1 100 0
 218 00e6 0C4B     		ldr	r3, .L15+4
 219 00e8 1B78     		ldrb	r3, [r3]	@ zero_extendqisi2
 220 00ea 33B9     		cbnz	r3, .L13
 101:.\M_thickness.c ****         {
 102:.\M_thickness.c ****             M_ZERO_Write(1) ;
 221              		.loc 1 102 0
 222 00ec 0120     		movs	r0, #1
 223 00ee FFF7FEFF 		bl	M_ZERO_Write
 224              	.LVL15:
 103:.\M_thickness.c ****             change_flag = 1;
 225              		.loc 1 103 0
 226 00f2 0122     		movs	r2, #1
 227 00f4 084B     		ldr	r3, .L15+4
 228 00f6 1A70     		strb	r2, [r3]
 229 00f8 08BD     		pop	{r3, pc}
 230              	.L13:
 104:.\M_thickness.c ****         }
 105:.\M_thickness.c ****         else
 106:.\M_thickness.c ****         { 
 107:.\M_thickness.c ****             M_ZERO_Write(0);
 231              		.loc 1 107 0
 232 00fa 0020     		movs	r0, #0
 233 00fc FFF7FEFF 		bl	M_ZERO_Write
 234              	.LVL16:
 108:.\M_thickness.c ****        
ARM GAS  C:\Users\PANXIA~1\AppData\Local\Temp\ccfIXroa.s 			page 7


 109:.\M_thickness.c ****             change_flag = 0; 
 235              		.loc 1 109 0
 236 0100 0022     		movs	r2, #0
 237 0102 054B     		ldr	r3, .L15+4
 238 0104 1A70     		strb	r2, [r3]
 110:.\M_thickness.c ****             g_Car.M_Command = M_NONE;
 239              		.loc 1 110 0
 240 0106 034B     		ldr	r3, .L15
 241 0108 83F82C20 		strb	r2, [r3, #44]
 111:.\M_thickness.c ****              g_Car.shutdown_flag = 1;
 242              		.loc 1 111 0
 243 010c 0122     		movs	r2, #1
 244 010e 83F85020 		strb	r2, [r3, #80]
 245              	.L3:
 246 0112 08BD     		pop	{r3, pc}
 247              	.L16:
 248              		.align	2
 249              	.L15:
 250 0114 00000000 		.word	g_Car
 251 0118 00000000 		.word	.LANCHOR0
 252              		.cfi_endproc
 253              	.LFE64:
 254              		.size	Control_M_loop, .-Control_M_loop
 255              		.section	.text.M_Data_Receive_Anl,"ax",%progbits
 256              		.align	2
 257              		.global	M_Data_Receive_Anl
 258              		.thumb
 259              		.thumb_func
 260              		.type	M_Data_Receive_Anl, %function
 261              	M_Data_Receive_Anl:
 262              	.LFB66:
 112:.\M_thickness.c ****         }
 113:.\M_thickness.c ****     }
 114:.\M_thickness.c ****     
 115:.\M_thickness.c **** }
 116:.\M_thickness.c ****  static uint8 temp[50];
 117:.\M_thickness.c ****     static uint16 count;
 118:.\M_thickness.c **** 
 119:.\M_thickness.c **** void M_Data_Receive_Prepare(uint8 data)
 120:.\M_thickness.c **** {
 121:.\M_thickness.c **** 	static uint8 RxBuffer[50];
 122:.\M_thickness.c ****    
 123:.\M_thickness.c **** 	static uint8 _data_len = 0,_data_cnt = 0;
 124:.\M_thickness.c **** 	static uint8 state = 0;
 125:.\M_thickness.c ****     
 126:.\M_thickness.c **** 	temp[count] = data;
 127:.\M_thickness.c ****     count++;
 128:.\M_thickness.c **** 	if(state==0&&data==16)
 129:.\M_thickness.c **** 	{
 130:.\M_thickness.c **** 		state=1;
 131:.\M_thickness.c **** 		RxBuffer[0]=data;
 132:.\M_thickness.c **** 	}
 133:.\M_thickness.c **** 	else if(state==1&&data==8)
 134:.\M_thickness.c **** 	{
 135:.\M_thickness.c **** 		state=2;
 136:.\M_thickness.c **** 		RxBuffer[1]=data;
 137:.\M_thickness.c **** 	}
ARM GAS  C:\Users\PANXIA~1\AppData\Local\Temp\ccfIXroa.s 			page 8


 138:.\M_thickness.c **** 	else if(state==2&&data==7) //fuciton
 139:.\M_thickness.c **** 	{
 140:.\M_thickness.c **** 		state=3;
 141:.\M_thickness.c **** 		RxBuffer[2]=data;
 142:.\M_thickness.c ****         _data_len = 7;
 143:.\M_thickness.c **** 		_data_cnt = 0;
 144:.\M_thickness.c **** 	}
 145:.\M_thickness.c **** 	else if(state==3&&_data_len>0)//data
 146:.\M_thickness.c **** 	{
 147:.\M_thickness.c **** 		_data_len--;
 148:.\M_thickness.c **** 		RxBuffer[3+_data_cnt++]=data;
 149:.\M_thickness.c **** 		if(_data_len==0)
 150:.\M_thickness.c **** 		   state = 4;
 151:.\M_thickness.c **** 	}
 152:.\M_thickness.c **** 	else if(state==4)//sum
 153:.\M_thickness.c **** 	{
 154:.\M_thickness.c **** 		state = 0;
 155:.\M_thickness.c **** 		RxBuffer[3+_data_cnt]=data;
 156:.\M_thickness.c **** 		M_Data_Receive_Anl(RxBuffer,_data_cnt+4);
 157:.\M_thickness.c ****         count = 0;
 158:.\M_thickness.c **** 	}
 159:.\M_thickness.c **** 	else
 160:.\M_thickness.c **** 		state = 0;
 161:.\M_thickness.c ****     
 162:.\M_thickness.c **** 
 163:.\M_thickness.c **** }
 164:.\M_thickness.c **** void M_Data_Receive_Anl(uint8 *data_buf,uint8 num)
 165:.\M_thickness.c **** {
 263              		.loc 1 165 0
 264              		.cfi_startproc
 265              		@ args = 0, pretend = 0, frame = 0
 266              		@ frame_needed = 0, uses_anonymous_args = 0
 267              		@ link register save eliminated.
 268              	.LVL17:
 269 0000 10B4     		push	{r4}
 270              		.cfi_def_cfa_offset 4
 271              		.cfi_offset 4, -4
 272              	.LVL18:
 166:.\M_thickness.c ****     uint8 sum = 0;
 167:.\M_thickness.c ****     uint8 temp = 0;
 168:.\M_thickness.c ****     
 169:.\M_thickness.c ****     uint8 i=0;
 170:.\M_thickness.c **** 	for( i=1;i<(num-1);i++)
 273              		.loc 1 170 0
 274 0002 0123     		movs	r3, #1
 166:.\M_thickness.c ****     uint8 sum = 0;
 275              		.loc 1 166 0
 276 0004 0022     		movs	r2, #0
 277              		.loc 1 170 0
 278 0006 04E0     		b	.L18
 279              	.LVL19:
 280              	.L19:
 171:.\M_thickness.c **** 		sum += *(data_buf+i);
 281              		.loc 1 171 0 discriminator 3
 282 0008 C45C     		ldrb	r4, [r0, r3]	@ zero_extendqisi2
 283 000a 2244     		add	r2, r2, r4
 284              	.LVL20:
ARM GAS  C:\Users\PANXIA~1\AppData\Local\Temp\ccfIXroa.s 			page 9


 285 000c D2B2     		uxtb	r2, r2
 286              	.LVL21:
 170:.\M_thickness.c **** 		sum += *(data_buf+i);
 287              		.loc 1 170 0 discriminator 3
 288 000e 0133     		adds	r3, r3, #1
 289              	.LVL22:
 290 0010 DBB2     		uxtb	r3, r3
 291              	.LVL23:
 292              	.L18:
 170:.\M_thickness.c **** 		sum += *(data_buf+i);
 293              		.loc 1 170 0 is_stmt 0 discriminator 1
 294 0012 4C1E     		subs	r4, r1, #1
 295 0014 A342     		cmp	r3, r4
 296 0016 F7DB     		blt	.L19
 172:.\M_thickness.c **** 	if(!(sum==*(data_buf+num-1)))		return;		                
 297              		.loc 1 172 0 is_stmt 1
 298 0018 035D     		ldrb	r3, [r0, r4]	@ zero_extendqisi2
 299              	.LVL24:
 300 001a 9342     		cmp	r3, r2
 301 001c 0DD1     		bne	.L17
 173:.\M_thickness.c ****     g_Car.M_value = *(data_buf+7)*10+*(data_buf+8);
 302              		.loc 1 173 0
 303 001e C379     		ldrb	r3, [r0, #7]	@ zero_extendqisi2
 304 0020 017A     		ldrb	r1, [r0, #8]	@ zero_extendqisi2
 305              	.LVL25:
 306 0022 074A     		ldr	r2, .L22
 307              	.LVL26:
 308 0024 03EB8303 		add	r3, r3, r3, lsl #2
 309 0028 5C00     		lsls	r4, r3, #1
 310 002a 6318     		adds	r3, r4, r1
 311 002c D385     		strh	r3, [r2, #46]	@ movhi
 174:.\M_thickness.c ****     g_Car.M_radix = *(data_buf+9);
 312              		.loc 1 174 0
 313 002e 437A     		ldrb	r3, [r0, #9]	@ zero_extendqisi2
 314 0030 82F83030 		strb	r3, [r2, #48]
 175:.\M_thickness.c ****     
 176:.\M_thickness.c ****     g_Car.shutdown_flag = 1;
 315              		.loc 1 176 0
 316 0034 0123     		movs	r3, #1
 317 0036 82F85030 		strb	r3, [r2, #80]
 318              	.L17:
 177:.\M_thickness.c **** 
 178:.\M_thickness.c **** }
 319              		.loc 1 178 0
 320 003a 5DF8044B 		ldr	r4, [sp], #4
 321              		.cfi_restore 4
 322              		.cfi_def_cfa_offset 0
 323 003e 7047     		bx	lr
 324              	.L23:
 325              		.align	2
 326              	.L22:
 327 0040 00000000 		.word	g_Car
 328              		.cfi_endproc
 329              	.LFE66:
 330              		.size	M_Data_Receive_Anl, .-M_Data_Receive_Anl
 331              		.section	.text.M_Data_Receive_Prepare,"ax",%progbits
 332              		.align	2
ARM GAS  C:\Users\PANXIA~1\AppData\Local\Temp\ccfIXroa.s 			page 10


 333              		.global	M_Data_Receive_Prepare
 334              		.thumb
 335              		.thumb_func
 336              		.type	M_Data_Receive_Prepare, %function
 337              	M_Data_Receive_Prepare:
 338              	.LFB65:
 120:.\M_thickness.c **** 	static uint8 RxBuffer[50];
 339              		.loc 1 120 0
 340              		.cfi_startproc
 341              		@ args = 0, pretend = 0, frame = 0
 342              		@ frame_needed = 0, uses_anonymous_args = 0
 343              	.LVL27:
 344 0000 38B5     		push	{r3, r4, r5, lr}
 345              		.cfi_def_cfa_offset 16
 346              		.cfi_offset 3, -16
 347              		.cfi_offset 4, -12
 348              		.cfi_offset 5, -8
 349              		.cfi_offset 14, -4
 126:.\M_thickness.c ****     count++;
 350              		.loc 1 126 0
 351 0002 2F4B     		ldr	r3, .L32
 352 0004 5A88     		ldrh	r2, [r3, #2]
 353 0006 9918     		adds	r1, r3, r2
 354 0008 0871     		strb	r0, [r1, #4]
 127:.\M_thickness.c **** 	if(state==0&&data==16)
 355              		.loc 1 127 0
 356 000a 0132     		adds	r2, r2, #1
 357 000c 5A80     		strh	r2, [r3, #2]	@ movhi
 128:.\M_thickness.c **** 	{
 358              		.loc 1 128 0
 359 000e 93F83630 		ldrb	r3, [r3, #54]	@ zero_extendqisi2
 360 0012 43B9     		cbnz	r3, .L25
 128:.\M_thickness.c **** 	{
 361              		.loc 1 128 0 is_stmt 0 discriminator 1
 362 0014 1028     		cmp	r0, #16
 363 0016 06D1     		bne	.L25
 130:.\M_thickness.c **** 		RxBuffer[0]=data;
 364              		.loc 1 130 0 is_stmt 1
 365 0018 294B     		ldr	r3, .L32
 366 001a 0122     		movs	r2, #1
 367 001c 83F83620 		strb	r2, [r3, #54]
 131:.\M_thickness.c **** 	}
 368              		.loc 1 131 0
 369 0020 83F83800 		strb	r0, [r3, #56]
 370 0024 38BD     		pop	{r3, r4, r5, pc}
 371              	.L25:
 133:.\M_thickness.c **** 	{
 372              		.loc 1 133 0
 373 0026 012B     		cmp	r3, #1
 374 0028 08D1     		bne	.L27
 133:.\M_thickness.c **** 	{
 375              		.loc 1 133 0 is_stmt 0 discriminator 1
 376 002a 0828     		cmp	r0, #8
 377 002c 06D1     		bne	.L27
 135:.\M_thickness.c **** 		RxBuffer[1]=data;
 378              		.loc 1 135 0 is_stmt 1
 379 002e 244B     		ldr	r3, .L32
ARM GAS  C:\Users\PANXIA~1\AppData\Local\Temp\ccfIXroa.s 			page 11


 380 0030 0222     		movs	r2, #2
 381 0032 83F83620 		strb	r2, [r3, #54]
 136:.\M_thickness.c **** 	}
 382              		.loc 1 136 0
 383 0036 83F83900 		strb	r0, [r3, #57]
 384 003a 38BD     		pop	{r3, r4, r5, pc}
 385              	.L27:
 138:.\M_thickness.c **** 	{
 386              		.loc 1 138 0
 387 003c 022B     		cmp	r3, #2
 388 003e 0ED1     		bne	.L28
 138:.\M_thickness.c **** 	{
 389              		.loc 1 138 0 is_stmt 0 discriminator 1
 390 0040 0728     		cmp	r0, #7
 391 0042 0CD1     		bne	.L28
 140:.\M_thickness.c **** 		RxBuffer[2]=data;
 392              		.loc 1 140 0 is_stmt 1
 393 0044 1E4B     		ldr	r3, .L32
 394 0046 0322     		movs	r2, #3
 395 0048 83F83620 		strb	r2, [r3, #54]
 141:.\M_thickness.c ****         _data_len = 7;
 396              		.loc 1 141 0
 397 004c 83F83A00 		strb	r0, [r3, #58]
 142:.\M_thickness.c **** 		_data_cnt = 0;
 398              		.loc 1 142 0
 399 0050 0722     		movs	r2, #7
 400 0052 83F86A20 		strb	r2, [r3, #106]
 143:.\M_thickness.c **** 	}
 401              		.loc 1 143 0
 402 0056 0022     		movs	r2, #0
 403 0058 83F86B20 		strb	r2, [r3, #107]
 404 005c 38BD     		pop	{r3, r4, r5, pc}
 405              	.L28:
 145:.\M_thickness.c **** 	{
 406              		.loc 1 145 0
 407 005e 032B     		cmp	r3, #3
 408 0060 15D1     		bne	.L29
 145:.\M_thickness.c **** 	{
 409              		.loc 1 145 0 is_stmt 0 discriminator 1
 410 0062 174A     		ldr	r2, .L32
 411 0064 92F86A20 		ldrb	r2, [r2, #106]	@ zero_extendqisi2
 412 0068 8AB1     		cbz	r2, .L29
 147:.\M_thickness.c **** 		RxBuffer[3+_data_cnt++]=data;
 413              		.loc 1 147 0 is_stmt 1
 414 006a 013A     		subs	r2, r2, #1
 415 006c D2B2     		uxtb	r2, r2
 416 006e 1449     		ldr	r1, .L32
 417 0070 81F86A20 		strb	r2, [r1, #106]
 148:.\M_thickness.c **** 		if(_data_len==0)
 418              		.loc 1 148 0
 419 0074 91F86B30 		ldrb	r3, [r1, #107]	@ zero_extendqisi2
 420 0078 5C1C     		adds	r4, r3, #1
 421 007a 81F86B40 		strb	r4, [r1, #107]
 422 007e 0B44     		add	r3, r3, r1
 423 0080 83F83B00 		strb	r0, [r3, #59]
 149:.\M_thickness.c **** 		   state = 4;
 424              		.loc 1 149 0
ARM GAS  C:\Users\PANXIA~1\AppData\Local\Temp\ccfIXroa.s 			page 12


 425 0084 D2B9     		cbnz	r2, .L24
 150:.\M_thickness.c **** 	}
 426              		.loc 1 150 0
 427 0086 0422     		movs	r2, #4
 428 0088 81F83620 		strb	r2, [r1, #54]
 429 008c 38BD     		pop	{r3, r4, r5, pc}
 430              	.L29:
 152:.\M_thickness.c **** 	{
 431              		.loc 1 152 0
 432 008e 042B     		cmp	r3, #4
 433 0090 10D1     		bne	.L30
 154:.\M_thickness.c **** 		RxBuffer[3+_data_cnt]=data;
 434              		.loc 1 154 0
 435 0092 0B4C     		ldr	r4, .L32
 436 0094 0025     		movs	r5, #0
 437 0096 84F83650 		strb	r5, [r4, #54]
 155:.\M_thickness.c **** 		M_Data_Receive_Anl(RxBuffer,_data_cnt+4);
 438              		.loc 1 155 0
 439 009a 94F86B10 		ldrb	r1, [r4, #107]	@ zero_extendqisi2
 440 009e 6318     		adds	r3, r4, r1
 441 00a0 83F83B00 		strb	r0, [r3, #59]
 156:.\M_thickness.c ****         count = 0;
 442              		.loc 1 156 0
 443 00a4 0431     		adds	r1, r1, #4
 444 00a6 04F13800 		add	r0, r4, #56
 445              	.LVL28:
 446 00aa C9B2     		uxtb	r1, r1
 447 00ac FFF7FEFF 		bl	M_Data_Receive_Anl
 448              	.LVL29:
 157:.\M_thickness.c **** 	}
 449              		.loc 1 157 0
 450 00b0 6580     		strh	r5, [r4, #2]	@ movhi
 451 00b2 38BD     		pop	{r3, r4, r5, pc}
 452              	.LVL30:
 453              	.L30:
 160:.\M_thickness.c ****     
 454              		.loc 1 160 0
 455 00b4 0022     		movs	r2, #0
 456 00b6 024B     		ldr	r3, .L32
 457 00b8 83F83620 		strb	r2, [r3, #54]
 458              	.L24:
 459 00bc 38BD     		pop	{r3, r4, r5, pc}
 460              	.L33:
 461 00be 00BF     		.align	2
 462              	.L32:
 463 00c0 00000000 		.word	.LANCHOR0
 464              		.cfi_endproc
 465              	.LFE65:
 466              		.size	M_Data_Receive_Prepare, .-M_Data_Receive_Prepare
 467              		.global	change_flag
 468              		.comm	g_Car,96,4
 469              		.bss
 470              		.align	2
 471              		.set	.LANCHOR0,. + 0
 472              		.type	change_flag, %object
 473              		.size	change_flag, 1
 474              	change_flag:
ARM GAS  C:\Users\PANXIA~1\AppData\Local\Temp\ccfIXroa.s 			page 13


 475 0000 00       		.space	1
 476 0001 00       		.space	1
 477              		.type	count, %object
 478              		.size	count, 2
 479              	count:
 480 0002 0000     		.space	2
 481              		.type	temp, %object
 482              		.size	temp, 50
 483              	temp:
 484 0004 00000000 		.space	50
 484      00000000 
 484      00000000 
 484      00000000 
 484      00000000 
 485              		.type	state.6805, %object
 486              		.size	state.6805, 1
 487              	state.6805:
 488 0036 00       		.space	1
 489 0037 00       		.space	1
 490              		.type	RxBuffer.6802, %object
 491              		.size	RxBuffer.6802, 50
 492              	RxBuffer.6802:
 493 0038 00000000 		.space	50
 493      00000000 
 493      00000000 
 493      00000000 
 493      00000000 
 494              		.type	_data_len.6803, %object
 495              		.size	_data_len.6803, 1
 496              	_data_len.6803:
 497 006a 00       		.space	1
 498              		.type	_data_cnt.6804, %object
 499              		.size	_data_cnt.6804, 1
 500              	_data_cnt.6804:
 501 006b 00       		.space	1
 502              		.text
 503              	.Letext0:
 504              		.file 2 "d:\\program files (x86)\\cypress\\psoc creator\\3.3\\psoc creator\\import\\gnu\\arm\\4.9.
 505              		.file 3 "d:\\program files (x86)\\cypress\\psoc creator\\3.3\\psoc creator\\import\\gnu\\arm\\4.9.
 506              		.file 4 "Generated_Source\\PSoC5/cytypes.h"
 507              		.file 5 ".\\Car.h"
 508              		.file 6 "Generated_Source\\PSoC5/core_cm3.h"
 509              		.file 7 "Generated_Source\\PSoC5/M_DOWN.h"
 510              		.file 8 "Generated_Source\\PSoC5/M_UP.h"
 511              		.file 9 "Generated_Source\\PSoC5/M_ZERO.h"
 512              		.file 10 "Generated_Source\\PSoC5/M_PWR.h"