ARM GAS  C:\Users\pxc\AppData\Local\Temp\ccxCFlqa.s 			page 1


   1              		.syntax unified
   2              		.cpu cortex-m3
   3              		.fpu softvfp
   4              		.eabi_attribute 20, 1
   5              		.eabi_attribute 21, 1
   6              		.eabi_attribute 23, 3
   7              		.eabi_attribute 24, 1
   8              		.eabi_attribute 25, 1
   9              		.eabi_attribute 26, 1
  10              		.eabi_attribute 30, 1
  11              		.eabi_attribute 34, 1
  12              		.eabi_attribute 18, 4
  13              		.thumb
  14              		.file	"multi_timer.c"
  15              		.text
  16              	.Ltext0:
  17              		.cfi_sections	.debug_frame
  18              		.section	.text.timer_init,"ax",%progbits
  19              		.align	2
  20              		.global	timer_init
  21              		.thumb
  22              		.thumb_func
  23              		.type	timer_init, %function
  24              	timer_init:
  25              	.LFB63:
  26              		.file 1 ".\\multi_timer.c"
   1:.\multi_timer.c **** /* ========================================
   2:.\multi_timer.c ****  *
   3:.\multi_timer.c ****  * Copyright YOUR COMPANY, THE YEAR
   4:.\multi_timer.c ****  * All Rights Reserved
   5:.\multi_timer.c ****  * UNPUBLISHED, LICENSED SOFTWARE.
   6:.\multi_timer.c ****  *
   7:.\multi_timer.c ****  * CONFIDENTIAL AND PROPRIETARY INFORMATION
   8:.\multi_timer.c ****  * WHICH IS THE PROPERTY OF your company.
   9:.\multi_timer.c ****  *
  10:.\multi_timer.c ****  * ========================================
  11:.\multi_timer.c **** */
  12:.\multi_timer.c **** #include "multi_timer.h"
  13:.\multi_timer.c **** 
  14:.\multi_timer.c **** //timer handle list head.
  15:.\multi_timer.c **** static struct Timer* head_handle = NULL;
  16:.\multi_timer.c **** 
  17:.\multi_timer.c **** //Timer ticks
  18:.\multi_timer.c **** static uint32_t _timer_ticks = 0;
  19:.\multi_timer.c **** 
  20:.\multi_timer.c **** /**
  21:.\multi_timer.c ****   * @brief  Initializes the timer struct handle.
  22:.\multi_timer.c ****   * @param  handle: the timer handle strcut.
  23:.\multi_timer.c ****   * @param  timeout_cb: timeout callback.
  24:.\multi_timer.c ****   * @param  repeat: repeat interval time.
  25:.\multi_timer.c ****   * @retval None
  26:.\multi_timer.c ****   */
  27:.\multi_timer.c **** void timer_init(struct Timer* handle, void(*timeout_cb)(), uint32_t timeout, uint32_t repeat)
  28:.\multi_timer.c **** {
  27              		.loc 1 28 0
  28              		.cfi_startproc
  29              		@ args = 0, pretend = 0, frame = 0
ARM GAS  C:\Users\pxc\AppData\Local\Temp\ccxCFlqa.s 			page 2


  30              		@ frame_needed = 0, uses_anonymous_args = 0
  31              		@ link register save eliminated.
  32              	.LVL0:
  29:.\multi_timer.c **** 	// memset(handle, sizeof(struct Timer), 0);
  30:.\multi_timer.c **** 	handle->timeout_cb = timeout_cb;
  33              		.loc 1 30 0
  34 0000 8160     		str	r1, [r0, #8]
  31:.\multi_timer.c **** 	handle->timeout = _timer_ticks + timeout;
  35              		.loc 1 31 0
  36 0002 0349     		ldr	r1, .L2
  37              	.LVL1:
  38 0004 0968     		ldr	r1, [r1]
  39 0006 0A44     		add	r2, r2, r1
  40              	.LVL2:
  41 0008 0260     		str	r2, [r0]
  32:.\multi_timer.c **** 	handle->repeat = repeat;
  42              		.loc 1 32 0
  43 000a 4360     		str	r3, [r0, #4]
  44 000c 7047     		bx	lr
  45              	.L3:
  46 000e 00BF     		.align	2
  47              	.L2:
  48 0010 00000000 		.word	.LANCHOR0
  49              		.cfi_endproc
  50              	.LFE63:
  51              		.size	timer_init, .-timer_init
  52              		.section	.text.timer_start,"ax",%progbits
  53              		.align	2
  54              		.global	timer_start
  55              		.thumb
  56              		.thumb_func
  57              		.type	timer_start, %function
  58              	timer_start:
  59              	.LFB64:
  33:.\multi_timer.c **** }
  34:.\multi_timer.c **** 
  35:.\multi_timer.c **** /**
  36:.\multi_timer.c ****   * @brief  Start the timer work, add the handle into work list.
  37:.\multi_timer.c ****   * @param  btn: target handle strcut.
  38:.\multi_timer.c ****   * @retval 0: succeed. -1: already exist.
  39:.\multi_timer.c ****   */
  40:.\multi_timer.c **** int timer_start(struct Timer* handle)
  41:.\multi_timer.c **** {
  60              		.loc 1 41 0
  61              		.cfi_startproc
  62              		@ args = 0, pretend = 0, frame = 0
  63              		@ frame_needed = 0, uses_anonymous_args = 0
  64              		@ link register save eliminated.
  65              	.LVL3:
  42:.\multi_timer.c **** 	struct Timer* target = head_handle;
  66              		.loc 1 42 0
  67 0000 084B     		ldr	r3, .L9
  68 0002 5A68     		ldr	r2, [r3, #4]
  69              	.LVL4:
  70 0004 1346     		mov	r3, r2
  43:.\multi_timer.c **** 	while(target) {
  71              		.loc 1 43 0
ARM GAS  C:\Users\pxc\AppData\Local\Temp\ccxCFlqa.s 			page 3


  72 0006 02E0     		b	.L5
  73              	.LVL5:
  74              	.L7:
  44:.\multi_timer.c **** 		if(target == handle) return -1;	//already exist.
  75              		.loc 1 44 0
  76 0008 8342     		cmp	r3, r0
  77 000a 07D0     		beq	.L8
  45:.\multi_timer.c **** 		target = target->next;
  78              		.loc 1 45 0
  79 000c DB68     		ldr	r3, [r3, #12]
  80              	.LVL6:
  81              	.L5:
  43:.\multi_timer.c **** 	while(target) {
  82              		.loc 1 43 0
  83 000e 002B     		cmp	r3, #0
  84 0010 FAD1     		bne	.L7
  46:.\multi_timer.c **** 	}
  47:.\multi_timer.c **** 	handle->next = head_handle;
  85              		.loc 1 47 0
  86 0012 C260     		str	r2, [r0, #12]
  48:.\multi_timer.c **** 	head_handle = handle;
  87              		.loc 1 48 0
  88 0014 034B     		ldr	r3, .L9
  89              	.LVL7:
  90 0016 5860     		str	r0, [r3, #4]
  49:.\multi_timer.c **** 	return 0;
  91              		.loc 1 49 0
  92 0018 0020     		movs	r0, #0
  93              	.LVL8:
  94 001a 7047     		bx	lr
  95              	.LVL9:
  96              	.L8:
  44:.\multi_timer.c **** 		target = target->next;
  97              		.loc 1 44 0
  98 001c 4FF0FF30 		mov	r0, #-1
  99              	.LVL10:
  50:.\multi_timer.c **** }
 100              		.loc 1 50 0
 101 0020 7047     		bx	lr
 102              	.L10:
 103 0022 00BF     		.align	2
 104              	.L9:
 105 0024 00000000 		.word	.LANCHOR0
 106              		.cfi_endproc
 107              	.LFE64:
 108              		.size	timer_start, .-timer_start
 109              		.section	.text.timer_stop,"ax",%progbits
 110              		.align	2
 111              		.global	timer_stop
 112              		.thumb
 113              		.thumb_func
 114              		.type	timer_stop, %function
 115              	timer_stop:
 116              	.LFB65:
  51:.\multi_timer.c **** 
  52:.\multi_timer.c **** /**
  53:.\multi_timer.c ****   * @brief  Stop the timer work, remove the handle off work list.
ARM GAS  C:\Users\pxc\AppData\Local\Temp\ccxCFlqa.s 			page 4


  54:.\multi_timer.c ****   * @param  handle: target handle strcut.
  55:.\multi_timer.c ****   * @retval None
  56:.\multi_timer.c ****   */
  57:.\multi_timer.c **** void timer_stop(struct Timer* handle)
  58:.\multi_timer.c **** {
 117              		.loc 1 58 0
 118              		.cfi_startproc
 119              		@ args = 0, pretend = 0, frame = 0
 120              		@ frame_needed = 0, uses_anonymous_args = 0
 121              		@ link register save eliminated.
 122              	.LVL11:
  59:.\multi_timer.c **** 	struct Timer** curr;
  60:.\multi_timer.c **** 	for(curr = &head_handle; *curr; ) {
 123              		.loc 1 60 0
 124 0000 064A     		ldr	r2, .L16
 125 0002 06E0     		b	.L12
 126              	.LVL12:
 127              	.L15:
 128              	.LBB2:
  61:.\multi_timer.c **** 		struct Timer* entry = *curr;
  62:.\multi_timer.c **** 		if (entry == handle) {
 129              		.loc 1 62 0
 130 0004 8342     		cmp	r3, r0
 131 0006 02D1     		bne	.L13
  63:.\multi_timer.c **** 			*curr = entry->next;
 132              		.loc 1 63 0
 133 0008 DB68     		ldr	r3, [r3, #12]
 134              	.LVL13:
 135 000a 1360     		str	r3, [r2]
 136              	.LVL14:
 137 000c 01E0     		b	.L12
 138              	.LVL15:
 139              	.L13:
  64:.\multi_timer.c **** //			free(entry);
  65:.\multi_timer.c **** 		} else
  66:.\multi_timer.c **** 			curr = &entry->next;
 140              		.loc 1 66 0
 141 000e 03F10C02 		add	r2, r3, #12
 142              	.LVL16:
 143              	.L12:
 144              	.LBE2:
  60:.\multi_timer.c **** 		struct Timer* entry = *curr;
 145              		.loc 1 60 0 discriminator 1
 146 0012 1368     		ldr	r3, [r2]
 147 0014 002B     		cmp	r3, #0
 148 0016 F5D1     		bne	.L15
  67:.\multi_timer.c **** 	}
  68:.\multi_timer.c **** }
 149              		.loc 1 68 0
 150 0018 7047     		bx	lr
 151              	.L17:
 152 001a 00BF     		.align	2
 153              	.L16:
 154 001c 04000000 		.word	.LANCHOR0+4
 155              		.cfi_endproc
 156              	.LFE65:
 157              		.size	timer_stop, .-timer_stop
ARM GAS  C:\Users\pxc\AppData\Local\Temp\ccxCFlqa.s 			page 5


 158              		.section	.text.timer_loop,"ax",%progbits
 159              		.align	2
 160              		.global	timer_loop
 161              		.thumb
 162              		.thumb_func
 163              		.type	timer_loop, %function
 164              	timer_loop:
 165              	.LFB66:
  69:.\multi_timer.c **** 
  70:.\multi_timer.c **** /**
  71:.\multi_timer.c ****   * @brief  main loop.
  72:.\multi_timer.c ****   * @param  None.
  73:.\multi_timer.c ****   * @retval None
  74:.\multi_timer.c ****   */
  75:.\multi_timer.c **** void timer_loop()
  76:.\multi_timer.c **** {
 166              		.loc 1 76 0
 167              		.cfi_startproc
 168              		@ args = 0, pretend = 0, frame = 0
 169              		@ frame_needed = 0, uses_anonymous_args = 0
 170 0000 10B5     		push	{r4, lr}
 171              		.cfi_def_cfa_offset 8
 172              		.cfi_offset 4, -8
 173              		.cfi_offset 14, -4
  77:.\multi_timer.c **** 	struct Timer* target;
  78:.\multi_timer.c **** 	for(target=head_handle; target; target=target->next) {
 174              		.loc 1 78 0
 175 0002 0B4B     		ldr	r3, .L25
 176 0004 5C68     		ldr	r4, [r3, #4]
 177              	.LVL17:
 178 0006 0FE0     		b	.L19
 179              	.L23:
  79:.\multi_timer.c **** 		if(_timer_ticks >= target->timeout) {
 180              		.loc 1 79 0
 181 0008 2268     		ldr	r2, [r4]
 182 000a 094B     		ldr	r3, .L25
 183 000c 1B68     		ldr	r3, [r3]
 184 000e 9A42     		cmp	r2, r3
 185 0010 09D8     		bhi	.L20
  80:.\multi_timer.c **** 			if(target->repeat == 0) {
 186              		.loc 1 80 0
 187 0012 6268     		ldr	r2, [r4, #4]
 188 0014 1AB9     		cbnz	r2, .L21
  81:.\multi_timer.c **** 				timer_stop(target);
 189              		.loc 1 81 0
 190 0016 2046     		mov	r0, r4
 191 0018 FFF7FEFF 		bl	timer_stop
 192              	.LVL18:
 193 001c 01E0     		b	.L22
 194              	.L21:
  82:.\multi_timer.c **** 			} else {
  83:.\multi_timer.c **** 				target->timeout = _timer_ticks + target->repeat;
 195              		.loc 1 83 0
 196 001e 1344     		add	r3, r3, r2
 197 0020 2360     		str	r3, [r4]
 198              	.L22:
  84:.\multi_timer.c **** 			}
ARM GAS  C:\Users\pxc\AppData\Local\Temp\ccxCFlqa.s 			page 6


  85:.\multi_timer.c **** 			target->timeout_cb();
 199              		.loc 1 85 0
 200 0022 A368     		ldr	r3, [r4, #8]
 201 0024 9847     		blx	r3
 202              	.LVL19:
 203              	.L20:
  78:.\multi_timer.c **** 		if(_timer_ticks >= target->timeout) {
 204              		.loc 1 78 0 discriminator 2
 205 0026 E468     		ldr	r4, [r4, #12]
 206              	.LVL20:
 207              	.L19:
  78:.\multi_timer.c **** 		if(_timer_ticks >= target->timeout) {
 208              		.loc 1 78 0 is_stmt 0 discriminator 1
 209 0028 002C     		cmp	r4, #0
 210 002a EDD1     		bne	.L23
  86:.\multi_timer.c **** 		}
  87:.\multi_timer.c **** 	}
  88:.\multi_timer.c **** }
 211              		.loc 1 88 0 is_stmt 1
 212 002c 10BD     		pop	{r4, pc}
 213              	.LVL21:
 214              	.L26:
 215 002e 00BF     		.align	2
 216              	.L25:
 217 0030 00000000 		.word	.LANCHOR0
 218              		.cfi_endproc
 219              	.LFE66:
 220              		.size	timer_loop, .-timer_loop
 221              		.section	.text.timer_ticks,"ax",%progbits
 222              		.align	2
 223              		.global	timer_ticks
 224              		.thumb
 225              		.thumb_func
 226              		.type	timer_ticks, %function
 227              	timer_ticks:
 228              	.LFB67:
  89:.\multi_timer.c **** 
  90:.\multi_timer.c **** /**
  91:.\multi_timer.c ****   * @brief  background ticks, timer repeat invoking interval 1ms.
  92:.\multi_timer.c ****   * @param  None.
  93:.\multi_timer.c ****   * @retval None.
  94:.\multi_timer.c ****   */
  95:.\multi_timer.c **** void timer_ticks()
  96:.\multi_timer.c **** {
 229              		.loc 1 96 0
 230              		.cfi_startproc
 231              		@ args = 0, pretend = 0, frame = 0
 232              		@ frame_needed = 0, uses_anonymous_args = 0
 233              		@ link register save eliminated.
  97:.\multi_timer.c **** 	_timer_ticks++;
 234              		.loc 1 97 0
 235 0000 024A     		ldr	r2, .L28
 236 0002 1368     		ldr	r3, [r2]
 237 0004 0133     		adds	r3, r3, #1
 238 0006 1360     		str	r3, [r2]
 239 0008 7047     		bx	lr
 240              	.L29:
ARM GAS  C:\Users\pxc\AppData\Local\Temp\ccxCFlqa.s 			page 7


 241 000a 00BF     		.align	2
 242              	.L28:
 243 000c 00000000 		.word	.LANCHOR0
 244              		.cfi_endproc
 245              	.LFE67:
 246              		.size	timer_ticks, .-timer_ticks
 247              		.bss
 248              		.align	2
 249              		.set	.LANCHOR0,. + 0
 250              		.type	_timer_ticks, %object
 251              		.size	_timer_ticks, 4
 252              	_timer_ticks:
 253 0000 00000000 		.space	4
 254              		.type	head_handle, %object
 255              		.size	head_handle, 4
 256              	head_handle:
 257 0004 00000000 		.space	4
 258              		.text
 259              	.Letext0:
 260              		.file 2 "c:\\program files (x86)\\cypress\\psoc creator\\3.3\\psoc creator\\import\\gnu\\arm\\4.9.
 261              		.file 3 "c:\\program files (x86)\\cypress\\psoc creator\\3.3\\psoc creator\\import\\gnu\\arm\\4.9.
 262              		.file 4 ".\\multi_timer.h"
 263              		.file 5 "Generated_Source\\PSoC5/core_cm3.h"