ARM GAS  C:\Users\pxc\AppData\Local\Temp\cc1nJyjl.s 			page 1


   1              		.syntax unified
   2              		.cpu cortex-m3
   3              		.fpu softvfp
   4              		.eabi_attribute 20, 1
   5              		.eabi_attribute 21, 1
   6              		.eabi_attribute 23, 3
   7              		.eabi_attribute 24, 1
   8              		.eabi_attribute 25, 1
   9              		.eabi_attribute 26, 1
  10              		.eabi_attribute 30, 1
  11              		.eabi_attribute 34, 1
  12              		.eabi_attribute 18, 4
  13              		.thumb
  14              		.file	"PWM_LED_1.c"
  15              		.text
  16              	.Ltext0:
  17              		.cfi_sections	.debug_frame
  18              		.section	.text.PWM_LED_1_Enable,"ax",%progbits
  19              		.align	2
  20              		.global	PWM_LED_1_Enable
  21              		.thumb
  22              		.thumb_func
  23              		.type	PWM_LED_1_Enable, %function
  24              	PWM_LED_1_Enable:
  25              	.LFB2:
  26              		.file 1 ".\\Generated_Source\\PSoC5\\PWM_LED_1.c"
   1:.\Generated_Source\PSoC5/PWM_LED_1.c **** /*******************************************************************************
   2:.\Generated_Source\PSoC5/PWM_LED_1.c **** * File Name: PWM_LED_1.c
   3:.\Generated_Source\PSoC5/PWM_LED_1.c **** * Version 3.30
   4:.\Generated_Source\PSoC5/PWM_LED_1.c **** *
   5:.\Generated_Source\PSoC5/PWM_LED_1.c **** * Description:
   6:.\Generated_Source\PSoC5/PWM_LED_1.c **** *  The PWM User Module consist of an 8 or 16-bit counter with two 8 or 16-bit
   7:.\Generated_Source\PSoC5/PWM_LED_1.c **** *  comparitors. Each instance of this user module is capable of generating
   8:.\Generated_Source\PSoC5/PWM_LED_1.c **** *  two PWM outputs with the same period. The pulse width is selectable between
   9:.\Generated_Source\PSoC5/PWM_LED_1.c **** *  1 and 255/65535. The period is selectable between 2 and 255/65536 clocks.
  10:.\Generated_Source\PSoC5/PWM_LED_1.c **** *  The compare value output may be configured to be active when the present
  11:.\Generated_Source\PSoC5/PWM_LED_1.c **** *  counter is less than or less than/equal to the compare value.
  12:.\Generated_Source\PSoC5/PWM_LED_1.c **** *  A terminal count output is also provided. It generates a pulse one clock
  13:.\Generated_Source\PSoC5/PWM_LED_1.c **** *  width wide when the counter is equal to zero.
  14:.\Generated_Source\PSoC5/PWM_LED_1.c **** *
  15:.\Generated_Source\PSoC5/PWM_LED_1.c **** * Note:
  16:.\Generated_Source\PSoC5/PWM_LED_1.c **** *
  17:.\Generated_Source\PSoC5/PWM_LED_1.c **** *******************************************************************************
  18:.\Generated_Source\PSoC5/PWM_LED_1.c **** * Copyright 2008-2014, Cypress Semiconductor Corporation.  All rights reserved.
  19:.\Generated_Source\PSoC5/PWM_LED_1.c **** * You may use this file only in accordance with the license, terms, conditions,
  20:.\Generated_Source\PSoC5/PWM_LED_1.c **** * disclaimers, and limitations in the end user license agreement accompanying
  21:.\Generated_Source\PSoC5/PWM_LED_1.c **** * the software package with which this file was provided.
  22:.\Generated_Source\PSoC5/PWM_LED_1.c **** ********************************************************************************/
  23:.\Generated_Source\PSoC5/PWM_LED_1.c **** 
  24:.\Generated_Source\PSoC5/PWM_LED_1.c **** #include "PWM_LED_1.h"
  25:.\Generated_Source\PSoC5/PWM_LED_1.c **** 
  26:.\Generated_Source\PSoC5/PWM_LED_1.c **** /* Error message for removed <resource> through optimization */
  27:.\Generated_Source\PSoC5/PWM_LED_1.c **** #ifdef PWM_LED_1_PWMUDB_genblk1_ctrlreg__REMOVED
  28:.\Generated_Source\PSoC5/PWM_LED_1.c ****     #error PWM_v3_30 detected with a constant 0 for the enable or \
  29:.\Generated_Source\PSoC5/PWM_LED_1.c ****          constant 1 for reset. This will prevent the component from operating.
  30:.\Generated_Source\PSoC5/PWM_LED_1.c **** #endif /* PWM_LED_1_PWMUDB_genblk1_ctrlreg__REMOVED */
  31:.\Generated_Source\PSoC5/PWM_LED_1.c **** 
ARM GAS  C:\Users\pxc\AppData\Local\Temp\cc1nJyjl.s 			page 2


  32:.\Generated_Source\PSoC5/PWM_LED_1.c **** uint8 PWM_LED_1_initVar = 0u;
  33:.\Generated_Source\PSoC5/PWM_LED_1.c **** 
  34:.\Generated_Source\PSoC5/PWM_LED_1.c **** 
  35:.\Generated_Source\PSoC5/PWM_LED_1.c **** /*******************************************************************************
  36:.\Generated_Source\PSoC5/PWM_LED_1.c **** * Function Name: PWM_LED_1_Start
  37:.\Generated_Source\PSoC5/PWM_LED_1.c **** ********************************************************************************
  38:.\Generated_Source\PSoC5/PWM_LED_1.c **** *
  39:.\Generated_Source\PSoC5/PWM_LED_1.c **** * Summary:
  40:.\Generated_Source\PSoC5/PWM_LED_1.c **** *  The start function initializes the pwm with the default values, the
  41:.\Generated_Source\PSoC5/PWM_LED_1.c **** *  enables the counter to begin counting.  It does not enable interrupts,
  42:.\Generated_Source\PSoC5/PWM_LED_1.c **** *  the EnableInt command should be called if interrupt generation is required.
  43:.\Generated_Source\PSoC5/PWM_LED_1.c **** *
  44:.\Generated_Source\PSoC5/PWM_LED_1.c **** * Parameters:
  45:.\Generated_Source\PSoC5/PWM_LED_1.c **** *  None
  46:.\Generated_Source\PSoC5/PWM_LED_1.c **** *
  47:.\Generated_Source\PSoC5/PWM_LED_1.c **** * Return:
  48:.\Generated_Source\PSoC5/PWM_LED_1.c **** *  None
  49:.\Generated_Source\PSoC5/PWM_LED_1.c **** *
  50:.\Generated_Source\PSoC5/PWM_LED_1.c **** * Global variables:
  51:.\Generated_Source\PSoC5/PWM_LED_1.c **** *  PWM_LED_1_initVar: Is modified when this function is called for the
  52:.\Generated_Source\PSoC5/PWM_LED_1.c **** *   first time. Is used to ensure that initialization happens only once.
  53:.\Generated_Source\PSoC5/PWM_LED_1.c **** *
  54:.\Generated_Source\PSoC5/PWM_LED_1.c **** *******************************************************************************/
  55:.\Generated_Source\PSoC5/PWM_LED_1.c **** void PWM_LED_1_Start(void) 
  56:.\Generated_Source\PSoC5/PWM_LED_1.c **** {
  57:.\Generated_Source\PSoC5/PWM_LED_1.c ****     /* If not Initialized then initialize all required hardware and software */
  58:.\Generated_Source\PSoC5/PWM_LED_1.c ****     if(PWM_LED_1_initVar == 0u)
  59:.\Generated_Source\PSoC5/PWM_LED_1.c ****     {
  60:.\Generated_Source\PSoC5/PWM_LED_1.c ****         PWM_LED_1_Init();
  61:.\Generated_Source\PSoC5/PWM_LED_1.c ****         PWM_LED_1_initVar = 1u;
  62:.\Generated_Source\PSoC5/PWM_LED_1.c ****     }
  63:.\Generated_Source\PSoC5/PWM_LED_1.c ****     PWM_LED_1_Enable();
  64:.\Generated_Source\PSoC5/PWM_LED_1.c **** 
  65:.\Generated_Source\PSoC5/PWM_LED_1.c **** }
  66:.\Generated_Source\PSoC5/PWM_LED_1.c **** 
  67:.\Generated_Source\PSoC5/PWM_LED_1.c **** 
  68:.\Generated_Source\PSoC5/PWM_LED_1.c **** /*******************************************************************************
  69:.\Generated_Source\PSoC5/PWM_LED_1.c **** * Function Name: PWM_LED_1_Init
  70:.\Generated_Source\PSoC5/PWM_LED_1.c **** ********************************************************************************
  71:.\Generated_Source\PSoC5/PWM_LED_1.c **** *
  72:.\Generated_Source\PSoC5/PWM_LED_1.c **** * Summary:
  73:.\Generated_Source\PSoC5/PWM_LED_1.c **** *  Initialize component's parameters to the parameters set by user in the
  74:.\Generated_Source\PSoC5/PWM_LED_1.c **** *  customizer of the component placed onto schematic. Usually called in
  75:.\Generated_Source\PSoC5/PWM_LED_1.c **** *  PWM_LED_1_Start().
  76:.\Generated_Source\PSoC5/PWM_LED_1.c **** *
  77:.\Generated_Source\PSoC5/PWM_LED_1.c **** * Parameters:
  78:.\Generated_Source\PSoC5/PWM_LED_1.c **** *  None
  79:.\Generated_Source\PSoC5/PWM_LED_1.c **** *
  80:.\Generated_Source\PSoC5/PWM_LED_1.c **** * Return:
  81:.\Generated_Source\PSoC5/PWM_LED_1.c **** *  None
  82:.\Generated_Source\PSoC5/PWM_LED_1.c **** *
  83:.\Generated_Source\PSoC5/PWM_LED_1.c **** *******************************************************************************/
  84:.\Generated_Source\PSoC5/PWM_LED_1.c **** void PWM_LED_1_Init(void) 
  85:.\Generated_Source\PSoC5/PWM_LED_1.c **** {
  86:.\Generated_Source\PSoC5/PWM_LED_1.c ****     #if (PWM_LED_1_UsingFixedFunction || PWM_LED_1_UseControl)
  87:.\Generated_Source\PSoC5/PWM_LED_1.c ****         uint8 ctrl;
  88:.\Generated_Source\PSoC5/PWM_LED_1.c ****     #endif /* (PWM_LED_1_UsingFixedFunction || PWM_LED_1_UseControl) */
ARM GAS  C:\Users\pxc\AppData\Local\Temp\cc1nJyjl.s 			page 3


  89:.\Generated_Source\PSoC5/PWM_LED_1.c **** 
  90:.\Generated_Source\PSoC5/PWM_LED_1.c ****     #if(!PWM_LED_1_UsingFixedFunction)
  91:.\Generated_Source\PSoC5/PWM_LED_1.c ****         #if(PWM_LED_1_UseStatus)
  92:.\Generated_Source\PSoC5/PWM_LED_1.c ****             /* Interrupt State Backup for Critical Region*/
  93:.\Generated_Source\PSoC5/PWM_LED_1.c ****             uint8 PWM_LED_1_interruptState;
  94:.\Generated_Source\PSoC5/PWM_LED_1.c ****         #endif /* (PWM_LED_1_UseStatus) */
  95:.\Generated_Source\PSoC5/PWM_LED_1.c ****     #endif /* (!PWM_LED_1_UsingFixedFunction) */
  96:.\Generated_Source\PSoC5/PWM_LED_1.c **** 
  97:.\Generated_Source\PSoC5/PWM_LED_1.c ****     #if (PWM_LED_1_UsingFixedFunction)
  98:.\Generated_Source\PSoC5/PWM_LED_1.c ****         /* You are allowed to write the compare value (FF only) */
  99:.\Generated_Source\PSoC5/PWM_LED_1.c ****         PWM_LED_1_CONTROL |= PWM_LED_1_CFG0_MODE;
 100:.\Generated_Source\PSoC5/PWM_LED_1.c ****         #if (PWM_LED_1_DeadBand2_4)
 101:.\Generated_Source\PSoC5/PWM_LED_1.c ****             PWM_LED_1_CONTROL |= PWM_LED_1_CFG0_DB;
 102:.\Generated_Source\PSoC5/PWM_LED_1.c ****         #endif /* (PWM_LED_1_DeadBand2_4) */
 103:.\Generated_Source\PSoC5/PWM_LED_1.c **** 
 104:.\Generated_Source\PSoC5/PWM_LED_1.c ****         ctrl = PWM_LED_1_CONTROL3 & ((uint8 )(~PWM_LED_1_CTRL_CMPMODE1_MASK));
 105:.\Generated_Source\PSoC5/PWM_LED_1.c ****         PWM_LED_1_CONTROL3 = ctrl | PWM_LED_1_DEFAULT_COMPARE1_MODE;
 106:.\Generated_Source\PSoC5/PWM_LED_1.c **** 
 107:.\Generated_Source\PSoC5/PWM_LED_1.c ****          /* Clear and Set SYNCTC and SYNCCMP bits of RT1 register */
 108:.\Generated_Source\PSoC5/PWM_LED_1.c ****         PWM_LED_1_RT1 &= ((uint8)(~PWM_LED_1_RT1_MASK));
 109:.\Generated_Source\PSoC5/PWM_LED_1.c ****         PWM_LED_1_RT1 |= PWM_LED_1_SYNC;
 110:.\Generated_Source\PSoC5/PWM_LED_1.c **** 
 111:.\Generated_Source\PSoC5/PWM_LED_1.c ****         /*Enable DSI Sync all all inputs of the PWM*/
 112:.\Generated_Source\PSoC5/PWM_LED_1.c ****         PWM_LED_1_RT1 &= ((uint8)(~PWM_LED_1_SYNCDSI_MASK));
 113:.\Generated_Source\PSoC5/PWM_LED_1.c ****         PWM_LED_1_RT1 |= PWM_LED_1_SYNCDSI_EN;
 114:.\Generated_Source\PSoC5/PWM_LED_1.c **** 
 115:.\Generated_Source\PSoC5/PWM_LED_1.c ****     #elif (PWM_LED_1_UseControl)
 116:.\Generated_Source\PSoC5/PWM_LED_1.c ****         /* Set the default compare mode defined in the parameter */
 117:.\Generated_Source\PSoC5/PWM_LED_1.c ****         ctrl = PWM_LED_1_CONTROL & ((uint8)(~PWM_LED_1_CTRL_CMPMODE2_MASK)) &
 118:.\Generated_Source\PSoC5/PWM_LED_1.c ****                 ((uint8)(~PWM_LED_1_CTRL_CMPMODE1_MASK));
 119:.\Generated_Source\PSoC5/PWM_LED_1.c ****         PWM_LED_1_CONTROL = ctrl | PWM_LED_1_DEFAULT_COMPARE2_MODE |
 120:.\Generated_Source\PSoC5/PWM_LED_1.c ****                                    PWM_LED_1_DEFAULT_COMPARE1_MODE;
 121:.\Generated_Source\PSoC5/PWM_LED_1.c ****     #endif /* (PWM_LED_1_UsingFixedFunction) */
 122:.\Generated_Source\PSoC5/PWM_LED_1.c **** 
 123:.\Generated_Source\PSoC5/PWM_LED_1.c ****     #if (!PWM_LED_1_UsingFixedFunction)
 124:.\Generated_Source\PSoC5/PWM_LED_1.c ****         #if (PWM_LED_1_Resolution == 8)
 125:.\Generated_Source\PSoC5/PWM_LED_1.c ****             /* Set FIFO 0 to 1 byte register for period*/
 126:.\Generated_Source\PSoC5/PWM_LED_1.c ****             PWM_LED_1_AUX_CONTROLDP0 |= (PWM_LED_1_AUX_CTRL_FIFO0_CLR);
 127:.\Generated_Source\PSoC5/PWM_LED_1.c ****         #else /* (PWM_LED_1_Resolution == 16)*/
 128:.\Generated_Source\PSoC5/PWM_LED_1.c ****             /* Set FIFO 0 to 1 byte register for period */
 129:.\Generated_Source\PSoC5/PWM_LED_1.c ****             PWM_LED_1_AUX_CONTROLDP0 |= (PWM_LED_1_AUX_CTRL_FIFO0_CLR);
 130:.\Generated_Source\PSoC5/PWM_LED_1.c ****             PWM_LED_1_AUX_CONTROLDP1 |= (PWM_LED_1_AUX_CTRL_FIFO0_CLR);
 131:.\Generated_Source\PSoC5/PWM_LED_1.c ****         #endif /* (PWM_LED_1_Resolution == 8) */
 132:.\Generated_Source\PSoC5/PWM_LED_1.c **** 
 133:.\Generated_Source\PSoC5/PWM_LED_1.c ****         PWM_LED_1_WriteCounter(PWM_LED_1_INIT_PERIOD_VALUE);
 134:.\Generated_Source\PSoC5/PWM_LED_1.c ****     #endif /* (!PWM_LED_1_UsingFixedFunction) */
 135:.\Generated_Source\PSoC5/PWM_LED_1.c **** 
 136:.\Generated_Source\PSoC5/PWM_LED_1.c ****     PWM_LED_1_WritePeriod(PWM_LED_1_INIT_PERIOD_VALUE);
 137:.\Generated_Source\PSoC5/PWM_LED_1.c **** 
 138:.\Generated_Source\PSoC5/PWM_LED_1.c ****         #if (PWM_LED_1_UseOneCompareMode)
 139:.\Generated_Source\PSoC5/PWM_LED_1.c ****             PWM_LED_1_WriteCompare(PWM_LED_1_INIT_COMPARE_VALUE1);
 140:.\Generated_Source\PSoC5/PWM_LED_1.c ****         #else
 141:.\Generated_Source\PSoC5/PWM_LED_1.c ****             PWM_LED_1_WriteCompare1(PWM_LED_1_INIT_COMPARE_VALUE1);
 142:.\Generated_Source\PSoC5/PWM_LED_1.c ****             PWM_LED_1_WriteCompare2(PWM_LED_1_INIT_COMPARE_VALUE2);
 143:.\Generated_Source\PSoC5/PWM_LED_1.c ****         #endif /* (PWM_LED_1_UseOneCompareMode) */
 144:.\Generated_Source\PSoC5/PWM_LED_1.c **** 
 145:.\Generated_Source\PSoC5/PWM_LED_1.c ****         #if (PWM_LED_1_KillModeMinTime)
ARM GAS  C:\Users\pxc\AppData\Local\Temp\cc1nJyjl.s 			page 4


 146:.\Generated_Source\PSoC5/PWM_LED_1.c ****             PWM_LED_1_WriteKillTime(PWM_LED_1_MinimumKillTime);
 147:.\Generated_Source\PSoC5/PWM_LED_1.c ****         #endif /* (PWM_LED_1_KillModeMinTime) */
 148:.\Generated_Source\PSoC5/PWM_LED_1.c **** 
 149:.\Generated_Source\PSoC5/PWM_LED_1.c ****         #if (PWM_LED_1_DeadBandUsed)
 150:.\Generated_Source\PSoC5/PWM_LED_1.c ****             PWM_LED_1_WriteDeadTime(PWM_LED_1_INIT_DEAD_TIME);
 151:.\Generated_Source\PSoC5/PWM_LED_1.c ****         #endif /* (PWM_LED_1_DeadBandUsed) */
 152:.\Generated_Source\PSoC5/PWM_LED_1.c **** 
 153:.\Generated_Source\PSoC5/PWM_LED_1.c ****     #if (PWM_LED_1_UseStatus || PWM_LED_1_UsingFixedFunction)
 154:.\Generated_Source\PSoC5/PWM_LED_1.c ****         PWM_LED_1_SetInterruptMode(PWM_LED_1_INIT_INTERRUPTS_MODE);
 155:.\Generated_Source\PSoC5/PWM_LED_1.c ****     #endif /* (PWM_LED_1_UseStatus || PWM_LED_1_UsingFixedFunction) */
 156:.\Generated_Source\PSoC5/PWM_LED_1.c **** 
 157:.\Generated_Source\PSoC5/PWM_LED_1.c ****     #if (PWM_LED_1_UsingFixedFunction)
 158:.\Generated_Source\PSoC5/PWM_LED_1.c ****         /* Globally Enable the Fixed Function Block chosen */
 159:.\Generated_Source\PSoC5/PWM_LED_1.c ****         PWM_LED_1_GLOBAL_ENABLE |= PWM_LED_1_BLOCK_EN_MASK;
 160:.\Generated_Source\PSoC5/PWM_LED_1.c ****         /* Set the Interrupt source to come from the status register */
 161:.\Generated_Source\PSoC5/PWM_LED_1.c ****         PWM_LED_1_CONTROL2 |= PWM_LED_1_CTRL2_IRQ_SEL;
 162:.\Generated_Source\PSoC5/PWM_LED_1.c ****     #else
 163:.\Generated_Source\PSoC5/PWM_LED_1.c ****         #if(PWM_LED_1_UseStatus)
 164:.\Generated_Source\PSoC5/PWM_LED_1.c **** 
 165:.\Generated_Source\PSoC5/PWM_LED_1.c ****             /* CyEnterCriticalRegion and CyExitCriticalRegion are used to mark following region cri
 166:.\Generated_Source\PSoC5/PWM_LED_1.c ****             /* Enter Critical Region*/
 167:.\Generated_Source\PSoC5/PWM_LED_1.c ****             PWM_LED_1_interruptState = CyEnterCriticalSection();
 168:.\Generated_Source\PSoC5/PWM_LED_1.c ****             /* Use the interrupt output of the status register for IRQ output */
 169:.\Generated_Source\PSoC5/PWM_LED_1.c ****             PWM_LED_1_STATUS_AUX_CTRL |= PWM_LED_1_STATUS_ACTL_INT_EN_MASK;
 170:.\Generated_Source\PSoC5/PWM_LED_1.c **** 
 171:.\Generated_Source\PSoC5/PWM_LED_1.c ****              /* Exit Critical Region*/
 172:.\Generated_Source\PSoC5/PWM_LED_1.c ****             CyExitCriticalSection(PWM_LED_1_interruptState);
 173:.\Generated_Source\PSoC5/PWM_LED_1.c **** 
 174:.\Generated_Source\PSoC5/PWM_LED_1.c ****             /* Clear the FIFO to enable the PWM_LED_1_STATUS_FIFOFULL
 175:.\Generated_Source\PSoC5/PWM_LED_1.c ****                    bit to be set on FIFO full. */
 176:.\Generated_Source\PSoC5/PWM_LED_1.c ****             PWM_LED_1_ClearFIFO();
 177:.\Generated_Source\PSoC5/PWM_LED_1.c ****         #endif /* (PWM_LED_1_UseStatus) */
 178:.\Generated_Source\PSoC5/PWM_LED_1.c ****     #endif /* (PWM_LED_1_UsingFixedFunction) */
 179:.\Generated_Source\PSoC5/PWM_LED_1.c **** }
 180:.\Generated_Source\PSoC5/PWM_LED_1.c **** 
 181:.\Generated_Source\PSoC5/PWM_LED_1.c **** 
 182:.\Generated_Source\PSoC5/PWM_LED_1.c **** /*******************************************************************************
 183:.\Generated_Source\PSoC5/PWM_LED_1.c **** * Function Name: PWM_LED_1_Enable
 184:.\Generated_Source\PSoC5/PWM_LED_1.c **** ********************************************************************************
 185:.\Generated_Source\PSoC5/PWM_LED_1.c **** *
 186:.\Generated_Source\PSoC5/PWM_LED_1.c **** * Summary:
 187:.\Generated_Source\PSoC5/PWM_LED_1.c **** *  Enables the PWM block operation
 188:.\Generated_Source\PSoC5/PWM_LED_1.c **** *
 189:.\Generated_Source\PSoC5/PWM_LED_1.c **** * Parameters:
 190:.\Generated_Source\PSoC5/PWM_LED_1.c **** *  None
 191:.\Generated_Source\PSoC5/PWM_LED_1.c **** *
 192:.\Generated_Source\PSoC5/PWM_LED_1.c **** * Return:
 193:.\Generated_Source\PSoC5/PWM_LED_1.c **** *  None
 194:.\Generated_Source\PSoC5/PWM_LED_1.c **** *
 195:.\Generated_Source\PSoC5/PWM_LED_1.c **** * Side Effects:
 196:.\Generated_Source\PSoC5/PWM_LED_1.c **** *  This works only if software enable mode is chosen
 197:.\Generated_Source\PSoC5/PWM_LED_1.c **** *
 198:.\Generated_Source\PSoC5/PWM_LED_1.c **** *******************************************************************************/
 199:.\Generated_Source\PSoC5/PWM_LED_1.c **** void PWM_LED_1_Enable(void) 
 200:.\Generated_Source\PSoC5/PWM_LED_1.c **** {
  27              		.loc 1 200 0
  28              		.cfi_startproc
ARM GAS  C:\Users\pxc\AppData\Local\Temp\cc1nJyjl.s 			page 5


  29              		@ args = 0, pretend = 0, frame = 0
  30              		@ frame_needed = 0, uses_anonymous_args = 0
  31              		@ link register save eliminated.
 201:.\Generated_Source\PSoC5/PWM_LED_1.c ****     /* Globally Enable the Fixed Function Block chosen */
 202:.\Generated_Source\PSoC5/PWM_LED_1.c ****     #if (PWM_LED_1_UsingFixedFunction)
 203:.\Generated_Source\PSoC5/PWM_LED_1.c ****         PWM_LED_1_GLOBAL_ENABLE |= PWM_LED_1_BLOCK_EN_MASK;
 204:.\Generated_Source\PSoC5/PWM_LED_1.c ****         PWM_LED_1_GLOBAL_STBY_ENABLE |= PWM_LED_1_BLOCK_STBY_EN_MASK;
 205:.\Generated_Source\PSoC5/PWM_LED_1.c ****     #endif /* (PWM_LED_1_UsingFixedFunction) */
 206:.\Generated_Source\PSoC5/PWM_LED_1.c **** 
 207:.\Generated_Source\PSoC5/PWM_LED_1.c ****     /* Enable the PWM from the control register  */
 208:.\Generated_Source\PSoC5/PWM_LED_1.c ****     #if (PWM_LED_1_UseControl || PWM_LED_1_UsingFixedFunction)
 209:.\Generated_Source\PSoC5/PWM_LED_1.c ****         PWM_LED_1_CONTROL |= PWM_LED_1_CTRL_ENABLE;
  32              		.loc 1 209 0
  33 0000 024A     		ldr	r2, .L2
  34 0002 1378     		ldrb	r3, [r2]	@ zero_extendqisi2
  35 0004 43F08003 		orr	r3, r3, #128
  36 0008 1370     		strb	r3, [r2]
  37 000a 7047     		bx	lr
  38              	.L3:
  39              		.align	2
  40              	.L2:
  41 000c 76650040 		.word	1073767798
  42              		.cfi_endproc
  43              	.LFE2:
  44              		.size	PWM_LED_1_Enable, .-PWM_LED_1_Enable
  45              		.section	.text.PWM_LED_1_Stop,"ax",%progbits
  46              		.align	2
  47              		.global	PWM_LED_1_Stop
  48              		.thumb
  49              		.thumb_func
  50              		.type	PWM_LED_1_Stop, %function
  51              	PWM_LED_1_Stop:
  52              	.LFB3:
 210:.\Generated_Source\PSoC5/PWM_LED_1.c ****     #endif /* (PWM_LED_1_UseControl || PWM_LED_1_UsingFixedFunction) */
 211:.\Generated_Source\PSoC5/PWM_LED_1.c **** }
 212:.\Generated_Source\PSoC5/PWM_LED_1.c **** 
 213:.\Generated_Source\PSoC5/PWM_LED_1.c **** 
 214:.\Generated_Source\PSoC5/PWM_LED_1.c **** /*******************************************************************************
 215:.\Generated_Source\PSoC5/PWM_LED_1.c **** * Function Name: PWM_LED_1_Stop
 216:.\Generated_Source\PSoC5/PWM_LED_1.c **** ********************************************************************************
 217:.\Generated_Source\PSoC5/PWM_LED_1.c **** *
 218:.\Generated_Source\PSoC5/PWM_LED_1.c **** * Summary:
 219:.\Generated_Source\PSoC5/PWM_LED_1.c **** *  The stop function halts the PWM, but does not change any modes or disable
 220:.\Generated_Source\PSoC5/PWM_LED_1.c **** *  interrupts.
 221:.\Generated_Source\PSoC5/PWM_LED_1.c **** *
 222:.\Generated_Source\PSoC5/PWM_LED_1.c **** * Parameters:
 223:.\Generated_Source\PSoC5/PWM_LED_1.c **** *  None
 224:.\Generated_Source\PSoC5/PWM_LED_1.c **** *
 225:.\Generated_Source\PSoC5/PWM_LED_1.c **** * Return:
 226:.\Generated_Source\PSoC5/PWM_LED_1.c **** *  None
 227:.\Generated_Source\PSoC5/PWM_LED_1.c **** *
 228:.\Generated_Source\PSoC5/PWM_LED_1.c **** * Side Effects:
 229:.\Generated_Source\PSoC5/PWM_LED_1.c **** *  If the Enable mode is set to Hardware only then this function
 230:.\Generated_Source\PSoC5/PWM_LED_1.c **** *  has no effect on the operation of the PWM
 231:.\Generated_Source\PSoC5/PWM_LED_1.c **** *
 232:.\Generated_Source\PSoC5/PWM_LED_1.c **** *******************************************************************************/
 233:.\Generated_Source\PSoC5/PWM_LED_1.c **** void PWM_LED_1_Stop(void) 
ARM GAS  C:\Users\pxc\AppData\Local\Temp\cc1nJyjl.s 			page 6


 234:.\Generated_Source\PSoC5/PWM_LED_1.c **** {
  53              		.loc 1 234 0
  54              		.cfi_startproc
  55              		@ args = 0, pretend = 0, frame = 0
  56              		@ frame_needed = 0, uses_anonymous_args = 0
  57              		@ link register save eliminated.
 235:.\Generated_Source\PSoC5/PWM_LED_1.c ****     #if (PWM_LED_1_UseControl || PWM_LED_1_UsingFixedFunction)
 236:.\Generated_Source\PSoC5/PWM_LED_1.c ****         PWM_LED_1_CONTROL &= ((uint8)(~PWM_LED_1_CTRL_ENABLE));
  58              		.loc 1 236 0
  59 0000 024A     		ldr	r2, .L5
  60 0002 1378     		ldrb	r3, [r2]	@ zero_extendqisi2
  61 0004 03F07F03 		and	r3, r3, #127
  62 0008 1370     		strb	r3, [r2]
  63 000a 7047     		bx	lr
  64              	.L6:
  65              		.align	2
  66              	.L5:
  67 000c 76650040 		.word	1073767798
  68              		.cfi_endproc
  69              	.LFE3:
  70              		.size	PWM_LED_1_Stop, .-PWM_LED_1_Stop
  71              		.section	.text.PWM_LED_1_WriteCounter,"ax",%progbits
  72              		.align	2
  73              		.global	PWM_LED_1_WriteCounter
  74              		.thumb
  75              		.thumb_func
  76              		.type	PWM_LED_1_WriteCounter, %function
  77              	PWM_LED_1_WriteCounter:
  78              	.LFB4:
 237:.\Generated_Source\PSoC5/PWM_LED_1.c ****     #endif /* (PWM_LED_1_UseControl || PWM_LED_1_UsingFixedFunction) */
 238:.\Generated_Source\PSoC5/PWM_LED_1.c **** 
 239:.\Generated_Source\PSoC5/PWM_LED_1.c ****     /* Globally disable the Fixed Function Block chosen */
 240:.\Generated_Source\PSoC5/PWM_LED_1.c ****     #if (PWM_LED_1_UsingFixedFunction)
 241:.\Generated_Source\PSoC5/PWM_LED_1.c ****         PWM_LED_1_GLOBAL_ENABLE &= ((uint8)(~PWM_LED_1_BLOCK_EN_MASK));
 242:.\Generated_Source\PSoC5/PWM_LED_1.c ****         PWM_LED_1_GLOBAL_STBY_ENABLE &= ((uint8)(~PWM_LED_1_BLOCK_STBY_EN_MASK));
 243:.\Generated_Source\PSoC5/PWM_LED_1.c ****     #endif /* (PWM_LED_1_UsingFixedFunction) */
 244:.\Generated_Source\PSoC5/PWM_LED_1.c **** }
 245:.\Generated_Source\PSoC5/PWM_LED_1.c **** 
 246:.\Generated_Source\PSoC5/PWM_LED_1.c **** #if (PWM_LED_1_UseOneCompareMode)
 247:.\Generated_Source\PSoC5/PWM_LED_1.c ****     #if (PWM_LED_1_CompareMode1SW)
 248:.\Generated_Source\PSoC5/PWM_LED_1.c **** 
 249:.\Generated_Source\PSoC5/PWM_LED_1.c **** 
 250:.\Generated_Source\PSoC5/PWM_LED_1.c ****         /*******************************************************************************
 251:.\Generated_Source\PSoC5/PWM_LED_1.c ****         * Function Name: PWM_LED_1_SetCompareMode
 252:.\Generated_Source\PSoC5/PWM_LED_1.c ****         ********************************************************************************
 253:.\Generated_Source\PSoC5/PWM_LED_1.c ****         *
 254:.\Generated_Source\PSoC5/PWM_LED_1.c ****         * Summary:
 255:.\Generated_Source\PSoC5/PWM_LED_1.c ****         *  This function writes the Compare Mode for the pwm output when in Dither mode,
 256:.\Generated_Source\PSoC5/PWM_LED_1.c ****         *  Center Align Mode or One Output Mode.
 257:.\Generated_Source\PSoC5/PWM_LED_1.c ****         *
 258:.\Generated_Source\PSoC5/PWM_LED_1.c ****         * Parameters:
 259:.\Generated_Source\PSoC5/PWM_LED_1.c ****         *  comparemode:  The new compare mode for the PWM output. Use the compare types
 260:.\Generated_Source\PSoC5/PWM_LED_1.c ****         *                defined in the H file as input arguments.
 261:.\Generated_Source\PSoC5/PWM_LED_1.c ****         *
 262:.\Generated_Source\PSoC5/PWM_LED_1.c ****         * Return:
 263:.\Generated_Source\PSoC5/PWM_LED_1.c ****         *  None
 264:.\Generated_Source\PSoC5/PWM_LED_1.c ****         *
ARM GAS  C:\Users\pxc\AppData\Local\Temp\cc1nJyjl.s 			page 7


 265:.\Generated_Source\PSoC5/PWM_LED_1.c ****         *******************************************************************************/
 266:.\Generated_Source\PSoC5/PWM_LED_1.c ****         void PWM_LED_1_SetCompareMode(uint8 comparemode) 
 267:.\Generated_Source\PSoC5/PWM_LED_1.c ****         {
 268:.\Generated_Source\PSoC5/PWM_LED_1.c ****             #if(PWM_LED_1_UsingFixedFunction)
 269:.\Generated_Source\PSoC5/PWM_LED_1.c **** 
 270:.\Generated_Source\PSoC5/PWM_LED_1.c ****                 #if(0 != PWM_LED_1_CTRL_CMPMODE1_SHIFT)
 271:.\Generated_Source\PSoC5/PWM_LED_1.c ****                     uint8 comparemodemasked = ((uint8)((uint8)comparemode << PWM_LED_1_CTRL_CMPMODE
 272:.\Generated_Source\PSoC5/PWM_LED_1.c ****                 #else
 273:.\Generated_Source\PSoC5/PWM_LED_1.c ****                     uint8 comparemodemasked = comparemode;
 274:.\Generated_Source\PSoC5/PWM_LED_1.c ****                 #endif /* (0 != PWM_LED_1_CTRL_CMPMODE1_SHIFT) */
 275:.\Generated_Source\PSoC5/PWM_LED_1.c **** 
 276:.\Generated_Source\PSoC5/PWM_LED_1.c ****                 PWM_LED_1_CONTROL3 &= ((uint8)(~PWM_LED_1_CTRL_CMPMODE1_MASK)); /*Clear Existing Da
 277:.\Generated_Source\PSoC5/PWM_LED_1.c ****                 PWM_LED_1_CONTROL3 |= comparemodemasked;
 278:.\Generated_Source\PSoC5/PWM_LED_1.c **** 
 279:.\Generated_Source\PSoC5/PWM_LED_1.c ****             #elif (PWM_LED_1_UseControl)
 280:.\Generated_Source\PSoC5/PWM_LED_1.c **** 
 281:.\Generated_Source\PSoC5/PWM_LED_1.c ****                 #if(0 != PWM_LED_1_CTRL_CMPMODE1_SHIFT)
 282:.\Generated_Source\PSoC5/PWM_LED_1.c ****                     uint8 comparemode1masked = ((uint8)((uint8)comparemode << PWM_LED_1_CTRL_CMPMOD
 283:.\Generated_Source\PSoC5/PWM_LED_1.c ****                                                 PWM_LED_1_CTRL_CMPMODE1_MASK;
 284:.\Generated_Source\PSoC5/PWM_LED_1.c ****                 #else
 285:.\Generated_Source\PSoC5/PWM_LED_1.c ****                     uint8 comparemode1masked = comparemode & PWM_LED_1_CTRL_CMPMODE1_MASK;
 286:.\Generated_Source\PSoC5/PWM_LED_1.c ****                 #endif /* (0 != PWM_LED_1_CTRL_CMPMODE1_SHIFT) */
 287:.\Generated_Source\PSoC5/PWM_LED_1.c **** 
 288:.\Generated_Source\PSoC5/PWM_LED_1.c ****                 #if(0 != PWM_LED_1_CTRL_CMPMODE2_SHIFT)
 289:.\Generated_Source\PSoC5/PWM_LED_1.c ****                     uint8 comparemode2masked = ((uint8)((uint8)comparemode << PWM_LED_1_CTRL_CMPMOD
 290:.\Generated_Source\PSoC5/PWM_LED_1.c ****                                                PWM_LED_1_CTRL_CMPMODE2_MASK;
 291:.\Generated_Source\PSoC5/PWM_LED_1.c ****                 #else
 292:.\Generated_Source\PSoC5/PWM_LED_1.c ****                     uint8 comparemode2masked = comparemode & PWM_LED_1_CTRL_CMPMODE2_MASK;
 293:.\Generated_Source\PSoC5/PWM_LED_1.c ****                 #endif /* (0 != PWM_LED_1_CTRL_CMPMODE2_SHIFT) */
 294:.\Generated_Source\PSoC5/PWM_LED_1.c **** 
 295:.\Generated_Source\PSoC5/PWM_LED_1.c ****                 /*Clear existing mode */
 296:.\Generated_Source\PSoC5/PWM_LED_1.c ****                 PWM_LED_1_CONTROL &= ((uint8)(~(PWM_LED_1_CTRL_CMPMODE1_MASK |
 297:.\Generated_Source\PSoC5/PWM_LED_1.c ****                                             PWM_LED_1_CTRL_CMPMODE2_MASK)));
 298:.\Generated_Source\PSoC5/PWM_LED_1.c ****                 PWM_LED_1_CONTROL |= (comparemode1masked | comparemode2masked);
 299:.\Generated_Source\PSoC5/PWM_LED_1.c **** 
 300:.\Generated_Source\PSoC5/PWM_LED_1.c ****             #else
 301:.\Generated_Source\PSoC5/PWM_LED_1.c ****                 uint8 temp = comparemode;
 302:.\Generated_Source\PSoC5/PWM_LED_1.c ****             #endif /* (PWM_LED_1_UsingFixedFunction) */
 303:.\Generated_Source\PSoC5/PWM_LED_1.c ****         }
 304:.\Generated_Source\PSoC5/PWM_LED_1.c ****     #endif /* PWM_LED_1_CompareMode1SW */
 305:.\Generated_Source\PSoC5/PWM_LED_1.c **** 
 306:.\Generated_Source\PSoC5/PWM_LED_1.c **** #else /* UseOneCompareMode */
 307:.\Generated_Source\PSoC5/PWM_LED_1.c **** 
 308:.\Generated_Source\PSoC5/PWM_LED_1.c ****     #if (PWM_LED_1_CompareMode1SW)
 309:.\Generated_Source\PSoC5/PWM_LED_1.c **** 
 310:.\Generated_Source\PSoC5/PWM_LED_1.c **** 
 311:.\Generated_Source\PSoC5/PWM_LED_1.c ****         /*******************************************************************************
 312:.\Generated_Source\PSoC5/PWM_LED_1.c ****         * Function Name: PWM_LED_1_SetCompareMode1
 313:.\Generated_Source\PSoC5/PWM_LED_1.c ****         ********************************************************************************
 314:.\Generated_Source\PSoC5/PWM_LED_1.c ****         *
 315:.\Generated_Source\PSoC5/PWM_LED_1.c ****         * Summary:
 316:.\Generated_Source\PSoC5/PWM_LED_1.c ****         *  This function writes the Compare Mode for the pwm or pwm1 output
 317:.\Generated_Source\PSoC5/PWM_LED_1.c ****         *
 318:.\Generated_Source\PSoC5/PWM_LED_1.c ****         * Parameters:
 319:.\Generated_Source\PSoC5/PWM_LED_1.c ****         *  comparemode:  The new compare mode for the PWM output. Use the compare types
 320:.\Generated_Source\PSoC5/PWM_LED_1.c ****         *                defined in the H file as input arguments.
 321:.\Generated_Source\PSoC5/PWM_LED_1.c ****         *
ARM GAS  C:\Users\pxc\AppData\Local\Temp\cc1nJyjl.s 			page 8


 322:.\Generated_Source\PSoC5/PWM_LED_1.c ****         * Return:
 323:.\Generated_Source\PSoC5/PWM_LED_1.c ****         *  None
 324:.\Generated_Source\PSoC5/PWM_LED_1.c ****         *
 325:.\Generated_Source\PSoC5/PWM_LED_1.c ****         *******************************************************************************/
 326:.\Generated_Source\PSoC5/PWM_LED_1.c ****         void PWM_LED_1_SetCompareMode1(uint8 comparemode) 
 327:.\Generated_Source\PSoC5/PWM_LED_1.c ****         {
 328:.\Generated_Source\PSoC5/PWM_LED_1.c ****             #if(0 != PWM_LED_1_CTRL_CMPMODE1_SHIFT)
 329:.\Generated_Source\PSoC5/PWM_LED_1.c ****                 uint8 comparemodemasked = ((uint8)((uint8)comparemode << PWM_LED_1_CTRL_CMPMODE1_SH
 330:.\Generated_Source\PSoC5/PWM_LED_1.c ****                                            PWM_LED_1_CTRL_CMPMODE1_MASK;
 331:.\Generated_Source\PSoC5/PWM_LED_1.c ****             #else
 332:.\Generated_Source\PSoC5/PWM_LED_1.c ****                 uint8 comparemodemasked = comparemode & PWM_LED_1_CTRL_CMPMODE1_MASK;
 333:.\Generated_Source\PSoC5/PWM_LED_1.c ****             #endif /* (0 != PWM_LED_1_CTRL_CMPMODE1_SHIFT) */
 334:.\Generated_Source\PSoC5/PWM_LED_1.c **** 
 335:.\Generated_Source\PSoC5/PWM_LED_1.c ****             #if (PWM_LED_1_UseControl)
 336:.\Generated_Source\PSoC5/PWM_LED_1.c ****                 PWM_LED_1_CONTROL &= ((uint8)(~PWM_LED_1_CTRL_CMPMODE1_MASK)); /*Clear existing mod
 337:.\Generated_Source\PSoC5/PWM_LED_1.c ****                 PWM_LED_1_CONTROL |= comparemodemasked;
 338:.\Generated_Source\PSoC5/PWM_LED_1.c ****             #endif /* (PWM_LED_1_UseControl) */
 339:.\Generated_Source\PSoC5/PWM_LED_1.c ****         }
 340:.\Generated_Source\PSoC5/PWM_LED_1.c ****     #endif /* PWM_LED_1_CompareMode1SW */
 341:.\Generated_Source\PSoC5/PWM_LED_1.c **** 
 342:.\Generated_Source\PSoC5/PWM_LED_1.c **** #if (PWM_LED_1_CompareMode2SW)
 343:.\Generated_Source\PSoC5/PWM_LED_1.c **** 
 344:.\Generated_Source\PSoC5/PWM_LED_1.c **** 
 345:.\Generated_Source\PSoC5/PWM_LED_1.c ****     /*******************************************************************************
 346:.\Generated_Source\PSoC5/PWM_LED_1.c ****     * Function Name: PWM_LED_1_SetCompareMode2
 347:.\Generated_Source\PSoC5/PWM_LED_1.c ****     ********************************************************************************
 348:.\Generated_Source\PSoC5/PWM_LED_1.c ****     *
 349:.\Generated_Source\PSoC5/PWM_LED_1.c ****     * Summary:
 350:.\Generated_Source\PSoC5/PWM_LED_1.c ****     *  This function writes the Compare Mode for the pwm or pwm2 output
 351:.\Generated_Source\PSoC5/PWM_LED_1.c ****     *
 352:.\Generated_Source\PSoC5/PWM_LED_1.c ****     * Parameters:
 353:.\Generated_Source\PSoC5/PWM_LED_1.c ****     *  comparemode:  The new compare mode for the PWM output. Use the compare types
 354:.\Generated_Source\PSoC5/PWM_LED_1.c ****     *                defined in the H file as input arguments.
 355:.\Generated_Source\PSoC5/PWM_LED_1.c ****     *
 356:.\Generated_Source\PSoC5/PWM_LED_1.c ****     * Return:
 357:.\Generated_Source\PSoC5/PWM_LED_1.c ****     *  None
 358:.\Generated_Source\PSoC5/PWM_LED_1.c ****     *
 359:.\Generated_Source\PSoC5/PWM_LED_1.c ****     *******************************************************************************/
 360:.\Generated_Source\PSoC5/PWM_LED_1.c ****     void PWM_LED_1_SetCompareMode2(uint8 comparemode) 
 361:.\Generated_Source\PSoC5/PWM_LED_1.c ****     {
 362:.\Generated_Source\PSoC5/PWM_LED_1.c **** 
 363:.\Generated_Source\PSoC5/PWM_LED_1.c ****         #if(0 != PWM_LED_1_CTRL_CMPMODE2_SHIFT)
 364:.\Generated_Source\PSoC5/PWM_LED_1.c ****             uint8 comparemodemasked = ((uint8)((uint8)comparemode << PWM_LED_1_CTRL_CMPMODE2_SHIFT)
 365:.\Generated_Source\PSoC5/PWM_LED_1.c ****                                                  PWM_LED_1_CTRL_CMPMODE2_MASK;
 366:.\Generated_Source\PSoC5/PWM_LED_1.c ****         #else
 367:.\Generated_Source\PSoC5/PWM_LED_1.c ****             uint8 comparemodemasked = comparemode & PWM_LED_1_CTRL_CMPMODE2_MASK;
 368:.\Generated_Source\PSoC5/PWM_LED_1.c ****         #endif /* (0 != PWM_LED_1_CTRL_CMPMODE2_SHIFT) */
 369:.\Generated_Source\PSoC5/PWM_LED_1.c **** 
 370:.\Generated_Source\PSoC5/PWM_LED_1.c ****         #if (PWM_LED_1_UseControl)
 371:.\Generated_Source\PSoC5/PWM_LED_1.c ****             PWM_LED_1_CONTROL &= ((uint8)(~PWM_LED_1_CTRL_CMPMODE2_MASK)); /*Clear existing mode */
 372:.\Generated_Source\PSoC5/PWM_LED_1.c ****             PWM_LED_1_CONTROL |= comparemodemasked;
 373:.\Generated_Source\PSoC5/PWM_LED_1.c ****         #endif /* (PWM_LED_1_UseControl) */
 374:.\Generated_Source\PSoC5/PWM_LED_1.c ****     }
 375:.\Generated_Source\PSoC5/PWM_LED_1.c ****     #endif /*PWM_LED_1_CompareMode2SW */
 376:.\Generated_Source\PSoC5/PWM_LED_1.c **** 
 377:.\Generated_Source\PSoC5/PWM_LED_1.c **** #endif /* UseOneCompareMode */
 378:.\Generated_Source\PSoC5/PWM_LED_1.c **** 
ARM GAS  C:\Users\pxc\AppData\Local\Temp\cc1nJyjl.s 			page 9


 379:.\Generated_Source\PSoC5/PWM_LED_1.c **** 
 380:.\Generated_Source\PSoC5/PWM_LED_1.c **** #if (!PWM_LED_1_UsingFixedFunction)
 381:.\Generated_Source\PSoC5/PWM_LED_1.c **** 
 382:.\Generated_Source\PSoC5/PWM_LED_1.c **** 
 383:.\Generated_Source\PSoC5/PWM_LED_1.c ****     /*******************************************************************************
 384:.\Generated_Source\PSoC5/PWM_LED_1.c ****     * Function Name: PWM_LED_1_WriteCounter
 385:.\Generated_Source\PSoC5/PWM_LED_1.c ****     ********************************************************************************
 386:.\Generated_Source\PSoC5/PWM_LED_1.c ****     *
 387:.\Generated_Source\PSoC5/PWM_LED_1.c ****     * Summary:
 388:.\Generated_Source\PSoC5/PWM_LED_1.c ****     *  Writes a new counter value directly to the counter register. This will be
 389:.\Generated_Source\PSoC5/PWM_LED_1.c ****     *  implemented for that currently running period and only that period. This API
 390:.\Generated_Source\PSoC5/PWM_LED_1.c ****     *  is valid only for UDB implementation and not available for fixed function
 391:.\Generated_Source\PSoC5/PWM_LED_1.c ****     *  PWM implementation.
 392:.\Generated_Source\PSoC5/PWM_LED_1.c ****     *
 393:.\Generated_Source\PSoC5/PWM_LED_1.c ****     * Parameters:
 394:.\Generated_Source\PSoC5/PWM_LED_1.c ****     *  counter:  The period new period counter value.
 395:.\Generated_Source\PSoC5/PWM_LED_1.c ****     *
 396:.\Generated_Source\PSoC5/PWM_LED_1.c ****     * Return:
 397:.\Generated_Source\PSoC5/PWM_LED_1.c ****     *  None
 398:.\Generated_Source\PSoC5/PWM_LED_1.c ****     *
 399:.\Generated_Source\PSoC5/PWM_LED_1.c ****     * Side Effects:
 400:.\Generated_Source\PSoC5/PWM_LED_1.c ****     *  The PWM Period will be reloaded when a counter value will be a zero
 401:.\Generated_Source\PSoC5/PWM_LED_1.c ****     *
 402:.\Generated_Source\PSoC5/PWM_LED_1.c ****     *******************************************************************************/
 403:.\Generated_Source\PSoC5/PWM_LED_1.c ****     void PWM_LED_1_WriteCounter(uint16 counter) \
 404:.\Generated_Source\PSoC5/PWM_LED_1.c ****                                        
 405:.\Generated_Source\PSoC5/PWM_LED_1.c ****     {
  79              		.loc 1 405 0
  80              		.cfi_startproc
  81              		@ args = 0, pretend = 0, frame = 0
  82              		@ frame_needed = 0, uses_anonymous_args = 0
  83              		@ link register save eliminated.
  84              	.LVL0:
 406:.\Generated_Source\PSoC5/PWM_LED_1.c ****         CY_SET_REG16(PWM_LED_1_COUNTER_LSB_PTR, counter);
  85              		.loc 1 406 0
  86 0000 014B     		ldr	r3, .L8
  87 0002 1880     		strh	r0, [r3]	@ movhi
  88 0004 7047     		bx	lr
  89              	.L9:
  90 0006 00BF     		.align	2
  91              	.L8:
  92 0008 0C680040 		.word	1073768460
  93              		.cfi_endproc
  94              	.LFE4:
  95              		.size	PWM_LED_1_WriteCounter, .-PWM_LED_1_WriteCounter
  96              		.section	.text.PWM_LED_1_ReadCounter,"ax",%progbits
  97              		.align	2
  98              		.global	PWM_LED_1_ReadCounter
  99              		.thumb
 100              		.thumb_func
 101              		.type	PWM_LED_1_ReadCounter, %function
 102              	PWM_LED_1_ReadCounter:
 103              	.LFB5:
 407:.\Generated_Source\PSoC5/PWM_LED_1.c ****     }
 408:.\Generated_Source\PSoC5/PWM_LED_1.c **** 
 409:.\Generated_Source\PSoC5/PWM_LED_1.c **** 
 410:.\Generated_Source\PSoC5/PWM_LED_1.c ****     /*******************************************************************************
ARM GAS  C:\Users\pxc\AppData\Local\Temp\cc1nJyjl.s 			page 10


 411:.\Generated_Source\PSoC5/PWM_LED_1.c ****     * Function Name: PWM_LED_1_ReadCounter
 412:.\Generated_Source\PSoC5/PWM_LED_1.c ****     ********************************************************************************
 413:.\Generated_Source\PSoC5/PWM_LED_1.c ****     *
 414:.\Generated_Source\PSoC5/PWM_LED_1.c ****     * Summary:
 415:.\Generated_Source\PSoC5/PWM_LED_1.c ****     *  This function returns the current value of the counter.  It doesn't matter
 416:.\Generated_Source\PSoC5/PWM_LED_1.c ****     *  if the counter is enabled or running.
 417:.\Generated_Source\PSoC5/PWM_LED_1.c ****     *
 418:.\Generated_Source\PSoC5/PWM_LED_1.c ****     * Parameters:
 419:.\Generated_Source\PSoC5/PWM_LED_1.c ****     *  None
 420:.\Generated_Source\PSoC5/PWM_LED_1.c ****     *
 421:.\Generated_Source\PSoC5/PWM_LED_1.c ****     * Return:
 422:.\Generated_Source\PSoC5/PWM_LED_1.c ****     *  The current value of the counter.
 423:.\Generated_Source\PSoC5/PWM_LED_1.c ****     *
 424:.\Generated_Source\PSoC5/PWM_LED_1.c ****     *******************************************************************************/
 425:.\Generated_Source\PSoC5/PWM_LED_1.c ****     uint16 PWM_LED_1_ReadCounter(void) 
 426:.\Generated_Source\PSoC5/PWM_LED_1.c ****     {
 104              		.loc 1 426 0
 105              		.cfi_startproc
 106              		@ args = 0, pretend = 0, frame = 0
 107              		@ frame_needed = 0, uses_anonymous_args = 0
 108              		@ link register save eliminated.
 427:.\Generated_Source\PSoC5/PWM_LED_1.c ****         /* Force capture by reading Accumulator */
 428:.\Generated_Source\PSoC5/PWM_LED_1.c ****         /* Must first do a software capture to be able to read the counter */
 429:.\Generated_Source\PSoC5/PWM_LED_1.c ****         /* It is up to the user code to make sure there isn't already captured data in the FIFO */
 430:.\Generated_Source\PSoC5/PWM_LED_1.c ****           (void)CY_GET_REG8(PWM_LED_1_COUNTERCAP_LSB_PTR_8BIT);
 109              		.loc 1 430 0
 110 0000 024B     		ldr	r3, .L11
 111 0002 1B78     		ldrb	r3, [r3]	@ zero_extendqisi2
 431:.\Generated_Source\PSoC5/PWM_LED_1.c **** 
 432:.\Generated_Source\PSoC5/PWM_LED_1.c ****         /* Read the data from the FIFO */
 433:.\Generated_Source\PSoC5/PWM_LED_1.c ****         return (CY_GET_REG16(PWM_LED_1_CAPTURE_LSB_PTR));
 112              		.loc 1 433 0
 113 0004 024B     		ldr	r3, .L11+4
 114 0006 1888     		ldrh	r0, [r3]
 434:.\Generated_Source\PSoC5/PWM_LED_1.c ****     }
 115              		.loc 1 434 0
 116 0008 80B2     		uxth	r0, r0
 117 000a 7047     		bx	lr
 118              	.L12:
 119              		.align	2
 120              	.L11:
 121 000c 16640040 		.word	1073767446
 122 0010 AC680040 		.word	1073768620
 123              		.cfi_endproc
 124              	.LFE5:
 125              		.size	PWM_LED_1_ReadCounter, .-PWM_LED_1_ReadCounter
 126              		.section	.text.PWM_LED_1_WritePeriod,"ax",%progbits
 127              		.align	2
 128              		.global	PWM_LED_1_WritePeriod
 129              		.thumb
 130              		.thumb_func
 131              		.type	PWM_LED_1_WritePeriod, %function
 132              	PWM_LED_1_WritePeriod:
 133              	.LFB7:
 435:.\Generated_Source\PSoC5/PWM_LED_1.c **** 
 436:.\Generated_Source\PSoC5/PWM_LED_1.c ****     #if (PWM_LED_1_UseStatus)
 437:.\Generated_Source\PSoC5/PWM_LED_1.c **** 
ARM GAS  C:\Users\pxc\AppData\Local\Temp\cc1nJyjl.s 			page 11


 438:.\Generated_Source\PSoC5/PWM_LED_1.c **** 
 439:.\Generated_Source\PSoC5/PWM_LED_1.c ****         /*******************************************************************************
 440:.\Generated_Source\PSoC5/PWM_LED_1.c ****         * Function Name: PWM_LED_1_ClearFIFO
 441:.\Generated_Source\PSoC5/PWM_LED_1.c ****         ********************************************************************************
 442:.\Generated_Source\PSoC5/PWM_LED_1.c ****         *
 443:.\Generated_Source\PSoC5/PWM_LED_1.c ****         * Summary:
 444:.\Generated_Source\PSoC5/PWM_LED_1.c ****         *  This function clears all capture data from the capture FIFO
 445:.\Generated_Source\PSoC5/PWM_LED_1.c ****         *
 446:.\Generated_Source\PSoC5/PWM_LED_1.c ****         * Parameters:
 447:.\Generated_Source\PSoC5/PWM_LED_1.c ****         *  None
 448:.\Generated_Source\PSoC5/PWM_LED_1.c ****         *
 449:.\Generated_Source\PSoC5/PWM_LED_1.c ****         * Return:
 450:.\Generated_Source\PSoC5/PWM_LED_1.c ****         *  None
 451:.\Generated_Source\PSoC5/PWM_LED_1.c ****         *
 452:.\Generated_Source\PSoC5/PWM_LED_1.c ****         *******************************************************************************/
 453:.\Generated_Source\PSoC5/PWM_LED_1.c ****         void PWM_LED_1_ClearFIFO(void) 
 454:.\Generated_Source\PSoC5/PWM_LED_1.c ****         {
 455:.\Generated_Source\PSoC5/PWM_LED_1.c ****             while(0u != (PWM_LED_1_ReadStatusRegister() & PWM_LED_1_STATUS_FIFONEMPTY))
 456:.\Generated_Source\PSoC5/PWM_LED_1.c ****             {
 457:.\Generated_Source\PSoC5/PWM_LED_1.c ****                 (void)PWM_LED_1_ReadCapture();
 458:.\Generated_Source\PSoC5/PWM_LED_1.c ****             }
 459:.\Generated_Source\PSoC5/PWM_LED_1.c ****         }
 460:.\Generated_Source\PSoC5/PWM_LED_1.c **** 
 461:.\Generated_Source\PSoC5/PWM_LED_1.c ****     #endif /* PWM_LED_1_UseStatus */
 462:.\Generated_Source\PSoC5/PWM_LED_1.c **** 
 463:.\Generated_Source\PSoC5/PWM_LED_1.c **** #endif /* !PWM_LED_1_UsingFixedFunction */
 464:.\Generated_Source\PSoC5/PWM_LED_1.c **** 
 465:.\Generated_Source\PSoC5/PWM_LED_1.c **** 
 466:.\Generated_Source\PSoC5/PWM_LED_1.c **** /*******************************************************************************
 467:.\Generated_Source\PSoC5/PWM_LED_1.c **** * Function Name: PWM_LED_1_WritePeriod
 468:.\Generated_Source\PSoC5/PWM_LED_1.c **** ********************************************************************************
 469:.\Generated_Source\PSoC5/PWM_LED_1.c **** *
 470:.\Generated_Source\PSoC5/PWM_LED_1.c **** * Summary:
 471:.\Generated_Source\PSoC5/PWM_LED_1.c **** *  This function is used to change the period of the counter.  The new period
 472:.\Generated_Source\PSoC5/PWM_LED_1.c **** *  will be loaded the next time terminal count is detected.
 473:.\Generated_Source\PSoC5/PWM_LED_1.c **** *
 474:.\Generated_Source\PSoC5/PWM_LED_1.c **** * Parameters:
 475:.\Generated_Source\PSoC5/PWM_LED_1.c **** *  period:  Period value. May be between 1 and (2^Resolution)-1.  A value of 0
 476:.\Generated_Source\PSoC5/PWM_LED_1.c **** *           will result in the counter remaining at zero.
 477:.\Generated_Source\PSoC5/PWM_LED_1.c **** *
 478:.\Generated_Source\PSoC5/PWM_LED_1.c **** * Return:
 479:.\Generated_Source\PSoC5/PWM_LED_1.c **** *  None
 480:.\Generated_Source\PSoC5/PWM_LED_1.c **** *
 481:.\Generated_Source\PSoC5/PWM_LED_1.c **** *******************************************************************************/
 482:.\Generated_Source\PSoC5/PWM_LED_1.c **** void PWM_LED_1_WritePeriod(uint16 period) 
 483:.\Generated_Source\PSoC5/PWM_LED_1.c **** {
 134              		.loc 1 483 0
 135              		.cfi_startproc
 136              		@ args = 0, pretend = 0, frame = 0
 137              		@ frame_needed = 0, uses_anonymous_args = 0
 138              		@ link register save eliminated.
 139              	.LVL1:
 484:.\Generated_Source\PSoC5/PWM_LED_1.c ****     #if(PWM_LED_1_UsingFixedFunction)
 485:.\Generated_Source\PSoC5/PWM_LED_1.c ****         CY_SET_REG16(PWM_LED_1_PERIOD_LSB_PTR, (uint16)period);
 486:.\Generated_Source\PSoC5/PWM_LED_1.c ****     #else
 487:.\Generated_Source\PSoC5/PWM_LED_1.c ****         CY_SET_REG16(PWM_LED_1_PERIOD_LSB_PTR, period);
 140              		.loc 1 487 0
ARM GAS  C:\Users\pxc\AppData\Local\Temp\cc1nJyjl.s 			page 12


 141 0000 014B     		ldr	r3, .L14
 142 0002 1880     		strh	r0, [r3]	@ movhi
 143 0004 7047     		bx	lr
 144              	.L15:
 145 0006 00BF     		.align	2
 146              	.L14:
 147 0008 8C680040 		.word	1073768588
 148              		.cfi_endproc
 149              	.LFE7:
 150              		.size	PWM_LED_1_WritePeriod, .-PWM_LED_1_WritePeriod
 151              		.section	.text.PWM_LED_1_WriteCompare1,"ax",%progbits
 152              		.align	2
 153              		.global	PWM_LED_1_WriteCompare1
 154              		.thumb
 155              		.thumb_func
 156              		.type	PWM_LED_1_WriteCompare1, %function
 157              	PWM_LED_1_WriteCompare1:
 158              	.LFB8:
 488:.\Generated_Source\PSoC5/PWM_LED_1.c ****     #endif /* (PWM_LED_1_UsingFixedFunction) */
 489:.\Generated_Source\PSoC5/PWM_LED_1.c **** }
 490:.\Generated_Source\PSoC5/PWM_LED_1.c **** 
 491:.\Generated_Source\PSoC5/PWM_LED_1.c **** #if (PWM_LED_1_UseOneCompareMode)
 492:.\Generated_Source\PSoC5/PWM_LED_1.c **** 
 493:.\Generated_Source\PSoC5/PWM_LED_1.c **** 
 494:.\Generated_Source\PSoC5/PWM_LED_1.c ****     /*******************************************************************************
 495:.\Generated_Source\PSoC5/PWM_LED_1.c ****     * Function Name: PWM_LED_1_WriteCompare
 496:.\Generated_Source\PSoC5/PWM_LED_1.c ****     ********************************************************************************
 497:.\Generated_Source\PSoC5/PWM_LED_1.c ****     *
 498:.\Generated_Source\PSoC5/PWM_LED_1.c ****     * Summary:
 499:.\Generated_Source\PSoC5/PWM_LED_1.c ****     *  This funtion is used to change the compare1 value when the PWM is in Dither
 500:.\Generated_Source\PSoC5/PWM_LED_1.c ****     *  mode. The compare output will reflect the new value on the next UDB clock.
 501:.\Generated_Source\PSoC5/PWM_LED_1.c ****     *  The compare output will be driven high when the present counter value is
 502:.\Generated_Source\PSoC5/PWM_LED_1.c ****     *  compared to the compare value based on the compare mode defined in
 503:.\Generated_Source\PSoC5/PWM_LED_1.c ****     *  Dither Mode.
 504:.\Generated_Source\PSoC5/PWM_LED_1.c ****     *
 505:.\Generated_Source\PSoC5/PWM_LED_1.c ****     * Parameters:
 506:.\Generated_Source\PSoC5/PWM_LED_1.c ****     *  compare:  New compare value.
 507:.\Generated_Source\PSoC5/PWM_LED_1.c ****     *
 508:.\Generated_Source\PSoC5/PWM_LED_1.c ****     * Return:
 509:.\Generated_Source\PSoC5/PWM_LED_1.c ****     *  None
 510:.\Generated_Source\PSoC5/PWM_LED_1.c ****     *
 511:.\Generated_Source\PSoC5/PWM_LED_1.c ****     * Side Effects:
 512:.\Generated_Source\PSoC5/PWM_LED_1.c ****     *  This function is only available if the PWM mode parameter is set to
 513:.\Generated_Source\PSoC5/PWM_LED_1.c ****     *  Dither Mode, Center Aligned Mode or One Output Mode
 514:.\Generated_Source\PSoC5/PWM_LED_1.c ****     *
 515:.\Generated_Source\PSoC5/PWM_LED_1.c ****     *******************************************************************************/
 516:.\Generated_Source\PSoC5/PWM_LED_1.c ****     void PWM_LED_1_WriteCompare(uint16 compare) \
 517:.\Generated_Source\PSoC5/PWM_LED_1.c ****                                        
 518:.\Generated_Source\PSoC5/PWM_LED_1.c ****     {
 519:.\Generated_Source\PSoC5/PWM_LED_1.c ****         #if(PWM_LED_1_UsingFixedFunction)
 520:.\Generated_Source\PSoC5/PWM_LED_1.c ****             CY_SET_REG16(PWM_LED_1_COMPARE1_LSB_PTR, (uint16)compare);
 521:.\Generated_Source\PSoC5/PWM_LED_1.c ****         #else
 522:.\Generated_Source\PSoC5/PWM_LED_1.c ****             CY_SET_REG16(PWM_LED_1_COMPARE1_LSB_PTR, compare);
 523:.\Generated_Source\PSoC5/PWM_LED_1.c ****         #endif /* (PWM_LED_1_UsingFixedFunction) */
 524:.\Generated_Source\PSoC5/PWM_LED_1.c **** 
 525:.\Generated_Source\PSoC5/PWM_LED_1.c ****         #if (PWM_LED_1_PWMMode == PWM_LED_1__B_PWM__DITHER)
 526:.\Generated_Source\PSoC5/PWM_LED_1.c ****             #if(PWM_LED_1_UsingFixedFunction)
ARM GAS  C:\Users\pxc\AppData\Local\Temp\cc1nJyjl.s 			page 13


 527:.\Generated_Source\PSoC5/PWM_LED_1.c ****                 CY_SET_REG16(PWM_LED_1_COMPARE2_LSB_PTR, (uint16)(compare + 1u));
 528:.\Generated_Source\PSoC5/PWM_LED_1.c ****             #else
 529:.\Generated_Source\PSoC5/PWM_LED_1.c ****                 CY_SET_REG16(PWM_LED_1_COMPARE2_LSB_PTR, (compare + 1u));
 530:.\Generated_Source\PSoC5/PWM_LED_1.c ****             #endif /* (PWM_LED_1_UsingFixedFunction) */
 531:.\Generated_Source\PSoC5/PWM_LED_1.c ****         #endif /* (PWM_LED_1_PWMMode == PWM_LED_1__B_PWM__DITHER) */
 532:.\Generated_Source\PSoC5/PWM_LED_1.c ****     }
 533:.\Generated_Source\PSoC5/PWM_LED_1.c **** 
 534:.\Generated_Source\PSoC5/PWM_LED_1.c **** 
 535:.\Generated_Source\PSoC5/PWM_LED_1.c **** #else
 536:.\Generated_Source\PSoC5/PWM_LED_1.c **** 
 537:.\Generated_Source\PSoC5/PWM_LED_1.c **** 
 538:.\Generated_Source\PSoC5/PWM_LED_1.c ****     /*******************************************************************************
 539:.\Generated_Source\PSoC5/PWM_LED_1.c ****     * Function Name: PWM_LED_1_WriteCompare1
 540:.\Generated_Source\PSoC5/PWM_LED_1.c ****     ********************************************************************************
 541:.\Generated_Source\PSoC5/PWM_LED_1.c ****     *
 542:.\Generated_Source\PSoC5/PWM_LED_1.c ****     * Summary:
 543:.\Generated_Source\PSoC5/PWM_LED_1.c ****     *  This funtion is used to change the compare1 value.  The compare output will
 544:.\Generated_Source\PSoC5/PWM_LED_1.c ****     *  reflect the new value on the next UDB clock.  The compare output will be
 545:.\Generated_Source\PSoC5/PWM_LED_1.c ****     *  driven high when the present counter value is less than or less than or
 546:.\Generated_Source\PSoC5/PWM_LED_1.c ****     *  equal to the compare register, depending on the mode.
 547:.\Generated_Source\PSoC5/PWM_LED_1.c ****     *
 548:.\Generated_Source\PSoC5/PWM_LED_1.c ****     * Parameters:
 549:.\Generated_Source\PSoC5/PWM_LED_1.c ****     *  compare:  New compare value.
 550:.\Generated_Source\PSoC5/PWM_LED_1.c ****     *
 551:.\Generated_Source\PSoC5/PWM_LED_1.c ****     * Return:
 552:.\Generated_Source\PSoC5/PWM_LED_1.c ****     *  None
 553:.\Generated_Source\PSoC5/PWM_LED_1.c ****     *
 554:.\Generated_Source\PSoC5/PWM_LED_1.c ****     *******************************************************************************/
 555:.\Generated_Source\PSoC5/PWM_LED_1.c ****     void PWM_LED_1_WriteCompare1(uint16 compare) \
 556:.\Generated_Source\PSoC5/PWM_LED_1.c ****                                         
 557:.\Generated_Source\PSoC5/PWM_LED_1.c ****     {
 159              		.loc 1 557 0
 160              		.cfi_startproc
 161              		@ args = 0, pretend = 0, frame = 0
 162              		@ frame_needed = 0, uses_anonymous_args = 0
 163              		@ link register save eliminated.
 164              	.LVL2:
 558:.\Generated_Source\PSoC5/PWM_LED_1.c ****         #if(PWM_LED_1_UsingFixedFunction)
 559:.\Generated_Source\PSoC5/PWM_LED_1.c ****             CY_SET_REG16(PWM_LED_1_COMPARE1_LSB_PTR, (uint16)compare);
 560:.\Generated_Source\PSoC5/PWM_LED_1.c ****         #else
 561:.\Generated_Source\PSoC5/PWM_LED_1.c ****             CY_SET_REG16(PWM_LED_1_COMPARE1_LSB_PTR, compare);
 165              		.loc 1 561 0
 166 0000 014B     		ldr	r3, .L17
 167 0002 1880     		strh	r0, [r3]	@ movhi
 168 0004 7047     		bx	lr
 169              	.L18:
 170 0006 00BF     		.align	2
 171              	.L17:
 172 0008 4C680040 		.word	1073768524
 173              		.cfi_endproc
 174              	.LFE8:
 175              		.size	PWM_LED_1_WriteCompare1, .-PWM_LED_1_WriteCompare1
 176              		.section	.text.PWM_LED_1_WriteCompare2,"ax",%progbits
 177              		.align	2
 178              		.global	PWM_LED_1_WriteCompare2
 179              		.thumb
 180              		.thumb_func
ARM GAS  C:\Users\pxc\AppData\Local\Temp\cc1nJyjl.s 			page 14


 181              		.type	PWM_LED_1_WriteCompare2, %function
 182              	PWM_LED_1_WriteCompare2:
 183              	.LFB9:
 562:.\Generated_Source\PSoC5/PWM_LED_1.c ****         #endif /* (PWM_LED_1_UsingFixedFunction) */
 563:.\Generated_Source\PSoC5/PWM_LED_1.c ****     }
 564:.\Generated_Source\PSoC5/PWM_LED_1.c **** 
 565:.\Generated_Source\PSoC5/PWM_LED_1.c **** 
 566:.\Generated_Source\PSoC5/PWM_LED_1.c ****     /*******************************************************************************
 567:.\Generated_Source\PSoC5/PWM_LED_1.c ****     * Function Name: PWM_LED_1_WriteCompare2
 568:.\Generated_Source\PSoC5/PWM_LED_1.c ****     ********************************************************************************
 569:.\Generated_Source\PSoC5/PWM_LED_1.c ****     *
 570:.\Generated_Source\PSoC5/PWM_LED_1.c ****     * Summary:
 571:.\Generated_Source\PSoC5/PWM_LED_1.c ****     *  This funtion is used to change the compare value, for compare1 output.
 572:.\Generated_Source\PSoC5/PWM_LED_1.c ****     *  The compare output will reflect the new value on the next UDB clock.
 573:.\Generated_Source\PSoC5/PWM_LED_1.c ****     *  The compare output will be driven high when the present counter value is
 574:.\Generated_Source\PSoC5/PWM_LED_1.c ****     *  less than or less than or equal to the compare register, depending on the
 575:.\Generated_Source\PSoC5/PWM_LED_1.c ****     *  mode.
 576:.\Generated_Source\PSoC5/PWM_LED_1.c ****     *
 577:.\Generated_Source\PSoC5/PWM_LED_1.c ****     * Parameters:
 578:.\Generated_Source\PSoC5/PWM_LED_1.c ****     *  compare:  New compare value.
 579:.\Generated_Source\PSoC5/PWM_LED_1.c ****     *
 580:.\Generated_Source\PSoC5/PWM_LED_1.c ****     * Return:
 581:.\Generated_Source\PSoC5/PWM_LED_1.c ****     *  None
 582:.\Generated_Source\PSoC5/PWM_LED_1.c ****     *
 583:.\Generated_Source\PSoC5/PWM_LED_1.c ****     *******************************************************************************/
 584:.\Generated_Source\PSoC5/PWM_LED_1.c ****     void PWM_LED_1_WriteCompare2(uint16 compare) \
 585:.\Generated_Source\PSoC5/PWM_LED_1.c ****                                         
 586:.\Generated_Source\PSoC5/PWM_LED_1.c ****     {
 184              		.loc 1 586 0
 185              		.cfi_startproc
 186              		@ args = 0, pretend = 0, frame = 0
 187              		@ frame_needed = 0, uses_anonymous_args = 0
 188              		@ link register save eliminated.
 189              	.LVL3:
 587:.\Generated_Source\PSoC5/PWM_LED_1.c ****         #if(PWM_LED_1_UsingFixedFunction)
 588:.\Generated_Source\PSoC5/PWM_LED_1.c ****             CY_SET_REG16(PWM_LED_1_COMPARE2_LSB_PTR, compare);
 589:.\Generated_Source\PSoC5/PWM_LED_1.c ****         #else
 590:.\Generated_Source\PSoC5/PWM_LED_1.c ****             CY_SET_REG16(PWM_LED_1_COMPARE2_LSB_PTR, compare);
 190              		.loc 1 590 0
 191 0000 014B     		ldr	r3, .L20
 192 0002 1880     		strh	r0, [r3]	@ movhi
 193 0004 7047     		bx	lr
 194              	.L21:
 195 0006 00BF     		.align	2
 196              	.L20:
 197 0008 6C680040 		.word	1073768556
 198              		.cfi_endproc
 199              	.LFE9:
 200              		.size	PWM_LED_1_WriteCompare2, .-PWM_LED_1_WriteCompare2
 201              		.section	.text.PWM_LED_1_SetInterruptMode,"ax",%progbits
 202              		.align	2
 203              		.global	PWM_LED_1_SetInterruptMode
 204              		.thumb
 205              		.thumb_func
 206              		.type	PWM_LED_1_SetInterruptMode, %function
 207              	PWM_LED_1_SetInterruptMode:
 208              	.LFB10:
ARM GAS  C:\Users\pxc\AppData\Local\Temp\cc1nJyjl.s 			page 15


 591:.\Generated_Source\PSoC5/PWM_LED_1.c ****         #endif /* (PWM_LED_1_UsingFixedFunction) */
 592:.\Generated_Source\PSoC5/PWM_LED_1.c ****     }
 593:.\Generated_Source\PSoC5/PWM_LED_1.c **** #endif /* UseOneCompareMode */
 594:.\Generated_Source\PSoC5/PWM_LED_1.c **** 
 595:.\Generated_Source\PSoC5/PWM_LED_1.c **** #if (PWM_LED_1_DeadBandUsed)
 596:.\Generated_Source\PSoC5/PWM_LED_1.c **** 
 597:.\Generated_Source\PSoC5/PWM_LED_1.c **** 
 598:.\Generated_Source\PSoC5/PWM_LED_1.c ****     /*******************************************************************************
 599:.\Generated_Source\PSoC5/PWM_LED_1.c ****     * Function Name: PWM_LED_1_WriteDeadTime
 600:.\Generated_Source\PSoC5/PWM_LED_1.c ****     ********************************************************************************
 601:.\Generated_Source\PSoC5/PWM_LED_1.c ****     *
 602:.\Generated_Source\PSoC5/PWM_LED_1.c ****     * Summary:
 603:.\Generated_Source\PSoC5/PWM_LED_1.c ****     *  This function writes the dead-band counts to the corresponding register
 604:.\Generated_Source\PSoC5/PWM_LED_1.c ****     *
 605:.\Generated_Source\PSoC5/PWM_LED_1.c ****     * Parameters:
 606:.\Generated_Source\PSoC5/PWM_LED_1.c ****     *  deadtime:  Number of counts for dead time
 607:.\Generated_Source\PSoC5/PWM_LED_1.c ****     *
 608:.\Generated_Source\PSoC5/PWM_LED_1.c ****     * Return:
 609:.\Generated_Source\PSoC5/PWM_LED_1.c ****     *  None
 610:.\Generated_Source\PSoC5/PWM_LED_1.c ****     *
 611:.\Generated_Source\PSoC5/PWM_LED_1.c ****     *******************************************************************************/
 612:.\Generated_Source\PSoC5/PWM_LED_1.c ****     void PWM_LED_1_WriteDeadTime(uint8 deadtime) 
 613:.\Generated_Source\PSoC5/PWM_LED_1.c ****     {
 614:.\Generated_Source\PSoC5/PWM_LED_1.c ****         /* If using the Dead Band 1-255 mode then just write the register */
 615:.\Generated_Source\PSoC5/PWM_LED_1.c ****         #if(!PWM_LED_1_DeadBand2_4)
 616:.\Generated_Source\PSoC5/PWM_LED_1.c ****             CY_SET_REG8(PWM_LED_1_DEADBAND_COUNT_PTR, deadtime);
 617:.\Generated_Source\PSoC5/PWM_LED_1.c ****         #else
 618:.\Generated_Source\PSoC5/PWM_LED_1.c ****             /* Otherwise the data has to be masked and offset */
 619:.\Generated_Source\PSoC5/PWM_LED_1.c ****             /* Clear existing data */
 620:.\Generated_Source\PSoC5/PWM_LED_1.c ****             PWM_LED_1_DEADBAND_COUNT &= ((uint8)(~PWM_LED_1_DEADBAND_COUNT_MASK));
 621:.\Generated_Source\PSoC5/PWM_LED_1.c **** 
 622:.\Generated_Source\PSoC5/PWM_LED_1.c ****             /* Set new dead time */
 623:.\Generated_Source\PSoC5/PWM_LED_1.c ****             #if(PWM_LED_1_DEADBAND_COUNT_SHIFT)
 624:.\Generated_Source\PSoC5/PWM_LED_1.c ****                 PWM_LED_1_DEADBAND_COUNT |= ((uint8)((uint8)deadtime << PWM_LED_1_DEADBAND_COUNT_SH
 625:.\Generated_Source\PSoC5/PWM_LED_1.c ****                                                     PWM_LED_1_DEADBAND_COUNT_MASK;
 626:.\Generated_Source\PSoC5/PWM_LED_1.c ****             #else
 627:.\Generated_Source\PSoC5/PWM_LED_1.c ****                 PWM_LED_1_DEADBAND_COUNT |= deadtime & PWM_LED_1_DEADBAND_COUNT_MASK;
 628:.\Generated_Source\PSoC5/PWM_LED_1.c ****             #endif /* (PWM_LED_1_DEADBAND_COUNT_SHIFT) */
 629:.\Generated_Source\PSoC5/PWM_LED_1.c **** 
 630:.\Generated_Source\PSoC5/PWM_LED_1.c ****         #endif /* (!PWM_LED_1_DeadBand2_4) */
 631:.\Generated_Source\PSoC5/PWM_LED_1.c ****     }
 632:.\Generated_Source\PSoC5/PWM_LED_1.c **** 
 633:.\Generated_Source\PSoC5/PWM_LED_1.c **** 
 634:.\Generated_Source\PSoC5/PWM_LED_1.c ****     /*******************************************************************************
 635:.\Generated_Source\PSoC5/PWM_LED_1.c ****     * Function Name: PWM_LED_1_ReadDeadTime
 636:.\Generated_Source\PSoC5/PWM_LED_1.c ****     ********************************************************************************
 637:.\Generated_Source\PSoC5/PWM_LED_1.c ****     *
 638:.\Generated_Source\PSoC5/PWM_LED_1.c ****     * Summary:
 639:.\Generated_Source\PSoC5/PWM_LED_1.c ****     *  This function reads the dead-band counts from the corresponding register
 640:.\Generated_Source\PSoC5/PWM_LED_1.c ****     *
 641:.\Generated_Source\PSoC5/PWM_LED_1.c ****     * Parameters:
 642:.\Generated_Source\PSoC5/PWM_LED_1.c ****     *  None
 643:.\Generated_Source\PSoC5/PWM_LED_1.c ****     *
 644:.\Generated_Source\PSoC5/PWM_LED_1.c ****     * Return:
 645:.\Generated_Source\PSoC5/PWM_LED_1.c ****     *  Dead Band Counts
 646:.\Generated_Source\PSoC5/PWM_LED_1.c ****     *
 647:.\Generated_Source\PSoC5/PWM_LED_1.c ****     *******************************************************************************/
ARM GAS  C:\Users\pxc\AppData\Local\Temp\cc1nJyjl.s 			page 16


 648:.\Generated_Source\PSoC5/PWM_LED_1.c ****     uint8 PWM_LED_1_ReadDeadTime(void) 
 649:.\Generated_Source\PSoC5/PWM_LED_1.c ****     {
 650:.\Generated_Source\PSoC5/PWM_LED_1.c ****         /* If using the Dead Band 1-255 mode then just read the register */
 651:.\Generated_Source\PSoC5/PWM_LED_1.c ****         #if(!PWM_LED_1_DeadBand2_4)
 652:.\Generated_Source\PSoC5/PWM_LED_1.c ****             return (CY_GET_REG8(PWM_LED_1_DEADBAND_COUNT_PTR));
 653:.\Generated_Source\PSoC5/PWM_LED_1.c ****         #else
 654:.\Generated_Source\PSoC5/PWM_LED_1.c **** 
 655:.\Generated_Source\PSoC5/PWM_LED_1.c ****             /* Otherwise the data has to be masked and offset */
 656:.\Generated_Source\PSoC5/PWM_LED_1.c ****             #if(PWM_LED_1_DEADBAND_COUNT_SHIFT)
 657:.\Generated_Source\PSoC5/PWM_LED_1.c ****                 return ((uint8)(((uint8)(PWM_LED_1_DEADBAND_COUNT & PWM_LED_1_DEADBAND_COUNT_MASK))
 658:.\Generated_Source\PSoC5/PWM_LED_1.c ****                                                                            PWM_LED_1_DEADBAND_COUNT
 659:.\Generated_Source\PSoC5/PWM_LED_1.c ****             #else
 660:.\Generated_Source\PSoC5/PWM_LED_1.c ****                 return (PWM_LED_1_DEADBAND_COUNT & PWM_LED_1_DEADBAND_COUNT_MASK);
 661:.\Generated_Source\PSoC5/PWM_LED_1.c ****             #endif /* (PWM_LED_1_DEADBAND_COUNT_SHIFT) */
 662:.\Generated_Source\PSoC5/PWM_LED_1.c ****         #endif /* (!PWM_LED_1_DeadBand2_4) */
 663:.\Generated_Source\PSoC5/PWM_LED_1.c ****     }
 664:.\Generated_Source\PSoC5/PWM_LED_1.c **** #endif /* DeadBandUsed */
 665:.\Generated_Source\PSoC5/PWM_LED_1.c **** 
 666:.\Generated_Source\PSoC5/PWM_LED_1.c **** #if (PWM_LED_1_UseStatus || PWM_LED_1_UsingFixedFunction)
 667:.\Generated_Source\PSoC5/PWM_LED_1.c **** 
 668:.\Generated_Source\PSoC5/PWM_LED_1.c **** 
 669:.\Generated_Source\PSoC5/PWM_LED_1.c ****     /*******************************************************************************
 670:.\Generated_Source\PSoC5/PWM_LED_1.c ****     * Function Name: PWM_LED_1_SetInterruptMode
 671:.\Generated_Source\PSoC5/PWM_LED_1.c ****     ********************************************************************************
 672:.\Generated_Source\PSoC5/PWM_LED_1.c ****     *
 673:.\Generated_Source\PSoC5/PWM_LED_1.c ****     * Summary:
 674:.\Generated_Source\PSoC5/PWM_LED_1.c ****     *  This function configures the interrupts mask control of theinterrupt
 675:.\Generated_Source\PSoC5/PWM_LED_1.c ****     *  source status register.
 676:.\Generated_Source\PSoC5/PWM_LED_1.c ****     *
 677:.\Generated_Source\PSoC5/PWM_LED_1.c ****     * Parameters:
 678:.\Generated_Source\PSoC5/PWM_LED_1.c ****     *  uint8 interruptMode: Bit field containing the interrupt sources enabled
 679:.\Generated_Source\PSoC5/PWM_LED_1.c ****     *
 680:.\Generated_Source\PSoC5/PWM_LED_1.c ****     * Return:
 681:.\Generated_Source\PSoC5/PWM_LED_1.c ****     *  None
 682:.\Generated_Source\PSoC5/PWM_LED_1.c ****     *
 683:.\Generated_Source\PSoC5/PWM_LED_1.c ****     *******************************************************************************/
 684:.\Generated_Source\PSoC5/PWM_LED_1.c ****     void PWM_LED_1_SetInterruptMode(uint8 interruptMode) 
 685:.\Generated_Source\PSoC5/PWM_LED_1.c ****     {
 209              		.loc 1 685 0
 210              		.cfi_startproc
 211              		@ args = 0, pretend = 0, frame = 0
 212              		@ frame_needed = 0, uses_anonymous_args = 0
 213              		@ link register save eliminated.
 214              	.LVL4:
 686:.\Generated_Source\PSoC5/PWM_LED_1.c ****         CY_SET_REG8(PWM_LED_1_STATUS_MASK_PTR, interruptMode);
 215              		.loc 1 686 0
 216 0000 014B     		ldr	r3, .L23
 217 0002 1870     		strb	r0, [r3]
 218 0004 7047     		bx	lr
 219              	.L24:
 220 0006 00BF     		.align	2
 221              	.L23:
 222 0008 84650040 		.word	1073767812
 223              		.cfi_endproc
 224              	.LFE10:
 225              		.size	PWM_LED_1_SetInterruptMode, .-PWM_LED_1_SetInterruptMode
 226              		.section	.text.PWM_LED_1_ReadStatusRegister,"ax",%progbits
ARM GAS  C:\Users\pxc\AppData\Local\Temp\cc1nJyjl.s 			page 17


 227              		.align	2
 228              		.global	PWM_LED_1_ReadStatusRegister
 229              		.thumb
 230              		.thumb_func
 231              		.type	PWM_LED_1_ReadStatusRegister, %function
 232              	PWM_LED_1_ReadStatusRegister:
 233              	.LFB11:
 687:.\Generated_Source\PSoC5/PWM_LED_1.c ****     }
 688:.\Generated_Source\PSoC5/PWM_LED_1.c **** 
 689:.\Generated_Source\PSoC5/PWM_LED_1.c **** 
 690:.\Generated_Source\PSoC5/PWM_LED_1.c ****     /*******************************************************************************
 691:.\Generated_Source\PSoC5/PWM_LED_1.c ****     * Function Name: PWM_LED_1_ReadStatusRegister
 692:.\Generated_Source\PSoC5/PWM_LED_1.c ****     ********************************************************************************
 693:.\Generated_Source\PSoC5/PWM_LED_1.c ****     *
 694:.\Generated_Source\PSoC5/PWM_LED_1.c ****     * Summary:
 695:.\Generated_Source\PSoC5/PWM_LED_1.c ****     *  This function returns the current state of the status register.
 696:.\Generated_Source\PSoC5/PWM_LED_1.c ****     *
 697:.\Generated_Source\PSoC5/PWM_LED_1.c ****     * Parameters:
 698:.\Generated_Source\PSoC5/PWM_LED_1.c ****     *  None
 699:.\Generated_Source\PSoC5/PWM_LED_1.c ****     *
 700:.\Generated_Source\PSoC5/PWM_LED_1.c ****     * Return:
 701:.\Generated_Source\PSoC5/PWM_LED_1.c ****     *  uint8 : Current status register value. The status register bits are:
 702:.\Generated_Source\PSoC5/PWM_LED_1.c ****     *  [7:6] : Unused(0)
 703:.\Generated_Source\PSoC5/PWM_LED_1.c ****     *  [5]   : Kill event output
 704:.\Generated_Source\PSoC5/PWM_LED_1.c ****     *  [4]   : FIFO not empty
 705:.\Generated_Source\PSoC5/PWM_LED_1.c ****     *  [3]   : FIFO full
 706:.\Generated_Source\PSoC5/PWM_LED_1.c ****     *  [2]   : Terminal count
 707:.\Generated_Source\PSoC5/PWM_LED_1.c ****     *  [1]   : Compare output 2
 708:.\Generated_Source\PSoC5/PWM_LED_1.c ****     *  [0]   : Compare output 1
 709:.\Generated_Source\PSoC5/PWM_LED_1.c ****     *
 710:.\Generated_Source\PSoC5/PWM_LED_1.c ****     *******************************************************************************/
 711:.\Generated_Source\PSoC5/PWM_LED_1.c ****     uint8 PWM_LED_1_ReadStatusRegister(void) 
 712:.\Generated_Source\PSoC5/PWM_LED_1.c ****     {
 234              		.loc 1 712 0
 235              		.cfi_startproc
 236              		@ args = 0, pretend = 0, frame = 0
 237              		@ frame_needed = 0, uses_anonymous_args = 0
 238              		@ link register save eliminated.
 713:.\Generated_Source\PSoC5/PWM_LED_1.c ****         return (CY_GET_REG8(PWM_LED_1_STATUS_PTR));
 239              		.loc 1 713 0
 240 0000 014B     		ldr	r3, .L26
 241 0002 1878     		ldrb	r0, [r3]	@ zero_extendqisi2
 714:.\Generated_Source\PSoC5/PWM_LED_1.c ****     }
 242              		.loc 1 714 0
 243 0004 7047     		bx	lr
 244              	.L27:
 245 0006 00BF     		.align	2
 246              	.L26:
 247 0008 64650040 		.word	1073767780
 248              		.cfi_endproc
 249              	.LFE11:
 250              		.size	PWM_LED_1_ReadStatusRegister, .-PWM_LED_1_ReadStatusRegister
 251              		.section	.text.PWM_LED_1_ReadControlRegister,"ax",%progbits
 252              		.align	2
 253              		.global	PWM_LED_1_ReadControlRegister
 254              		.thumb
 255              		.thumb_func
ARM GAS  C:\Users\pxc\AppData\Local\Temp\cc1nJyjl.s 			page 18


 256              		.type	PWM_LED_1_ReadControlRegister, %function
 257              	PWM_LED_1_ReadControlRegister:
 258              	.LFB12:
 715:.\Generated_Source\PSoC5/PWM_LED_1.c **** 
 716:.\Generated_Source\PSoC5/PWM_LED_1.c **** #endif /* (PWM_LED_1_UseStatus || PWM_LED_1_UsingFixedFunction) */
 717:.\Generated_Source\PSoC5/PWM_LED_1.c **** 
 718:.\Generated_Source\PSoC5/PWM_LED_1.c **** 
 719:.\Generated_Source\PSoC5/PWM_LED_1.c **** #if (PWM_LED_1_UseControl)
 720:.\Generated_Source\PSoC5/PWM_LED_1.c **** 
 721:.\Generated_Source\PSoC5/PWM_LED_1.c **** 
 722:.\Generated_Source\PSoC5/PWM_LED_1.c ****     /*******************************************************************************
 723:.\Generated_Source\PSoC5/PWM_LED_1.c ****     * Function Name: PWM_LED_1_ReadControlRegister
 724:.\Generated_Source\PSoC5/PWM_LED_1.c ****     ********************************************************************************
 725:.\Generated_Source\PSoC5/PWM_LED_1.c ****     *
 726:.\Generated_Source\PSoC5/PWM_LED_1.c ****     * Summary:
 727:.\Generated_Source\PSoC5/PWM_LED_1.c ****     *  Returns the current state of the control register. This API is available
 728:.\Generated_Source\PSoC5/PWM_LED_1.c ****     *  only if the control register is not removed.
 729:.\Generated_Source\PSoC5/PWM_LED_1.c ****     *
 730:.\Generated_Source\PSoC5/PWM_LED_1.c ****     * Parameters:
 731:.\Generated_Source\PSoC5/PWM_LED_1.c ****     *  None
 732:.\Generated_Source\PSoC5/PWM_LED_1.c ****     *
 733:.\Generated_Source\PSoC5/PWM_LED_1.c ****     * Return:
 734:.\Generated_Source\PSoC5/PWM_LED_1.c ****     *  uint8 : Current control register value
 735:.\Generated_Source\PSoC5/PWM_LED_1.c ****     *
 736:.\Generated_Source\PSoC5/PWM_LED_1.c ****     *******************************************************************************/
 737:.\Generated_Source\PSoC5/PWM_LED_1.c ****     uint8 PWM_LED_1_ReadControlRegister(void) 
 738:.\Generated_Source\PSoC5/PWM_LED_1.c ****     {
 259              		.loc 1 738 0
 260              		.cfi_startproc
 261              		@ args = 0, pretend = 0, frame = 0
 262              		@ frame_needed = 0, uses_anonymous_args = 0
 263              		@ link register save eliminated.
 739:.\Generated_Source\PSoC5/PWM_LED_1.c ****         uint8 result;
 740:.\Generated_Source\PSoC5/PWM_LED_1.c **** 
 741:.\Generated_Source\PSoC5/PWM_LED_1.c ****         result = CY_GET_REG8(PWM_LED_1_CONTROL_PTR);
 264              		.loc 1 741 0
 265 0000 014B     		ldr	r3, .L29
 266 0002 1878     		ldrb	r0, [r3]	@ zero_extendqisi2
 267              	.LVL5:
 742:.\Generated_Source\PSoC5/PWM_LED_1.c ****         return (result);
 743:.\Generated_Source\PSoC5/PWM_LED_1.c ****     }
 268              		.loc 1 743 0
 269 0004 7047     		bx	lr
 270              	.L30:
 271 0006 00BF     		.align	2
 272              	.L29:
 273 0008 76650040 		.word	1073767798
 274              		.cfi_endproc
 275              	.LFE12:
 276              		.size	PWM_LED_1_ReadControlRegister, .-PWM_LED_1_ReadControlRegister
 277              		.section	.text.PWM_LED_1_WriteControlRegister,"ax",%progbits
 278              		.align	2
 279              		.global	PWM_LED_1_WriteControlRegister
 280              		.thumb
 281              		.thumb_func
 282              		.type	PWM_LED_1_WriteControlRegister, %function
 283              	PWM_LED_1_WriteControlRegister:
ARM GAS  C:\Users\pxc\AppData\Local\Temp\cc1nJyjl.s 			page 19


 284              	.LFB13:
 744:.\Generated_Source\PSoC5/PWM_LED_1.c **** 
 745:.\Generated_Source\PSoC5/PWM_LED_1.c **** 
 746:.\Generated_Source\PSoC5/PWM_LED_1.c ****     /*******************************************************************************
 747:.\Generated_Source\PSoC5/PWM_LED_1.c ****     * Function Name: PWM_LED_1_WriteControlRegister
 748:.\Generated_Source\PSoC5/PWM_LED_1.c ****     ********************************************************************************
 749:.\Generated_Source\PSoC5/PWM_LED_1.c ****     *
 750:.\Generated_Source\PSoC5/PWM_LED_1.c ****     * Summary:
 751:.\Generated_Source\PSoC5/PWM_LED_1.c ****     *  Sets the bit field of the control register. This API is available only if
 752:.\Generated_Source\PSoC5/PWM_LED_1.c ****     *  the control register is not removed.
 753:.\Generated_Source\PSoC5/PWM_LED_1.c ****     *
 754:.\Generated_Source\PSoC5/PWM_LED_1.c ****     * Parameters:
 755:.\Generated_Source\PSoC5/PWM_LED_1.c ****     *  uint8 control: Control register bit field, The status register bits are:
 756:.\Generated_Source\PSoC5/PWM_LED_1.c ****     *  [7]   : PWM Enable
 757:.\Generated_Source\PSoC5/PWM_LED_1.c ****     *  [6]   : Reset
 758:.\Generated_Source\PSoC5/PWM_LED_1.c ****     *  [5:3] : Compare Mode2
 759:.\Generated_Source\PSoC5/PWM_LED_1.c ****     *  [2:0] : Compare Mode2
 760:.\Generated_Source\PSoC5/PWM_LED_1.c ****     *
 761:.\Generated_Source\PSoC5/PWM_LED_1.c ****     * Return:
 762:.\Generated_Source\PSoC5/PWM_LED_1.c ****     *  None
 763:.\Generated_Source\PSoC5/PWM_LED_1.c ****     *
 764:.\Generated_Source\PSoC5/PWM_LED_1.c ****     *******************************************************************************/
 765:.\Generated_Source\PSoC5/PWM_LED_1.c ****     void PWM_LED_1_WriteControlRegister(uint8 control) 
 766:.\Generated_Source\PSoC5/PWM_LED_1.c ****     {
 285              		.loc 1 766 0
 286              		.cfi_startproc
 287              		@ args = 0, pretend = 0, frame = 0
 288              		@ frame_needed = 0, uses_anonymous_args = 0
 289              		@ link register save eliminated.
 290              	.LVL6:
 767:.\Generated_Source\PSoC5/PWM_LED_1.c ****         CY_SET_REG8(PWM_LED_1_CONTROL_PTR, control);
 291              		.loc 1 767 0
 292 0000 014B     		ldr	r3, .L32
 293 0002 1870     		strb	r0, [r3]
 294 0004 7047     		bx	lr
 295              	.L33:
 296 0006 00BF     		.align	2
 297              	.L32:
 298 0008 76650040 		.word	1073767798
 299              		.cfi_endproc
 300              	.LFE13:
 301              		.size	PWM_LED_1_WriteControlRegister, .-PWM_LED_1_WriteControlRegister
 302              		.section	.text.PWM_LED_1_ReadCapture,"ax",%progbits
 303              		.align	2
 304              		.global	PWM_LED_1_ReadCapture
 305              		.thumb
 306              		.thumb_func
 307              		.type	PWM_LED_1_ReadCapture, %function
 308              	PWM_LED_1_ReadCapture:
 309              	.LFB14:
 768:.\Generated_Source\PSoC5/PWM_LED_1.c ****     }
 769:.\Generated_Source\PSoC5/PWM_LED_1.c **** 
 770:.\Generated_Source\PSoC5/PWM_LED_1.c **** #endif /* (PWM_LED_1_UseControl) */
 771:.\Generated_Source\PSoC5/PWM_LED_1.c **** 
 772:.\Generated_Source\PSoC5/PWM_LED_1.c **** 
 773:.\Generated_Source\PSoC5/PWM_LED_1.c **** #if (!PWM_LED_1_UsingFixedFunction)
 774:.\Generated_Source\PSoC5/PWM_LED_1.c **** 
ARM GAS  C:\Users\pxc\AppData\Local\Temp\cc1nJyjl.s 			page 20


 775:.\Generated_Source\PSoC5/PWM_LED_1.c **** 
 776:.\Generated_Source\PSoC5/PWM_LED_1.c ****     /*******************************************************************************
 777:.\Generated_Source\PSoC5/PWM_LED_1.c ****     * Function Name: PWM_LED_1_ReadCapture
 778:.\Generated_Source\PSoC5/PWM_LED_1.c ****     ********************************************************************************
 779:.\Generated_Source\PSoC5/PWM_LED_1.c ****     *
 780:.\Generated_Source\PSoC5/PWM_LED_1.c ****     * Summary:
 781:.\Generated_Source\PSoC5/PWM_LED_1.c ****     *  Reads the capture value from the capture FIFO.
 782:.\Generated_Source\PSoC5/PWM_LED_1.c ****     *
 783:.\Generated_Source\PSoC5/PWM_LED_1.c ****     * Parameters:
 784:.\Generated_Source\PSoC5/PWM_LED_1.c ****     *  None
 785:.\Generated_Source\PSoC5/PWM_LED_1.c ****     *
 786:.\Generated_Source\PSoC5/PWM_LED_1.c ****     * Return:
 787:.\Generated_Source\PSoC5/PWM_LED_1.c ****     *  uint8/uint16: The current capture value
 788:.\Generated_Source\PSoC5/PWM_LED_1.c ****     *
 789:.\Generated_Source\PSoC5/PWM_LED_1.c ****     *******************************************************************************/
 790:.\Generated_Source\PSoC5/PWM_LED_1.c ****     uint16 PWM_LED_1_ReadCapture(void) 
 791:.\Generated_Source\PSoC5/PWM_LED_1.c ****     {
 310              		.loc 1 791 0
 311              		.cfi_startproc
 312              		@ args = 0, pretend = 0, frame = 0
 313              		@ frame_needed = 0, uses_anonymous_args = 0
 314              		@ link register save eliminated.
 792:.\Generated_Source\PSoC5/PWM_LED_1.c ****         return (CY_GET_REG16(PWM_LED_1_CAPTURE_LSB_PTR));
 315              		.loc 1 792 0
 316 0000 014B     		ldr	r3, .L35
 317 0002 1888     		ldrh	r0, [r3]
 793:.\Generated_Source\PSoC5/PWM_LED_1.c ****     }
 318              		.loc 1 793 0
 319 0004 80B2     		uxth	r0, r0
 320 0006 7047     		bx	lr
 321              	.L36:
 322              		.align	2
 323              	.L35:
 324 0008 AC680040 		.word	1073768620
 325              		.cfi_endproc
 326              	.LFE14:
 327              		.size	PWM_LED_1_ReadCapture, .-PWM_LED_1_ReadCapture
 328              		.section	.text.PWM_LED_1_ClearFIFO,"ax",%progbits
 329              		.align	2
 330              		.global	PWM_LED_1_ClearFIFO
 331              		.thumb
 332              		.thumb_func
 333              		.type	PWM_LED_1_ClearFIFO, %function
 334              	PWM_LED_1_ClearFIFO:
 335              	.LFB6:
 454:.\Generated_Source\PSoC5/PWM_LED_1.c ****             while(0u != (PWM_LED_1_ReadStatusRegister() & PWM_LED_1_STATUS_FIFONEMPTY))
 336              		.loc 1 454 0
 337              		.cfi_startproc
 338              		@ args = 0, pretend = 0, frame = 0
 339              		@ frame_needed = 0, uses_anonymous_args = 0
 340 0000 08B5     		push	{r3, lr}
 341              		.cfi_def_cfa_offset 8
 342              		.cfi_offset 3, -8
 343              		.cfi_offset 14, -4
 455:.\Generated_Source\PSoC5/PWM_LED_1.c ****             {
 344              		.loc 1 455 0
 345 0002 01E0     		b	.L38
ARM GAS  C:\Users\pxc\AppData\Local\Temp\cc1nJyjl.s 			page 21


 346              	.L39:
 457:.\Generated_Source\PSoC5/PWM_LED_1.c ****             }
 347              		.loc 1 457 0
 348 0004 FFF7FEFF 		bl	PWM_LED_1_ReadCapture
 349              	.LVL7:
 350              	.L38:
 455:.\Generated_Source\PSoC5/PWM_LED_1.c ****             {
 351              		.loc 1 455 0
 352 0008 FFF7FEFF 		bl	PWM_LED_1_ReadStatusRegister
 353              	.LVL8:
 354 000c 10F0100F 		tst	r0, #16
 355 0010 F8D1     		bne	.L39
 459:.\Generated_Source\PSoC5/PWM_LED_1.c **** 
 356              		.loc 1 459 0
 357 0012 08BD     		pop	{r3, pc}
 358              		.cfi_endproc
 359              	.LFE6:
 360              		.size	PWM_LED_1_ClearFIFO, .-PWM_LED_1_ClearFIFO
 361              		.section	.text.PWM_LED_1_Init,"ax",%progbits
 362              		.align	2
 363              		.global	PWM_LED_1_Init
 364              		.thumb
 365              		.thumb_func
 366              		.type	PWM_LED_1_Init, %function
 367              	PWM_LED_1_Init:
 368              	.LFB1:
  85:.\Generated_Source\PSoC5/PWM_LED_1.c ****     #if (PWM_LED_1_UsingFixedFunction || PWM_LED_1_UseControl)
 369              		.loc 1 85 0
 370              		.cfi_startproc
 371              		@ args = 0, pretend = 0, frame = 0
 372              		@ frame_needed = 0, uses_anonymous_args = 0
 373 0000 08B5     		push	{r3, lr}
 374              		.cfi_def_cfa_offset 8
 375              		.cfi_offset 3, -8
 376              		.cfi_offset 14, -4
 117:.\Generated_Source\PSoC5/PWM_LED_1.c ****                 ((uint8)(~PWM_LED_1_CTRL_CMPMODE1_MASK));
 377              		.loc 1 117 0
 378 0002 184A     		ldr	r2, .L43
 379 0004 1378     		ldrb	r3, [r2]	@ zero_extendqisi2
 380 0006 03F0C003 		and	r3, r3, #192
 381              	.LVL9:
 119:.\Generated_Source\PSoC5/PWM_LED_1.c ****                                    PWM_LED_1_DEFAULT_COMPARE1_MODE;
 382              		.loc 1 119 0
 383 000a 43F00903 		orr	r3, r3, #9
 384              	.LVL10:
 385 000e 1370     		strb	r3, [r2]
 129:.\Generated_Source\PSoC5/PWM_LED_1.c ****             PWM_LED_1_AUX_CONTROLDP1 |= (PWM_LED_1_AUX_CTRL_FIFO0_CLR);
 386              		.loc 1 129 0
 387 0010 E03A     		subs	r2, r2, #224
 388 0012 1378     		ldrb	r3, [r2]	@ zero_extendqisi2
 389 0014 43F00103 		orr	r3, r3, #1
 390 0018 1370     		strb	r3, [r2]
 130:.\Generated_Source\PSoC5/PWM_LED_1.c ****         #endif /* (PWM_LED_1_Resolution == 8) */
 391              		.loc 1 130 0
 392 001a 0132     		adds	r2, r2, #1
 393 001c 1378     		ldrb	r3, [r2]	@ zero_extendqisi2
 394 001e 43F00103 		orr	r3, r3, #1
ARM GAS  C:\Users\pxc\AppData\Local\Temp\cc1nJyjl.s 			page 22


 395 0022 1370     		strb	r3, [r2]
 133:.\Generated_Source\PSoC5/PWM_LED_1.c ****     #endif /* (!PWM_LED_1_UsingFixedFunction) */
 396              		.loc 1 133 0
 397 0024 40F2BF30 		movw	r0, #959
 398 0028 FFF7FEFF 		bl	PWM_LED_1_WriteCounter
 399              	.LVL11:
 136:.\Generated_Source\PSoC5/PWM_LED_1.c **** 
 400              		.loc 1 136 0
 401 002c 40F2BF30 		movw	r0, #959
 402 0030 FFF7FEFF 		bl	PWM_LED_1_WritePeriod
 403              	.LVL12:
 141:.\Generated_Source\PSoC5/PWM_LED_1.c ****             PWM_LED_1_WriteCompare2(PWM_LED_1_INIT_COMPARE_VALUE2);
 404              		.loc 1 141 0
 405 0034 4FF4C870 		mov	r0, #400
 406 0038 FFF7FEFF 		bl	PWM_LED_1_WriteCompare1
 407              	.LVL13:
 142:.\Generated_Source\PSoC5/PWM_LED_1.c ****         #endif /* (PWM_LED_1_UseOneCompareMode) */
 408              		.loc 1 142 0
 409 003c 4FF4C870 		mov	r0, #400
 410 0040 FFF7FEFF 		bl	PWM_LED_1_WriteCompare2
 411              	.LVL14:
 154:.\Generated_Source\PSoC5/PWM_LED_1.c ****     #endif /* (PWM_LED_1_UseStatus || PWM_LED_1_UsingFixedFunction) */
 412              		.loc 1 154 0
 413 0044 0020     		movs	r0, #0
 414 0046 FFF7FEFF 		bl	PWM_LED_1_SetInterruptMode
 415              	.LVL15:
 167:.\Generated_Source\PSoC5/PWM_LED_1.c ****             /* Use the interrupt output of the status register for IRQ output */
 416              		.loc 1 167 0
 417 004a FFF7FEFF 		bl	CyEnterCriticalSection
 418              	.LVL16:
 169:.\Generated_Source\PSoC5/PWM_LED_1.c **** 
 419              		.loc 1 169 0
 420 004e 064A     		ldr	r2, .L43+4
 421 0050 1378     		ldrb	r3, [r2]	@ zero_extendqisi2
 422 0052 43F01003 		orr	r3, r3, #16
 423 0056 1370     		strb	r3, [r2]
 172:.\Generated_Source\PSoC5/PWM_LED_1.c **** 
 424              		.loc 1 172 0
 425 0058 FFF7FEFF 		bl	CyExitCriticalSection
 426              	.LVL17:
 176:.\Generated_Source\PSoC5/PWM_LED_1.c ****         #endif /* (PWM_LED_1_UseStatus) */
 427              		.loc 1 176 0
 428 005c FFF7FEFF 		bl	PWM_LED_1_ClearFIFO
 429              	.LVL18:
 430 0060 08BD     		pop	{r3, pc}
 431              	.L44:
 432 0062 00BF     		.align	2
 433              	.L43:
 434 0064 76650040 		.word	1073767798
 435 0068 94650040 		.word	1073767828
 436              		.cfi_endproc
 437              	.LFE1:
 438              		.size	PWM_LED_1_Init, .-PWM_LED_1_Init
 439              		.section	.text.PWM_LED_1_Start,"ax",%progbits
 440              		.align	2
 441              		.global	PWM_LED_1_Start
 442              		.thumb
ARM GAS  C:\Users\pxc\AppData\Local\Temp\cc1nJyjl.s 			page 23


 443              		.thumb_func
 444              		.type	PWM_LED_1_Start, %function
 445              	PWM_LED_1_Start:
 446              	.LFB0:
  56:.\Generated_Source\PSoC5/PWM_LED_1.c ****     /* If not Initialized then initialize all required hardware and software */
 447              		.loc 1 56 0
 448              		.cfi_startproc
 449              		@ args = 0, pretend = 0, frame = 0
 450              		@ frame_needed = 0, uses_anonymous_args = 0
 451 0000 08B5     		push	{r3, lr}
 452              		.cfi_def_cfa_offset 8
 453              		.cfi_offset 3, -8
 454              		.cfi_offset 14, -4
  58:.\Generated_Source\PSoC5/PWM_LED_1.c ****     {
 455              		.loc 1 58 0
 456 0002 054B     		ldr	r3, .L48
 457 0004 1B78     		ldrb	r3, [r3]	@ zero_extendqisi2
 458 0006 23B9     		cbnz	r3, .L46
  60:.\Generated_Source\PSoC5/PWM_LED_1.c ****         PWM_LED_1_initVar = 1u;
 459              		.loc 1 60 0
 460 0008 FFF7FEFF 		bl	PWM_LED_1_Init
 461              	.LVL19:
  61:.\Generated_Source\PSoC5/PWM_LED_1.c ****     }
 462              		.loc 1 61 0
 463 000c 0122     		movs	r2, #1
 464 000e 024B     		ldr	r3, .L48
 465 0010 1A70     		strb	r2, [r3]
 466              	.L46:
  63:.\Generated_Source\PSoC5/PWM_LED_1.c **** 
 467              		.loc 1 63 0
 468 0012 FFF7FEFF 		bl	PWM_LED_1_Enable
 469              	.LVL20:
 470 0016 08BD     		pop	{r3, pc}
 471              	.L49:
 472              		.align	2
 473              	.L48:
 474 0018 00000000 		.word	.LANCHOR0
 475              		.cfi_endproc
 476              	.LFE0:
 477              		.size	PWM_LED_1_Start, .-PWM_LED_1_Start
 478              		.section	.text.PWM_LED_1_ReadCompare1,"ax",%progbits
 479              		.align	2
 480              		.global	PWM_LED_1_ReadCompare1
 481              		.thumb
 482              		.thumb_func
 483              		.type	PWM_LED_1_ReadCompare1, %function
 484              	PWM_LED_1_ReadCompare1:
 485              	.LFB15:
 794:.\Generated_Source\PSoC5/PWM_LED_1.c **** 
 795:.\Generated_Source\PSoC5/PWM_LED_1.c **** #endif /* (!PWM_LED_1_UsingFixedFunction) */
 796:.\Generated_Source\PSoC5/PWM_LED_1.c **** 
 797:.\Generated_Source\PSoC5/PWM_LED_1.c **** 
 798:.\Generated_Source\PSoC5/PWM_LED_1.c **** #if (PWM_LED_1_UseOneCompareMode)
 799:.\Generated_Source\PSoC5/PWM_LED_1.c **** 
 800:.\Generated_Source\PSoC5/PWM_LED_1.c **** 
 801:.\Generated_Source\PSoC5/PWM_LED_1.c ****     /*******************************************************************************
 802:.\Generated_Source\PSoC5/PWM_LED_1.c ****     * Function Name: PWM_LED_1_ReadCompare
ARM GAS  C:\Users\pxc\AppData\Local\Temp\cc1nJyjl.s 			page 24


 803:.\Generated_Source\PSoC5/PWM_LED_1.c ****     ********************************************************************************
 804:.\Generated_Source\PSoC5/PWM_LED_1.c ****     *
 805:.\Generated_Source\PSoC5/PWM_LED_1.c ****     * Summary:
 806:.\Generated_Source\PSoC5/PWM_LED_1.c ****     *  Reads the compare value for the compare output when the PWM Mode parameter is
 807:.\Generated_Source\PSoC5/PWM_LED_1.c ****     *  set to Dither mode, Center Aligned mode, or One Output mode.
 808:.\Generated_Source\PSoC5/PWM_LED_1.c ****     *
 809:.\Generated_Source\PSoC5/PWM_LED_1.c ****     * Parameters:
 810:.\Generated_Source\PSoC5/PWM_LED_1.c ****     *  None
 811:.\Generated_Source\PSoC5/PWM_LED_1.c ****     *
 812:.\Generated_Source\PSoC5/PWM_LED_1.c ****     * Return:
 813:.\Generated_Source\PSoC5/PWM_LED_1.c ****     *  uint8/uint16: Current compare value
 814:.\Generated_Source\PSoC5/PWM_LED_1.c ****     *
 815:.\Generated_Source\PSoC5/PWM_LED_1.c ****     *******************************************************************************/
 816:.\Generated_Source\PSoC5/PWM_LED_1.c ****     uint16 PWM_LED_1_ReadCompare(void) 
 817:.\Generated_Source\PSoC5/PWM_LED_1.c ****     {
 818:.\Generated_Source\PSoC5/PWM_LED_1.c ****         #if(PWM_LED_1_UsingFixedFunction)
 819:.\Generated_Source\PSoC5/PWM_LED_1.c ****             return ((uint16)CY_GET_REG16(PWM_LED_1_COMPARE1_LSB_PTR));
 820:.\Generated_Source\PSoC5/PWM_LED_1.c ****         #else
 821:.\Generated_Source\PSoC5/PWM_LED_1.c ****             return (CY_GET_REG16(PWM_LED_1_COMPARE1_LSB_PTR));
 822:.\Generated_Source\PSoC5/PWM_LED_1.c ****         #endif /* (PWM_LED_1_UsingFixedFunction) */
 823:.\Generated_Source\PSoC5/PWM_LED_1.c ****     }
 824:.\Generated_Source\PSoC5/PWM_LED_1.c **** 
 825:.\Generated_Source\PSoC5/PWM_LED_1.c **** #else
 826:.\Generated_Source\PSoC5/PWM_LED_1.c **** 
 827:.\Generated_Source\PSoC5/PWM_LED_1.c **** 
 828:.\Generated_Source\PSoC5/PWM_LED_1.c ****     /*******************************************************************************
 829:.\Generated_Source\PSoC5/PWM_LED_1.c ****     * Function Name: PWM_LED_1_ReadCompare1
 830:.\Generated_Source\PSoC5/PWM_LED_1.c ****     ********************************************************************************
 831:.\Generated_Source\PSoC5/PWM_LED_1.c ****     *
 832:.\Generated_Source\PSoC5/PWM_LED_1.c ****     * Summary:
 833:.\Generated_Source\PSoC5/PWM_LED_1.c ****     *  Reads the compare value for the compare1 output.
 834:.\Generated_Source\PSoC5/PWM_LED_1.c ****     *
 835:.\Generated_Source\PSoC5/PWM_LED_1.c ****     * Parameters:
 836:.\Generated_Source\PSoC5/PWM_LED_1.c ****     *  None
 837:.\Generated_Source\PSoC5/PWM_LED_1.c ****     *
 838:.\Generated_Source\PSoC5/PWM_LED_1.c ****     * Return:
 839:.\Generated_Source\PSoC5/PWM_LED_1.c ****     *  uint8/uint16: Current compare value.
 840:.\Generated_Source\PSoC5/PWM_LED_1.c ****     *
 841:.\Generated_Source\PSoC5/PWM_LED_1.c ****     *******************************************************************************/
 842:.\Generated_Source\PSoC5/PWM_LED_1.c ****     uint16 PWM_LED_1_ReadCompare1(void) 
 843:.\Generated_Source\PSoC5/PWM_LED_1.c ****     {
 486              		.loc 1 843 0
 487              		.cfi_startproc
 488              		@ args = 0, pretend = 0, frame = 0
 489              		@ frame_needed = 0, uses_anonymous_args = 0
 490              		@ link register save eliminated.
 844:.\Generated_Source\PSoC5/PWM_LED_1.c ****         return (CY_GET_REG16(PWM_LED_1_COMPARE1_LSB_PTR));
 491              		.loc 1 844 0
 492 0000 014B     		ldr	r3, .L51
 493 0002 1888     		ldrh	r0, [r3]
 845:.\Generated_Source\PSoC5/PWM_LED_1.c ****     }
 494              		.loc 1 845 0
 495 0004 80B2     		uxth	r0, r0
 496 0006 7047     		bx	lr
 497              	.L52:
 498              		.align	2
 499              	.L51:
ARM GAS  C:\Users\pxc\AppData\Local\Temp\cc1nJyjl.s 			page 25


 500 0008 4C680040 		.word	1073768524
 501              		.cfi_endproc
 502              	.LFE15:
 503              		.size	PWM_LED_1_ReadCompare1, .-PWM_LED_1_ReadCompare1
 504              		.section	.text.PWM_LED_1_ReadCompare2,"ax",%progbits
 505              		.align	2
 506              		.global	PWM_LED_1_ReadCompare2
 507              		.thumb
 508              		.thumb_func
 509              		.type	PWM_LED_1_ReadCompare2, %function
 510              	PWM_LED_1_ReadCompare2:
 511              	.LFB16:
 846:.\Generated_Source\PSoC5/PWM_LED_1.c **** 
 847:.\Generated_Source\PSoC5/PWM_LED_1.c **** 
 848:.\Generated_Source\PSoC5/PWM_LED_1.c ****     /*******************************************************************************
 849:.\Generated_Source\PSoC5/PWM_LED_1.c ****     * Function Name: PWM_LED_1_ReadCompare2
 850:.\Generated_Source\PSoC5/PWM_LED_1.c ****     ********************************************************************************
 851:.\Generated_Source\PSoC5/PWM_LED_1.c ****     *
 852:.\Generated_Source\PSoC5/PWM_LED_1.c ****     * Summary:
 853:.\Generated_Source\PSoC5/PWM_LED_1.c ****     *  Reads the compare value for the compare2 output.
 854:.\Generated_Source\PSoC5/PWM_LED_1.c ****     *
 855:.\Generated_Source\PSoC5/PWM_LED_1.c ****     * Parameters:
 856:.\Generated_Source\PSoC5/PWM_LED_1.c ****     *  None
 857:.\Generated_Source\PSoC5/PWM_LED_1.c ****     *
 858:.\Generated_Source\PSoC5/PWM_LED_1.c ****     * Return:
 859:.\Generated_Source\PSoC5/PWM_LED_1.c ****     *  uint8/uint16: Current compare value.
 860:.\Generated_Source\PSoC5/PWM_LED_1.c ****     *
 861:.\Generated_Source\PSoC5/PWM_LED_1.c ****     *******************************************************************************/
 862:.\Generated_Source\PSoC5/PWM_LED_1.c ****     uint16 PWM_LED_1_ReadCompare2(void) 
 863:.\Generated_Source\PSoC5/PWM_LED_1.c ****     {
 512              		.loc 1 863 0
 513              		.cfi_startproc
 514              		@ args = 0, pretend = 0, frame = 0
 515              		@ frame_needed = 0, uses_anonymous_args = 0
 516              		@ link register save eliminated.
 864:.\Generated_Source\PSoC5/PWM_LED_1.c ****         return (CY_GET_REG16(PWM_LED_1_COMPARE2_LSB_PTR));
 517              		.loc 1 864 0
 518 0000 014B     		ldr	r3, .L54
 519 0002 1888     		ldrh	r0, [r3]
 865:.\Generated_Source\PSoC5/PWM_LED_1.c ****     }
 520              		.loc 1 865 0
 521 0004 80B2     		uxth	r0, r0
 522 0006 7047     		bx	lr
 523              	.L55:
 524              		.align	2
 525              	.L54:
 526 0008 6C680040 		.word	1073768556
 527              		.cfi_endproc
 528              	.LFE16:
 529              		.size	PWM_LED_1_ReadCompare2, .-PWM_LED_1_ReadCompare2
 530              		.section	.text.PWM_LED_1_ReadPeriod,"ax",%progbits
 531              		.align	2
 532              		.global	PWM_LED_1_ReadPeriod
 533              		.thumb
 534              		.thumb_func
 535              		.type	PWM_LED_1_ReadPeriod, %function
 536              	PWM_LED_1_ReadPeriod:
ARM GAS  C:\Users\pxc\AppData\Local\Temp\cc1nJyjl.s 			page 26


 537              	.LFB17:
 866:.\Generated_Source\PSoC5/PWM_LED_1.c **** 
 867:.\Generated_Source\PSoC5/PWM_LED_1.c **** #endif /* (PWM_LED_1_UseOneCompareMode) */
 868:.\Generated_Source\PSoC5/PWM_LED_1.c **** 
 869:.\Generated_Source\PSoC5/PWM_LED_1.c **** 
 870:.\Generated_Source\PSoC5/PWM_LED_1.c **** /*******************************************************************************
 871:.\Generated_Source\PSoC5/PWM_LED_1.c **** * Function Name: PWM_LED_1_ReadPeriod
 872:.\Generated_Source\PSoC5/PWM_LED_1.c **** ********************************************************************************
 873:.\Generated_Source\PSoC5/PWM_LED_1.c **** *
 874:.\Generated_Source\PSoC5/PWM_LED_1.c **** * Summary:
 875:.\Generated_Source\PSoC5/PWM_LED_1.c **** *  Reads the period value used by the PWM hardware.
 876:.\Generated_Source\PSoC5/PWM_LED_1.c **** *
 877:.\Generated_Source\PSoC5/PWM_LED_1.c **** * Parameters:
 878:.\Generated_Source\PSoC5/PWM_LED_1.c **** *  None
 879:.\Generated_Source\PSoC5/PWM_LED_1.c **** *
 880:.\Generated_Source\PSoC5/PWM_LED_1.c **** * Return:
 881:.\Generated_Source\PSoC5/PWM_LED_1.c **** *  uint8/16: Period value
 882:.\Generated_Source\PSoC5/PWM_LED_1.c **** *
 883:.\Generated_Source\PSoC5/PWM_LED_1.c **** *******************************************************************************/
 884:.\Generated_Source\PSoC5/PWM_LED_1.c **** uint16 PWM_LED_1_ReadPeriod(void) 
 885:.\Generated_Source\PSoC5/PWM_LED_1.c **** {
 538              		.loc 1 885 0
 539              		.cfi_startproc
 540              		@ args = 0, pretend = 0, frame = 0
 541              		@ frame_needed = 0, uses_anonymous_args = 0
 542              		@ link register save eliminated.
 886:.\Generated_Source\PSoC5/PWM_LED_1.c ****     #if(PWM_LED_1_UsingFixedFunction)
 887:.\Generated_Source\PSoC5/PWM_LED_1.c ****         return ((uint16)CY_GET_REG16(PWM_LED_1_PERIOD_LSB_PTR));
 888:.\Generated_Source\PSoC5/PWM_LED_1.c ****     #else
 889:.\Generated_Source\PSoC5/PWM_LED_1.c ****         return (CY_GET_REG16(PWM_LED_1_PERIOD_LSB_PTR));
 543              		.loc 1 889 0
 544 0000 014B     		ldr	r3, .L57
 545 0002 1888     		ldrh	r0, [r3]
 890:.\Generated_Source\PSoC5/PWM_LED_1.c ****     #endif /* (PWM_LED_1_UsingFixedFunction) */
 891:.\Generated_Source\PSoC5/PWM_LED_1.c **** }
 546              		.loc 1 891 0
 547 0004 80B2     		uxth	r0, r0
 548 0006 7047     		bx	lr
 549              	.L58:
 550              		.align	2
 551              	.L57:
 552 0008 8C680040 		.word	1073768588
 553              		.cfi_endproc
 554              	.LFE17:
 555              		.size	PWM_LED_1_ReadPeriod, .-PWM_LED_1_ReadPeriod
 556              		.global	PWM_LED_1_initVar
 557              		.bss
 558              		.set	.LANCHOR0,. + 0
 559              		.type	PWM_LED_1_initVar, %object
 560              		.size	PWM_LED_1_initVar, 1
 561              	PWM_LED_1_initVar:
 562 0000 00       		.space	1
 563              		.text
 564              	.Letext0:
 565              		.file 2 ".\\Generated_Source\\PSoC5\\cytypes.h"
 566              		.file 3 ".\\Generated_Source\\PSoC5\\CyLib.h"