ARM GAS  C:\Users\pxc\AppData\Local\Temp\ccDVE8qh.s 			page 1


   1              		.syntax unified
   2              		.cpu cortex-m3
   3              		.fpu softvfp
   4              		.eabi_attribute 20, 1
   5              		.eabi_attribute 21, 1
   6              		.eabi_attribute 23, 3
   7              		.eabi_attribute 24, 1
   8              		.eabi_attribute 25, 1
   9              		.eabi_attribute 26, 1
  10              		.eabi_attribute 30, 1
  11              		.eabi_attribute 34, 1
  12              		.eabi_attribute 18, 4
  13              		.thumb
  14              		.file	"PWM_MOTOR.c"
  15              		.text
  16              	.Ltext0:
  17              		.cfi_sections	.debug_frame
  18              		.section	.text.PWM_MOTOR_Enable,"ax",%progbits
  19              		.align	2
  20              		.global	PWM_MOTOR_Enable
  21              		.thumb
  22              		.thumb_func
  23              		.type	PWM_MOTOR_Enable, %function
  24              	PWM_MOTOR_Enable:
  25              	.LFB2:
  26              		.file 1 ".\\Generated_Source\\PSoC5\\PWM_MOTOR.c"
   1:.\Generated_Source\PSoC5/PWM_MOTOR.c **** /*******************************************************************************
   2:.\Generated_Source\PSoC5/PWM_MOTOR.c **** * File Name: PWM_MOTOR.c
   3:.\Generated_Source\PSoC5/PWM_MOTOR.c **** * Version 3.30
   4:.\Generated_Source\PSoC5/PWM_MOTOR.c **** *
   5:.\Generated_Source\PSoC5/PWM_MOTOR.c **** * Description:
   6:.\Generated_Source\PSoC5/PWM_MOTOR.c **** *  The PWM User Module consist of an 8 or 16-bit counter with two 8 or 16-bit
   7:.\Generated_Source\PSoC5/PWM_MOTOR.c **** *  comparitors. Each instance of this user module is capable of generating
   8:.\Generated_Source\PSoC5/PWM_MOTOR.c **** *  two PWM outputs with the same period. The pulse width is selectable between
   9:.\Generated_Source\PSoC5/PWM_MOTOR.c **** *  1 and 255/65535. The period is selectable between 2 and 255/65536 clocks.
  10:.\Generated_Source\PSoC5/PWM_MOTOR.c **** *  The compare value output may be configured to be active when the present
  11:.\Generated_Source\PSoC5/PWM_MOTOR.c **** *  counter is less than or less than/equal to the compare value.
  12:.\Generated_Source\PSoC5/PWM_MOTOR.c **** *  A terminal count output is also provided. It generates a pulse one clock
  13:.\Generated_Source\PSoC5/PWM_MOTOR.c **** *  width wide when the counter is equal to zero.
  14:.\Generated_Source\PSoC5/PWM_MOTOR.c **** *
  15:.\Generated_Source\PSoC5/PWM_MOTOR.c **** * Note:
  16:.\Generated_Source\PSoC5/PWM_MOTOR.c **** *
  17:.\Generated_Source\PSoC5/PWM_MOTOR.c **** *******************************************************************************
  18:.\Generated_Source\PSoC5/PWM_MOTOR.c **** * Copyright 2008-2014, Cypress Semiconductor Corporation.  All rights reserved.
  19:.\Generated_Source\PSoC5/PWM_MOTOR.c **** * You may use this file only in accordance with the license, terms, conditions,
  20:.\Generated_Source\PSoC5/PWM_MOTOR.c **** * disclaimers, and limitations in the end user license agreement accompanying
  21:.\Generated_Source\PSoC5/PWM_MOTOR.c **** * the software package with which this file was provided.
  22:.\Generated_Source\PSoC5/PWM_MOTOR.c **** ********************************************************************************/
  23:.\Generated_Source\PSoC5/PWM_MOTOR.c **** 
  24:.\Generated_Source\PSoC5/PWM_MOTOR.c **** #include "PWM_MOTOR.h"
  25:.\Generated_Source\PSoC5/PWM_MOTOR.c **** 
  26:.\Generated_Source\PSoC5/PWM_MOTOR.c **** /* Error message for removed <resource> through optimization */
  27:.\Generated_Source\PSoC5/PWM_MOTOR.c **** #ifdef PWM_MOTOR_PWMUDB_genblk1_ctrlreg__REMOVED
  28:.\Generated_Source\PSoC5/PWM_MOTOR.c ****     #error PWM_v3_30 detected with a constant 0 for the enable or \
  29:.\Generated_Source\PSoC5/PWM_MOTOR.c ****          constant 1 for reset. This will prevent the component from operating.
  30:.\Generated_Source\PSoC5/PWM_MOTOR.c **** #endif /* PWM_MOTOR_PWMUDB_genblk1_ctrlreg__REMOVED */
  31:.\Generated_Source\PSoC5/PWM_MOTOR.c **** 
ARM GAS  C:\Users\pxc\AppData\Local\Temp\ccDVE8qh.s 			page 2


  32:.\Generated_Source\PSoC5/PWM_MOTOR.c **** uint8 PWM_MOTOR_initVar = 0u;
  33:.\Generated_Source\PSoC5/PWM_MOTOR.c **** 
  34:.\Generated_Source\PSoC5/PWM_MOTOR.c **** 
  35:.\Generated_Source\PSoC5/PWM_MOTOR.c **** /*******************************************************************************
  36:.\Generated_Source\PSoC5/PWM_MOTOR.c **** * Function Name: PWM_MOTOR_Start
  37:.\Generated_Source\PSoC5/PWM_MOTOR.c **** ********************************************************************************
  38:.\Generated_Source\PSoC5/PWM_MOTOR.c **** *
  39:.\Generated_Source\PSoC5/PWM_MOTOR.c **** * Summary:
  40:.\Generated_Source\PSoC5/PWM_MOTOR.c **** *  The start function initializes the pwm with the default values, the
  41:.\Generated_Source\PSoC5/PWM_MOTOR.c **** *  enables the counter to begin counting.  It does not enable interrupts,
  42:.\Generated_Source\PSoC5/PWM_MOTOR.c **** *  the EnableInt command should be called if interrupt generation is required.
  43:.\Generated_Source\PSoC5/PWM_MOTOR.c **** *
  44:.\Generated_Source\PSoC5/PWM_MOTOR.c **** * Parameters:
  45:.\Generated_Source\PSoC5/PWM_MOTOR.c **** *  None
  46:.\Generated_Source\PSoC5/PWM_MOTOR.c **** *
  47:.\Generated_Source\PSoC5/PWM_MOTOR.c **** * Return:
  48:.\Generated_Source\PSoC5/PWM_MOTOR.c **** *  None
  49:.\Generated_Source\PSoC5/PWM_MOTOR.c **** *
  50:.\Generated_Source\PSoC5/PWM_MOTOR.c **** * Global variables:
  51:.\Generated_Source\PSoC5/PWM_MOTOR.c **** *  PWM_MOTOR_initVar: Is modified when this function is called for the
  52:.\Generated_Source\PSoC5/PWM_MOTOR.c **** *   first time. Is used to ensure that initialization happens only once.
  53:.\Generated_Source\PSoC5/PWM_MOTOR.c **** *
  54:.\Generated_Source\PSoC5/PWM_MOTOR.c **** *******************************************************************************/
  55:.\Generated_Source\PSoC5/PWM_MOTOR.c **** void PWM_MOTOR_Start(void) 
  56:.\Generated_Source\PSoC5/PWM_MOTOR.c **** {
  57:.\Generated_Source\PSoC5/PWM_MOTOR.c ****     /* If not Initialized then initialize all required hardware and software */
  58:.\Generated_Source\PSoC5/PWM_MOTOR.c ****     if(PWM_MOTOR_initVar == 0u)
  59:.\Generated_Source\PSoC5/PWM_MOTOR.c ****     {
  60:.\Generated_Source\PSoC5/PWM_MOTOR.c ****         PWM_MOTOR_Init();
  61:.\Generated_Source\PSoC5/PWM_MOTOR.c ****         PWM_MOTOR_initVar = 1u;
  62:.\Generated_Source\PSoC5/PWM_MOTOR.c ****     }
  63:.\Generated_Source\PSoC5/PWM_MOTOR.c ****     PWM_MOTOR_Enable();
  64:.\Generated_Source\PSoC5/PWM_MOTOR.c **** 
  65:.\Generated_Source\PSoC5/PWM_MOTOR.c **** }
  66:.\Generated_Source\PSoC5/PWM_MOTOR.c **** 
  67:.\Generated_Source\PSoC5/PWM_MOTOR.c **** 
  68:.\Generated_Source\PSoC5/PWM_MOTOR.c **** /*******************************************************************************
  69:.\Generated_Source\PSoC5/PWM_MOTOR.c **** * Function Name: PWM_MOTOR_Init
  70:.\Generated_Source\PSoC5/PWM_MOTOR.c **** ********************************************************************************
  71:.\Generated_Source\PSoC5/PWM_MOTOR.c **** *
  72:.\Generated_Source\PSoC5/PWM_MOTOR.c **** * Summary:
  73:.\Generated_Source\PSoC5/PWM_MOTOR.c **** *  Initialize component's parameters to the parameters set by user in the
  74:.\Generated_Source\PSoC5/PWM_MOTOR.c **** *  customizer of the component placed onto schematic. Usually called in
  75:.\Generated_Source\PSoC5/PWM_MOTOR.c **** *  PWM_MOTOR_Start().
  76:.\Generated_Source\PSoC5/PWM_MOTOR.c **** *
  77:.\Generated_Source\PSoC5/PWM_MOTOR.c **** * Parameters:
  78:.\Generated_Source\PSoC5/PWM_MOTOR.c **** *  None
  79:.\Generated_Source\PSoC5/PWM_MOTOR.c **** *
  80:.\Generated_Source\PSoC5/PWM_MOTOR.c **** * Return:
  81:.\Generated_Source\PSoC5/PWM_MOTOR.c **** *  None
  82:.\Generated_Source\PSoC5/PWM_MOTOR.c **** *
  83:.\Generated_Source\PSoC5/PWM_MOTOR.c **** *******************************************************************************/
  84:.\Generated_Source\PSoC5/PWM_MOTOR.c **** void PWM_MOTOR_Init(void) 
  85:.\Generated_Source\PSoC5/PWM_MOTOR.c **** {
  86:.\Generated_Source\PSoC5/PWM_MOTOR.c ****     #if (PWM_MOTOR_UsingFixedFunction || PWM_MOTOR_UseControl)
  87:.\Generated_Source\PSoC5/PWM_MOTOR.c ****         uint8 ctrl;
  88:.\Generated_Source\PSoC5/PWM_MOTOR.c ****     #endif /* (PWM_MOTOR_UsingFixedFunction || PWM_MOTOR_UseControl) */
ARM GAS  C:\Users\pxc\AppData\Local\Temp\ccDVE8qh.s 			page 3


  89:.\Generated_Source\PSoC5/PWM_MOTOR.c **** 
  90:.\Generated_Source\PSoC5/PWM_MOTOR.c ****     #if(!PWM_MOTOR_UsingFixedFunction)
  91:.\Generated_Source\PSoC5/PWM_MOTOR.c ****         #if(PWM_MOTOR_UseStatus)
  92:.\Generated_Source\PSoC5/PWM_MOTOR.c ****             /* Interrupt State Backup for Critical Region*/
  93:.\Generated_Source\PSoC5/PWM_MOTOR.c ****             uint8 PWM_MOTOR_interruptState;
  94:.\Generated_Source\PSoC5/PWM_MOTOR.c ****         #endif /* (PWM_MOTOR_UseStatus) */
  95:.\Generated_Source\PSoC5/PWM_MOTOR.c ****     #endif /* (!PWM_MOTOR_UsingFixedFunction) */
  96:.\Generated_Source\PSoC5/PWM_MOTOR.c **** 
  97:.\Generated_Source\PSoC5/PWM_MOTOR.c ****     #if (PWM_MOTOR_UsingFixedFunction)
  98:.\Generated_Source\PSoC5/PWM_MOTOR.c ****         /* You are allowed to write the compare value (FF only) */
  99:.\Generated_Source\PSoC5/PWM_MOTOR.c ****         PWM_MOTOR_CONTROL |= PWM_MOTOR_CFG0_MODE;
 100:.\Generated_Source\PSoC5/PWM_MOTOR.c ****         #if (PWM_MOTOR_DeadBand2_4)
 101:.\Generated_Source\PSoC5/PWM_MOTOR.c ****             PWM_MOTOR_CONTROL |= PWM_MOTOR_CFG0_DB;
 102:.\Generated_Source\PSoC5/PWM_MOTOR.c ****         #endif /* (PWM_MOTOR_DeadBand2_4) */
 103:.\Generated_Source\PSoC5/PWM_MOTOR.c **** 
 104:.\Generated_Source\PSoC5/PWM_MOTOR.c ****         ctrl = PWM_MOTOR_CONTROL3 & ((uint8 )(~PWM_MOTOR_CTRL_CMPMODE1_MASK));
 105:.\Generated_Source\PSoC5/PWM_MOTOR.c ****         PWM_MOTOR_CONTROL3 = ctrl | PWM_MOTOR_DEFAULT_COMPARE1_MODE;
 106:.\Generated_Source\PSoC5/PWM_MOTOR.c **** 
 107:.\Generated_Source\PSoC5/PWM_MOTOR.c ****          /* Clear and Set SYNCTC and SYNCCMP bits of RT1 register */
 108:.\Generated_Source\PSoC5/PWM_MOTOR.c ****         PWM_MOTOR_RT1 &= ((uint8)(~PWM_MOTOR_RT1_MASK));
 109:.\Generated_Source\PSoC5/PWM_MOTOR.c ****         PWM_MOTOR_RT1 |= PWM_MOTOR_SYNC;
 110:.\Generated_Source\PSoC5/PWM_MOTOR.c **** 
 111:.\Generated_Source\PSoC5/PWM_MOTOR.c ****         /*Enable DSI Sync all all inputs of the PWM*/
 112:.\Generated_Source\PSoC5/PWM_MOTOR.c ****         PWM_MOTOR_RT1 &= ((uint8)(~PWM_MOTOR_SYNCDSI_MASK));
 113:.\Generated_Source\PSoC5/PWM_MOTOR.c ****         PWM_MOTOR_RT1 |= PWM_MOTOR_SYNCDSI_EN;
 114:.\Generated_Source\PSoC5/PWM_MOTOR.c **** 
 115:.\Generated_Source\PSoC5/PWM_MOTOR.c ****     #elif (PWM_MOTOR_UseControl)
 116:.\Generated_Source\PSoC5/PWM_MOTOR.c ****         /* Set the default compare mode defined in the parameter */
 117:.\Generated_Source\PSoC5/PWM_MOTOR.c ****         ctrl = PWM_MOTOR_CONTROL & ((uint8)(~PWM_MOTOR_CTRL_CMPMODE2_MASK)) &
 118:.\Generated_Source\PSoC5/PWM_MOTOR.c ****                 ((uint8)(~PWM_MOTOR_CTRL_CMPMODE1_MASK));
 119:.\Generated_Source\PSoC5/PWM_MOTOR.c ****         PWM_MOTOR_CONTROL = ctrl | PWM_MOTOR_DEFAULT_COMPARE2_MODE |
 120:.\Generated_Source\PSoC5/PWM_MOTOR.c ****                                    PWM_MOTOR_DEFAULT_COMPARE1_MODE;
 121:.\Generated_Source\PSoC5/PWM_MOTOR.c ****     #endif /* (PWM_MOTOR_UsingFixedFunction) */
 122:.\Generated_Source\PSoC5/PWM_MOTOR.c **** 
 123:.\Generated_Source\PSoC5/PWM_MOTOR.c ****     #if (!PWM_MOTOR_UsingFixedFunction)
 124:.\Generated_Source\PSoC5/PWM_MOTOR.c ****         #if (PWM_MOTOR_Resolution == 8)
 125:.\Generated_Source\PSoC5/PWM_MOTOR.c ****             /* Set FIFO 0 to 1 byte register for period*/
 126:.\Generated_Source\PSoC5/PWM_MOTOR.c ****             PWM_MOTOR_AUX_CONTROLDP0 |= (PWM_MOTOR_AUX_CTRL_FIFO0_CLR);
 127:.\Generated_Source\PSoC5/PWM_MOTOR.c ****         #else /* (PWM_MOTOR_Resolution == 16)*/
 128:.\Generated_Source\PSoC5/PWM_MOTOR.c ****             /* Set FIFO 0 to 1 byte register for period */
 129:.\Generated_Source\PSoC5/PWM_MOTOR.c ****             PWM_MOTOR_AUX_CONTROLDP0 |= (PWM_MOTOR_AUX_CTRL_FIFO0_CLR);
 130:.\Generated_Source\PSoC5/PWM_MOTOR.c ****             PWM_MOTOR_AUX_CONTROLDP1 |= (PWM_MOTOR_AUX_CTRL_FIFO0_CLR);
 131:.\Generated_Source\PSoC5/PWM_MOTOR.c ****         #endif /* (PWM_MOTOR_Resolution == 8) */
 132:.\Generated_Source\PSoC5/PWM_MOTOR.c **** 
 133:.\Generated_Source\PSoC5/PWM_MOTOR.c ****         PWM_MOTOR_WriteCounter(PWM_MOTOR_INIT_PERIOD_VALUE);
 134:.\Generated_Source\PSoC5/PWM_MOTOR.c ****     #endif /* (!PWM_MOTOR_UsingFixedFunction) */
 135:.\Generated_Source\PSoC5/PWM_MOTOR.c **** 
 136:.\Generated_Source\PSoC5/PWM_MOTOR.c ****     PWM_MOTOR_WritePeriod(PWM_MOTOR_INIT_PERIOD_VALUE);
 137:.\Generated_Source\PSoC5/PWM_MOTOR.c **** 
 138:.\Generated_Source\PSoC5/PWM_MOTOR.c ****         #if (PWM_MOTOR_UseOneCompareMode)
 139:.\Generated_Source\PSoC5/PWM_MOTOR.c ****             PWM_MOTOR_WriteCompare(PWM_MOTOR_INIT_COMPARE_VALUE1);
 140:.\Generated_Source\PSoC5/PWM_MOTOR.c ****         #else
 141:.\Generated_Source\PSoC5/PWM_MOTOR.c ****             PWM_MOTOR_WriteCompare1(PWM_MOTOR_INIT_COMPARE_VALUE1);
 142:.\Generated_Source\PSoC5/PWM_MOTOR.c ****             PWM_MOTOR_WriteCompare2(PWM_MOTOR_INIT_COMPARE_VALUE2);
 143:.\Generated_Source\PSoC5/PWM_MOTOR.c ****         #endif /* (PWM_MOTOR_UseOneCompareMode) */
 144:.\Generated_Source\PSoC5/PWM_MOTOR.c **** 
 145:.\Generated_Source\PSoC5/PWM_MOTOR.c ****         #if (PWM_MOTOR_KillModeMinTime)
ARM GAS  C:\Users\pxc\AppData\Local\Temp\ccDVE8qh.s 			page 4


 146:.\Generated_Source\PSoC5/PWM_MOTOR.c ****             PWM_MOTOR_WriteKillTime(PWM_MOTOR_MinimumKillTime);
 147:.\Generated_Source\PSoC5/PWM_MOTOR.c ****         #endif /* (PWM_MOTOR_KillModeMinTime) */
 148:.\Generated_Source\PSoC5/PWM_MOTOR.c **** 
 149:.\Generated_Source\PSoC5/PWM_MOTOR.c ****         #if (PWM_MOTOR_DeadBandUsed)
 150:.\Generated_Source\PSoC5/PWM_MOTOR.c ****             PWM_MOTOR_WriteDeadTime(PWM_MOTOR_INIT_DEAD_TIME);
 151:.\Generated_Source\PSoC5/PWM_MOTOR.c ****         #endif /* (PWM_MOTOR_DeadBandUsed) */
 152:.\Generated_Source\PSoC5/PWM_MOTOR.c **** 
 153:.\Generated_Source\PSoC5/PWM_MOTOR.c ****     #if (PWM_MOTOR_UseStatus || PWM_MOTOR_UsingFixedFunction)
 154:.\Generated_Source\PSoC5/PWM_MOTOR.c ****         PWM_MOTOR_SetInterruptMode(PWM_MOTOR_INIT_INTERRUPTS_MODE);
 155:.\Generated_Source\PSoC5/PWM_MOTOR.c ****     #endif /* (PWM_MOTOR_UseStatus || PWM_MOTOR_UsingFixedFunction) */
 156:.\Generated_Source\PSoC5/PWM_MOTOR.c **** 
 157:.\Generated_Source\PSoC5/PWM_MOTOR.c ****     #if (PWM_MOTOR_UsingFixedFunction)
 158:.\Generated_Source\PSoC5/PWM_MOTOR.c ****         /* Globally Enable the Fixed Function Block chosen */
 159:.\Generated_Source\PSoC5/PWM_MOTOR.c ****         PWM_MOTOR_GLOBAL_ENABLE |= PWM_MOTOR_BLOCK_EN_MASK;
 160:.\Generated_Source\PSoC5/PWM_MOTOR.c ****         /* Set the Interrupt source to come from the status register */
 161:.\Generated_Source\PSoC5/PWM_MOTOR.c ****         PWM_MOTOR_CONTROL2 |= PWM_MOTOR_CTRL2_IRQ_SEL;
 162:.\Generated_Source\PSoC5/PWM_MOTOR.c ****     #else
 163:.\Generated_Source\PSoC5/PWM_MOTOR.c ****         #if(PWM_MOTOR_UseStatus)
 164:.\Generated_Source\PSoC5/PWM_MOTOR.c **** 
 165:.\Generated_Source\PSoC5/PWM_MOTOR.c ****             /* CyEnterCriticalRegion and CyExitCriticalRegion are used to mark following region cri
 166:.\Generated_Source\PSoC5/PWM_MOTOR.c ****             /* Enter Critical Region*/
 167:.\Generated_Source\PSoC5/PWM_MOTOR.c ****             PWM_MOTOR_interruptState = CyEnterCriticalSection();
 168:.\Generated_Source\PSoC5/PWM_MOTOR.c ****             /* Use the interrupt output of the status register for IRQ output */
 169:.\Generated_Source\PSoC5/PWM_MOTOR.c ****             PWM_MOTOR_STATUS_AUX_CTRL |= PWM_MOTOR_STATUS_ACTL_INT_EN_MASK;
 170:.\Generated_Source\PSoC5/PWM_MOTOR.c **** 
 171:.\Generated_Source\PSoC5/PWM_MOTOR.c ****              /* Exit Critical Region*/
 172:.\Generated_Source\PSoC5/PWM_MOTOR.c ****             CyExitCriticalSection(PWM_MOTOR_interruptState);
 173:.\Generated_Source\PSoC5/PWM_MOTOR.c **** 
 174:.\Generated_Source\PSoC5/PWM_MOTOR.c ****             /* Clear the FIFO to enable the PWM_MOTOR_STATUS_FIFOFULL
 175:.\Generated_Source\PSoC5/PWM_MOTOR.c ****                    bit to be set on FIFO full. */
 176:.\Generated_Source\PSoC5/PWM_MOTOR.c ****             PWM_MOTOR_ClearFIFO();
 177:.\Generated_Source\PSoC5/PWM_MOTOR.c ****         #endif /* (PWM_MOTOR_UseStatus) */
 178:.\Generated_Source\PSoC5/PWM_MOTOR.c ****     #endif /* (PWM_MOTOR_UsingFixedFunction) */
 179:.\Generated_Source\PSoC5/PWM_MOTOR.c **** }
 180:.\Generated_Source\PSoC5/PWM_MOTOR.c **** 
 181:.\Generated_Source\PSoC5/PWM_MOTOR.c **** 
 182:.\Generated_Source\PSoC5/PWM_MOTOR.c **** /*******************************************************************************
 183:.\Generated_Source\PSoC5/PWM_MOTOR.c **** * Function Name: PWM_MOTOR_Enable
 184:.\Generated_Source\PSoC5/PWM_MOTOR.c **** ********************************************************************************
 185:.\Generated_Source\PSoC5/PWM_MOTOR.c **** *
 186:.\Generated_Source\PSoC5/PWM_MOTOR.c **** * Summary:
 187:.\Generated_Source\PSoC5/PWM_MOTOR.c **** *  Enables the PWM block operation
 188:.\Generated_Source\PSoC5/PWM_MOTOR.c **** *
 189:.\Generated_Source\PSoC5/PWM_MOTOR.c **** * Parameters:
 190:.\Generated_Source\PSoC5/PWM_MOTOR.c **** *  None
 191:.\Generated_Source\PSoC5/PWM_MOTOR.c **** *
 192:.\Generated_Source\PSoC5/PWM_MOTOR.c **** * Return:
 193:.\Generated_Source\PSoC5/PWM_MOTOR.c **** *  None
 194:.\Generated_Source\PSoC5/PWM_MOTOR.c **** *
 195:.\Generated_Source\PSoC5/PWM_MOTOR.c **** * Side Effects:
 196:.\Generated_Source\PSoC5/PWM_MOTOR.c **** *  This works only if software enable mode is chosen
 197:.\Generated_Source\PSoC5/PWM_MOTOR.c **** *
 198:.\Generated_Source\PSoC5/PWM_MOTOR.c **** *******************************************************************************/
 199:.\Generated_Source\PSoC5/PWM_MOTOR.c **** void PWM_MOTOR_Enable(void) 
 200:.\Generated_Source\PSoC5/PWM_MOTOR.c **** {
  27              		.loc 1 200 0
  28              		.cfi_startproc
ARM GAS  C:\Users\pxc\AppData\Local\Temp\ccDVE8qh.s 			page 5


  29              		@ args = 0, pretend = 0, frame = 0
  30              		@ frame_needed = 0, uses_anonymous_args = 0
  31              		@ link register save eliminated.
 201:.\Generated_Source\PSoC5/PWM_MOTOR.c ****     /* Globally Enable the Fixed Function Block chosen */
 202:.\Generated_Source\PSoC5/PWM_MOTOR.c ****     #if (PWM_MOTOR_UsingFixedFunction)
 203:.\Generated_Source\PSoC5/PWM_MOTOR.c ****         PWM_MOTOR_GLOBAL_ENABLE |= PWM_MOTOR_BLOCK_EN_MASK;
 204:.\Generated_Source\PSoC5/PWM_MOTOR.c ****         PWM_MOTOR_GLOBAL_STBY_ENABLE |= PWM_MOTOR_BLOCK_STBY_EN_MASK;
 205:.\Generated_Source\PSoC5/PWM_MOTOR.c ****     #endif /* (PWM_MOTOR_UsingFixedFunction) */
 206:.\Generated_Source\PSoC5/PWM_MOTOR.c **** 
 207:.\Generated_Source\PSoC5/PWM_MOTOR.c ****     /* Enable the PWM from the control register  */
 208:.\Generated_Source\PSoC5/PWM_MOTOR.c ****     #if (PWM_MOTOR_UseControl || PWM_MOTOR_UsingFixedFunction)
 209:.\Generated_Source\PSoC5/PWM_MOTOR.c ****         PWM_MOTOR_CONTROL |= PWM_MOTOR_CTRL_ENABLE;
  32              		.loc 1 209 0
  33 0000 024A     		ldr	r2, .L2
  34 0002 1378     		ldrb	r3, [r2]	@ zero_extendqisi2
  35 0004 43F08003 		orr	r3, r3, #128
  36 0008 1370     		strb	r3, [r2]
  37 000a 7047     		bx	lr
  38              	.L3:
  39              		.align	2
  40              	.L2:
  41 000c 79650040 		.word	1073767801
  42              		.cfi_endproc
  43              	.LFE2:
  44              		.size	PWM_MOTOR_Enable, .-PWM_MOTOR_Enable
  45              		.section	.text.PWM_MOTOR_Stop,"ax",%progbits
  46              		.align	2
  47              		.global	PWM_MOTOR_Stop
  48              		.thumb
  49              		.thumb_func
  50              		.type	PWM_MOTOR_Stop, %function
  51              	PWM_MOTOR_Stop:
  52              	.LFB3:
 210:.\Generated_Source\PSoC5/PWM_MOTOR.c ****     #endif /* (PWM_MOTOR_UseControl || PWM_MOTOR_UsingFixedFunction) */
 211:.\Generated_Source\PSoC5/PWM_MOTOR.c **** }
 212:.\Generated_Source\PSoC5/PWM_MOTOR.c **** 
 213:.\Generated_Source\PSoC5/PWM_MOTOR.c **** 
 214:.\Generated_Source\PSoC5/PWM_MOTOR.c **** /*******************************************************************************
 215:.\Generated_Source\PSoC5/PWM_MOTOR.c **** * Function Name: PWM_MOTOR_Stop
 216:.\Generated_Source\PSoC5/PWM_MOTOR.c **** ********************************************************************************
 217:.\Generated_Source\PSoC5/PWM_MOTOR.c **** *
 218:.\Generated_Source\PSoC5/PWM_MOTOR.c **** * Summary:
 219:.\Generated_Source\PSoC5/PWM_MOTOR.c **** *  The stop function halts the PWM, but does not change any modes or disable
 220:.\Generated_Source\PSoC5/PWM_MOTOR.c **** *  interrupts.
 221:.\Generated_Source\PSoC5/PWM_MOTOR.c **** *
 222:.\Generated_Source\PSoC5/PWM_MOTOR.c **** * Parameters:
 223:.\Generated_Source\PSoC5/PWM_MOTOR.c **** *  None
 224:.\Generated_Source\PSoC5/PWM_MOTOR.c **** *
 225:.\Generated_Source\PSoC5/PWM_MOTOR.c **** * Return:
 226:.\Generated_Source\PSoC5/PWM_MOTOR.c **** *  None
 227:.\Generated_Source\PSoC5/PWM_MOTOR.c **** *
 228:.\Generated_Source\PSoC5/PWM_MOTOR.c **** * Side Effects:
 229:.\Generated_Source\PSoC5/PWM_MOTOR.c **** *  If the Enable mode is set to Hardware only then this function
 230:.\Generated_Source\PSoC5/PWM_MOTOR.c **** *  has no effect on the operation of the PWM
 231:.\Generated_Source\PSoC5/PWM_MOTOR.c **** *
 232:.\Generated_Source\PSoC5/PWM_MOTOR.c **** *******************************************************************************/
 233:.\Generated_Source\PSoC5/PWM_MOTOR.c **** void PWM_MOTOR_Stop(void) 
ARM GAS  C:\Users\pxc\AppData\Local\Temp\ccDVE8qh.s 			page 6


 234:.\Generated_Source\PSoC5/PWM_MOTOR.c **** {
  53              		.loc 1 234 0
  54              		.cfi_startproc
  55              		@ args = 0, pretend = 0, frame = 0
  56              		@ frame_needed = 0, uses_anonymous_args = 0
  57              		@ link register save eliminated.
 235:.\Generated_Source\PSoC5/PWM_MOTOR.c ****     #if (PWM_MOTOR_UseControl || PWM_MOTOR_UsingFixedFunction)
 236:.\Generated_Source\PSoC5/PWM_MOTOR.c ****         PWM_MOTOR_CONTROL &= ((uint8)(~PWM_MOTOR_CTRL_ENABLE));
  58              		.loc 1 236 0
  59 0000 024A     		ldr	r2, .L5
  60 0002 1378     		ldrb	r3, [r2]	@ zero_extendqisi2
  61 0004 03F07F03 		and	r3, r3, #127
  62 0008 1370     		strb	r3, [r2]
  63 000a 7047     		bx	lr
  64              	.L6:
  65              		.align	2
  66              	.L5:
  67 000c 79650040 		.word	1073767801
  68              		.cfi_endproc
  69              	.LFE3:
  70              		.size	PWM_MOTOR_Stop, .-PWM_MOTOR_Stop
  71              		.section	.text.PWM_MOTOR_WriteCounter,"ax",%progbits
  72              		.align	2
  73              		.global	PWM_MOTOR_WriteCounter
  74              		.thumb
  75              		.thumb_func
  76              		.type	PWM_MOTOR_WriteCounter, %function
  77              	PWM_MOTOR_WriteCounter:
  78              	.LFB4:
 237:.\Generated_Source\PSoC5/PWM_MOTOR.c ****     #endif /* (PWM_MOTOR_UseControl || PWM_MOTOR_UsingFixedFunction) */
 238:.\Generated_Source\PSoC5/PWM_MOTOR.c **** 
 239:.\Generated_Source\PSoC5/PWM_MOTOR.c ****     /* Globally disable the Fixed Function Block chosen */
 240:.\Generated_Source\PSoC5/PWM_MOTOR.c ****     #if (PWM_MOTOR_UsingFixedFunction)
 241:.\Generated_Source\PSoC5/PWM_MOTOR.c ****         PWM_MOTOR_GLOBAL_ENABLE &= ((uint8)(~PWM_MOTOR_BLOCK_EN_MASK));
 242:.\Generated_Source\PSoC5/PWM_MOTOR.c ****         PWM_MOTOR_GLOBAL_STBY_ENABLE &= ((uint8)(~PWM_MOTOR_BLOCK_STBY_EN_MASK));
 243:.\Generated_Source\PSoC5/PWM_MOTOR.c ****     #endif /* (PWM_MOTOR_UsingFixedFunction) */
 244:.\Generated_Source\PSoC5/PWM_MOTOR.c **** }
 245:.\Generated_Source\PSoC5/PWM_MOTOR.c **** 
 246:.\Generated_Source\PSoC5/PWM_MOTOR.c **** #if (PWM_MOTOR_UseOneCompareMode)
 247:.\Generated_Source\PSoC5/PWM_MOTOR.c ****     #if (PWM_MOTOR_CompareMode1SW)
 248:.\Generated_Source\PSoC5/PWM_MOTOR.c **** 
 249:.\Generated_Source\PSoC5/PWM_MOTOR.c **** 
 250:.\Generated_Source\PSoC5/PWM_MOTOR.c ****         /*******************************************************************************
 251:.\Generated_Source\PSoC5/PWM_MOTOR.c ****         * Function Name: PWM_MOTOR_SetCompareMode
 252:.\Generated_Source\PSoC5/PWM_MOTOR.c ****         ********************************************************************************
 253:.\Generated_Source\PSoC5/PWM_MOTOR.c ****         *
 254:.\Generated_Source\PSoC5/PWM_MOTOR.c ****         * Summary:
 255:.\Generated_Source\PSoC5/PWM_MOTOR.c ****         *  This function writes the Compare Mode for the pwm output when in Dither mode,
 256:.\Generated_Source\PSoC5/PWM_MOTOR.c ****         *  Center Align Mode or One Output Mode.
 257:.\Generated_Source\PSoC5/PWM_MOTOR.c ****         *
 258:.\Generated_Source\PSoC5/PWM_MOTOR.c ****         * Parameters:
 259:.\Generated_Source\PSoC5/PWM_MOTOR.c ****         *  comparemode:  The new compare mode for the PWM output. Use the compare types
 260:.\Generated_Source\PSoC5/PWM_MOTOR.c ****         *                defined in the H file as input arguments.
 261:.\Generated_Source\PSoC5/PWM_MOTOR.c ****         *
 262:.\Generated_Source\PSoC5/PWM_MOTOR.c ****         * Return:
 263:.\Generated_Source\PSoC5/PWM_MOTOR.c ****         *  None
 264:.\Generated_Source\PSoC5/PWM_MOTOR.c ****         *
ARM GAS  C:\Users\pxc\AppData\Local\Temp\ccDVE8qh.s 			page 7


 265:.\Generated_Source\PSoC5/PWM_MOTOR.c ****         *******************************************************************************/
 266:.\Generated_Source\PSoC5/PWM_MOTOR.c ****         void PWM_MOTOR_SetCompareMode(uint8 comparemode) 
 267:.\Generated_Source\PSoC5/PWM_MOTOR.c ****         {
 268:.\Generated_Source\PSoC5/PWM_MOTOR.c ****             #if(PWM_MOTOR_UsingFixedFunction)
 269:.\Generated_Source\PSoC5/PWM_MOTOR.c **** 
 270:.\Generated_Source\PSoC5/PWM_MOTOR.c ****                 #if(0 != PWM_MOTOR_CTRL_CMPMODE1_SHIFT)
 271:.\Generated_Source\PSoC5/PWM_MOTOR.c ****                     uint8 comparemodemasked = ((uint8)((uint8)comparemode << PWM_MOTOR_CTRL_CMPMODE
 272:.\Generated_Source\PSoC5/PWM_MOTOR.c ****                 #else
 273:.\Generated_Source\PSoC5/PWM_MOTOR.c ****                     uint8 comparemodemasked = comparemode;
 274:.\Generated_Source\PSoC5/PWM_MOTOR.c ****                 #endif /* (0 != PWM_MOTOR_CTRL_CMPMODE1_SHIFT) */
 275:.\Generated_Source\PSoC5/PWM_MOTOR.c **** 
 276:.\Generated_Source\PSoC5/PWM_MOTOR.c ****                 PWM_MOTOR_CONTROL3 &= ((uint8)(~PWM_MOTOR_CTRL_CMPMODE1_MASK)); /*Clear Existing Da
 277:.\Generated_Source\PSoC5/PWM_MOTOR.c ****                 PWM_MOTOR_CONTROL3 |= comparemodemasked;
 278:.\Generated_Source\PSoC5/PWM_MOTOR.c **** 
 279:.\Generated_Source\PSoC5/PWM_MOTOR.c ****             #elif (PWM_MOTOR_UseControl)
 280:.\Generated_Source\PSoC5/PWM_MOTOR.c **** 
 281:.\Generated_Source\PSoC5/PWM_MOTOR.c ****                 #if(0 != PWM_MOTOR_CTRL_CMPMODE1_SHIFT)
 282:.\Generated_Source\PSoC5/PWM_MOTOR.c ****                     uint8 comparemode1masked = ((uint8)((uint8)comparemode << PWM_MOTOR_CTRL_CMPMOD
 283:.\Generated_Source\PSoC5/PWM_MOTOR.c ****                                                 PWM_MOTOR_CTRL_CMPMODE1_MASK;
 284:.\Generated_Source\PSoC5/PWM_MOTOR.c ****                 #else
 285:.\Generated_Source\PSoC5/PWM_MOTOR.c ****                     uint8 comparemode1masked = comparemode & PWM_MOTOR_CTRL_CMPMODE1_MASK;
 286:.\Generated_Source\PSoC5/PWM_MOTOR.c ****                 #endif /* (0 != PWM_MOTOR_CTRL_CMPMODE1_SHIFT) */
 287:.\Generated_Source\PSoC5/PWM_MOTOR.c **** 
 288:.\Generated_Source\PSoC5/PWM_MOTOR.c ****                 #if(0 != PWM_MOTOR_CTRL_CMPMODE2_SHIFT)
 289:.\Generated_Source\PSoC5/PWM_MOTOR.c ****                     uint8 comparemode2masked = ((uint8)((uint8)comparemode << PWM_MOTOR_CTRL_CMPMOD
 290:.\Generated_Source\PSoC5/PWM_MOTOR.c ****                                                PWM_MOTOR_CTRL_CMPMODE2_MASK;
 291:.\Generated_Source\PSoC5/PWM_MOTOR.c ****                 #else
 292:.\Generated_Source\PSoC5/PWM_MOTOR.c ****                     uint8 comparemode2masked = comparemode & PWM_MOTOR_CTRL_CMPMODE2_MASK;
 293:.\Generated_Source\PSoC5/PWM_MOTOR.c ****                 #endif /* (0 != PWM_MOTOR_CTRL_CMPMODE2_SHIFT) */
 294:.\Generated_Source\PSoC5/PWM_MOTOR.c **** 
 295:.\Generated_Source\PSoC5/PWM_MOTOR.c ****                 /*Clear existing mode */
 296:.\Generated_Source\PSoC5/PWM_MOTOR.c ****                 PWM_MOTOR_CONTROL &= ((uint8)(~(PWM_MOTOR_CTRL_CMPMODE1_MASK |
 297:.\Generated_Source\PSoC5/PWM_MOTOR.c ****                                             PWM_MOTOR_CTRL_CMPMODE2_MASK)));
 298:.\Generated_Source\PSoC5/PWM_MOTOR.c ****                 PWM_MOTOR_CONTROL |= (comparemode1masked | comparemode2masked);
 299:.\Generated_Source\PSoC5/PWM_MOTOR.c **** 
 300:.\Generated_Source\PSoC5/PWM_MOTOR.c ****             #else
 301:.\Generated_Source\PSoC5/PWM_MOTOR.c ****                 uint8 temp = comparemode;
 302:.\Generated_Source\PSoC5/PWM_MOTOR.c ****             #endif /* (PWM_MOTOR_UsingFixedFunction) */
 303:.\Generated_Source\PSoC5/PWM_MOTOR.c ****         }
 304:.\Generated_Source\PSoC5/PWM_MOTOR.c ****     #endif /* PWM_MOTOR_CompareMode1SW */
 305:.\Generated_Source\PSoC5/PWM_MOTOR.c **** 
 306:.\Generated_Source\PSoC5/PWM_MOTOR.c **** #else /* UseOneCompareMode */
 307:.\Generated_Source\PSoC5/PWM_MOTOR.c **** 
 308:.\Generated_Source\PSoC5/PWM_MOTOR.c ****     #if (PWM_MOTOR_CompareMode1SW)
 309:.\Generated_Source\PSoC5/PWM_MOTOR.c **** 
 310:.\Generated_Source\PSoC5/PWM_MOTOR.c **** 
 311:.\Generated_Source\PSoC5/PWM_MOTOR.c ****         /*******************************************************************************
 312:.\Generated_Source\PSoC5/PWM_MOTOR.c ****         * Function Name: PWM_MOTOR_SetCompareMode1
 313:.\Generated_Source\PSoC5/PWM_MOTOR.c ****         ********************************************************************************
 314:.\Generated_Source\PSoC5/PWM_MOTOR.c ****         *
 315:.\Generated_Source\PSoC5/PWM_MOTOR.c ****         * Summary:
 316:.\Generated_Source\PSoC5/PWM_MOTOR.c ****         *  This function writes the Compare Mode for the pwm or pwm1 output
 317:.\Generated_Source\PSoC5/PWM_MOTOR.c ****         *
 318:.\Generated_Source\PSoC5/PWM_MOTOR.c ****         * Parameters:
 319:.\Generated_Source\PSoC5/PWM_MOTOR.c ****         *  comparemode:  The new compare mode for the PWM output. Use the compare types
 320:.\Generated_Source\PSoC5/PWM_MOTOR.c ****         *                defined in the H file as input arguments.
 321:.\Generated_Source\PSoC5/PWM_MOTOR.c ****         *
ARM GAS  C:\Users\pxc\AppData\Local\Temp\ccDVE8qh.s 			page 8


 322:.\Generated_Source\PSoC5/PWM_MOTOR.c ****         * Return:
 323:.\Generated_Source\PSoC5/PWM_MOTOR.c ****         *  None
 324:.\Generated_Source\PSoC5/PWM_MOTOR.c ****         *
 325:.\Generated_Source\PSoC5/PWM_MOTOR.c ****         *******************************************************************************/
 326:.\Generated_Source\PSoC5/PWM_MOTOR.c ****         void PWM_MOTOR_SetCompareMode1(uint8 comparemode) 
 327:.\Generated_Source\PSoC5/PWM_MOTOR.c ****         {
 328:.\Generated_Source\PSoC5/PWM_MOTOR.c ****             #if(0 != PWM_MOTOR_CTRL_CMPMODE1_SHIFT)
 329:.\Generated_Source\PSoC5/PWM_MOTOR.c ****                 uint8 comparemodemasked = ((uint8)((uint8)comparemode << PWM_MOTOR_CTRL_CMPMODE1_SH
 330:.\Generated_Source\PSoC5/PWM_MOTOR.c ****                                            PWM_MOTOR_CTRL_CMPMODE1_MASK;
 331:.\Generated_Source\PSoC5/PWM_MOTOR.c ****             #else
 332:.\Generated_Source\PSoC5/PWM_MOTOR.c ****                 uint8 comparemodemasked = comparemode & PWM_MOTOR_CTRL_CMPMODE1_MASK;
 333:.\Generated_Source\PSoC5/PWM_MOTOR.c ****             #endif /* (0 != PWM_MOTOR_CTRL_CMPMODE1_SHIFT) */
 334:.\Generated_Source\PSoC5/PWM_MOTOR.c **** 
 335:.\Generated_Source\PSoC5/PWM_MOTOR.c ****             #if (PWM_MOTOR_UseControl)
 336:.\Generated_Source\PSoC5/PWM_MOTOR.c ****                 PWM_MOTOR_CONTROL &= ((uint8)(~PWM_MOTOR_CTRL_CMPMODE1_MASK)); /*Clear existing mod
 337:.\Generated_Source\PSoC5/PWM_MOTOR.c ****                 PWM_MOTOR_CONTROL |= comparemodemasked;
 338:.\Generated_Source\PSoC5/PWM_MOTOR.c ****             #endif /* (PWM_MOTOR_UseControl) */
 339:.\Generated_Source\PSoC5/PWM_MOTOR.c ****         }
 340:.\Generated_Source\PSoC5/PWM_MOTOR.c ****     #endif /* PWM_MOTOR_CompareMode1SW */
 341:.\Generated_Source\PSoC5/PWM_MOTOR.c **** 
 342:.\Generated_Source\PSoC5/PWM_MOTOR.c **** #if (PWM_MOTOR_CompareMode2SW)
 343:.\Generated_Source\PSoC5/PWM_MOTOR.c **** 
 344:.\Generated_Source\PSoC5/PWM_MOTOR.c **** 
 345:.\Generated_Source\PSoC5/PWM_MOTOR.c ****     /*******************************************************************************
 346:.\Generated_Source\PSoC5/PWM_MOTOR.c ****     * Function Name: PWM_MOTOR_SetCompareMode2
 347:.\Generated_Source\PSoC5/PWM_MOTOR.c ****     ********************************************************************************
 348:.\Generated_Source\PSoC5/PWM_MOTOR.c ****     *
 349:.\Generated_Source\PSoC5/PWM_MOTOR.c ****     * Summary:
 350:.\Generated_Source\PSoC5/PWM_MOTOR.c ****     *  This function writes the Compare Mode for the pwm or pwm2 output
 351:.\Generated_Source\PSoC5/PWM_MOTOR.c ****     *
 352:.\Generated_Source\PSoC5/PWM_MOTOR.c ****     * Parameters:
 353:.\Generated_Source\PSoC5/PWM_MOTOR.c ****     *  comparemode:  The new compare mode for the PWM output. Use the compare types
 354:.\Generated_Source\PSoC5/PWM_MOTOR.c ****     *                defined in the H file as input arguments.
 355:.\Generated_Source\PSoC5/PWM_MOTOR.c ****     *
 356:.\Generated_Source\PSoC5/PWM_MOTOR.c ****     * Return:
 357:.\Generated_Source\PSoC5/PWM_MOTOR.c ****     *  None
 358:.\Generated_Source\PSoC5/PWM_MOTOR.c ****     *
 359:.\Generated_Source\PSoC5/PWM_MOTOR.c ****     *******************************************************************************/
 360:.\Generated_Source\PSoC5/PWM_MOTOR.c ****     void PWM_MOTOR_SetCompareMode2(uint8 comparemode) 
 361:.\Generated_Source\PSoC5/PWM_MOTOR.c ****     {
 362:.\Generated_Source\PSoC5/PWM_MOTOR.c **** 
 363:.\Generated_Source\PSoC5/PWM_MOTOR.c ****         #if(0 != PWM_MOTOR_CTRL_CMPMODE2_SHIFT)
 364:.\Generated_Source\PSoC5/PWM_MOTOR.c ****             uint8 comparemodemasked = ((uint8)((uint8)comparemode << PWM_MOTOR_CTRL_CMPMODE2_SHIFT)
 365:.\Generated_Source\PSoC5/PWM_MOTOR.c ****                                                  PWM_MOTOR_CTRL_CMPMODE2_MASK;
 366:.\Generated_Source\PSoC5/PWM_MOTOR.c ****         #else
 367:.\Generated_Source\PSoC5/PWM_MOTOR.c ****             uint8 comparemodemasked = comparemode & PWM_MOTOR_CTRL_CMPMODE2_MASK;
 368:.\Generated_Source\PSoC5/PWM_MOTOR.c ****         #endif /* (0 != PWM_MOTOR_CTRL_CMPMODE2_SHIFT) */
 369:.\Generated_Source\PSoC5/PWM_MOTOR.c **** 
 370:.\Generated_Source\PSoC5/PWM_MOTOR.c ****         #if (PWM_MOTOR_UseControl)
 371:.\Generated_Source\PSoC5/PWM_MOTOR.c ****             PWM_MOTOR_CONTROL &= ((uint8)(~PWM_MOTOR_CTRL_CMPMODE2_MASK)); /*Clear existing mode */
 372:.\Generated_Source\PSoC5/PWM_MOTOR.c ****             PWM_MOTOR_CONTROL |= comparemodemasked;
 373:.\Generated_Source\PSoC5/PWM_MOTOR.c ****         #endif /* (PWM_MOTOR_UseControl) */
 374:.\Generated_Source\PSoC5/PWM_MOTOR.c ****     }
 375:.\Generated_Source\PSoC5/PWM_MOTOR.c ****     #endif /*PWM_MOTOR_CompareMode2SW */
 376:.\Generated_Source\PSoC5/PWM_MOTOR.c **** 
 377:.\Generated_Source\PSoC5/PWM_MOTOR.c **** #endif /* UseOneCompareMode */
 378:.\Generated_Source\PSoC5/PWM_MOTOR.c **** 
ARM GAS  C:\Users\pxc\AppData\Local\Temp\ccDVE8qh.s 			page 9


 379:.\Generated_Source\PSoC5/PWM_MOTOR.c **** 
 380:.\Generated_Source\PSoC5/PWM_MOTOR.c **** #if (!PWM_MOTOR_UsingFixedFunction)
 381:.\Generated_Source\PSoC5/PWM_MOTOR.c **** 
 382:.\Generated_Source\PSoC5/PWM_MOTOR.c **** 
 383:.\Generated_Source\PSoC5/PWM_MOTOR.c ****     /*******************************************************************************
 384:.\Generated_Source\PSoC5/PWM_MOTOR.c ****     * Function Name: PWM_MOTOR_WriteCounter
 385:.\Generated_Source\PSoC5/PWM_MOTOR.c ****     ********************************************************************************
 386:.\Generated_Source\PSoC5/PWM_MOTOR.c ****     *
 387:.\Generated_Source\PSoC5/PWM_MOTOR.c ****     * Summary:
 388:.\Generated_Source\PSoC5/PWM_MOTOR.c ****     *  Writes a new counter value directly to the counter register. This will be
 389:.\Generated_Source\PSoC5/PWM_MOTOR.c ****     *  implemented for that currently running period and only that period. This API
 390:.\Generated_Source\PSoC5/PWM_MOTOR.c ****     *  is valid only for UDB implementation and not available for fixed function
 391:.\Generated_Source\PSoC5/PWM_MOTOR.c ****     *  PWM implementation.
 392:.\Generated_Source\PSoC5/PWM_MOTOR.c ****     *
 393:.\Generated_Source\PSoC5/PWM_MOTOR.c ****     * Parameters:
 394:.\Generated_Source\PSoC5/PWM_MOTOR.c ****     *  counter:  The period new period counter value.
 395:.\Generated_Source\PSoC5/PWM_MOTOR.c ****     *
 396:.\Generated_Source\PSoC5/PWM_MOTOR.c ****     * Return:
 397:.\Generated_Source\PSoC5/PWM_MOTOR.c ****     *  None
 398:.\Generated_Source\PSoC5/PWM_MOTOR.c ****     *
 399:.\Generated_Source\PSoC5/PWM_MOTOR.c ****     * Side Effects:
 400:.\Generated_Source\PSoC5/PWM_MOTOR.c ****     *  The PWM Period will be reloaded when a counter value will be a zero
 401:.\Generated_Source\PSoC5/PWM_MOTOR.c ****     *
 402:.\Generated_Source\PSoC5/PWM_MOTOR.c ****     *******************************************************************************/
 403:.\Generated_Source\PSoC5/PWM_MOTOR.c ****     void PWM_MOTOR_WriteCounter(uint16 counter) \
 404:.\Generated_Source\PSoC5/PWM_MOTOR.c ****                                        
 405:.\Generated_Source\PSoC5/PWM_MOTOR.c ****     {
  79              		.loc 1 405 0
  80              		.cfi_startproc
  81              		@ args = 0, pretend = 0, frame = 0
  82              		@ frame_needed = 0, uses_anonymous_args = 0
  83              		@ link register save eliminated.
  84              	.LVL0:
 406:.\Generated_Source\PSoC5/PWM_MOTOR.c ****         CY_SET_REG16(PWM_MOTOR_COUNTER_LSB_PTR, counter);
  85              		.loc 1 406 0
  86 0000 014B     		ldr	r3, .L8
  87 0002 1880     		strh	r0, [r3]	@ movhi
  88 0004 7047     		bx	lr
  89              	.L9:
  90 0006 00BF     		.align	2
  91              	.L8:
  92 0008 18680040 		.word	1073768472
  93              		.cfi_endproc
  94              	.LFE4:
  95              		.size	PWM_MOTOR_WriteCounter, .-PWM_MOTOR_WriteCounter
  96              		.section	.text.PWM_MOTOR_ReadCounter,"ax",%progbits
  97              		.align	2
  98              		.global	PWM_MOTOR_ReadCounter
  99              		.thumb
 100              		.thumb_func
 101              		.type	PWM_MOTOR_ReadCounter, %function
 102              	PWM_MOTOR_ReadCounter:
 103              	.LFB5:
 407:.\Generated_Source\PSoC5/PWM_MOTOR.c ****     }
 408:.\Generated_Source\PSoC5/PWM_MOTOR.c **** 
 409:.\Generated_Source\PSoC5/PWM_MOTOR.c **** 
 410:.\Generated_Source\PSoC5/PWM_MOTOR.c ****     /*******************************************************************************
ARM GAS  C:\Users\pxc\AppData\Local\Temp\ccDVE8qh.s 			page 10


 411:.\Generated_Source\PSoC5/PWM_MOTOR.c ****     * Function Name: PWM_MOTOR_ReadCounter
 412:.\Generated_Source\PSoC5/PWM_MOTOR.c ****     ********************************************************************************
 413:.\Generated_Source\PSoC5/PWM_MOTOR.c ****     *
 414:.\Generated_Source\PSoC5/PWM_MOTOR.c ****     * Summary:
 415:.\Generated_Source\PSoC5/PWM_MOTOR.c ****     *  This function returns the current value of the counter.  It doesn't matter
 416:.\Generated_Source\PSoC5/PWM_MOTOR.c ****     *  if the counter is enabled or running.
 417:.\Generated_Source\PSoC5/PWM_MOTOR.c ****     *
 418:.\Generated_Source\PSoC5/PWM_MOTOR.c ****     * Parameters:
 419:.\Generated_Source\PSoC5/PWM_MOTOR.c ****     *  None
 420:.\Generated_Source\PSoC5/PWM_MOTOR.c ****     *
 421:.\Generated_Source\PSoC5/PWM_MOTOR.c ****     * Return:
 422:.\Generated_Source\PSoC5/PWM_MOTOR.c ****     *  The current value of the counter.
 423:.\Generated_Source\PSoC5/PWM_MOTOR.c ****     *
 424:.\Generated_Source\PSoC5/PWM_MOTOR.c ****     *******************************************************************************/
 425:.\Generated_Source\PSoC5/PWM_MOTOR.c ****     uint16 PWM_MOTOR_ReadCounter(void) 
 426:.\Generated_Source\PSoC5/PWM_MOTOR.c ****     {
 104              		.loc 1 426 0
 105              		.cfi_startproc
 106              		@ args = 0, pretend = 0, frame = 0
 107              		@ frame_needed = 0, uses_anonymous_args = 0
 108              		@ link register save eliminated.
 427:.\Generated_Source\PSoC5/PWM_MOTOR.c ****         /* Force capture by reading Accumulator */
 428:.\Generated_Source\PSoC5/PWM_MOTOR.c ****         /* Must first do a software capture to be able to read the counter */
 429:.\Generated_Source\PSoC5/PWM_MOTOR.c ****         /* It is up to the user code to make sure there isn't already captured data in the FIFO */
 430:.\Generated_Source\PSoC5/PWM_MOTOR.c ****           (void)CY_GET_REG8(PWM_MOTOR_COUNTERCAP_LSB_PTR_8BIT);
 109              		.loc 1 430 0
 110 0000 024B     		ldr	r3, .L11
 111 0002 1B78     		ldrb	r3, [r3]	@ zero_extendqisi2
 431:.\Generated_Source\PSoC5/PWM_MOTOR.c **** 
 432:.\Generated_Source\PSoC5/PWM_MOTOR.c ****         /* Read the data from the FIFO */
 433:.\Generated_Source\PSoC5/PWM_MOTOR.c ****         return (CY_GET_REG16(PWM_MOTOR_CAPTURE_LSB_PTR));
 112              		.loc 1 433 0
 113 0004 024B     		ldr	r3, .L11+4
 114 0006 1888     		ldrh	r0, [r3]
 434:.\Generated_Source\PSoC5/PWM_MOTOR.c ****     }
 115              		.loc 1 434 0
 116 0008 80B2     		uxth	r0, r0
 117 000a 7047     		bx	lr
 118              	.L12:
 119              		.align	2
 120              	.L11:
 121 000c 1C640040 		.word	1073767452
 122 0010 B8680040 		.word	1073768632
 123              		.cfi_endproc
 124              	.LFE5:
 125              		.size	PWM_MOTOR_ReadCounter, .-PWM_MOTOR_ReadCounter
 126              		.section	.text.PWM_MOTOR_WritePeriod,"ax",%progbits
 127              		.align	2
 128              		.global	PWM_MOTOR_WritePeriod
 129              		.thumb
 130              		.thumb_func
 131              		.type	PWM_MOTOR_WritePeriod, %function
 132              	PWM_MOTOR_WritePeriod:
 133              	.LFB6:
 435:.\Generated_Source\PSoC5/PWM_MOTOR.c **** 
 436:.\Generated_Source\PSoC5/PWM_MOTOR.c ****     #if (PWM_MOTOR_UseStatus)
 437:.\Generated_Source\PSoC5/PWM_MOTOR.c **** 
ARM GAS  C:\Users\pxc\AppData\Local\Temp\ccDVE8qh.s 			page 11


 438:.\Generated_Source\PSoC5/PWM_MOTOR.c **** 
 439:.\Generated_Source\PSoC5/PWM_MOTOR.c ****         /*******************************************************************************
 440:.\Generated_Source\PSoC5/PWM_MOTOR.c ****         * Function Name: PWM_MOTOR_ClearFIFO
 441:.\Generated_Source\PSoC5/PWM_MOTOR.c ****         ********************************************************************************
 442:.\Generated_Source\PSoC5/PWM_MOTOR.c ****         *
 443:.\Generated_Source\PSoC5/PWM_MOTOR.c ****         * Summary:
 444:.\Generated_Source\PSoC5/PWM_MOTOR.c ****         *  This function clears all capture data from the capture FIFO
 445:.\Generated_Source\PSoC5/PWM_MOTOR.c ****         *
 446:.\Generated_Source\PSoC5/PWM_MOTOR.c ****         * Parameters:
 447:.\Generated_Source\PSoC5/PWM_MOTOR.c ****         *  None
 448:.\Generated_Source\PSoC5/PWM_MOTOR.c ****         *
 449:.\Generated_Source\PSoC5/PWM_MOTOR.c ****         * Return:
 450:.\Generated_Source\PSoC5/PWM_MOTOR.c ****         *  None
 451:.\Generated_Source\PSoC5/PWM_MOTOR.c ****         *
 452:.\Generated_Source\PSoC5/PWM_MOTOR.c ****         *******************************************************************************/
 453:.\Generated_Source\PSoC5/PWM_MOTOR.c ****         void PWM_MOTOR_ClearFIFO(void) 
 454:.\Generated_Source\PSoC5/PWM_MOTOR.c ****         {
 455:.\Generated_Source\PSoC5/PWM_MOTOR.c ****             while(0u != (PWM_MOTOR_ReadStatusRegister() & PWM_MOTOR_STATUS_FIFONEMPTY))
 456:.\Generated_Source\PSoC5/PWM_MOTOR.c ****             {
 457:.\Generated_Source\PSoC5/PWM_MOTOR.c ****                 (void)PWM_MOTOR_ReadCapture();
 458:.\Generated_Source\PSoC5/PWM_MOTOR.c ****             }
 459:.\Generated_Source\PSoC5/PWM_MOTOR.c ****         }
 460:.\Generated_Source\PSoC5/PWM_MOTOR.c **** 
 461:.\Generated_Source\PSoC5/PWM_MOTOR.c ****     #endif /* PWM_MOTOR_UseStatus */
 462:.\Generated_Source\PSoC5/PWM_MOTOR.c **** 
 463:.\Generated_Source\PSoC5/PWM_MOTOR.c **** #endif /* !PWM_MOTOR_UsingFixedFunction */
 464:.\Generated_Source\PSoC5/PWM_MOTOR.c **** 
 465:.\Generated_Source\PSoC5/PWM_MOTOR.c **** 
 466:.\Generated_Source\PSoC5/PWM_MOTOR.c **** /*******************************************************************************
 467:.\Generated_Source\PSoC5/PWM_MOTOR.c **** * Function Name: PWM_MOTOR_WritePeriod
 468:.\Generated_Source\PSoC5/PWM_MOTOR.c **** ********************************************************************************
 469:.\Generated_Source\PSoC5/PWM_MOTOR.c **** *
 470:.\Generated_Source\PSoC5/PWM_MOTOR.c **** * Summary:
 471:.\Generated_Source\PSoC5/PWM_MOTOR.c **** *  This function is used to change the period of the counter.  The new period
 472:.\Generated_Source\PSoC5/PWM_MOTOR.c **** *  will be loaded the next time terminal count is detected.
 473:.\Generated_Source\PSoC5/PWM_MOTOR.c **** *
 474:.\Generated_Source\PSoC5/PWM_MOTOR.c **** * Parameters:
 475:.\Generated_Source\PSoC5/PWM_MOTOR.c **** *  period:  Period value. May be between 1 and (2^Resolution)-1.  A value of 0
 476:.\Generated_Source\PSoC5/PWM_MOTOR.c **** *           will result in the counter remaining at zero.
 477:.\Generated_Source\PSoC5/PWM_MOTOR.c **** *
 478:.\Generated_Source\PSoC5/PWM_MOTOR.c **** * Return:
 479:.\Generated_Source\PSoC5/PWM_MOTOR.c **** *  None
 480:.\Generated_Source\PSoC5/PWM_MOTOR.c **** *
 481:.\Generated_Source\PSoC5/PWM_MOTOR.c **** *******************************************************************************/
 482:.\Generated_Source\PSoC5/PWM_MOTOR.c **** void PWM_MOTOR_WritePeriod(uint16 period) 
 483:.\Generated_Source\PSoC5/PWM_MOTOR.c **** {
 134              		.loc 1 483 0
 135              		.cfi_startproc
 136              		@ args = 0, pretend = 0, frame = 0
 137              		@ frame_needed = 0, uses_anonymous_args = 0
 138              		@ link register save eliminated.
 139              	.LVL1:
 484:.\Generated_Source\PSoC5/PWM_MOTOR.c ****     #if(PWM_MOTOR_UsingFixedFunction)
 485:.\Generated_Source\PSoC5/PWM_MOTOR.c ****         CY_SET_REG16(PWM_MOTOR_PERIOD_LSB_PTR, (uint16)period);
 486:.\Generated_Source\PSoC5/PWM_MOTOR.c ****     #else
 487:.\Generated_Source\PSoC5/PWM_MOTOR.c ****         CY_SET_REG16(PWM_MOTOR_PERIOD_LSB_PTR, period);
 140              		.loc 1 487 0
ARM GAS  C:\Users\pxc\AppData\Local\Temp\ccDVE8qh.s 			page 12


 141 0000 014B     		ldr	r3, .L14
 142 0002 1880     		strh	r0, [r3]	@ movhi
 143 0004 7047     		bx	lr
 144              	.L15:
 145 0006 00BF     		.align	2
 146              	.L14:
 147 0008 98680040 		.word	1073768600
 148              		.cfi_endproc
 149              	.LFE6:
 150              		.size	PWM_MOTOR_WritePeriod, .-PWM_MOTOR_WritePeriod
 151              		.section	.text.PWM_MOTOR_WriteCompare1,"ax",%progbits
 152              		.align	2
 153              		.global	PWM_MOTOR_WriteCompare1
 154              		.thumb
 155              		.thumb_func
 156              		.type	PWM_MOTOR_WriteCompare1, %function
 157              	PWM_MOTOR_WriteCompare1:
 158              	.LFB7:
 488:.\Generated_Source\PSoC5/PWM_MOTOR.c ****     #endif /* (PWM_MOTOR_UsingFixedFunction) */
 489:.\Generated_Source\PSoC5/PWM_MOTOR.c **** }
 490:.\Generated_Source\PSoC5/PWM_MOTOR.c **** 
 491:.\Generated_Source\PSoC5/PWM_MOTOR.c **** #if (PWM_MOTOR_UseOneCompareMode)
 492:.\Generated_Source\PSoC5/PWM_MOTOR.c **** 
 493:.\Generated_Source\PSoC5/PWM_MOTOR.c **** 
 494:.\Generated_Source\PSoC5/PWM_MOTOR.c ****     /*******************************************************************************
 495:.\Generated_Source\PSoC5/PWM_MOTOR.c ****     * Function Name: PWM_MOTOR_WriteCompare
 496:.\Generated_Source\PSoC5/PWM_MOTOR.c ****     ********************************************************************************
 497:.\Generated_Source\PSoC5/PWM_MOTOR.c ****     *
 498:.\Generated_Source\PSoC5/PWM_MOTOR.c ****     * Summary:
 499:.\Generated_Source\PSoC5/PWM_MOTOR.c ****     *  This funtion is used to change the compare1 value when the PWM is in Dither
 500:.\Generated_Source\PSoC5/PWM_MOTOR.c ****     *  mode. The compare output will reflect the new value on the next UDB clock.
 501:.\Generated_Source\PSoC5/PWM_MOTOR.c ****     *  The compare output will be driven high when the present counter value is
 502:.\Generated_Source\PSoC5/PWM_MOTOR.c ****     *  compared to the compare value based on the compare mode defined in
 503:.\Generated_Source\PSoC5/PWM_MOTOR.c ****     *  Dither Mode.
 504:.\Generated_Source\PSoC5/PWM_MOTOR.c ****     *
 505:.\Generated_Source\PSoC5/PWM_MOTOR.c ****     * Parameters:
 506:.\Generated_Source\PSoC5/PWM_MOTOR.c ****     *  compare:  New compare value.
 507:.\Generated_Source\PSoC5/PWM_MOTOR.c ****     *
 508:.\Generated_Source\PSoC5/PWM_MOTOR.c ****     * Return:
 509:.\Generated_Source\PSoC5/PWM_MOTOR.c ****     *  None
 510:.\Generated_Source\PSoC5/PWM_MOTOR.c ****     *
 511:.\Generated_Source\PSoC5/PWM_MOTOR.c ****     * Side Effects:
 512:.\Generated_Source\PSoC5/PWM_MOTOR.c ****     *  This function is only available if the PWM mode parameter is set to
 513:.\Generated_Source\PSoC5/PWM_MOTOR.c ****     *  Dither Mode, Center Aligned Mode or One Output Mode
 514:.\Generated_Source\PSoC5/PWM_MOTOR.c ****     *
 515:.\Generated_Source\PSoC5/PWM_MOTOR.c ****     *******************************************************************************/
 516:.\Generated_Source\PSoC5/PWM_MOTOR.c ****     void PWM_MOTOR_WriteCompare(uint16 compare) \
 517:.\Generated_Source\PSoC5/PWM_MOTOR.c ****                                        
 518:.\Generated_Source\PSoC5/PWM_MOTOR.c ****     {
 519:.\Generated_Source\PSoC5/PWM_MOTOR.c ****         #if(PWM_MOTOR_UsingFixedFunction)
 520:.\Generated_Source\PSoC5/PWM_MOTOR.c ****             CY_SET_REG16(PWM_MOTOR_COMPARE1_LSB_PTR, (uint16)compare);
 521:.\Generated_Source\PSoC5/PWM_MOTOR.c ****         #else
 522:.\Generated_Source\PSoC5/PWM_MOTOR.c ****             CY_SET_REG16(PWM_MOTOR_COMPARE1_LSB_PTR, compare);
 523:.\Generated_Source\PSoC5/PWM_MOTOR.c ****         #endif /* (PWM_MOTOR_UsingFixedFunction) */
 524:.\Generated_Source\PSoC5/PWM_MOTOR.c **** 
 525:.\Generated_Source\PSoC5/PWM_MOTOR.c ****         #if (PWM_MOTOR_PWMMode == PWM_MOTOR__B_PWM__DITHER)
 526:.\Generated_Source\PSoC5/PWM_MOTOR.c ****             #if(PWM_MOTOR_UsingFixedFunction)
ARM GAS  C:\Users\pxc\AppData\Local\Temp\ccDVE8qh.s 			page 13


 527:.\Generated_Source\PSoC5/PWM_MOTOR.c ****                 CY_SET_REG16(PWM_MOTOR_COMPARE2_LSB_PTR, (uint16)(compare + 1u));
 528:.\Generated_Source\PSoC5/PWM_MOTOR.c ****             #else
 529:.\Generated_Source\PSoC5/PWM_MOTOR.c ****                 CY_SET_REG16(PWM_MOTOR_COMPARE2_LSB_PTR, (compare + 1u));
 530:.\Generated_Source\PSoC5/PWM_MOTOR.c ****             #endif /* (PWM_MOTOR_UsingFixedFunction) */
 531:.\Generated_Source\PSoC5/PWM_MOTOR.c ****         #endif /* (PWM_MOTOR_PWMMode == PWM_MOTOR__B_PWM__DITHER) */
 532:.\Generated_Source\PSoC5/PWM_MOTOR.c ****     }
 533:.\Generated_Source\PSoC5/PWM_MOTOR.c **** 
 534:.\Generated_Source\PSoC5/PWM_MOTOR.c **** 
 535:.\Generated_Source\PSoC5/PWM_MOTOR.c **** #else
 536:.\Generated_Source\PSoC5/PWM_MOTOR.c **** 
 537:.\Generated_Source\PSoC5/PWM_MOTOR.c **** 
 538:.\Generated_Source\PSoC5/PWM_MOTOR.c ****     /*******************************************************************************
 539:.\Generated_Source\PSoC5/PWM_MOTOR.c ****     * Function Name: PWM_MOTOR_WriteCompare1
 540:.\Generated_Source\PSoC5/PWM_MOTOR.c ****     ********************************************************************************
 541:.\Generated_Source\PSoC5/PWM_MOTOR.c ****     *
 542:.\Generated_Source\PSoC5/PWM_MOTOR.c ****     * Summary:
 543:.\Generated_Source\PSoC5/PWM_MOTOR.c ****     *  This funtion is used to change the compare1 value.  The compare output will
 544:.\Generated_Source\PSoC5/PWM_MOTOR.c ****     *  reflect the new value on the next UDB clock.  The compare output will be
 545:.\Generated_Source\PSoC5/PWM_MOTOR.c ****     *  driven high when the present counter value is less than or less than or
 546:.\Generated_Source\PSoC5/PWM_MOTOR.c ****     *  equal to the compare register, depending on the mode.
 547:.\Generated_Source\PSoC5/PWM_MOTOR.c ****     *
 548:.\Generated_Source\PSoC5/PWM_MOTOR.c ****     * Parameters:
 549:.\Generated_Source\PSoC5/PWM_MOTOR.c ****     *  compare:  New compare value.
 550:.\Generated_Source\PSoC5/PWM_MOTOR.c ****     *
 551:.\Generated_Source\PSoC5/PWM_MOTOR.c ****     * Return:
 552:.\Generated_Source\PSoC5/PWM_MOTOR.c ****     *  None
 553:.\Generated_Source\PSoC5/PWM_MOTOR.c ****     *
 554:.\Generated_Source\PSoC5/PWM_MOTOR.c ****     *******************************************************************************/
 555:.\Generated_Source\PSoC5/PWM_MOTOR.c ****     void PWM_MOTOR_WriteCompare1(uint16 compare) \
 556:.\Generated_Source\PSoC5/PWM_MOTOR.c ****                                         
 557:.\Generated_Source\PSoC5/PWM_MOTOR.c ****     {
 159              		.loc 1 557 0
 160              		.cfi_startproc
 161              		@ args = 0, pretend = 0, frame = 0
 162              		@ frame_needed = 0, uses_anonymous_args = 0
 163              		@ link register save eliminated.
 164              	.LVL2:
 558:.\Generated_Source\PSoC5/PWM_MOTOR.c ****         #if(PWM_MOTOR_UsingFixedFunction)
 559:.\Generated_Source\PSoC5/PWM_MOTOR.c ****             CY_SET_REG16(PWM_MOTOR_COMPARE1_LSB_PTR, (uint16)compare);
 560:.\Generated_Source\PSoC5/PWM_MOTOR.c ****         #else
 561:.\Generated_Source\PSoC5/PWM_MOTOR.c ****             CY_SET_REG16(PWM_MOTOR_COMPARE1_LSB_PTR, compare);
 165              		.loc 1 561 0
 166 0000 014B     		ldr	r3, .L17
 167 0002 1880     		strh	r0, [r3]	@ movhi
 168 0004 7047     		bx	lr
 169              	.L18:
 170 0006 00BF     		.align	2
 171              	.L17:
 172 0008 58680040 		.word	1073768536
 173              		.cfi_endproc
 174              	.LFE7:
 175              		.size	PWM_MOTOR_WriteCompare1, .-PWM_MOTOR_WriteCompare1
 176              		.section	.text.PWM_MOTOR_WriteCompare2,"ax",%progbits
 177              		.align	2
 178              		.global	PWM_MOTOR_WriteCompare2
 179              		.thumb
 180              		.thumb_func
ARM GAS  C:\Users\pxc\AppData\Local\Temp\ccDVE8qh.s 			page 14


 181              		.type	PWM_MOTOR_WriteCompare2, %function
 182              	PWM_MOTOR_WriteCompare2:
 183              	.LFB8:
 562:.\Generated_Source\PSoC5/PWM_MOTOR.c ****         #endif /* (PWM_MOTOR_UsingFixedFunction) */
 563:.\Generated_Source\PSoC5/PWM_MOTOR.c ****     }
 564:.\Generated_Source\PSoC5/PWM_MOTOR.c **** 
 565:.\Generated_Source\PSoC5/PWM_MOTOR.c **** 
 566:.\Generated_Source\PSoC5/PWM_MOTOR.c ****     /*******************************************************************************
 567:.\Generated_Source\PSoC5/PWM_MOTOR.c ****     * Function Name: PWM_MOTOR_WriteCompare2
 568:.\Generated_Source\PSoC5/PWM_MOTOR.c ****     ********************************************************************************
 569:.\Generated_Source\PSoC5/PWM_MOTOR.c ****     *
 570:.\Generated_Source\PSoC5/PWM_MOTOR.c ****     * Summary:
 571:.\Generated_Source\PSoC5/PWM_MOTOR.c ****     *  This funtion is used to change the compare value, for compare1 output.
 572:.\Generated_Source\PSoC5/PWM_MOTOR.c ****     *  The compare output will reflect the new value on the next UDB clock.
 573:.\Generated_Source\PSoC5/PWM_MOTOR.c ****     *  The compare output will be driven high when the present counter value is
 574:.\Generated_Source\PSoC5/PWM_MOTOR.c ****     *  less than or less than or equal to the compare register, depending on the
 575:.\Generated_Source\PSoC5/PWM_MOTOR.c ****     *  mode.
 576:.\Generated_Source\PSoC5/PWM_MOTOR.c ****     *
 577:.\Generated_Source\PSoC5/PWM_MOTOR.c ****     * Parameters:
 578:.\Generated_Source\PSoC5/PWM_MOTOR.c ****     *  compare:  New compare value.
 579:.\Generated_Source\PSoC5/PWM_MOTOR.c ****     *
 580:.\Generated_Source\PSoC5/PWM_MOTOR.c ****     * Return:
 581:.\Generated_Source\PSoC5/PWM_MOTOR.c ****     *  None
 582:.\Generated_Source\PSoC5/PWM_MOTOR.c ****     *
 583:.\Generated_Source\PSoC5/PWM_MOTOR.c ****     *******************************************************************************/
 584:.\Generated_Source\PSoC5/PWM_MOTOR.c ****     void PWM_MOTOR_WriteCompare2(uint16 compare) \
 585:.\Generated_Source\PSoC5/PWM_MOTOR.c ****                                         
 586:.\Generated_Source\PSoC5/PWM_MOTOR.c ****     {
 184              		.loc 1 586 0
 185              		.cfi_startproc
 186              		@ args = 0, pretend = 0, frame = 0
 187              		@ frame_needed = 0, uses_anonymous_args = 0
 188              		@ link register save eliminated.
 189              	.LVL3:
 587:.\Generated_Source\PSoC5/PWM_MOTOR.c ****         #if(PWM_MOTOR_UsingFixedFunction)
 588:.\Generated_Source\PSoC5/PWM_MOTOR.c ****             CY_SET_REG16(PWM_MOTOR_COMPARE2_LSB_PTR, compare);
 589:.\Generated_Source\PSoC5/PWM_MOTOR.c ****         #else
 590:.\Generated_Source\PSoC5/PWM_MOTOR.c ****             CY_SET_REG16(PWM_MOTOR_COMPARE2_LSB_PTR, compare);
 190              		.loc 1 590 0
 191 0000 014B     		ldr	r3, .L20
 192 0002 1880     		strh	r0, [r3]	@ movhi
 193 0004 7047     		bx	lr
 194              	.L21:
 195 0006 00BF     		.align	2
 196              	.L20:
 197 0008 78680040 		.word	1073768568
 198              		.cfi_endproc
 199              	.LFE8:
 200              		.size	PWM_MOTOR_WriteCompare2, .-PWM_MOTOR_WriteCompare2
 201              		.section	.text.PWM_MOTOR_Init,"ax",%progbits
 202              		.align	2
 203              		.global	PWM_MOTOR_Init
 204              		.thumb
 205              		.thumb_func
 206              		.type	PWM_MOTOR_Init, %function
 207              	PWM_MOTOR_Init:
 208              	.LFB1:
ARM GAS  C:\Users\pxc\AppData\Local\Temp\ccDVE8qh.s 			page 15


  85:.\Generated_Source\PSoC5/PWM_MOTOR.c ****     #if (PWM_MOTOR_UsingFixedFunction || PWM_MOTOR_UseControl)
 209              		.loc 1 85 0
 210              		.cfi_startproc
 211              		@ args = 0, pretend = 0, frame = 0
 212              		@ frame_needed = 0, uses_anonymous_args = 0
 213 0000 08B5     		push	{r3, lr}
 214              		.cfi_def_cfa_offset 8
 215              		.cfi_offset 3, -8
 216              		.cfi_offset 14, -4
 117:.\Generated_Source\PSoC5/PWM_MOTOR.c ****                 ((uint8)(~PWM_MOTOR_CTRL_CMPMODE1_MASK));
 217              		.loc 1 117 0
 218 0002 104A     		ldr	r2, .L24
 219 0004 1378     		ldrb	r3, [r2]	@ zero_extendqisi2
 220 0006 03F0C003 		and	r3, r3, #192
 221              	.LVL4:
 119:.\Generated_Source\PSoC5/PWM_MOTOR.c ****                                    PWM_MOTOR_DEFAULT_COMPARE1_MODE;
 222              		.loc 1 119 0
 223 000a 43F00903 		orr	r3, r3, #9
 224              	.LVL5:
 225 000e 1370     		strb	r3, [r2]
 129:.\Generated_Source\PSoC5/PWM_MOTOR.c ****             PWM_MOTOR_AUX_CONTROLDP1 |= (PWM_MOTOR_AUX_CTRL_FIFO0_CLR);
 226              		.loc 1 129 0
 227 0010 DD3A     		subs	r2, r2, #221
 228 0012 1378     		ldrb	r3, [r2]	@ zero_extendqisi2
 229 0014 43F00103 		orr	r3, r3, #1
 230 0018 1370     		strb	r3, [r2]
 130:.\Generated_Source\PSoC5/PWM_MOTOR.c ****         #endif /* (PWM_MOTOR_Resolution == 8) */
 231              		.loc 1 130 0
 232 001a 0132     		adds	r2, r2, #1
 233 001c 1378     		ldrb	r3, [r2]	@ zero_extendqisi2
 234 001e 43F00103 		orr	r3, r3, #1
 235 0022 1370     		strb	r3, [r2]
 133:.\Generated_Source\PSoC5/PWM_MOTOR.c ****     #endif /* (!PWM_MOTOR_UsingFixedFunction) */
 236              		.loc 1 133 0
 237 0024 44F62060 		movw	r0, #20000
 238 0028 FFF7FEFF 		bl	PWM_MOTOR_WriteCounter
 239              	.LVL6:
 136:.\Generated_Source\PSoC5/PWM_MOTOR.c **** 
 240              		.loc 1 136 0
 241 002c 44F62060 		movw	r0, #20000
 242 0030 FFF7FEFF 		bl	PWM_MOTOR_WritePeriod
 243              	.LVL7:
 141:.\Generated_Source\PSoC5/PWM_MOTOR.c ****             PWM_MOTOR_WriteCompare2(PWM_MOTOR_INIT_COMPARE_VALUE2);
 244              		.loc 1 141 0
 245 0034 43F2B060 		movw	r0, #14000
 246 0038 FFF7FEFF 		bl	PWM_MOTOR_WriteCompare1
 247              	.LVL8:
 142:.\Generated_Source\PSoC5/PWM_MOTOR.c ****         #endif /* (PWM_MOTOR_UseOneCompareMode) */
 248              		.loc 1 142 0
 249 003c 3F20     		movs	r0, #63
 250 003e FFF7FEFF 		bl	PWM_MOTOR_WriteCompare2
 251              	.LVL9:
 252 0042 08BD     		pop	{r3, pc}
 253              	.L25:
 254              		.align	2
 255              	.L24:
 256 0044 79650040 		.word	1073767801
ARM GAS  C:\Users\pxc\AppData\Local\Temp\ccDVE8qh.s 			page 16


 257              		.cfi_endproc
 258              	.LFE1:
 259              		.size	PWM_MOTOR_Init, .-PWM_MOTOR_Init
 260              		.section	.text.PWM_MOTOR_Start,"ax",%progbits
 261              		.align	2
 262              		.global	PWM_MOTOR_Start
 263              		.thumb
 264              		.thumb_func
 265              		.type	PWM_MOTOR_Start, %function
 266              	PWM_MOTOR_Start:
 267              	.LFB0:
  56:.\Generated_Source\PSoC5/PWM_MOTOR.c ****     /* If not Initialized then initialize all required hardware and software */
 268              		.loc 1 56 0
 269              		.cfi_startproc
 270              		@ args = 0, pretend = 0, frame = 0
 271              		@ frame_needed = 0, uses_anonymous_args = 0
 272 0000 08B5     		push	{r3, lr}
 273              		.cfi_def_cfa_offset 8
 274              		.cfi_offset 3, -8
 275              		.cfi_offset 14, -4
  58:.\Generated_Source\PSoC5/PWM_MOTOR.c ****     {
 276              		.loc 1 58 0
 277 0002 054B     		ldr	r3, .L29
 278 0004 1B78     		ldrb	r3, [r3]	@ zero_extendqisi2
 279 0006 23B9     		cbnz	r3, .L27
  60:.\Generated_Source\PSoC5/PWM_MOTOR.c ****         PWM_MOTOR_initVar = 1u;
 280              		.loc 1 60 0
 281 0008 FFF7FEFF 		bl	PWM_MOTOR_Init
 282              	.LVL10:
  61:.\Generated_Source\PSoC5/PWM_MOTOR.c ****     }
 283              		.loc 1 61 0
 284 000c 0122     		movs	r2, #1
 285 000e 024B     		ldr	r3, .L29
 286 0010 1A70     		strb	r2, [r3]
 287              	.L27:
  63:.\Generated_Source\PSoC5/PWM_MOTOR.c **** 
 288              		.loc 1 63 0
 289 0012 FFF7FEFF 		bl	PWM_MOTOR_Enable
 290              	.LVL11:
 291 0016 08BD     		pop	{r3, pc}
 292              	.L30:
 293              		.align	2
 294              	.L29:
 295 0018 00000000 		.word	.LANCHOR0
 296              		.cfi_endproc
 297              	.LFE0:
 298              		.size	PWM_MOTOR_Start, .-PWM_MOTOR_Start
 299              		.section	.text.PWM_MOTOR_ReadControlRegister,"ax",%progbits
 300              		.align	2
 301              		.global	PWM_MOTOR_ReadControlRegister
 302              		.thumb
 303              		.thumb_func
 304              		.type	PWM_MOTOR_ReadControlRegister, %function
 305              	PWM_MOTOR_ReadControlRegister:
 306              	.LFB9:
 591:.\Generated_Source\PSoC5/PWM_MOTOR.c ****         #endif /* (PWM_MOTOR_UsingFixedFunction) */
 592:.\Generated_Source\PSoC5/PWM_MOTOR.c ****     }
ARM GAS  C:\Users\pxc\AppData\Local\Temp\ccDVE8qh.s 			page 17


 593:.\Generated_Source\PSoC5/PWM_MOTOR.c **** #endif /* UseOneCompareMode */
 594:.\Generated_Source\PSoC5/PWM_MOTOR.c **** 
 595:.\Generated_Source\PSoC5/PWM_MOTOR.c **** #if (PWM_MOTOR_DeadBandUsed)
 596:.\Generated_Source\PSoC5/PWM_MOTOR.c **** 
 597:.\Generated_Source\PSoC5/PWM_MOTOR.c **** 
 598:.\Generated_Source\PSoC5/PWM_MOTOR.c ****     /*******************************************************************************
 599:.\Generated_Source\PSoC5/PWM_MOTOR.c ****     * Function Name: PWM_MOTOR_WriteDeadTime
 600:.\Generated_Source\PSoC5/PWM_MOTOR.c ****     ********************************************************************************
 601:.\Generated_Source\PSoC5/PWM_MOTOR.c ****     *
 602:.\Generated_Source\PSoC5/PWM_MOTOR.c ****     * Summary:
 603:.\Generated_Source\PSoC5/PWM_MOTOR.c ****     *  This function writes the dead-band counts to the corresponding register
 604:.\Generated_Source\PSoC5/PWM_MOTOR.c ****     *
 605:.\Generated_Source\PSoC5/PWM_MOTOR.c ****     * Parameters:
 606:.\Generated_Source\PSoC5/PWM_MOTOR.c ****     *  deadtime:  Number of counts for dead time
 607:.\Generated_Source\PSoC5/PWM_MOTOR.c ****     *
 608:.\Generated_Source\PSoC5/PWM_MOTOR.c ****     * Return:
 609:.\Generated_Source\PSoC5/PWM_MOTOR.c ****     *  None
 610:.\Generated_Source\PSoC5/PWM_MOTOR.c ****     *
 611:.\Generated_Source\PSoC5/PWM_MOTOR.c ****     *******************************************************************************/
 612:.\Generated_Source\PSoC5/PWM_MOTOR.c ****     void PWM_MOTOR_WriteDeadTime(uint8 deadtime) 
 613:.\Generated_Source\PSoC5/PWM_MOTOR.c ****     {
 614:.\Generated_Source\PSoC5/PWM_MOTOR.c ****         /* If using the Dead Band 1-255 mode then just write the register */
 615:.\Generated_Source\PSoC5/PWM_MOTOR.c ****         #if(!PWM_MOTOR_DeadBand2_4)
 616:.\Generated_Source\PSoC5/PWM_MOTOR.c ****             CY_SET_REG8(PWM_MOTOR_DEADBAND_COUNT_PTR, deadtime);
 617:.\Generated_Source\PSoC5/PWM_MOTOR.c ****         #else
 618:.\Generated_Source\PSoC5/PWM_MOTOR.c ****             /* Otherwise the data has to be masked and offset */
 619:.\Generated_Source\PSoC5/PWM_MOTOR.c ****             /* Clear existing data */
 620:.\Generated_Source\PSoC5/PWM_MOTOR.c ****             PWM_MOTOR_DEADBAND_COUNT &= ((uint8)(~PWM_MOTOR_DEADBAND_COUNT_MASK));
 621:.\Generated_Source\PSoC5/PWM_MOTOR.c **** 
 622:.\Generated_Source\PSoC5/PWM_MOTOR.c ****             /* Set new dead time */
 623:.\Generated_Source\PSoC5/PWM_MOTOR.c ****             #if(PWM_MOTOR_DEADBAND_COUNT_SHIFT)
 624:.\Generated_Source\PSoC5/PWM_MOTOR.c ****                 PWM_MOTOR_DEADBAND_COUNT |= ((uint8)((uint8)deadtime << PWM_MOTOR_DEADBAND_COUNT_SH
 625:.\Generated_Source\PSoC5/PWM_MOTOR.c ****                                                     PWM_MOTOR_DEADBAND_COUNT_MASK;
 626:.\Generated_Source\PSoC5/PWM_MOTOR.c ****             #else
 627:.\Generated_Source\PSoC5/PWM_MOTOR.c ****                 PWM_MOTOR_DEADBAND_COUNT |= deadtime & PWM_MOTOR_DEADBAND_COUNT_MASK;
 628:.\Generated_Source\PSoC5/PWM_MOTOR.c ****             #endif /* (PWM_MOTOR_DEADBAND_COUNT_SHIFT) */
 629:.\Generated_Source\PSoC5/PWM_MOTOR.c **** 
 630:.\Generated_Source\PSoC5/PWM_MOTOR.c ****         #endif /* (!PWM_MOTOR_DeadBand2_4) */
 631:.\Generated_Source\PSoC5/PWM_MOTOR.c ****     }
 632:.\Generated_Source\PSoC5/PWM_MOTOR.c **** 
 633:.\Generated_Source\PSoC5/PWM_MOTOR.c **** 
 634:.\Generated_Source\PSoC5/PWM_MOTOR.c ****     /*******************************************************************************
 635:.\Generated_Source\PSoC5/PWM_MOTOR.c ****     * Function Name: PWM_MOTOR_ReadDeadTime
 636:.\Generated_Source\PSoC5/PWM_MOTOR.c ****     ********************************************************************************
 637:.\Generated_Source\PSoC5/PWM_MOTOR.c ****     *
 638:.\Generated_Source\PSoC5/PWM_MOTOR.c ****     * Summary:
 639:.\Generated_Source\PSoC5/PWM_MOTOR.c ****     *  This function reads the dead-band counts from the corresponding register
 640:.\Generated_Source\PSoC5/PWM_MOTOR.c ****     *
 641:.\Generated_Source\PSoC5/PWM_MOTOR.c ****     * Parameters:
 642:.\Generated_Source\PSoC5/PWM_MOTOR.c ****     *  None
 643:.\Generated_Source\PSoC5/PWM_MOTOR.c ****     *
 644:.\Generated_Source\PSoC5/PWM_MOTOR.c ****     * Return:
 645:.\Generated_Source\PSoC5/PWM_MOTOR.c ****     *  Dead Band Counts
 646:.\Generated_Source\PSoC5/PWM_MOTOR.c ****     *
 647:.\Generated_Source\PSoC5/PWM_MOTOR.c ****     *******************************************************************************/
 648:.\Generated_Source\PSoC5/PWM_MOTOR.c ****     uint8 PWM_MOTOR_ReadDeadTime(void) 
 649:.\Generated_Source\PSoC5/PWM_MOTOR.c ****     {
ARM GAS  C:\Users\pxc\AppData\Local\Temp\ccDVE8qh.s 			page 18


 650:.\Generated_Source\PSoC5/PWM_MOTOR.c ****         /* If using the Dead Band 1-255 mode then just read the register */
 651:.\Generated_Source\PSoC5/PWM_MOTOR.c ****         #if(!PWM_MOTOR_DeadBand2_4)
 652:.\Generated_Source\PSoC5/PWM_MOTOR.c ****             return (CY_GET_REG8(PWM_MOTOR_DEADBAND_COUNT_PTR));
 653:.\Generated_Source\PSoC5/PWM_MOTOR.c ****         #else
 654:.\Generated_Source\PSoC5/PWM_MOTOR.c **** 
 655:.\Generated_Source\PSoC5/PWM_MOTOR.c ****             /* Otherwise the data has to be masked and offset */
 656:.\Generated_Source\PSoC5/PWM_MOTOR.c ****             #if(PWM_MOTOR_DEADBAND_COUNT_SHIFT)
 657:.\Generated_Source\PSoC5/PWM_MOTOR.c ****                 return ((uint8)(((uint8)(PWM_MOTOR_DEADBAND_COUNT & PWM_MOTOR_DEADBAND_COUNT_MASK))
 658:.\Generated_Source\PSoC5/PWM_MOTOR.c ****                                                                            PWM_MOTOR_DEADBAND_COUNT
 659:.\Generated_Source\PSoC5/PWM_MOTOR.c ****             #else
 660:.\Generated_Source\PSoC5/PWM_MOTOR.c ****                 return (PWM_MOTOR_DEADBAND_COUNT & PWM_MOTOR_DEADBAND_COUNT_MASK);
 661:.\Generated_Source\PSoC5/PWM_MOTOR.c ****             #endif /* (PWM_MOTOR_DEADBAND_COUNT_SHIFT) */
 662:.\Generated_Source\PSoC5/PWM_MOTOR.c ****         #endif /* (!PWM_MOTOR_DeadBand2_4) */
 663:.\Generated_Source\PSoC5/PWM_MOTOR.c ****     }
 664:.\Generated_Source\PSoC5/PWM_MOTOR.c **** #endif /* DeadBandUsed */
 665:.\Generated_Source\PSoC5/PWM_MOTOR.c **** 
 666:.\Generated_Source\PSoC5/PWM_MOTOR.c **** #if (PWM_MOTOR_UseStatus || PWM_MOTOR_UsingFixedFunction)
 667:.\Generated_Source\PSoC5/PWM_MOTOR.c **** 
 668:.\Generated_Source\PSoC5/PWM_MOTOR.c **** 
 669:.\Generated_Source\PSoC5/PWM_MOTOR.c ****     /*******************************************************************************
 670:.\Generated_Source\PSoC5/PWM_MOTOR.c ****     * Function Name: PWM_MOTOR_SetInterruptMode
 671:.\Generated_Source\PSoC5/PWM_MOTOR.c ****     ********************************************************************************
 672:.\Generated_Source\PSoC5/PWM_MOTOR.c ****     *
 673:.\Generated_Source\PSoC5/PWM_MOTOR.c ****     * Summary:
 674:.\Generated_Source\PSoC5/PWM_MOTOR.c ****     *  This function configures the interrupts mask control of theinterrupt
 675:.\Generated_Source\PSoC5/PWM_MOTOR.c ****     *  source status register.
 676:.\Generated_Source\PSoC5/PWM_MOTOR.c ****     *
 677:.\Generated_Source\PSoC5/PWM_MOTOR.c ****     * Parameters:
 678:.\Generated_Source\PSoC5/PWM_MOTOR.c ****     *  uint8 interruptMode: Bit field containing the interrupt sources enabled
 679:.\Generated_Source\PSoC5/PWM_MOTOR.c ****     *
 680:.\Generated_Source\PSoC5/PWM_MOTOR.c ****     * Return:
 681:.\Generated_Source\PSoC5/PWM_MOTOR.c ****     *  None
 682:.\Generated_Source\PSoC5/PWM_MOTOR.c ****     *
 683:.\Generated_Source\PSoC5/PWM_MOTOR.c ****     *******************************************************************************/
 684:.\Generated_Source\PSoC5/PWM_MOTOR.c ****     void PWM_MOTOR_SetInterruptMode(uint8 interruptMode) 
 685:.\Generated_Source\PSoC5/PWM_MOTOR.c ****     {
 686:.\Generated_Source\PSoC5/PWM_MOTOR.c ****         CY_SET_REG8(PWM_MOTOR_STATUS_MASK_PTR, interruptMode);
 687:.\Generated_Source\PSoC5/PWM_MOTOR.c ****     }
 688:.\Generated_Source\PSoC5/PWM_MOTOR.c **** 
 689:.\Generated_Source\PSoC5/PWM_MOTOR.c **** 
 690:.\Generated_Source\PSoC5/PWM_MOTOR.c ****     /*******************************************************************************
 691:.\Generated_Source\PSoC5/PWM_MOTOR.c ****     * Function Name: PWM_MOTOR_ReadStatusRegister
 692:.\Generated_Source\PSoC5/PWM_MOTOR.c ****     ********************************************************************************
 693:.\Generated_Source\PSoC5/PWM_MOTOR.c ****     *
 694:.\Generated_Source\PSoC5/PWM_MOTOR.c ****     * Summary:
 695:.\Generated_Source\PSoC5/PWM_MOTOR.c ****     *  This function returns the current state of the status register.
 696:.\Generated_Source\PSoC5/PWM_MOTOR.c ****     *
 697:.\Generated_Source\PSoC5/PWM_MOTOR.c ****     * Parameters:
 698:.\Generated_Source\PSoC5/PWM_MOTOR.c ****     *  None
 699:.\Generated_Source\PSoC5/PWM_MOTOR.c ****     *
 700:.\Generated_Source\PSoC5/PWM_MOTOR.c ****     * Return:
 701:.\Generated_Source\PSoC5/PWM_MOTOR.c ****     *  uint8 : Current status register value. The status register bits are:
 702:.\Generated_Source\PSoC5/PWM_MOTOR.c ****     *  [7:6] : Unused(0)
 703:.\Generated_Source\PSoC5/PWM_MOTOR.c ****     *  [5]   : Kill event output
 704:.\Generated_Source\PSoC5/PWM_MOTOR.c ****     *  [4]   : FIFO not empty
 705:.\Generated_Source\PSoC5/PWM_MOTOR.c ****     *  [3]   : FIFO full
 706:.\Generated_Source\PSoC5/PWM_MOTOR.c ****     *  [2]   : Terminal count
ARM GAS  C:\Users\pxc\AppData\Local\Temp\ccDVE8qh.s 			page 19


 707:.\Generated_Source\PSoC5/PWM_MOTOR.c ****     *  [1]   : Compare output 2
 708:.\Generated_Source\PSoC5/PWM_MOTOR.c ****     *  [0]   : Compare output 1
 709:.\Generated_Source\PSoC5/PWM_MOTOR.c ****     *
 710:.\Generated_Source\PSoC5/PWM_MOTOR.c ****     *******************************************************************************/
 711:.\Generated_Source\PSoC5/PWM_MOTOR.c ****     uint8 PWM_MOTOR_ReadStatusRegister(void) 
 712:.\Generated_Source\PSoC5/PWM_MOTOR.c ****     {
 713:.\Generated_Source\PSoC5/PWM_MOTOR.c ****         return (CY_GET_REG8(PWM_MOTOR_STATUS_PTR));
 714:.\Generated_Source\PSoC5/PWM_MOTOR.c ****     }
 715:.\Generated_Source\PSoC5/PWM_MOTOR.c **** 
 716:.\Generated_Source\PSoC5/PWM_MOTOR.c **** #endif /* (PWM_MOTOR_UseStatus || PWM_MOTOR_UsingFixedFunction) */
 717:.\Generated_Source\PSoC5/PWM_MOTOR.c **** 
 718:.\Generated_Source\PSoC5/PWM_MOTOR.c **** 
 719:.\Generated_Source\PSoC5/PWM_MOTOR.c **** #if (PWM_MOTOR_UseControl)
 720:.\Generated_Source\PSoC5/PWM_MOTOR.c **** 
 721:.\Generated_Source\PSoC5/PWM_MOTOR.c **** 
 722:.\Generated_Source\PSoC5/PWM_MOTOR.c ****     /*******************************************************************************
 723:.\Generated_Source\PSoC5/PWM_MOTOR.c ****     * Function Name: PWM_MOTOR_ReadControlRegister
 724:.\Generated_Source\PSoC5/PWM_MOTOR.c ****     ********************************************************************************
 725:.\Generated_Source\PSoC5/PWM_MOTOR.c ****     *
 726:.\Generated_Source\PSoC5/PWM_MOTOR.c ****     * Summary:
 727:.\Generated_Source\PSoC5/PWM_MOTOR.c ****     *  Returns the current state of the control register. This API is available
 728:.\Generated_Source\PSoC5/PWM_MOTOR.c ****     *  only if the control register is not removed.
 729:.\Generated_Source\PSoC5/PWM_MOTOR.c ****     *
 730:.\Generated_Source\PSoC5/PWM_MOTOR.c ****     * Parameters:
 731:.\Generated_Source\PSoC5/PWM_MOTOR.c ****     *  None
 732:.\Generated_Source\PSoC5/PWM_MOTOR.c ****     *
 733:.\Generated_Source\PSoC5/PWM_MOTOR.c ****     * Return:
 734:.\Generated_Source\PSoC5/PWM_MOTOR.c ****     *  uint8 : Current control register value
 735:.\Generated_Source\PSoC5/PWM_MOTOR.c ****     *
 736:.\Generated_Source\PSoC5/PWM_MOTOR.c ****     *******************************************************************************/
 737:.\Generated_Source\PSoC5/PWM_MOTOR.c ****     uint8 PWM_MOTOR_ReadControlRegister(void) 
 738:.\Generated_Source\PSoC5/PWM_MOTOR.c ****     {
 307              		.loc 1 738 0
 308              		.cfi_startproc
 309              		@ args = 0, pretend = 0, frame = 0
 310              		@ frame_needed = 0, uses_anonymous_args = 0
 311              		@ link register save eliminated.
 739:.\Generated_Source\PSoC5/PWM_MOTOR.c ****         uint8 result;
 740:.\Generated_Source\PSoC5/PWM_MOTOR.c **** 
 741:.\Generated_Source\PSoC5/PWM_MOTOR.c ****         result = CY_GET_REG8(PWM_MOTOR_CONTROL_PTR);
 312              		.loc 1 741 0
 313 0000 014B     		ldr	r3, .L32
 314 0002 1878     		ldrb	r0, [r3]	@ zero_extendqisi2
 315              	.LVL12:
 742:.\Generated_Source\PSoC5/PWM_MOTOR.c ****         return (result);
 743:.\Generated_Source\PSoC5/PWM_MOTOR.c ****     }
 316              		.loc 1 743 0
 317 0004 7047     		bx	lr
 318              	.L33:
 319 0006 00BF     		.align	2
 320              	.L32:
 321 0008 79650040 		.word	1073767801
 322              		.cfi_endproc
 323              	.LFE9:
 324              		.size	PWM_MOTOR_ReadControlRegister, .-PWM_MOTOR_ReadControlRegister
 325              		.section	.text.PWM_MOTOR_WriteControlRegister,"ax",%progbits
 326              		.align	2
ARM GAS  C:\Users\pxc\AppData\Local\Temp\ccDVE8qh.s 			page 20


 327              		.global	PWM_MOTOR_WriteControlRegister
 328              		.thumb
 329              		.thumb_func
 330              		.type	PWM_MOTOR_WriteControlRegister, %function
 331              	PWM_MOTOR_WriteControlRegister:
 332              	.LFB10:
 744:.\Generated_Source\PSoC5/PWM_MOTOR.c **** 
 745:.\Generated_Source\PSoC5/PWM_MOTOR.c **** 
 746:.\Generated_Source\PSoC5/PWM_MOTOR.c ****     /*******************************************************************************
 747:.\Generated_Source\PSoC5/PWM_MOTOR.c ****     * Function Name: PWM_MOTOR_WriteControlRegister
 748:.\Generated_Source\PSoC5/PWM_MOTOR.c ****     ********************************************************************************
 749:.\Generated_Source\PSoC5/PWM_MOTOR.c ****     *
 750:.\Generated_Source\PSoC5/PWM_MOTOR.c ****     * Summary:
 751:.\Generated_Source\PSoC5/PWM_MOTOR.c ****     *  Sets the bit field of the control register. This API is available only if
 752:.\Generated_Source\PSoC5/PWM_MOTOR.c ****     *  the control register is not removed.
 753:.\Generated_Source\PSoC5/PWM_MOTOR.c ****     *
 754:.\Generated_Source\PSoC5/PWM_MOTOR.c ****     * Parameters:
 755:.\Generated_Source\PSoC5/PWM_MOTOR.c ****     *  uint8 control: Control register bit field, The status register bits are:
 756:.\Generated_Source\PSoC5/PWM_MOTOR.c ****     *  [7]   : PWM Enable
 757:.\Generated_Source\PSoC5/PWM_MOTOR.c ****     *  [6]   : Reset
 758:.\Generated_Source\PSoC5/PWM_MOTOR.c ****     *  [5:3] : Compare Mode2
 759:.\Generated_Source\PSoC5/PWM_MOTOR.c ****     *  [2:0] : Compare Mode2
 760:.\Generated_Source\PSoC5/PWM_MOTOR.c ****     *
 761:.\Generated_Source\PSoC5/PWM_MOTOR.c ****     * Return:
 762:.\Generated_Source\PSoC5/PWM_MOTOR.c ****     *  None
 763:.\Generated_Source\PSoC5/PWM_MOTOR.c ****     *
 764:.\Generated_Source\PSoC5/PWM_MOTOR.c ****     *******************************************************************************/
 765:.\Generated_Source\PSoC5/PWM_MOTOR.c ****     void PWM_MOTOR_WriteControlRegister(uint8 control) 
 766:.\Generated_Source\PSoC5/PWM_MOTOR.c ****     {
 333              		.loc 1 766 0
 334              		.cfi_startproc
 335              		@ args = 0, pretend = 0, frame = 0
 336              		@ frame_needed = 0, uses_anonymous_args = 0
 337              		@ link register save eliminated.
 338              	.LVL13:
 767:.\Generated_Source\PSoC5/PWM_MOTOR.c ****         CY_SET_REG8(PWM_MOTOR_CONTROL_PTR, control);
 339              		.loc 1 767 0
 340 0000 014B     		ldr	r3, .L35
 341 0002 1870     		strb	r0, [r3]
 342 0004 7047     		bx	lr
 343              	.L36:
 344 0006 00BF     		.align	2
 345              	.L35:
 346 0008 79650040 		.word	1073767801
 347              		.cfi_endproc
 348              	.LFE10:
 349              		.size	PWM_MOTOR_WriteControlRegister, .-PWM_MOTOR_WriteControlRegister
 350              		.section	.text.PWM_MOTOR_ReadCapture,"ax",%progbits
 351              		.align	2
 352              		.global	PWM_MOTOR_ReadCapture
 353              		.thumb
 354              		.thumb_func
 355              		.type	PWM_MOTOR_ReadCapture, %function
 356              	PWM_MOTOR_ReadCapture:
 357              	.LFB11:
 768:.\Generated_Source\PSoC5/PWM_MOTOR.c ****     }
 769:.\Generated_Source\PSoC5/PWM_MOTOR.c **** 
ARM GAS  C:\Users\pxc\AppData\Local\Temp\ccDVE8qh.s 			page 21


 770:.\Generated_Source\PSoC5/PWM_MOTOR.c **** #endif /* (PWM_MOTOR_UseControl) */
 771:.\Generated_Source\PSoC5/PWM_MOTOR.c **** 
 772:.\Generated_Source\PSoC5/PWM_MOTOR.c **** 
 773:.\Generated_Source\PSoC5/PWM_MOTOR.c **** #if (!PWM_MOTOR_UsingFixedFunction)
 774:.\Generated_Source\PSoC5/PWM_MOTOR.c **** 
 775:.\Generated_Source\PSoC5/PWM_MOTOR.c **** 
 776:.\Generated_Source\PSoC5/PWM_MOTOR.c ****     /*******************************************************************************
 777:.\Generated_Source\PSoC5/PWM_MOTOR.c ****     * Function Name: PWM_MOTOR_ReadCapture
 778:.\Generated_Source\PSoC5/PWM_MOTOR.c ****     ********************************************************************************
 779:.\Generated_Source\PSoC5/PWM_MOTOR.c ****     *
 780:.\Generated_Source\PSoC5/PWM_MOTOR.c ****     * Summary:
 781:.\Generated_Source\PSoC5/PWM_MOTOR.c ****     *  Reads the capture value from the capture FIFO.
 782:.\Generated_Source\PSoC5/PWM_MOTOR.c ****     *
 783:.\Generated_Source\PSoC5/PWM_MOTOR.c ****     * Parameters:
 784:.\Generated_Source\PSoC5/PWM_MOTOR.c ****     *  None
 785:.\Generated_Source\PSoC5/PWM_MOTOR.c ****     *
 786:.\Generated_Source\PSoC5/PWM_MOTOR.c ****     * Return:
 787:.\Generated_Source\PSoC5/PWM_MOTOR.c ****     *  uint8/uint16: The current capture value
 788:.\Generated_Source\PSoC5/PWM_MOTOR.c ****     *
 789:.\Generated_Source\PSoC5/PWM_MOTOR.c ****     *******************************************************************************/
 790:.\Generated_Source\PSoC5/PWM_MOTOR.c ****     uint16 PWM_MOTOR_ReadCapture(void) 
 791:.\Generated_Source\PSoC5/PWM_MOTOR.c ****     {
 358              		.loc 1 791 0
 359              		.cfi_startproc
 360              		@ args = 0, pretend = 0, frame = 0
 361              		@ frame_needed = 0, uses_anonymous_args = 0
 362              		@ link register save eliminated.
 792:.\Generated_Source\PSoC5/PWM_MOTOR.c ****         return (CY_GET_REG16(PWM_MOTOR_CAPTURE_LSB_PTR));
 363              		.loc 1 792 0
 364 0000 014B     		ldr	r3, .L38
 365 0002 1888     		ldrh	r0, [r3]
 793:.\Generated_Source\PSoC5/PWM_MOTOR.c ****     }
 366              		.loc 1 793 0
 367 0004 80B2     		uxth	r0, r0
 368 0006 7047     		bx	lr
 369              	.L39:
 370              		.align	2
 371              	.L38:
 372 0008 B8680040 		.word	1073768632
 373              		.cfi_endproc
 374              	.LFE11:
 375              		.size	PWM_MOTOR_ReadCapture, .-PWM_MOTOR_ReadCapture
 376              		.section	.text.PWM_MOTOR_ReadCompare1,"ax",%progbits
 377              		.align	2
 378              		.global	PWM_MOTOR_ReadCompare1
 379              		.thumb
 380              		.thumb_func
 381              		.type	PWM_MOTOR_ReadCompare1, %function
 382              	PWM_MOTOR_ReadCompare1:
 383              	.LFB12:
 794:.\Generated_Source\PSoC5/PWM_MOTOR.c **** 
 795:.\Generated_Source\PSoC5/PWM_MOTOR.c **** #endif /* (!PWM_MOTOR_UsingFixedFunction) */
 796:.\Generated_Source\PSoC5/PWM_MOTOR.c **** 
 797:.\Generated_Source\PSoC5/PWM_MOTOR.c **** 
 798:.\Generated_Source\PSoC5/PWM_MOTOR.c **** #if (PWM_MOTOR_UseOneCompareMode)
 799:.\Generated_Source\PSoC5/PWM_MOTOR.c **** 
 800:.\Generated_Source\PSoC5/PWM_MOTOR.c **** 
ARM GAS  C:\Users\pxc\AppData\Local\Temp\ccDVE8qh.s 			page 22


 801:.\Generated_Source\PSoC5/PWM_MOTOR.c ****     /*******************************************************************************
 802:.\Generated_Source\PSoC5/PWM_MOTOR.c ****     * Function Name: PWM_MOTOR_ReadCompare
 803:.\Generated_Source\PSoC5/PWM_MOTOR.c ****     ********************************************************************************
 804:.\Generated_Source\PSoC5/PWM_MOTOR.c ****     *
 805:.\Generated_Source\PSoC5/PWM_MOTOR.c ****     * Summary:
 806:.\Generated_Source\PSoC5/PWM_MOTOR.c ****     *  Reads the compare value for the compare output when the PWM Mode parameter is
 807:.\Generated_Source\PSoC5/PWM_MOTOR.c ****     *  set to Dither mode, Center Aligned mode, or One Output mode.
 808:.\Generated_Source\PSoC5/PWM_MOTOR.c ****     *
 809:.\Generated_Source\PSoC5/PWM_MOTOR.c ****     * Parameters:
 810:.\Generated_Source\PSoC5/PWM_MOTOR.c ****     *  None
 811:.\Generated_Source\PSoC5/PWM_MOTOR.c ****     *
 812:.\Generated_Source\PSoC5/PWM_MOTOR.c ****     * Return:
 813:.\Generated_Source\PSoC5/PWM_MOTOR.c ****     *  uint8/uint16: Current compare value
 814:.\Generated_Source\PSoC5/PWM_MOTOR.c ****     *
 815:.\Generated_Source\PSoC5/PWM_MOTOR.c ****     *******************************************************************************/
 816:.\Generated_Source\PSoC5/PWM_MOTOR.c ****     uint16 PWM_MOTOR_ReadCompare(void) 
 817:.\Generated_Source\PSoC5/PWM_MOTOR.c ****     {
 818:.\Generated_Source\PSoC5/PWM_MOTOR.c ****         #if(PWM_MOTOR_UsingFixedFunction)
 819:.\Generated_Source\PSoC5/PWM_MOTOR.c ****             return ((uint16)CY_GET_REG16(PWM_MOTOR_COMPARE1_LSB_PTR));
 820:.\Generated_Source\PSoC5/PWM_MOTOR.c ****         #else
 821:.\Generated_Source\PSoC5/PWM_MOTOR.c ****             return (CY_GET_REG16(PWM_MOTOR_COMPARE1_LSB_PTR));
 822:.\Generated_Source\PSoC5/PWM_MOTOR.c ****         #endif /* (PWM_MOTOR_UsingFixedFunction) */
 823:.\Generated_Source\PSoC5/PWM_MOTOR.c ****     }
 824:.\Generated_Source\PSoC5/PWM_MOTOR.c **** 
 825:.\Generated_Source\PSoC5/PWM_MOTOR.c **** #else
 826:.\Generated_Source\PSoC5/PWM_MOTOR.c **** 
 827:.\Generated_Source\PSoC5/PWM_MOTOR.c **** 
 828:.\Generated_Source\PSoC5/PWM_MOTOR.c ****     /*******************************************************************************
 829:.\Generated_Source\PSoC5/PWM_MOTOR.c ****     * Function Name: PWM_MOTOR_ReadCompare1
 830:.\Generated_Source\PSoC5/PWM_MOTOR.c ****     ********************************************************************************
 831:.\Generated_Source\PSoC5/PWM_MOTOR.c ****     *
 832:.\Generated_Source\PSoC5/PWM_MOTOR.c ****     * Summary:
 833:.\Generated_Source\PSoC5/PWM_MOTOR.c ****     *  Reads the compare value for the compare1 output.
 834:.\Generated_Source\PSoC5/PWM_MOTOR.c ****     *
 835:.\Generated_Source\PSoC5/PWM_MOTOR.c ****     * Parameters:
 836:.\Generated_Source\PSoC5/PWM_MOTOR.c ****     *  None
 837:.\Generated_Source\PSoC5/PWM_MOTOR.c ****     *
 838:.\Generated_Source\PSoC5/PWM_MOTOR.c ****     * Return:
 839:.\Generated_Source\PSoC5/PWM_MOTOR.c ****     *  uint8/uint16: Current compare value.
 840:.\Generated_Source\PSoC5/PWM_MOTOR.c ****     *
 841:.\Generated_Source\PSoC5/PWM_MOTOR.c ****     *******************************************************************************/
 842:.\Generated_Source\PSoC5/PWM_MOTOR.c ****     uint16 PWM_MOTOR_ReadCompare1(void) 
 843:.\Generated_Source\PSoC5/PWM_MOTOR.c ****     {
 384              		.loc 1 843 0
 385              		.cfi_startproc
 386              		@ args = 0, pretend = 0, frame = 0
 387              		@ frame_needed = 0, uses_anonymous_args = 0
 388              		@ link register save eliminated.
 844:.\Generated_Source\PSoC5/PWM_MOTOR.c ****         return (CY_GET_REG16(PWM_MOTOR_COMPARE1_LSB_PTR));
 389              		.loc 1 844 0
 390 0000 014B     		ldr	r3, .L41
 391 0002 1888     		ldrh	r0, [r3]
 845:.\Generated_Source\PSoC5/PWM_MOTOR.c ****     }
 392              		.loc 1 845 0
 393 0004 80B2     		uxth	r0, r0
 394 0006 7047     		bx	lr
 395              	.L42:
ARM GAS  C:\Users\pxc\AppData\Local\Temp\ccDVE8qh.s 			page 23


 396              		.align	2
 397              	.L41:
 398 0008 58680040 		.word	1073768536
 399              		.cfi_endproc
 400              	.LFE12:
 401              		.size	PWM_MOTOR_ReadCompare1, .-PWM_MOTOR_ReadCompare1
 402              		.section	.text.PWM_MOTOR_ReadCompare2,"ax",%progbits
 403              		.align	2
 404              		.global	PWM_MOTOR_ReadCompare2
 405              		.thumb
 406              		.thumb_func
 407              		.type	PWM_MOTOR_ReadCompare2, %function
 408              	PWM_MOTOR_ReadCompare2:
 409              	.LFB13:
 846:.\Generated_Source\PSoC5/PWM_MOTOR.c **** 
 847:.\Generated_Source\PSoC5/PWM_MOTOR.c **** 
 848:.\Generated_Source\PSoC5/PWM_MOTOR.c ****     /*******************************************************************************
 849:.\Generated_Source\PSoC5/PWM_MOTOR.c ****     * Function Name: PWM_MOTOR_ReadCompare2
 850:.\Generated_Source\PSoC5/PWM_MOTOR.c ****     ********************************************************************************
 851:.\Generated_Source\PSoC5/PWM_MOTOR.c ****     *
 852:.\Generated_Source\PSoC5/PWM_MOTOR.c ****     * Summary:
 853:.\Generated_Source\PSoC5/PWM_MOTOR.c ****     *  Reads the compare value for the compare2 output.
 854:.\Generated_Source\PSoC5/PWM_MOTOR.c ****     *
 855:.\Generated_Source\PSoC5/PWM_MOTOR.c ****     * Parameters:
 856:.\Generated_Source\PSoC5/PWM_MOTOR.c ****     *  None
 857:.\Generated_Source\PSoC5/PWM_MOTOR.c ****     *
 858:.\Generated_Source\PSoC5/PWM_MOTOR.c ****     * Return:
 859:.\Generated_Source\PSoC5/PWM_MOTOR.c ****     *  uint8/uint16: Current compare value.
 860:.\Generated_Source\PSoC5/PWM_MOTOR.c ****     *
 861:.\Generated_Source\PSoC5/PWM_MOTOR.c ****     *******************************************************************************/
 862:.\Generated_Source\PSoC5/PWM_MOTOR.c ****     uint16 PWM_MOTOR_ReadCompare2(void) 
 863:.\Generated_Source\PSoC5/PWM_MOTOR.c ****     {
 410              		.loc 1 863 0
 411              		.cfi_startproc
 412              		@ args = 0, pretend = 0, frame = 0
 413              		@ frame_needed = 0, uses_anonymous_args = 0
 414              		@ link register save eliminated.
 864:.\Generated_Source\PSoC5/PWM_MOTOR.c ****         return (CY_GET_REG16(PWM_MOTOR_COMPARE2_LSB_PTR));
 415              		.loc 1 864 0
 416 0000 014B     		ldr	r3, .L44
 417 0002 1888     		ldrh	r0, [r3]
 865:.\Generated_Source\PSoC5/PWM_MOTOR.c ****     }
 418              		.loc 1 865 0
 419 0004 80B2     		uxth	r0, r0
 420 0006 7047     		bx	lr
 421              	.L45:
 422              		.align	2
 423              	.L44:
 424 0008 78680040 		.word	1073768568
 425              		.cfi_endproc
 426              	.LFE13:
 427              		.size	PWM_MOTOR_ReadCompare2, .-PWM_MOTOR_ReadCompare2
 428              		.section	.text.PWM_MOTOR_ReadPeriod,"ax",%progbits
 429              		.align	2
 430              		.global	PWM_MOTOR_ReadPeriod
 431              		.thumb
 432              		.thumb_func
ARM GAS  C:\Users\pxc\AppData\Local\Temp\ccDVE8qh.s 			page 24


 433              		.type	PWM_MOTOR_ReadPeriod, %function
 434              	PWM_MOTOR_ReadPeriod:
 435              	.LFB14:
 866:.\Generated_Source\PSoC5/PWM_MOTOR.c **** 
 867:.\Generated_Source\PSoC5/PWM_MOTOR.c **** #endif /* (PWM_MOTOR_UseOneCompareMode) */
 868:.\Generated_Source\PSoC5/PWM_MOTOR.c **** 
 869:.\Generated_Source\PSoC5/PWM_MOTOR.c **** 
 870:.\Generated_Source\PSoC5/PWM_MOTOR.c **** /*******************************************************************************
 871:.\Generated_Source\PSoC5/PWM_MOTOR.c **** * Function Name: PWM_MOTOR_ReadPeriod
 872:.\Generated_Source\PSoC5/PWM_MOTOR.c **** ********************************************************************************
 873:.\Generated_Source\PSoC5/PWM_MOTOR.c **** *
 874:.\Generated_Source\PSoC5/PWM_MOTOR.c **** * Summary:
 875:.\Generated_Source\PSoC5/PWM_MOTOR.c **** *  Reads the period value used by the PWM hardware.
 876:.\Generated_Source\PSoC5/PWM_MOTOR.c **** *
 877:.\Generated_Source\PSoC5/PWM_MOTOR.c **** * Parameters:
 878:.\Generated_Source\PSoC5/PWM_MOTOR.c **** *  None
 879:.\Generated_Source\PSoC5/PWM_MOTOR.c **** *
 880:.\Generated_Source\PSoC5/PWM_MOTOR.c **** * Return:
 881:.\Generated_Source\PSoC5/PWM_MOTOR.c **** *  uint8/16: Period value
 882:.\Generated_Source\PSoC5/PWM_MOTOR.c **** *
 883:.\Generated_Source\PSoC5/PWM_MOTOR.c **** *******************************************************************************/
 884:.\Generated_Source\PSoC5/PWM_MOTOR.c **** uint16 PWM_MOTOR_ReadPeriod(void) 
 885:.\Generated_Source\PSoC5/PWM_MOTOR.c **** {
 436              		.loc 1 885 0
 437              		.cfi_startproc
 438              		@ args = 0, pretend = 0, frame = 0
 439              		@ frame_needed = 0, uses_anonymous_args = 0
 440              		@ link register save eliminated.
 886:.\Generated_Source\PSoC5/PWM_MOTOR.c ****     #if(PWM_MOTOR_UsingFixedFunction)
 887:.\Generated_Source\PSoC5/PWM_MOTOR.c ****         return ((uint16)CY_GET_REG16(PWM_MOTOR_PERIOD_LSB_PTR));
 888:.\Generated_Source\PSoC5/PWM_MOTOR.c ****     #else
 889:.\Generated_Source\PSoC5/PWM_MOTOR.c ****         return (CY_GET_REG16(PWM_MOTOR_PERIOD_LSB_PTR));
 441              		.loc 1 889 0
 442 0000 014B     		ldr	r3, .L47
 443 0002 1888     		ldrh	r0, [r3]
 890:.\Generated_Source\PSoC5/PWM_MOTOR.c ****     #endif /* (PWM_MOTOR_UsingFixedFunction) */
 891:.\Generated_Source\PSoC5/PWM_MOTOR.c **** }
 444              		.loc 1 891 0
 445 0004 80B2     		uxth	r0, r0
 446 0006 7047     		bx	lr
 447              	.L48:
 448              		.align	2
 449              	.L47:
 450 0008 98680040 		.word	1073768600
 451              		.cfi_endproc
 452              	.LFE14:
 453              		.size	PWM_MOTOR_ReadPeriod, .-PWM_MOTOR_ReadPeriod
 454              		.global	PWM_MOTOR_initVar
 455              		.bss
 456              		.set	.LANCHOR0,. + 0
 457              		.type	PWM_MOTOR_initVar, %object
 458              		.size	PWM_MOTOR_initVar, 1
 459              	PWM_MOTOR_initVar:
 460 0000 00       		.space	1
 461              		.text
 462              	.Letext0:
 463              		.file 2 ".\\Generated_Source\\PSoC5\\cytypes.h"
ARM GAS  C:\Users\pxc\AppData\Local\Temp\ccDVE8qh.s 			page 25

