ARM GAS  C:\Users\pxc\AppData\Local\Temp\ccrugPeJ.s 			page 1


   1              		.syntax unified
   2              		.cpu cortex-m3
   3              		.fpu softvfp
   4              		.eabi_attribute 20, 1
   5              		.eabi_attribute 21, 1
   6              		.eabi_attribute 23, 3
   7              		.eabi_attribute 24, 1
   8              		.eabi_attribute 25, 1
   9              		.eabi_attribute 26, 1
  10              		.eabi_attribute 30, 1
  11              		.eabi_attribute 34, 1
  12              		.eabi_attribute 18, 4
  13              		.thumb
  14              		.file	"SW_Tx_UART_1.c"
  15              		.text
  16              	.Ltext0:
  17              		.cfi_sections	.debug_frame
  18              		.section	.text.SW_Tx_UART_1_Start,"ax",%progbits
  19              		.align	2
  20              		.global	SW_Tx_UART_1_Start
  21              		.thumb
  22              		.thumb_func
  23              		.type	SW_Tx_UART_1_Start, %function
  24              	SW_Tx_UART_1_Start:
  25              	.LFB0:
  26              		.file 1 ".\\Generated_Source\\PSoC5\\SW_Tx_UART_1.c"
   1:.\Generated_Source\PSoC5/SW_Tx_UART_1.c **** /*******************************************************************************
   2:.\Generated_Source\PSoC5/SW_Tx_UART_1.c **** * File Name: SW_Tx_UART_1.c
   3:.\Generated_Source\PSoC5/SW_Tx_UART_1.c **** * Version 1.40
   4:.\Generated_Source\PSoC5/SW_Tx_UART_1.c **** *
   5:.\Generated_Source\PSoC5/SW_Tx_UART_1.c **** * Description:
   6:.\Generated_Source\PSoC5/SW_Tx_UART_1.c **** *  This file provides the source code to the API for the Software Transmit UART.
   7:.\Generated_Source\PSoC5/SW_Tx_UART_1.c **** *
   8:.\Generated_Source\PSoC5/SW_Tx_UART_1.c **** ********************************************************************************
   9:.\Generated_Source\PSoC5/SW_Tx_UART_1.c **** * Copyright 2013-2015, Cypress Semiconductor Corporation.  All rights reserved.
  10:.\Generated_Source\PSoC5/SW_Tx_UART_1.c **** * You may use this file only in accordance with the license, terms, conditions,
  11:.\Generated_Source\PSoC5/SW_Tx_UART_1.c **** * disclaimers, and limitations in the end user license agreement accompanying
  12:.\Generated_Source\PSoC5/SW_Tx_UART_1.c **** * the software package with which this file was provided.
  13:.\Generated_Source\PSoC5/SW_Tx_UART_1.c **** *******************************************************************************/
  14:.\Generated_Source\PSoC5/SW_Tx_UART_1.c **** 
  15:.\Generated_Source\PSoC5/SW_Tx_UART_1.c **** #include "SW_Tx_UART_1_PVT.h"
  16:.\Generated_Source\PSoC5/SW_Tx_UART_1.c **** 
  17:.\Generated_Source\PSoC5/SW_Tx_UART_1.c **** #if(SW_Tx_UART_1_PIN_STATIC_MODE == 1u)
  18:.\Generated_Source\PSoC5/SW_Tx_UART_1.c ****     uint32 SW_Tx_UART_1_pinNumber = SW_Tx_UART_1_PIN_NUMBER;
  19:.\Generated_Source\PSoC5/SW_Tx_UART_1.c ****     uint32 SW_Tx_UART_1_pinPortNumber = SW_Tx_UART_1_PIN_PORT_NUMBER;
  20:.\Generated_Source\PSoC5/SW_Tx_UART_1.c ****     #if(CY_PSOC3)
  21:.\Generated_Source\PSoC5/SW_Tx_UART_1.c ****         uint32 pdata SW_Tx_UART_1_pinDrAdress = SW_Tx_UART_1_PIN_DR;
  22:.\Generated_Source\PSoC5/SW_Tx_UART_1.c ****     #else
  23:.\Generated_Source\PSoC5/SW_Tx_UART_1.c ****         uint32 SW_Tx_UART_1_pinDrAdress = SW_Tx_UART_1_PIN_DR;
  24:.\Generated_Source\PSoC5/SW_Tx_UART_1.c ****     #endif /* (CY_PSOC3) */
  25:.\Generated_Source\PSoC5/SW_Tx_UART_1.c **** #else
  26:.\Generated_Source\PSoC5/SW_Tx_UART_1.c ****     uint32 SW_Tx_UART_1_pinNumber;
  27:.\Generated_Source\PSoC5/SW_Tx_UART_1.c ****     uint32 SW_Tx_UART_1_pinPortNumber;
  28:.\Generated_Source\PSoC5/SW_Tx_UART_1.c ****     #if(CY_PSOC3)
  29:.\Generated_Source\PSoC5/SW_Tx_UART_1.c ****         uint32 pdata SW_Tx_UART_1_pinDrAdress;
  30:.\Generated_Source\PSoC5/SW_Tx_UART_1.c ****     #else
  31:.\Generated_Source\PSoC5/SW_Tx_UART_1.c ****         uint32 SW_Tx_UART_1_pinDrAdress;
ARM GAS  C:\Users\pxc\AppData\Local\Temp\ccrugPeJ.s 			page 2


  32:.\Generated_Source\PSoC5/SW_Tx_UART_1.c ****     #endif /* (CY_PSOC3) */
  33:.\Generated_Source\PSoC5/SW_Tx_UART_1.c **** #endif /* (SW_Tx_UART_1_PIN_STATIC_MODE == 1u) */
  34:.\Generated_Source\PSoC5/SW_Tx_UART_1.c **** 
  35:.\Generated_Source\PSoC5/SW_Tx_UART_1.c **** 
  36:.\Generated_Source\PSoC5/SW_Tx_UART_1.c **** #if(SW_Tx_UART_1_PIN_STATIC_MODE == 1u)
  37:.\Generated_Source\PSoC5/SW_Tx_UART_1.c ****     /*******************************************************************************
  38:.\Generated_Source\PSoC5/SW_Tx_UART_1.c ****     * Function Name: SW_Tx_UART_1_Start
  39:.\Generated_Source\PSoC5/SW_Tx_UART_1.c ****     ********************************************************************************
  40:.\Generated_Source\PSoC5/SW_Tx_UART_1.c ****     *
  41:.\Generated_Source\PSoC5/SW_Tx_UART_1.c ****     * Summary:
  42:.\Generated_Source\PSoC5/SW_Tx_UART_1.c ****     *  Empty function. Included for consistency with other
  43:.\Generated_Source\PSoC5/SW_Tx_UART_1.c ****     *  components. This API is not available when PinAssignmentMethod
  44:.\Generated_Source\PSoC5/SW_Tx_UART_1.c ****     *  is set to Dynamic.
  45:.\Generated_Source\PSoC5/SW_Tx_UART_1.c ****     *
  46:.\Generated_Source\PSoC5/SW_Tx_UART_1.c ****     * Parameters:
  47:.\Generated_Source\PSoC5/SW_Tx_UART_1.c ****     *  None
  48:.\Generated_Source\PSoC5/SW_Tx_UART_1.c ****     *
  49:.\Generated_Source\PSoC5/SW_Tx_UART_1.c ****     * Return:
  50:.\Generated_Source\PSoC5/SW_Tx_UART_1.c ****     *  None
  51:.\Generated_Source\PSoC5/SW_Tx_UART_1.c ****     *
  52:.\Generated_Source\PSoC5/SW_Tx_UART_1.c ****     *******************************************************************************/
  53:.\Generated_Source\PSoC5/SW_Tx_UART_1.c ****     void SW_Tx_UART_1_Start(void) 
  54:.\Generated_Source\PSoC5/SW_Tx_UART_1.c ****     {
  27              		.loc 1 54 0
  28              		.cfi_startproc
  29              		@ args = 0, pretend = 0, frame = 0
  30              		@ frame_needed = 0, uses_anonymous_args = 0
  31              		@ link register save eliminated.
  32 0000 7047     		bx	lr
  33              		.cfi_endproc
  34              	.LFE0:
  35              		.size	SW_Tx_UART_1_Start, .-SW_Tx_UART_1_Start
  36 0002 00BF     		.section	.text.SW_Tx_UART_1_Stop,"ax",%progbits
  37              		.align	2
  38              		.global	SW_Tx_UART_1_Stop
  39              		.thumb
  40              		.thumb_func
  41              		.type	SW_Tx_UART_1_Stop, %function
  42              	SW_Tx_UART_1_Stop:
  43              	.LFB1:
  55:.\Generated_Source\PSoC5/SW_Tx_UART_1.c **** 
  56:.\Generated_Source\PSoC5/SW_Tx_UART_1.c ****     }
  57:.\Generated_Source\PSoC5/SW_Tx_UART_1.c **** #else
  58:.\Generated_Source\PSoC5/SW_Tx_UART_1.c ****     /*******************************************************************************
  59:.\Generated_Source\PSoC5/SW_Tx_UART_1.c ****     * Function Name: SW_Tx_UART_1_StartEx
  60:.\Generated_Source\PSoC5/SW_Tx_UART_1.c ****     ********************************************************************************
  61:.\Generated_Source\PSoC5/SW_Tx_UART_1.c ****     *
  62:.\Generated_Source\PSoC5/SW_Tx_UART_1.c ****     * Summary:
  63:.\Generated_Source\PSoC5/SW_Tx_UART_1.c ****     *  Configures the SW Tx UART to use the pin specified
  64:.\Generated_Source\PSoC5/SW_Tx_UART_1.c ****     *  by the parameters. This API is only available when
  65:.\Generated_Source\PSoC5/SW_Tx_UART_1.c ****     *  PinAssignmentMethod is set to Dynamic.
  66:.\Generated_Source\PSoC5/SW_Tx_UART_1.c ****     *
  67:.\Generated_Source\PSoC5/SW_Tx_UART_1.c ****     * Parameters:
  68:.\Generated_Source\PSoC5/SW_Tx_UART_1.c ****     *  port:  Port number for dynamic pin assignment
  69:.\Generated_Source\PSoC5/SW_Tx_UART_1.c ****     *  pin:   Pin number for dynamic pin assignment
  70:.\Generated_Source\PSoC5/SW_Tx_UART_1.c ****     *
  71:.\Generated_Source\PSoC5/SW_Tx_UART_1.c ****     * Return:
ARM GAS  C:\Users\pxc\AppData\Local\Temp\ccrugPeJ.s 			page 3


  72:.\Generated_Source\PSoC5/SW_Tx_UART_1.c ****     *  None
  73:.\Generated_Source\PSoC5/SW_Tx_UART_1.c ****     *
  74:.\Generated_Source\PSoC5/SW_Tx_UART_1.c ****     *******************************************************************************/
  75:.\Generated_Source\PSoC5/SW_Tx_UART_1.c ****     void SW_Tx_UART_1_StartEx(uint8 port, uint8 pin) 
  76:.\Generated_Source\PSoC5/SW_Tx_UART_1.c ****     {
  77:.\Generated_Source\PSoC5/SW_Tx_UART_1.c ****         uint32 portConfigAddr;
  78:.\Generated_Source\PSoC5/SW_Tx_UART_1.c **** 
  79:.\Generated_Source\PSoC5/SW_Tx_UART_1.c ****         #if (CY_PSOC4)
  80:.\Generated_Source\PSoC5/SW_Tx_UART_1.c ****             uint32 portDataRegAddr;
  81:.\Generated_Source\PSoC5/SW_Tx_UART_1.c ****         #endif /* (CY_PSOC4) */
  82:.\Generated_Source\PSoC5/SW_Tx_UART_1.c **** 
  83:.\Generated_Source\PSoC5/SW_Tx_UART_1.c ****         if ((pin <= SW_Tx_UART_1_MAX_PIN_NUMBER) && (port <= SW_Tx_UART_1_MAX_PORT_NUMBER))
  84:.\Generated_Source\PSoC5/SW_Tx_UART_1.c ****         {
  85:.\Generated_Source\PSoC5/SW_Tx_UART_1.c ****             #if (!CY_PSOC4)
  86:.\Generated_Source\PSoC5/SW_Tx_UART_1.c ****                 portConfigAddr = SW_Tx_UART_1_PORT_CNF_BASE;
  87:.\Generated_Source\PSoC5/SW_Tx_UART_1.c ****                 portConfigAddr += ((uint32)port * (SW_Tx_UART_1_MAX_PIN_NUMBER + 1u)) + pin;
  88:.\Generated_Source\PSoC5/SW_Tx_UART_1.c ****                 CyPins_SetPinDriveMode(portConfigAddr, CY_PINS_DM_STRONG);
  89:.\Generated_Source\PSoC5/SW_Tx_UART_1.c ****                 CyPins_SetPin(portConfigAddr);
  90:.\Generated_Source\PSoC5/SW_Tx_UART_1.c ****                 SW_Tx_UART_1_pinDrAdress = portConfigAddr;
  91:.\Generated_Source\PSoC5/SW_Tx_UART_1.c ****             #else
  92:.\Generated_Source\PSoC5/SW_Tx_UART_1.c ****                 portConfigAddr = SW_Tx_UART_1_PORT_CNF_BASE + (SW_Tx_UART_1_PORT_CNF_SIZE * port) +
  93:.\Generated_Source\PSoC5/SW_Tx_UART_1.c ****                                                                                 SW_Tx_UART_1_PORT_C
  94:.\Generated_Source\PSoC5/SW_Tx_UART_1.c ****                 CY_SYS_PINS_SET_DRIVE_MODE(portConfigAddr, pin, CY_SYS_PINS_DM_STRONG);
  95:.\Generated_Source\PSoC5/SW_Tx_UART_1.c ****                 portDataRegAddr = SW_Tx_UART_1_PORT_CNF_BASE + (SW_Tx_UART_1_PORT_CNF_SIZE * port) 
  96:.\Generated_Source\PSoC5/SW_Tx_UART_1.c ****                                                                                 SW_Tx_UART_1_PORT_C
  97:.\Generated_Source\PSoC5/SW_Tx_UART_1.c ****                 CY_SYS_PINS_SET_PIN(portDataRegAddr, pin);
  98:.\Generated_Source\PSoC5/SW_Tx_UART_1.c ****                 SW_Tx_UART_1_pinDrAdress = portDataRegAddr;
  99:.\Generated_Source\PSoC5/SW_Tx_UART_1.c ****             #endif /* (!CY_PSOC4) */
 100:.\Generated_Source\PSoC5/SW_Tx_UART_1.c ****             SW_Tx_UART_1_pinNumber = pin;
 101:.\Generated_Source\PSoC5/SW_Tx_UART_1.c ****             SW_Tx_UART_1_pinPortNumber = port;
 102:.\Generated_Source\PSoC5/SW_Tx_UART_1.c ****         }
 103:.\Generated_Source\PSoC5/SW_Tx_UART_1.c ****     }
 104:.\Generated_Source\PSoC5/SW_Tx_UART_1.c **** #endif /* (SW_Tx_UART_1_PIN_STATIC_MODE == 1u) */
 105:.\Generated_Source\PSoC5/SW_Tx_UART_1.c **** 
 106:.\Generated_Source\PSoC5/SW_Tx_UART_1.c **** 
 107:.\Generated_Source\PSoC5/SW_Tx_UART_1.c **** /*******************************************************************************
 108:.\Generated_Source\PSoC5/SW_Tx_UART_1.c **** * Function Name: SW_Tx_UART_1_Stop
 109:.\Generated_Source\PSoC5/SW_Tx_UART_1.c **** ********************************************************************************
 110:.\Generated_Source\PSoC5/SW_Tx_UART_1.c **** *
 111:.\Generated_Source\PSoC5/SW_Tx_UART_1.c **** * Summary:
 112:.\Generated_Source\PSoC5/SW_Tx_UART_1.c **** *  Empty function. Included for consistency with other components.
 113:.\Generated_Source\PSoC5/SW_Tx_UART_1.c **** *
 114:.\Generated_Source\PSoC5/SW_Tx_UART_1.c **** * Parameters:
 115:.\Generated_Source\PSoC5/SW_Tx_UART_1.c **** *  None
 116:.\Generated_Source\PSoC5/SW_Tx_UART_1.c **** *
 117:.\Generated_Source\PSoC5/SW_Tx_UART_1.c **** * Return:
 118:.\Generated_Source\PSoC5/SW_Tx_UART_1.c **** *  None
 119:.\Generated_Source\PSoC5/SW_Tx_UART_1.c **** *
 120:.\Generated_Source\PSoC5/SW_Tx_UART_1.c **** *******************************************************************************/
 121:.\Generated_Source\PSoC5/SW_Tx_UART_1.c **** void SW_Tx_UART_1_Stop(void) 
 122:.\Generated_Source\PSoC5/SW_Tx_UART_1.c **** {
  44              		.loc 1 122 0
  45              		.cfi_startproc
  46              		@ args = 0, pretend = 0, frame = 0
  47              		@ frame_needed = 0, uses_anonymous_args = 0
  48              		@ link register save eliminated.
  49 0000 7047     		bx	lr
ARM GAS  C:\Users\pxc\AppData\Local\Temp\ccrugPeJ.s 			page 4


  50              		.cfi_endproc
  51              	.LFE1:
  52              		.size	SW_Tx_UART_1_Stop, .-SW_Tx_UART_1_Stop
  53 0002 00BF     		.section	.text.SW_Tx_UART_1_PutString,"ax",%progbits
  54              		.align	2
  55              		.global	SW_Tx_UART_1_PutString
  56              		.thumb
  57              		.thumb_func
  58              		.type	SW_Tx_UART_1_PutString, %function
  59              	SW_Tx_UART_1_PutString:
  60              	.LFB2:
 123:.\Generated_Source\PSoC5/SW_Tx_UART_1.c **** 
 124:.\Generated_Source\PSoC5/SW_Tx_UART_1.c **** }
 125:.\Generated_Source\PSoC5/SW_Tx_UART_1.c **** 
 126:.\Generated_Source\PSoC5/SW_Tx_UART_1.c **** 
 127:.\Generated_Source\PSoC5/SW_Tx_UART_1.c **** /*******************************************************************************
 128:.\Generated_Source\PSoC5/SW_Tx_UART_1.c **** * Function Name: SW_Tx_UART_1_PutString
 129:.\Generated_Source\PSoC5/SW_Tx_UART_1.c **** ********************************************************************************
 130:.\Generated_Source\PSoC5/SW_Tx_UART_1.c **** *
 131:.\Generated_Source\PSoC5/SW_Tx_UART_1.c **** * Summary:
 132:.\Generated_Source\PSoC5/SW_Tx_UART_1.c **** *  Sends a NULL terminated string via the Tx pin.
 133:.\Generated_Source\PSoC5/SW_Tx_UART_1.c **** *
 134:.\Generated_Source\PSoC5/SW_Tx_UART_1.c **** * Parameters:
 135:.\Generated_Source\PSoC5/SW_Tx_UART_1.c **** *  string: Pointer to the null terminated string to send
 136:.\Generated_Source\PSoC5/SW_Tx_UART_1.c **** *
 137:.\Generated_Source\PSoC5/SW_Tx_UART_1.c **** * Return:
 138:.\Generated_Source\PSoC5/SW_Tx_UART_1.c **** *  None
 139:.\Generated_Source\PSoC5/SW_Tx_UART_1.c **** *
 140:.\Generated_Source\PSoC5/SW_Tx_UART_1.c **** *******************************************************************************/
 141:.\Generated_Source\PSoC5/SW_Tx_UART_1.c **** void SW_Tx_UART_1_PutString(const char8 string[]) 
 142:.\Generated_Source\PSoC5/SW_Tx_UART_1.c **** {
  61              		.loc 1 142 0
  62              		.cfi_startproc
  63              		@ args = 0, pretend = 0, frame = 0
  64              		@ frame_needed = 0, uses_anonymous_args = 0
  65              	.LVL0:
  66              		.loc 1 142 0
  67 0000 38B5     		push	{r3, r4, r5, lr}
  68              		.cfi_def_cfa_offset 16
  69              		.cfi_offset 3, -16
  70              		.cfi_offset 4, -12
  71              		.cfi_offset 5, -8
  72              		.cfi_offset 14, -4
  73 0002 0546     		mov	r5, r0
  74              	.LVL1:
 143:.\Generated_Source\PSoC5/SW_Tx_UART_1.c ****     uint8 stringIndex = 1u;
 144:.\Generated_Source\PSoC5/SW_Tx_UART_1.c ****     char8 current = *string;
  75              		.loc 1 144 0
  76 0004 0078     		ldrb	r0, [r0]	@ zero_extendqisi2
  77              	.LVL2:
 143:.\Generated_Source\PSoC5/SW_Tx_UART_1.c ****     uint8 stringIndex = 1u;
  78              		.loc 1 143 0
  79 0006 0124     		movs	r4, #1
 145:.\Generated_Source\PSoC5/SW_Tx_UART_1.c **** 
 146:.\Generated_Source\PSoC5/SW_Tx_UART_1.c ****     /* Until null is reached, print next character */
 147:.\Generated_Source\PSoC5/SW_Tx_UART_1.c ****     while((char8) '\0' != current)
  80              		.loc 1 147 0
ARM GAS  C:\Users\pxc\AppData\Local\Temp\ccrugPeJ.s 			page 5


  81 0008 04E0     		b	.L4
  82              	.LVL3:
  83              	.L5:
 148:.\Generated_Source\PSoC5/SW_Tx_UART_1.c ****     {
 149:.\Generated_Source\PSoC5/SW_Tx_UART_1.c ****         SW_Tx_UART_1_PutChar((uint8)current);
  84              		.loc 1 149 0
  85 000a FFF7FEFF 		bl	SW_Tx_UART_1_PutChar
  86              	.LVL4:
 150:.\Generated_Source\PSoC5/SW_Tx_UART_1.c ****         current = string[stringIndex];
  87              		.loc 1 150 0
  88 000e 285D     		ldrb	r0, [r5, r4]	@ zero_extendqisi2
  89              	.LVL5:
 151:.\Generated_Source\PSoC5/SW_Tx_UART_1.c ****         stringIndex++;
  90              		.loc 1 151 0
  91 0010 0134     		adds	r4, r4, #1
  92              	.LVL6:
  93 0012 E4B2     		uxtb	r4, r4
  94              	.LVL7:
  95              	.L4:
 147:.\Generated_Source\PSoC5/SW_Tx_UART_1.c ****     {
  96              		.loc 1 147 0
  97 0014 0028     		cmp	r0, #0
  98 0016 F8D1     		bne	.L5
 152:.\Generated_Source\PSoC5/SW_Tx_UART_1.c ****     }
 153:.\Generated_Source\PSoC5/SW_Tx_UART_1.c **** }
  99              		.loc 1 153 0
 100 0018 38BD     		pop	{r3, r4, r5, pc}
 101              		.cfi_endproc
 102              	.LFE2:
 103              		.size	SW_Tx_UART_1_PutString, .-SW_Tx_UART_1_PutString
 104 001a 00BF     		.section	.text.SW_Tx_UART_1_PutArray,"ax",%progbits
 105              		.align	2
 106              		.global	SW_Tx_UART_1_PutArray
 107              		.thumb
 108              		.thumb_func
 109              		.type	SW_Tx_UART_1_PutArray, %function
 110              	SW_Tx_UART_1_PutArray:
 111              	.LFB3:
 154:.\Generated_Source\PSoC5/SW_Tx_UART_1.c **** 
 155:.\Generated_Source\PSoC5/SW_Tx_UART_1.c **** 
 156:.\Generated_Source\PSoC5/SW_Tx_UART_1.c **** /*******************************************************************************
 157:.\Generated_Source\PSoC5/SW_Tx_UART_1.c **** * Function Name: SW_Tx_UART_1_PutArray
 158:.\Generated_Source\PSoC5/SW_Tx_UART_1.c **** ********************************************************************************
 159:.\Generated_Source\PSoC5/SW_Tx_UART_1.c **** *
 160:.\Generated_Source\PSoC5/SW_Tx_UART_1.c **** * Summary:
 161:.\Generated_Source\PSoC5/SW_Tx_UART_1.c **** *  Sends byteCount bytes from a memory array via the Tx pin.
 162:.\Generated_Source\PSoC5/SW_Tx_UART_1.c **** *
 163:.\Generated_Source\PSoC5/SW_Tx_UART_1.c **** * Parameters:
 164:.\Generated_Source\PSoC5/SW_Tx_UART_1.c **** *  data: Pointer to the memory array
 165:.\Generated_Source\PSoC5/SW_Tx_UART_1.c **** *  byteCount: Number of bytes to be transmitted
 166:.\Generated_Source\PSoC5/SW_Tx_UART_1.c **** *
 167:.\Generated_Source\PSoC5/SW_Tx_UART_1.c **** * Return:
 168:.\Generated_Source\PSoC5/SW_Tx_UART_1.c **** *  None
 169:.\Generated_Source\PSoC5/SW_Tx_UART_1.c **** *
 170:.\Generated_Source\PSoC5/SW_Tx_UART_1.c **** *******************************************************************************/
 171:.\Generated_Source\PSoC5/SW_Tx_UART_1.c **** void SW_Tx_UART_1_PutArray(const uint8 array[], uint32 byteCount) 
 172:.\Generated_Source\PSoC5/SW_Tx_UART_1.c **** {
ARM GAS  C:\Users\pxc\AppData\Local\Temp\ccrugPeJ.s 			page 6


 112              		.loc 1 172 0
 113              		.cfi_startproc
 114              		@ args = 0, pretend = 0, frame = 0
 115              		@ frame_needed = 0, uses_anonymous_args = 0
 116              	.LVL8:
 117 0000 70B5     		push	{r4, r5, r6, lr}
 118              		.cfi_def_cfa_offset 16
 119              		.cfi_offset 4, -16
 120              		.cfi_offset 5, -12
 121              		.cfi_offset 6, -8
 122              		.cfi_offset 14, -4
 123 0002 0646     		mov	r6, r0
 124 0004 0D46     		mov	r5, r1
 125              	.LVL9:
 173:.\Generated_Source\PSoC5/SW_Tx_UART_1.c ****     uint32 arrayIndex;
 174:.\Generated_Source\PSoC5/SW_Tx_UART_1.c **** 
 175:.\Generated_Source\PSoC5/SW_Tx_UART_1.c ****     for (arrayIndex = 0u; arrayIndex < byteCount; arrayIndex++)
 126              		.loc 1 175 0
 127 0006 0024     		movs	r4, #0
 128 0008 03E0     		b	.L8
 129              	.LVL10:
 130              	.L9:
 176:.\Generated_Source\PSoC5/SW_Tx_UART_1.c ****     {
 177:.\Generated_Source\PSoC5/SW_Tx_UART_1.c ****         SW_Tx_UART_1_PutChar(array[arrayIndex]);
 131              		.loc 1 177 0 discriminator 3
 132 000a 305D     		ldrb	r0, [r6, r4]	@ zero_extendqisi2
 133 000c FFF7FEFF 		bl	SW_Tx_UART_1_PutChar
 134              	.LVL11:
 175:.\Generated_Source\PSoC5/SW_Tx_UART_1.c ****     {
 135              		.loc 1 175 0 discriminator 3
 136 0010 0134     		adds	r4, r4, #1
 137              	.LVL12:
 138              	.L8:
 175:.\Generated_Source\PSoC5/SW_Tx_UART_1.c ****     {
 139              		.loc 1 175 0 is_stmt 0 discriminator 1
 140 0012 AC42     		cmp	r4, r5
 141 0014 F9D3     		bcc	.L9
 178:.\Generated_Source\PSoC5/SW_Tx_UART_1.c ****     }
 179:.\Generated_Source\PSoC5/SW_Tx_UART_1.c **** }
 142              		.loc 1 179 0 is_stmt 1
 143 0016 70BD     		pop	{r4, r5, r6, pc}
 144              		.cfi_endproc
 145              	.LFE3:
 146              		.size	SW_Tx_UART_1_PutArray, .-SW_Tx_UART_1_PutArray
 147              		.section	.text.SW_Tx_UART_1_PutHexByte,"ax",%progbits
 148              		.align	2
 149              		.global	SW_Tx_UART_1_PutHexByte
 150              		.thumb
 151              		.thumb_func
 152              		.type	SW_Tx_UART_1_PutHexByte, %function
 153              	SW_Tx_UART_1_PutHexByte:
 154              	.LFB4:
 180:.\Generated_Source\PSoC5/SW_Tx_UART_1.c **** 
 181:.\Generated_Source\PSoC5/SW_Tx_UART_1.c **** 
 182:.\Generated_Source\PSoC5/SW_Tx_UART_1.c **** /*******************************************************************************
 183:.\Generated_Source\PSoC5/SW_Tx_UART_1.c **** * Function Name: SW_Tx_UART_1_PutHexByte
 184:.\Generated_Source\PSoC5/SW_Tx_UART_1.c **** ********************************************************************************
ARM GAS  C:\Users\pxc\AppData\Local\Temp\ccrugPeJ.s 			page 7


 185:.\Generated_Source\PSoC5/SW_Tx_UART_1.c **** *
 186:.\Generated_Source\PSoC5/SW_Tx_UART_1.c **** * Summary:
 187:.\Generated_Source\PSoC5/SW_Tx_UART_1.c **** *  Sends a byte in Hex representation (two characters, uppercase for A-F) via
 188:.\Generated_Source\PSoC5/SW_Tx_UART_1.c **** *  the Tx pin.
 189:.\Generated_Source\PSoC5/SW_Tx_UART_1.c **** *
 190:.\Generated_Source\PSoC5/SW_Tx_UART_1.c **** * Parameters:
 191:.\Generated_Source\PSoC5/SW_Tx_UART_1.c **** *  TxHexByte: The byte to be converted to ASCII characters and
 192:.\Generated_Source\PSoC5/SW_Tx_UART_1.c **** *             sent via the Tx pin.
 193:.\Generated_Source\PSoC5/SW_Tx_UART_1.c **** *
 194:.\Generated_Source\PSoC5/SW_Tx_UART_1.c **** * Return:
 195:.\Generated_Source\PSoC5/SW_Tx_UART_1.c **** *  None
 196:.\Generated_Source\PSoC5/SW_Tx_UART_1.c **** *
 197:.\Generated_Source\PSoC5/SW_Tx_UART_1.c **** *******************************************************************************/
 198:.\Generated_Source\PSoC5/SW_Tx_UART_1.c **** void SW_Tx_UART_1_PutHexByte(uint8 txHexByte) 
 199:.\Generated_Source\PSoC5/SW_Tx_UART_1.c **** {
 155              		.loc 1 199 0
 156              		.cfi_startproc
 157              		@ args = 0, pretend = 0, frame = 0
 158              		@ frame_needed = 0, uses_anonymous_args = 0
 159              	.LVL13:
 160 0000 38B5     		push	{r3, r4, r5, lr}
 161              		.cfi_def_cfa_offset 16
 162              		.cfi_offset 3, -16
 163              		.cfi_offset 4, -12
 164              		.cfi_offset 5, -8
 165              		.cfi_offset 14, -4
 166 0002 0446     		mov	r4, r0
 200:.\Generated_Source\PSoC5/SW_Tx_UART_1.c ****     static char8 const CYCODE SW_Tx_UART_1_hex[] = "0123456789ABCDEF";
 201:.\Generated_Source\PSoC5/SW_Tx_UART_1.c **** 
 202:.\Generated_Source\PSoC5/SW_Tx_UART_1.c ****     SW_Tx_UART_1_PutChar((uint8) SW_Tx_UART_1_hex[txHexByte >> SW_Tx_UART_1_BYTE_UPPER_NIBBLE_SHIFT
 167              		.loc 1 202 0
 168 0004 0309     		lsrs	r3, r0, #4
 169 0006 054D     		ldr	r5, .L13
 170 0008 E85C     		ldrb	r0, [r5, r3]	@ zero_extendqisi2
 171              	.LVL14:
 172 000a FFF7FEFF 		bl	SW_Tx_UART_1_PutChar
 173              	.LVL15:
 203:.\Generated_Source\PSoC5/SW_Tx_UART_1.c ****     SW_Tx_UART_1_PutChar((uint8) SW_Tx_UART_1_hex[txHexByte & SW_Tx_UART_1_BYTE_LOWER_NIBBLE_MASK])
 174              		.loc 1 203 0
 175 000e 04F00F04 		and	r4, r4, #15
 176 0012 285D     		ldrb	r0, [r5, r4]	@ zero_extendqisi2
 177 0014 FFF7FEFF 		bl	SW_Tx_UART_1_PutChar
 178              	.LVL16:
 179 0018 38BD     		pop	{r3, r4, r5, pc}
 180              	.L14:
 181 001a 00BF     		.align	2
 182              	.L13:
 183 001c 00000000 		.word	.LANCHOR0
 184              		.cfi_endproc
 185              	.LFE4:
 186              		.size	SW_Tx_UART_1_PutHexByte, .-SW_Tx_UART_1_PutHexByte
 187              		.section	.text.SW_Tx_UART_1_PutHexInt,"ax",%progbits
 188              		.align	2
 189              		.global	SW_Tx_UART_1_PutHexInt
 190              		.thumb
 191              		.thumb_func
 192              		.type	SW_Tx_UART_1_PutHexInt, %function
ARM GAS  C:\Users\pxc\AppData\Local\Temp\ccrugPeJ.s 			page 8


 193              	SW_Tx_UART_1_PutHexInt:
 194              	.LFB5:
 204:.\Generated_Source\PSoC5/SW_Tx_UART_1.c **** }
 205:.\Generated_Source\PSoC5/SW_Tx_UART_1.c **** 
 206:.\Generated_Source\PSoC5/SW_Tx_UART_1.c **** 
 207:.\Generated_Source\PSoC5/SW_Tx_UART_1.c **** /*******************************************************************************
 208:.\Generated_Source\PSoC5/SW_Tx_UART_1.c **** * Function Name: SW_Tx_UART_1_PutHexInt
 209:.\Generated_Source\PSoC5/SW_Tx_UART_1.c **** ********************************************************************************
 210:.\Generated_Source\PSoC5/SW_Tx_UART_1.c **** *
 211:.\Generated_Source\PSoC5/SW_Tx_UART_1.c **** * Summary:
 212:.\Generated_Source\PSoC5/SW_Tx_UART_1.c **** *  Sends a 16-bit unsigned integer in Hex representation (four characters,
 213:.\Generated_Source\PSoC5/SW_Tx_UART_1.c **** *  uppercase for A-F) via the Tx pin.
 214:.\Generated_Source\PSoC5/SW_Tx_UART_1.c **** *
 215:.\Generated_Source\PSoC5/SW_Tx_UART_1.c **** * Parameters:
 216:.\Generated_Source\PSoC5/SW_Tx_UART_1.c **** *  TxHexInt: The uint16 to be converted to ASCII characters and sent via
 217:.\Generated_Source\PSoC5/SW_Tx_UART_1.c **** *            the Tx pin.
 218:.\Generated_Source\PSoC5/SW_Tx_UART_1.c **** *
 219:.\Generated_Source\PSoC5/SW_Tx_UART_1.c **** * Return:
 220:.\Generated_Source\PSoC5/SW_Tx_UART_1.c **** *  None
 221:.\Generated_Source\PSoC5/SW_Tx_UART_1.c **** *
 222:.\Generated_Source\PSoC5/SW_Tx_UART_1.c **** *******************************************************************************/
 223:.\Generated_Source\PSoC5/SW_Tx_UART_1.c **** void SW_Tx_UART_1_PutHexInt(uint16 txHexInt) 
 224:.\Generated_Source\PSoC5/SW_Tx_UART_1.c **** {
 195              		.loc 1 224 0
 196              		.cfi_startproc
 197              		@ args = 0, pretend = 0, frame = 0
 198              		@ frame_needed = 0, uses_anonymous_args = 0
 199              	.LVL17:
 200 0000 10B5     		push	{r4, lr}
 201              		.cfi_def_cfa_offset 8
 202              		.cfi_offset 4, -8
 203              		.cfi_offset 14, -4
 204 0002 0446     		mov	r4, r0
 225:.\Generated_Source\PSoC5/SW_Tx_UART_1.c ****     SW_Tx_UART_1_PutHexByte((uint8)(txHexInt >> SW_Tx_UART_1_U16_UPPER_BYTE_SHIFT));
 205              		.loc 1 225 0
 206 0004 000A     		lsrs	r0, r0, #8
 207              	.LVL18:
 208 0006 FFF7FEFF 		bl	SW_Tx_UART_1_PutHexByte
 209              	.LVL19:
 226:.\Generated_Source\PSoC5/SW_Tx_UART_1.c ****     SW_Tx_UART_1_PutHexByte((uint8)(txHexInt & SW_Tx_UART_1_U16_LOWER_BYTE_MASK));
 210              		.loc 1 226 0
 211 000a E0B2     		uxtb	r0, r4
 212 000c FFF7FEFF 		bl	SW_Tx_UART_1_PutHexByte
 213              	.LVL20:
 214 0010 10BD     		pop	{r4, pc}
 215              		.cfi_endproc
 216              	.LFE5:
 217              		.size	SW_Tx_UART_1_PutHexInt, .-SW_Tx_UART_1_PutHexInt
 218 0012 00BF     		.section	.text.SW_Tx_UART_1_PutCRLF,"ax",%progbits
 219              		.align	2
 220              		.global	SW_Tx_UART_1_PutCRLF
 221              		.thumb
 222              		.thumb_func
 223              		.type	SW_Tx_UART_1_PutCRLF, %function
 224              	SW_Tx_UART_1_PutCRLF:
 225              	.LFB6:
 227:.\Generated_Source\PSoC5/SW_Tx_UART_1.c **** }
ARM GAS  C:\Users\pxc\AppData\Local\Temp\ccrugPeJ.s 			page 9


 228:.\Generated_Source\PSoC5/SW_Tx_UART_1.c **** 
 229:.\Generated_Source\PSoC5/SW_Tx_UART_1.c **** 
 230:.\Generated_Source\PSoC5/SW_Tx_UART_1.c **** /*******************************************************************************
 231:.\Generated_Source\PSoC5/SW_Tx_UART_1.c **** * Function Name: SW_Tx_UART_1_PutCRLF
 232:.\Generated_Source\PSoC5/SW_Tx_UART_1.c **** ********************************************************************************
 233:.\Generated_Source\PSoC5/SW_Tx_UART_1.c **** *
 234:.\Generated_Source\PSoC5/SW_Tx_UART_1.c **** * Summary:
 235:.\Generated_Source\PSoC5/SW_Tx_UART_1.c **** *  Sends a carriage return (0x0D) and a line feed (0x0A) via the Tx pin.
 236:.\Generated_Source\PSoC5/SW_Tx_UART_1.c **** *
 237:.\Generated_Source\PSoC5/SW_Tx_UART_1.c **** * Parameters:
 238:.\Generated_Source\PSoC5/SW_Tx_UART_1.c **** *  None
 239:.\Generated_Source\PSoC5/SW_Tx_UART_1.c **** *
 240:.\Generated_Source\PSoC5/SW_Tx_UART_1.c **** * Return:
 241:.\Generated_Source\PSoC5/SW_Tx_UART_1.c **** *  None
 242:.\Generated_Source\PSoC5/SW_Tx_UART_1.c **** *
 243:.\Generated_Source\PSoC5/SW_Tx_UART_1.c **** *******************************************************************************/
 244:.\Generated_Source\PSoC5/SW_Tx_UART_1.c **** void SW_Tx_UART_1_PutCRLF(void) 
 245:.\Generated_Source\PSoC5/SW_Tx_UART_1.c **** {
 226              		.loc 1 245 0
 227              		.cfi_startproc
 228              		@ args = 0, pretend = 0, frame = 0
 229              		@ frame_needed = 0, uses_anonymous_args = 0
 230 0000 08B5     		push	{r3, lr}
 231              		.cfi_def_cfa_offset 8
 232              		.cfi_offset 3, -8
 233              		.cfi_offset 14, -4
 246:.\Generated_Source\PSoC5/SW_Tx_UART_1.c ****     SW_Tx_UART_1_PutChar(0x0Du);
 234              		.loc 1 246 0
 235 0002 0D20     		movs	r0, #13
 236 0004 FFF7FEFF 		bl	SW_Tx_UART_1_PutChar
 237              	.LVL21:
 247:.\Generated_Source\PSoC5/SW_Tx_UART_1.c ****     SW_Tx_UART_1_PutChar(0x0Au);
 238              		.loc 1 247 0
 239 0008 0A20     		movs	r0, #10
 240 000a FFF7FEFF 		bl	SW_Tx_UART_1_PutChar
 241              	.LVL22:
 242 000e 08BD     		pop	{r3, pc}
 243              		.cfi_endproc
 244              	.LFE6:
 245              		.size	SW_Tx_UART_1_PutCRLF, .-SW_Tx_UART_1_PutCRLF
 246              		.global	SW_Tx_UART_1_pinDrAdress
 247              		.global	SW_Tx_UART_1_pinPortNumber
 248              		.global	SW_Tx_UART_1_pinNumber
 249              		.section	.rodata
 250              		.align	2
 251              		.set	.LANCHOR0,. + 0
 252              		.type	SW_Tx_UART_1_hex.4186, %object
 253              		.size	SW_Tx_UART_1_hex.4186, 17
 254              	SW_Tx_UART_1_hex.4186:
 255 0000 30313233 		.ascii	"0123456789ABCDEF\000"
 255      34353637 
 255      38394142 
 255      43444546 
 255      00
 256 0011 000000   		.data
 257              		.align	2
 258              		.type	SW_Tx_UART_1_pinDrAdress, %object
ARM GAS  C:\Users\pxc\AppData\Local\Temp\ccrugPeJ.s 			page 10


 259              		.size	SW_Tx_UART_1_pinDrAdress, 4
 260              	SW_Tx_UART_1_pinDrAdress:
 261 0000 02500040 		.word	1073762306
 262              		.type	SW_Tx_UART_1_pinNumber, %object
 263              		.size	SW_Tx_UART_1_pinNumber, 4
 264              	SW_Tx_UART_1_pinNumber:
 265 0004 02000000 		.word	2
 266              		.bss
 267              		.align	2
 268              		.type	SW_Tx_UART_1_pinPortNumber, %object
 269              		.size	SW_Tx_UART_1_pinPortNumber, 4
 270              	SW_Tx_UART_1_pinPortNumber:
 271 0000 00000000 		.space	4
 272              		.text
 273              	.Letext0:
 274              		.file 2 ".\\Generated_Source\\PSoC5\\cytypes.h"
 275              		.file 3 ".\\Generated_Source\\PSoC5\\SW_Tx_UART_1.h"