ARM GAS  C:\Users\pxc\AppData\Local\Temp\cc1FLCWQ.s 			page 1


   1              		.syntax unified
   2              		.cpu cortex-m3
   3              		.fpu softvfp
   4              		.eabi_attribute 20, 1
   5              		.eabi_attribute 21, 1
   6              		.eabi_attribute 23, 3
   7              		.eabi_attribute 24, 1
   8              		.eabi_attribute 25, 1
   9              		.eabi_attribute 26, 1
  10              		.eabi_attribute 30, 1
  11              		.eabi_attribute 34, 1
  12              		.eabi_attribute 18, 4
  13              		.thumb
  14              		.file	"systemInfo.c"
  15              		.text
  16              	.Ltext0:
  17              		.cfi_sections	.debug_frame
  18              		.section	.text.SystemInfo_Init,"ax",%progbits
  19              		.align	2
  20              		.global	SystemInfo_Init
  21              		.thumb
  22              		.thumb_func
  23              		.type	SystemInfo_Init, %function
  24              	SystemInfo_Init:
  25              	.LFB63:
  26              		.file 1 ".\\systemInfo.c"
   1:.\systemInfo.c **** /* ========================================
   2:.\systemInfo.c ****  *
   3:.\systemInfo.c ****  * Copyright YOUR COMPANY, THE YEAR
   4:.\systemInfo.c ****  * All Rights Reserved
   5:.\systemInfo.c ****  * UNPUBLISHED, LICENSED SOFTWARE.
   6:.\systemInfo.c ****  *
   7:.\systemInfo.c ****  * CONFIDENTIAL AND PROPRIETARY INFORMATION
   8:.\systemInfo.c ****  * WHICH IS THE PROPERTY OF your company.
   9:.\systemInfo.c ****  *
  10:.\systemInfo.c ****  * ========================================
  11:.\systemInfo.c **** */
  12:.\systemInfo.c **** #include "systemInfo.h"
  13:.\systemInfo.c **** #include "car.h"
  14:.\systemInfo.c **** #include "led.h"
  15:.\systemInfo.c **** uint16  time_count;
  16:.\systemInfo.c **** #define BYTE0(dwTemp)       ( *( (char *)(&dwTemp)	  ) )
  17:.\systemInfo.c **** #define BYTE1(dwTemp)       ( *( (char *)(&dwTemp) + 1) )
  18:.\systemInfo.c **** #define BYTE2(dwTemp)       ( *( (char *)(&dwTemp) + 2) )
  19:.\systemInfo.c **** #define BYTE3(dwTemp)       ( *( (char *)(&dwTemp) + 3) )
  20:.\systemInfo.c **** void SystemInfo_Init()
  21:.\systemInfo.c **** {
  27              		.loc 1 21 0
  28              		.cfi_startproc
  29              		@ args = 0, pretend = 0, frame = 0
  30              		@ frame_needed = 0, uses_anonymous_args = 0
  31 0000 38B5     		push	{r3, r4, r5, lr}
  32              		.cfi_def_cfa_offset 16
  33              		.cfi_offset 3, -16
  34              		.cfi_offset 4, -12
  35              		.cfi_offset 5, -8
  36              		.cfi_offset 14, -4
ARM GAS  C:\Users\pxc\AppData\Local\Temp\cc1FLCWQ.s 			page 2


  37              	.LVL0:
  22:.\systemInfo.c ****     uint16 temp = 0x00;
  23:.\systemInfo.c ****    // temp = EEPROM_Array_Read(&g_Car.systeminfo,sizeof(g_Car.systeminfo));
  24:.\systemInfo.c ****     g_Car.systeminfo.totol_run_count = 0;
  38              		.loc 1 24 0
  39 0002 0C4D     		ldr	r5, .L3
  40 0004 0023     		movs	r3, #0
  41 0006 2B86     		strh	r3, [r5, #48]	@ movhi
  25:.\systemInfo.c ****     g_Car.systeminfo.totol_run_count = (uint16)(EEPROM_ReadByte(1)<<8|EEPROM_ReadByte(2)); 
  42              		.loc 1 25 0
  43 0008 0120     		movs	r0, #1
  44 000a FFF7FEFF 		bl	EEPROM_ReadByte
  45              	.LVL1:
  46 000e 0402     		lsls	r4, r0, #8
  47 0010 0220     		movs	r0, #2
  48 0012 FFF7FEFF 		bl	EEPROM_ReadByte
  49              	.LVL2:
  50 0016 2043     		orrs	r0, r0, r4
  26:.\systemInfo.c ****     g_Car.systeminfo.totol_run_count++;
  51              		.loc 1 26 0
  52 0018 0130     		adds	r0, r0, #1
  53 001a 80B2     		uxth	r0, r0
  54 001c 2886     		strh	r0, [r5, #48]	@ movhi
  27:.\systemInfo.c ****     EEPROM_WriteByte(g_Car.systeminfo.totol_run_count>>8,1);
  55              		.loc 1 27 0
  56 001e 000A     		lsrs	r0, r0, #8
  57 0020 0121     		movs	r1, #1
  58 0022 FFF7FEFF 		bl	EEPROM_WriteByte
  59              	.LVL3:
  28:.\systemInfo.c ****     EEPROM_WriteByte(g_Car.systeminfo.totol_run_count,2); 
  60              		.loc 1 28 0
  61 0026 95F83000 		ldrb	r0, [r5, #48]	@ zero_extendqisi2
  62 002a 0221     		movs	r1, #2
  63 002c FFF7FEFF 		bl	EEPROM_WriteByte
  64              	.LVL4:
  65 0030 38BD     		pop	{r3, r4, r5, pc}
  66              	.L4:
  67 0032 00BF     		.align	2
  68              	.L3:
  69 0034 00000000 		.word	g_Car
  70              		.cfi_endproc
  71              	.LFE63:
  72              		.size	SystemInfo_Init, .-SystemInfo_Init
  73              		.section	.text.Cal_time,"ax",%progbits
  74              		.align	2
  75              		.global	Cal_time
  76              		.thumb
  77              		.thumb_func
  78              		.type	Cal_time, %function
  79              	Cal_time:
  80              	.LFB64:
  29:.\systemInfo.c **** }
  30:.\systemInfo.c **** void Cal_time()
  31:.\systemInfo.c **** {
  81              		.loc 1 31 0
  82              		.cfi_startproc
  83              		@ args = 0, pretend = 0, frame = 0
ARM GAS  C:\Users\pxc\AppData\Local\Temp\cc1FLCWQ.s 			page 3


  84              		@ frame_needed = 0, uses_anonymous_args = 0
  85              		@ link register save eliminated.
  32:.\systemInfo.c ****    g_Car.systeminfo.cur_run_time++;
  86              		.loc 1 32 0
  87 0000 074B     		ldr	r3, .L7
  88 0002 5A8E     		ldrh	r2, [r3, #50]
  89 0004 0132     		adds	r2, r2, #1
  90 0006 5A86     		strh	r2, [r3, #50]	@ movhi
  33:.\systemInfo.c ****    time_count++;
  91              		.loc 1 33 0
  92 0008 0649     		ldr	r1, .L7+4
  93 000a 0A88     		ldrh	r2, [r1]
  94 000c 0132     		adds	r2, r2, #1
  95 000e 0A80     		strh	r2, [r1]	@ movhi
  34:.\systemInfo.c ****    if(g_Car.set_dir != STOP)
  96              		.loc 1 34 0
  97 0010 9B78     		ldrb	r3, [r3, #2]	@ zero_extendqisi2
  98 0012 082B     		cmp	r3, #8
  99 0014 03D0     		beq	.L5
  35:.\systemInfo.c ****    {
  36:.\systemInfo.c ****       g_Car.systeminfo.car_runing_time ++;
 100              		.loc 1 36 0
 101 0016 024A     		ldr	r2, .L7
 102 0018 938E     		ldrh	r3, [r2, #52]
 103 001a 0133     		adds	r3, r3, #1
 104 001c 9386     		strh	r3, [r2, #52]	@ movhi
 105              	.L5:
 106 001e 7047     		bx	lr
 107              	.L8:
 108              		.align	2
 109              	.L7:
 110 0020 00000000 		.word	g_Car
 111 0024 00000000 		.word	time_count
 112              		.cfi_endproc
 113              	.LFE64:
 114              		.size	Cal_time, .-Cal_time
 115              		.section	.text.EEPROM_Array_Read,"ax",%progbits
 116              		.align	2
 117              		.global	EEPROM_Array_Read
 118              		.thumb
 119              		.thumb_func
 120              		.type	EEPROM_Array_Read, %function
 121              	EEPROM_Array_Read:
 122              	.LFB65:
  37:.\systemInfo.c ****    }
  38:.\systemInfo.c **** }
  39:.\systemInfo.c **** void EEPROM_Array_Read(uint8 *buf,uint16 len)
  40:.\systemInfo.c **** {
 123              		.loc 1 40 0
 124              		.cfi_startproc
 125              		@ args = 0, pretend = 0, frame = 0
 126              		@ frame_needed = 0, uses_anonymous_args = 0
 127              	.LVL5:
 128 0000 70B5     		push	{r4, r5, r6, lr}
 129              		.cfi_def_cfa_offset 16
 130              		.cfi_offset 4, -16
 131              		.cfi_offset 5, -12
ARM GAS  C:\Users\pxc\AppData\Local\Temp\cc1FLCWQ.s 			page 4


 132              		.cfi_offset 6, -8
 133              		.cfi_offset 14, -4
 134 0002 0646     		mov	r6, r0
 135 0004 0D46     		mov	r5, r1
 136              	.LVL6:
  41:.\systemInfo.c **** 	reg8 * RegPointer;
  42:.\systemInfo.c **** 	uint16 i;
  43:.\systemInfo.c ****     
  44:.\systemInfo.c **** 	for(i = 0; i < len; i++)
 137              		.loc 1 44 0
 138 0006 0024     		movs	r4, #0
 139 0008 05E0     		b	.L10
 140              	.LVL7:
 141              	.L11:
  45:.\systemInfo.c **** 	{
  46:.\systemInfo.c **** 		buf[i] = EEPROM_ReadByte(i);
 142              		.loc 1 46 0 discriminator 3
 143 000a 2046     		mov	r0, r4
 144 000c FFF7FEFF 		bl	EEPROM_ReadByte
 145              	.LVL8:
 146 0010 3055     		strb	r0, [r6, r4]
  44:.\systemInfo.c **** 	{
 147              		.loc 1 44 0 discriminator 3
 148 0012 0134     		adds	r4, r4, #1
 149              	.LVL9:
 150 0014 A4B2     		uxth	r4, r4
 151              	.LVL10:
 152              	.L10:
  44:.\systemInfo.c **** 	{
 153              		.loc 1 44 0 is_stmt 0 discriminator 1
 154 0016 AC42     		cmp	r4, r5
 155 0018 F7D3     		bcc	.L11
  47:.\systemInfo.c **** 	}
  48:.\systemInfo.c **** }
 156              		.loc 1 48 0 is_stmt 1
 157 001a 70BD     		pop	{r4, r5, r6, pc}
 158              		.cfi_endproc
 159              	.LFE65:
 160              		.size	EEPROM_Array_Read, .-EEPROM_Array_Read
 161              		.section	.text.System_check,"ax",%progbits
 162              		.align	2
 163              		.global	System_check
 164              		.thumb
 165              		.thumb_func
 166              		.type	System_check, %function
 167              	System_check:
 168              	.LFB66:
  49:.\systemInfo.c **** void System_check()
  50:.\systemInfo.c **** {
 169              		.loc 1 50 0
 170              		.cfi_startproc
 171              		@ args = 0, pretend = 0, frame = 0
 172              		@ frame_needed = 0, uses_anonymous_args = 0
 173              		@ link register save eliminated.
 174 0000 7047     		bx	lr
 175              		.cfi_endproc
 176              	.LFE66:
ARM GAS  C:\Users\pxc\AppData\Local\Temp\cc1FLCWQ.s 			page 5


 177              		.size	System_check, .-System_check
 178              		.comm	time_count,2,2
 179              		.comm	g_Car,64,4
 180 0002 00BF     		.text
 181              	.Letext0:
 182              		.file 2 "c:\\program files (x86)\\cypress\\psoc creator\\3.3\\psoc creator\\import\\gnu\\arm\\4.9.
 183              		.file 3 "c:\\program files (x86)\\cypress\\psoc creator\\3.3\\psoc creator\\import\\gnu\\arm\\4.9.
 184              		.file 4 "Generated_Source\\PSoC5/cytypes.h"
 185              		.file 5 ".\\car.h"
 186              		.file 6 "Generated_Source\\PSoC5/core_cm3.h"
 187              		.file 7 "Generated_Source\\PSoC5/EEPROM.h"