ARM GAS  C:\Users\pxc\AppData\Local\Temp\cc2eOiEg.s 			page 1


   1              		.syntax unified
   2              		.cpu cortex-m3
   3              		.fpu softvfp
   4              		.eabi_attribute 20, 1
   5              		.eabi_attribute 21, 1
   6              		.eabi_attribute 23, 3
   7              		.eabi_attribute 24, 1
   8              		.eabi_attribute 25, 1
   9              		.eabi_attribute 26, 1
  10              		.eabi_attribute 30, 1
  11              		.eabi_attribute 34, 1
  12              		.eabi_attribute 18, 4
  13              		.thumb
  14              		.file	"Transfer.c"
  15              		.text
  16              	.Ltext0:
  17              		.cfi_sections	.debug_frame
  18              		.section	.text.DT_Send_Data,"ax",%progbits
  19              		.align	2
  20              		.global	DT_Send_Data
  21              		.thumb
  22              		.thumb_func
  23              		.type	DT_Send_Data, %function
  24              	DT_Send_Data:
  25              	.LFB64:
  26              		.file 1 ".\\Transfer.c"
   1:.\Transfer.c  **** #include "Transfer.h"
   2:.\Transfer.c  **** #include "car.h"
   3:.\Transfer.c  **** #include "battery.h"
   4:.\Transfer.c  **** #include "Lidar.h"
   5:.\Transfer.c  **** 
   6:.\Transfer.c  **** #define BYTE0(dwTemp)       ( *( (char *)(&dwTemp)	  ) )
   7:.\Transfer.c  **** #define BYTE1(dwTemp)       ( *( (char *)(&dwTemp) + 1) )
   8:.\Transfer.c  **** #define BYTE2(dwTemp)       ( *( (char *)(&dwTemp) + 2) )
   9:.\Transfer.c  **** #define BYTE3(dwTemp)       ( *( (char *)(&dwTemp) + 3) )
  10:.\Transfer.c  **** 
  11:.\Transfer.c  **** dt_flag_t f;					//需要发送数据的标志
  12:.\Transfer.c  **** uint8 data_to_send[50];     	//发送数据缓存
  13:.\Transfer.c  **** 
  14:.\Transfer.c  **** extern uint16 time_count;
  15:.\Transfer.c  **** void DT_Data_Exchange(void)
  16:.\Transfer.c  **** {
  17:.\Transfer.c  ****     static float temp_pitch;
  18:.\Transfer.c  ****     static float tmep_roll;
  19:.\Transfer.c  ****     static float temp_yaw;
  20:.\Transfer.c  ****     
  21:.\Transfer.c  **** 	static uint8 cnt = 0;
  22:.\Transfer.c  **** 	static uint8 senser_cnt 	=   5;
  23:.\Transfer.c  **** 	static uint8 status_cnt 	=   11;
  24:.\Transfer.c  **** 	static uint8 distance_cnt 	=   13;
  25:.\Transfer.c  **** 	static uint8 motopwm_cnt	=   20;
  26:.\Transfer.c  **** 	static uint8 power_cnt		=	8;
  27:.\Transfer.c  **** 	
  28:.\Transfer.c  **** 	if((cnt % senser_cnt) == (senser_cnt-1))
  29:.\Transfer.c  **** 		f.send_senser = 1;	
  30:.\Transfer.c  **** 	
  31:.\Transfer.c  **** 	if((cnt % status_cnt) == (status_cnt-1))
ARM GAS  C:\Users\pxc\AppData\Local\Temp\cc2eOiEg.s 			page 2


  32:.\Transfer.c  **** 		f.send_status = 1;	
  33:.\Transfer.c  **** 	
  34:.\Transfer.c  **** 	if((cnt % distance_cnt) == (distance_cnt-1))
  35:.\Transfer.c  **** 		f.send_distance = 1;	
  36:.\Transfer.c  **** 	
  37:.\Transfer.c  **** 	if((cnt % motopwm_cnt) == (motopwm_cnt-1))
  38:.\Transfer.c  **** 		f.send_motopwm = 1;	
  39:.\Transfer.c  ****     
  40:.\Transfer.c  **** 	if((cnt % power_cnt)   == (power_cnt-1))
  41:.\Transfer.c  **** 		f.send_power = 1;		
  42:.\Transfer.c  ****     
  43:.\Transfer.c  **** 	cnt++;
  44:.\Transfer.c  **** /////////////////////////////////////////////////////////////////////////////////////
  45:.\Transfer.c  **** 	if(f.send_version)
  46:.\Transfer.c  **** 	{
  47:.\Transfer.c  ****         
  48:.\Transfer.c  **** 		f.send_version ++;
  49:.\Transfer.c  ****         if(f.send_version == 50)
  50:.\Transfer.c  ****         {
  51:.\Transfer.c  ****             f.send_version = 0;
  52:.\Transfer.c  ****         }
  53:.\Transfer.c  **** 	    DT_Send_SystemInfo(g_Car.systeminfo.hardware_ver,g_Car.systeminfo.software_ver,g_Car.systeminf
  54:.\Transfer.c  **** 	}
  55:.\Transfer.c  **** /////////////////////////////////////////////////////////////////////////////////////
  56:.\Transfer.c  **** 	else if(f.send_status)
  57:.\Transfer.c  **** 	{
  58:.\Transfer.c  **** 		f.send_status = 0;
  59:.\Transfer.c  ****     	DT_Send_Status(0,g_Car.set_dir,g_Car.set_car_speed,P_V,g_Car.Xkm);
  60:.\Transfer.c  **** 
  61:.\Transfer.c  **** 	}	
  62:.\Transfer.c  **** /////////////////////////////////////////////////////////////////////////////////////
  63:.\Transfer.c  ****     else if(f.send_senser)
  64:.\Transfer.c  **** 	{
  65:.\Transfer.c  **** 		f.send_senser = 0;
  66:.\Transfer.c  ****         temp_pitch =  (S_IMU.pitch/32768.0*180);
  67:.\Transfer.c  ****         tmep_roll =   (S_IMU.roll/32768.0*180);
  68:.\Transfer.c  ****         temp_yaw   =  (S_IMU.yaw/32768.0*180);
  69:.\Transfer.c  ****       
  70:.\Transfer.c  **** 	    DT_Send_Senser(temp_pitch*1000,tmep_roll*1000,temp_yaw*1000,0,0,0);
  71:.\Transfer.c  **** 	}	
  72:.\Transfer.c  **** ///////////////////////////////////////////////////////////////////////////////////////
  73:.\Transfer.c  **** 
  74:.\Transfer.c  **** /////////////////////////////////////////////////////////////////////////////////////// 
  75:.\Transfer.c  ****     else if(f.send_distance)
  76:.\Transfer.c  **** 	{
  77:.\Transfer.c  **** 	   f.send_distance = 0;
  78:.\Transfer.c  **** 	   DT_Send_Distance(g_Car.distance_front,g_Car.distance_back);
  79:.\Transfer.c  ****          
  80:.\Transfer.c  **** 	}
  81:.\Transfer.c  **** 	else if(f.send_power)
  82:.\Transfer.c  **** 	{
  83:.\Transfer.c  **** 		f.send_power = 0;
  84:.\Transfer.c  ****         DT_Send_Power(C_V,D_V);
  85:.\Transfer.c  ****         
  86:.\Transfer.c  **** 	}
  87:.\Transfer.c  **** 
  88:.\Transfer.c  **** ///////////////////////////////////////////////////////////////////////////////////////
ARM GAS  C:\Users\pxc\AppData\Local\Temp\cc2eOiEg.s 			page 3


  89:.\Transfer.c  **** 
  90:.\Transfer.c  **** }
  91:.\Transfer.c  **** 
  92:.\Transfer.c  **** /////////////////////////////////////////////////////////////////////////////////////
  93:.\Transfer.c  **** 
  94:.\Transfer.c  **** void DT_Send_Data(uint8 *dataToSend , uint8 length)
  95:.\Transfer.c  **** {
  27              		.loc 1 95 0
  28              		.cfi_startproc
  29              		@ args = 0, pretend = 0, frame = 0
  30              		@ frame_needed = 0, uses_anonymous_args = 0
  31              	.LVL0:
  32 0000 08B5     		push	{r3, lr}
  33              		.cfi_def_cfa_offset 8
  34              		.cfi_offset 3, -8
  35              		.cfi_offset 14, -4
  96:.\Transfer.c  ****     UART_net_PutArray(dataToSend,length);
  36              		.loc 1 96 0
  37 0002 FFF7FEFF 		bl	UART_net_PutArray
  38              	.LVL1:
  39 0006 08BD     		pop	{r3, pc}
  40              		.cfi_endproc
  41              	.LFE64:
  42              		.size	DT_Send_Data, .-DT_Send_Data
  43              		.section	.text.DT_Send_Check,"ax",%progbits
  44              		.align	2
  45              		.thumb
  46              		.thumb_func
  47              		.type	DT_Send_Check, %function
  48              	DT_Send_Check:
  49              	.LFB65:
  97:.\Transfer.c  **** }
  98:.\Transfer.c  **** 
  99:.\Transfer.c  **** static void DT_Send_Check(uint8 head, uint8 check_sum)
 100:.\Transfer.c  **** {
  50              		.loc 1 100 0
  51              		.cfi_startproc
  52              		@ args = 0, pretend = 0, frame = 0
  53              		@ frame_needed = 0, uses_anonymous_args = 0
  54              	.LVL2:
  55 0000 08B5     		push	{r3, lr}
  56              		.cfi_def_cfa_offset 8
  57              		.cfi_offset 3, -8
  58              		.cfi_offset 14, -4
 101:.\Transfer.c  **** 	data_to_send[0]=0xAA;
  59              		.loc 1 101 0
  60 0002 0D4B     		ldr	r3, .L7
  61 0004 AA22     		movs	r2, #170
  62 0006 1A70     		strb	r2, [r3]
 102:.\Transfer.c  **** 	data_to_send[1]=0xAA;
  63              		.loc 1 102 0
  64 0008 5A70     		strb	r2, [r3, #1]
 103:.\Transfer.c  **** 	data_to_send[2]=0xEF;
  65              		.loc 1 103 0
  66 000a EF22     		movs	r2, #239
  67 000c 9A70     		strb	r2, [r3, #2]
 104:.\Transfer.c  **** 	data_to_send[3]=2;
ARM GAS  C:\Users\pxc\AppData\Local\Temp\cc2eOiEg.s 			page 4


  68              		.loc 1 104 0
  69 000e 0222     		movs	r2, #2
  70 0010 DA70     		strb	r2, [r3, #3]
 105:.\Transfer.c  **** 	data_to_send[4]=head;
  71              		.loc 1 105 0
  72 0012 1871     		strb	r0, [r3, #4]
 106:.\Transfer.c  **** 	data_to_send[5]=check_sum;
  73              		.loc 1 106 0
  74 0014 5971     		strb	r1, [r3, #5]
  75              	.LVL3:
 107:.\Transfer.c  **** 	
 108:.\Transfer.c  **** 	
 109:.\Transfer.c  **** 	uint8 sum = 0;
 110:.\Transfer.c  ****     uint8 i=0;
 111:.\Transfer.c  **** 	for(i=0;i<6;i++)
  76              		.loc 1 111 0
  77 0016 0023     		movs	r3, #0
 109:.\Transfer.c  ****     uint8 i=0;
  78              		.loc 1 109 0
  79 0018 1A46     		mov	r2, r3
  80              		.loc 1 111 0
  81 001a 05E0     		b	.L4
  82              	.LVL4:
  83              	.L5:
 112:.\Transfer.c  **** 		sum += data_to_send[i];
  84              		.loc 1 112 0 discriminator 3
  85 001c 0649     		ldr	r1, .L7
  86 001e C95C     		ldrb	r1, [r1, r3]	@ zero_extendqisi2
  87 0020 0A44     		add	r2, r2, r1
  88              	.LVL5:
  89 0022 D2B2     		uxtb	r2, r2
  90              	.LVL6:
 111:.\Transfer.c  **** 		sum += data_to_send[i];
  91              		.loc 1 111 0 discriminator 3
  92 0024 0133     		adds	r3, r3, #1
  93              	.LVL7:
  94 0026 DBB2     		uxtb	r3, r3
  95              	.LVL8:
  96              	.L4:
 111:.\Transfer.c  **** 		sum += data_to_send[i];
  97              		.loc 1 111 0 is_stmt 0 discriminator 1
  98 0028 052B     		cmp	r3, #5
  99 002a F7D9     		bls	.L5
 113:.\Transfer.c  **** 	data_to_send[6]=sum;
 100              		.loc 1 113 0 is_stmt 1
 101 002c 0248     		ldr	r0, .L7
 102              	.LVL9:
 103 002e 8271     		strb	r2, [r0, #6]
 114:.\Transfer.c  **** 
 115:.\Transfer.c  **** 	DT_Send_Data(data_to_send, 7);
 104              		.loc 1 115 0
 105 0030 0721     		movs	r1, #7
 106 0032 FFF7FEFF 		bl	DT_Send_Data
 107              	.LVL10:
 108 0036 08BD     		pop	{r3, pc}
 109              	.L8:
 110              		.align	2
ARM GAS  C:\Users\pxc\AppData\Local\Temp\cc2eOiEg.s 			page 5


 111              	.L7:
 112 0038 00000000 		.word	data_to_send
 113              		.cfi_endproc
 114              	.LFE65:
 115              		.size	DT_Send_Check, .-DT_Send_Check
 116              		.section	.text.DT_Data_Receive_Anl,"ax",%progbits
 117              		.align	2
 118              		.global	DT_Data_Receive_Anl
 119              		.thumb
 120              		.thumb_func
 121              		.type	DT_Data_Receive_Anl, %function
 122              	DT_Data_Receive_Anl:
 123              	.LFB67:
 116:.\Transfer.c  **** }
 117:.\Transfer.c  **** 
 118:.\Transfer.c  **** void DT_Data_Receive_Prepare(uint8 data)
 119:.\Transfer.c  **** {
 120:.\Transfer.c  **** 	static uint8 RxBuffer[50];
 121:.\Transfer.c  **** 	static uint8 _data_len = 0,_data_cnt = 0;
 122:.\Transfer.c  **** 	static uint8 state = 0;
 123:.\Transfer.c  **** 	
 124:.\Transfer.c  **** 	if(state==0&&data==0xAA)
 125:.\Transfer.c  **** 	{
 126:.\Transfer.c  **** 		state=1;
 127:.\Transfer.c  **** 		RxBuffer[0]=data;
 128:.\Transfer.c  **** 	}
 129:.\Transfer.c  **** 	else if(state==1&&data==0xAF)
 130:.\Transfer.c  **** 	{
 131:.\Transfer.c  **** 		state=2;
 132:.\Transfer.c  **** 		RxBuffer[1]=data;
 133:.\Transfer.c  **** 	}
 134:.\Transfer.c  **** 	else if(state==2&&data<0XF1) //fuciton
 135:.\Transfer.c  **** 	{
 136:.\Transfer.c  **** 		state=3;
 137:.\Transfer.c  **** 		RxBuffer[2]=data;
 138:.\Transfer.c  **** 	}
 139:.\Transfer.c  **** 	else if(state==3&&data<50)   //len
 140:.\Transfer.c  **** 	{
 141:.\Transfer.c  **** 		state = 4;
 142:.\Transfer.c  **** 		RxBuffer[3]=data;
 143:.\Transfer.c  **** 		_data_len = data;
 144:.\Transfer.c  **** 		_data_cnt = 0;
 145:.\Transfer.c  **** 	}
 146:.\Transfer.c  **** 	else if(state==4&&_data_len>0)//data
 147:.\Transfer.c  **** 	{
 148:.\Transfer.c  **** 		_data_len--;
 149:.\Transfer.c  **** 		RxBuffer[4+_data_cnt++]=data;
 150:.\Transfer.c  **** 		if(_data_len==0)
 151:.\Transfer.c  **** 			state = 5;
 152:.\Transfer.c  **** 	}
 153:.\Transfer.c  **** 	else if(state==5)//sum
 154:.\Transfer.c  **** 	{
 155:.\Transfer.c  **** 		state = 0;
 156:.\Transfer.c  **** 		RxBuffer[4+_data_cnt]=data;
 157:.\Transfer.c  **** 		DT_Data_Receive_Anl(RxBuffer,_data_cnt+5);
 158:.\Transfer.c  **** 	}
 159:.\Transfer.c  **** 	else
ARM GAS  C:\Users\pxc\AppData\Local\Temp\cc2eOiEg.s 			page 6


 160:.\Transfer.c  **** 		state = 0;
 161:.\Transfer.c  ****     
 162:.\Transfer.c  **** 
 163:.\Transfer.c  **** }
 164:.\Transfer.c  **** 
 165:.\Transfer.c  **** void DT_Data_Receive_Anl(uint8 *data_buf,uint8 num)
 166:.\Transfer.c  **** {
 124              		.loc 1 166 0
 125              		.cfi_startproc
 126              		@ args = 0, pretend = 0, frame = 0
 127              		@ frame_needed = 0, uses_anonymous_args = 0
 128              	.LVL11:
 129 0000 70B5     		push	{r4, r5, r6, lr}
 130              		.cfi_def_cfa_offset 16
 131              		.cfi_offset 4, -16
 132              		.cfi_offset 5, -12
 133              		.cfi_offset 6, -8
 134              		.cfi_offset 14, -4
 135              	.LVL12:
 167:.\Transfer.c  **** 	uint8 sum = 0;
 168:.\Transfer.c  ****     uint8 temp = 0;
 169:.\Transfer.c  ****     uint16 temp16 = 0;
 170:.\Transfer.c  ****     uint8 i=0;
 171:.\Transfer.c  **** 	for( i=0;i<(num-1);i++)
 136              		.loc 1 171 0
 137 0002 0023     		movs	r3, #0
 167:.\Transfer.c  **** 	uint8 sum = 0;
 138              		.loc 1 167 0
 139 0004 1C46     		mov	r4, r3
 140              		.loc 1 171 0
 141 0006 04E0     		b	.L10
 142              	.LVL13:
 143              	.L11:
 172:.\Transfer.c  **** 		sum += *(data_buf+i);
 144              		.loc 1 172 0 discriminator 3
 145 0008 C25C     		ldrb	r2, [r0, r3]	@ zero_extendqisi2
 146 000a 2244     		add	r2, r2, r4
 147 000c D4B2     		uxtb	r4, r2
 148              	.LVL14:
 171:.\Transfer.c  **** 		sum += *(data_buf+i);
 149              		.loc 1 171 0 discriminator 3
 150 000e 0133     		adds	r3, r3, #1
 151              	.LVL15:
 152 0010 DBB2     		uxtb	r3, r3
 153              	.LVL16:
 154              	.L10:
 171:.\Transfer.c  **** 		sum += *(data_buf+i);
 155              		.loc 1 171 0 is_stmt 0 discriminator 1
 156 0012 4A1E     		subs	r2, r1, #1
 157 0014 9342     		cmp	r3, r2
 158 0016 F7DB     		blt	.L11
 173:.\Transfer.c  **** 	if(!(sum==*(data_buf+num-1)))		return;		                //判断sum
 159              		.loc 1 173 0 is_stmt 1
 160 0018 835C     		ldrb	r3, [r0, r2]	@ zero_extendqisi2
 161              	.LVL17:
 162 001a A342     		cmp	r3, r4
 163 001c 40F0C080 		bne	.L9
ARM GAS  C:\Users\pxc\AppData\Local\Temp\cc2eOiEg.s 			page 7


 174:.\Transfer.c  **** 	if(!(*(data_buf)==0xAA && *(data_buf+1)==0xAF))		return;		//判断帧头
 164              		.loc 1 174 0
 165 0020 0378     		ldrb	r3, [r0]	@ zero_extendqisi2
 166 0022 AA2B     		cmp	r3, #170
 167 0024 40F0BC80 		bne	.L9
 168              		.loc 1 174 0 is_stmt 0 discriminator 1
 169 0028 4378     		ldrb	r3, [r0, #1]	@ zero_extendqisi2
 170 002a AF2B     		cmp	r3, #175
 171 002c 40F0B880 		bne	.L9
 175:.\Transfer.c  **** 	if(*(data_buf+2) == 0x00)
 172              		.loc 1 175 0 is_stmt 1
 173 0030 8378     		ldrb	r3, [r0, #2]	@ zero_extendqisi2
 174 0032 2BB9     		cbnz	r3, .L13
 176:.\Transfer.c  ****     {
 177:.\Transfer.c  ****        if(*(data_buf+4) == 0xAA)
 175              		.loc 1 177 0
 176 0034 0279     		ldrb	r2, [r0, #4]	@ zero_extendqisi2
 177 0036 AA2A     		cmp	r2, #170
 178 0038 02D1     		bne	.L13
 178:.\Transfer.c  ****       {
 179:.\Transfer.c  ****        f.send_version = 1;
 179              		.loc 1 179 0
 180 003a 0121     		movs	r1, #1
 181              	.LVL18:
 182 003c 594A     		ldr	r2, .L34
 183 003e 1170     		strb	r1, [r2]
 184              	.L13:
 180:.\Transfer.c  ****       }
 181:.\Transfer.c  ****     }
 182:.\Transfer.c  ****     
 183:.\Transfer.c  **** 	if(*(data_buf+2)==0X01)
 185              		.loc 1 183 0
 186 0040 012B     		cmp	r3, #1
 187 0042 02D1     		bne	.L14
 184:.\Transfer.c  **** 	{
 185:.\Transfer.c  ****        g_Car.Car_lock = *(data_buf+4);
 188              		.loc 1 185 0
 189 0044 0179     		ldrb	r1, [r0, #4]	@ zero_extendqisi2
 190 0046 584A     		ldr	r2, .L34+4
 191 0048 1170     		strb	r1, [r2]
 192              	.L14:
 186:.\Transfer.c  **** 	}
 187:.\Transfer.c  **** 	
 188:.\Transfer.c  **** 	if(*(data_buf+2)==0X02)
 193              		.loc 1 188 0
 194 004a 022B     		cmp	r3, #2
 195 004c 02D1     		bne	.L15
 189:.\Transfer.c  **** 	{
 190:.\Transfer.c  ****         g_Car.set_dir = *(data_buf+4);
 196              		.loc 1 190 0
 197 004e 0279     		ldrb	r2, [r0, #4]	@ zero_extendqisi2
 198 0050 554B     		ldr	r3, .L34+4
 199 0052 9A70     		strb	r2, [r3, #2]
 200              	.L15:
 191:.\Transfer.c  ****        
 192:.\Transfer.c  **** 	}
 193:.\Transfer.c  ****    	if(*(data_buf+2)==0X03)
ARM GAS  C:\Users\pxc\AppData\Local\Temp\cc2eOiEg.s 			page 8


 201              		.loc 1 193 0
 202 0054 8378     		ldrb	r3, [r0, #2]	@ zero_extendqisi2
 203 0056 032B     		cmp	r3, #3
 204 0058 0CD1     		bne	.L16
 194:.\Transfer.c  **** 	{
 195:.\Transfer.c  ****         g_Car.set_car_speed  = (int16)(*(data_buf+4)<<8)|*(data_buf+5);
 205              		.loc 1 195 0
 206 005a 0279     		ldrb	r2, [r0, #4]	@ zero_extendqisi2
 207 005c 4379     		ldrb	r3, [r0, #5]	@ zero_extendqisi2
 208 005e 43EA0223 		orr	r3, r3, r2, lsl #8
 209 0062 514A     		ldr	r2, .L34+4
 210 0064 D380     		strh	r3, [r2, #6]	@ movhi
 196:.\Transfer.c  ****         if(g_Car.set_car_speed > 20000)
 211              		.loc 1 196 0
 212 0066 44F62062 		movw	r2, #20000
 213 006a 9342     		cmp	r3, r2
 214 006c 02D9     		bls	.L16
 197:.\Transfer.c  ****         {
 198:.\Transfer.c  ****             g_Car.set_car_speed = 0;
 215              		.loc 1 198 0
 216 006e 0022     		movs	r2, #0
 217 0070 4D4B     		ldr	r3, .L34+4
 218 0072 DA80     		strh	r2, [r3, #6]	@ movhi
 219              	.L16:
 220 0074 0546     		mov	r5, r0
 199:.\Transfer.c  ****         }
 200:.\Transfer.c  ****     }
 201:.\Transfer.c  ****     if(*(data_buf+2)==0x04)
 221              		.loc 1 201 0
 222 0076 8378     		ldrb	r3, [r0, #2]	@ zero_extendqisi2
 223 0078 042B     		cmp	r3, #4
 224 007a 47D1     		bne	.L17
 202:.\Transfer.c  ****     {
 203:.\Transfer.c  ****         temp = 100-*(data_buf+4); 
 225              		.loc 1 203 0
 226 007c 0679     		ldrb	r6, [r0, #4]	@ zero_extendqisi2
 227 007e C6F16406 		rsb	r6, r6, #100
 228 0082 F6B2     		uxtb	r6, r6
 229              	.LVL19:
 204:.\Transfer.c  ****         if(temp>=100)
 230              		.loc 1 204 0
 231 0084 632E     		cmp	r6, #99
 232 0086 00D9     		bls	.L18
 205:.\Transfer.c  ****         {
 206:.\Transfer.c  ****             temp =100;
 233              		.loc 1 206 0
 234 0088 6426     		movs	r6, #100
 235              	.LVL20:
 236              	.L18:
 207:.\Transfer.c  ****         }
 208:.\Transfer.c  ****         if(temp<=0)
 209:.\Transfer.c  ****         {
 210:.\Transfer.c  ****             temp=0;
 211:.\Transfer.c  ****         }
 212:.\Transfer.c  ****     //    PWM_LED_WriteCompare1(temp*100); 
 213:.\Transfer.c  ****         PWM_LED_1_WriteCompare(temp*(PWM_LED_1_ReadPeriod()/100));
 237              		.loc 1 213 0
ARM GAS  C:\Users\pxc\AppData\Local\Temp\cc2eOiEg.s 			page 9


 238 008a FFF7FEFF 		bl	PWM_LED_1_ReadPeriod
 239              	.LVL21:
 240 008e 474B     		ldr	r3, .L34+8
 241 0090 A3FB0030 		umull	r3, r0, r3, r0
 242 0094 4009     		lsrs	r0, r0, #5
 243 0096 06FB00F0 		mul	r0, r6, r0
 244 009a 80B2     		uxth	r0, r0
 245 009c FFF7FEFF 		bl	PWM_LED_1_WriteCompare
 246              	.LVL22:
 214:.\Transfer.c  ****      
 215:.\Transfer.c  ****         temp = 100-*(data_buf+5); 
 247              		.loc 1 215 0
 248 00a0 6E79     		ldrb	r6, [r5, #5]	@ zero_extendqisi2
 249              	.LVL23:
 250 00a2 C6F16406 		rsb	r6, r6, #100
 251 00a6 F6B2     		uxtb	r6, r6
 252              	.LVL24:
 216:.\Transfer.c  ****         if(temp>=100)
 253              		.loc 1 216 0
 254 00a8 632E     		cmp	r6, #99
 255 00aa 00D9     		bls	.L19
 217:.\Transfer.c  ****         {
 218:.\Transfer.c  ****             temp =100;
 256              		.loc 1 218 0
 257 00ac 6426     		movs	r6, #100
 258              	.LVL25:
 259              	.L19:
 219:.\Transfer.c  ****         }
 220:.\Transfer.c  ****         if(temp<=0)
 221:.\Transfer.c  ****         {
 222:.\Transfer.c  ****             temp=0;
 223:.\Transfer.c  ****         }
 224:.\Transfer.c  ****   //      PWM_LED_WriteCompare2(temp*100);
 225:.\Transfer.c  ****         PWM_LED_2_WriteCompare(temp*(PWM_LED_1_ReadPeriod()/100)); 
 260              		.loc 1 225 0
 261 00ae FFF7FEFF 		bl	PWM_LED_1_ReadPeriod
 262              	.LVL26:
 263 00b2 3E4B     		ldr	r3, .L34+8
 264 00b4 A3FB0030 		umull	r3, r0, r3, r0
 265 00b8 4009     		lsrs	r0, r0, #5
 266 00ba 06FB00F0 		mul	r0, r6, r0
 267 00be 80B2     		uxth	r0, r0
 268 00c0 FFF7FEFF 		bl	PWM_LED_2_WriteCompare
 269              	.LVL27:
 226:.\Transfer.c  ****         temp = 100-*(data_buf+6); 
 270              		.loc 1 226 0
 271 00c4 AE79     		ldrb	r6, [r5, #6]	@ zero_extendqisi2
 272              	.LVL28:
 273 00c6 C6F16406 		rsb	r6, r6, #100
 274 00ca F6B2     		uxtb	r6, r6
 275              	.LVL29:
 227:.\Transfer.c  ****         if(temp>=100)
 276              		.loc 1 227 0
 277 00cc 632E     		cmp	r6, #99
 278 00ce 00D9     		bls	.L20
 228:.\Transfer.c  ****         {
 229:.\Transfer.c  ****             temp = 100;
ARM GAS  C:\Users\pxc\AppData\Local\Temp\cc2eOiEg.s 			page 10


 279              		.loc 1 229 0
 280 00d0 6426     		movs	r6, #100
 281              	.LVL30:
 282              	.L20:
 230:.\Transfer.c  ****         }
 231:.\Transfer.c  ****         if(temp<=0)
 232:.\Transfer.c  ****         {
 233:.\Transfer.c  ****             temp= 0;
 234:.\Transfer.c  ****         }
 235:.\Transfer.c  ****   //      PWM_LED_1_WriteCompare1(temp*100);
 236:.\Transfer.c  ****          PWM_LED_3_WriteCompare(temp*(PWM_LED_1_ReadPeriod()/100));
 283              		.loc 1 236 0
 284 00d2 FFF7FEFF 		bl	PWM_LED_1_ReadPeriod
 285              	.LVL31:
 286 00d6 354B     		ldr	r3, .L34+8
 287 00d8 A3FB0030 		umull	r3, r0, r3, r0
 288 00dc 4009     		lsrs	r0, r0, #5
 289 00de 06FB00F0 		mul	r0, r6, r0
 290 00e2 80B2     		uxth	r0, r0
 291 00e4 FFF7FEFF 		bl	PWM_LED_3_WriteCompare
 292              	.LVL32:
 237:.\Transfer.c  ****         temp = 100-*(data_buf+7); 
 293              		.loc 1 237 0
 294 00e8 EE79     		ldrb	r6, [r5, #7]	@ zero_extendqisi2
 295              	.LVL33:
 296 00ea C6F16406 		rsb	r6, r6, #100
 297 00ee F6B2     		uxtb	r6, r6
 298              	.LVL34:
 238:.\Transfer.c  ****         if(temp>=100)
 299              		.loc 1 238 0
 300 00f0 632E     		cmp	r6, #99
 301 00f2 00D9     		bls	.L21
 239:.\Transfer.c  ****         {
 240:.\Transfer.c  ****             temp =100;
 302              		.loc 1 240 0
 303 00f4 6426     		movs	r6, #100
 304              	.LVL35:
 305              	.L21:
 241:.\Transfer.c  ****         }
 242:.\Transfer.c  ****         if(temp<=0)
 243:.\Transfer.c  ****         {
 244:.\Transfer.c  ****             temp=0;
 245:.\Transfer.c  ****         }
 246:.\Transfer.c  ****  //       PWM_LED_1_WriteCompare2(temp*100);
 247:.\Transfer.c  ****        PWM_LED_4_WriteCompare(temp*(PWM_LED_1_ReadPeriod()/100));
 306              		.loc 1 247 0
 307 00f6 FFF7FEFF 		bl	PWM_LED_1_ReadPeriod
 308              	.LVL36:
 309 00fa 2C4B     		ldr	r3, .L34+8
 310 00fc A3FB0030 		umull	r3, r0, r3, r0
 311 0100 4009     		lsrs	r0, r0, #5
 312 0102 06FB00F0 		mul	r0, r6, r0
 313 0106 80B2     		uxth	r0, r0
 314 0108 FFF7FEFF 		bl	PWM_LED_4_WriteCompare
 315              	.LVL37:
 316              	.L17:
 248:.\Transfer.c  ****     }
ARM GAS  C:\Users\pxc\AppData\Local\Temp\cc2eOiEg.s 			page 11


 249:.\Transfer.c  **** 	if(*(data_buf+2)==0X5)								
 317              		.loc 1 249 0
 318 010c AB78     		ldrb	r3, [r5, #2]	@ zero_extendqisi2
 319 010e 052B     		cmp	r3, #5
 320 0110 02D1     		bne	.L22
 250:.\Transfer.c  ****     {
 251:.\Transfer.c  ****        g_Car.set_ptz_dir = *(data_buf+4);
 321              		.loc 1 251 0
 322 0112 2A79     		ldrb	r2, [r5, #4]	@ zero_extendqisi2
 323 0114 244B     		ldr	r3, .L34+4
 324 0116 DA70     		strb	r2, [r3, #3]
 325              	.L22:
 252:.\Transfer.c  ****     } 
 253:.\Transfer.c  ****     
 254:.\Transfer.c  ****     if(*(data_buf+2)==0X6)								
 326              		.loc 1 254 0
 327 0118 AB78     		ldrb	r3, [r5, #2]	@ zero_extendqisi2
 328 011a 062B     		cmp	r3, #6
 329 011c 09D1     		bne	.L23
 255:.\Transfer.c  ****     {	
 256:.\Transfer.c  ****       if(*(data_buf+4) == 1)
 330              		.loc 1 256 0
 331 011e 2B79     		ldrb	r3, [r5, #4]	@ zero_extendqisi2
 332 0120 012B     		cmp	r3, #1
 333 0122 03D1     		bne	.L24
 257:.\Transfer.c  ****       {
 258:.\Transfer.c  ****            CHANGE_PWR_Write(1);
 334              		.loc 1 258 0
 335 0124 0120     		movs	r0, #1
 336 0126 FFF7FEFF 		bl	CHANGE_PWR_Write
 337              	.LVL38:
 338 012a 02E0     		b	.L23
 339              	.L24:
 259:.\Transfer.c  ****       }
 260:.\Transfer.c  ****       else
 261:.\Transfer.c  ****       {
 262:.\Transfer.c  ****            CHANGE_PWR_Write(0);
 340              		.loc 1 262 0
 341 012c 0020     		movs	r0, #0
 342 012e FFF7FEFF 		bl	CHANGE_PWR_Write
 343              	.LVL39:
 344              	.L23:
 263:.\Transfer.c  ****       }
 264:.\Transfer.c  ****     }
 265:.\Transfer.c  ****     if(*(data_buf+2)==0X7)								
 345              		.loc 1 265 0
 346 0132 AB78     		ldrb	r3, [r5, #2]	@ zero_extendqisi2
 347 0134 072B     		cmp	r3, #7
 348 0136 17D1     		bne	.L25
 266:.\Transfer.c  ****     {	
 267:.\Transfer.c  ****         temp16 = (uint16)(*(data_buf+4)<<8)|*(data_buf+5);
 349              		.loc 1 267 0
 350 0138 2E79     		ldrb	r6, [r5, #4]	@ zero_extendqisi2
 351 013a 6B79     		ldrb	r3, [r5, #5]	@ zero_extendqisi2
 352 013c 43EA0626 		orr	r6, r3, r6, lsl #8
 353              	.LVL40:
 268:.\Transfer.c  ****        if(temp16 >=10000 && temp16<=60000 )
ARM GAS  C:\Users\pxc\AppData\Local\Temp\cc2eOiEg.s 			page 12


 354              		.loc 1 268 0
 355 0140 A6F51C53 		sub	r3, r6, #9984
 356 0144 103B     		subs	r3, r3, #16
 357 0146 9BB2     		uxth	r3, r3
 358 0148 4CF25032 		movw	r2, #50000
 359 014c 9342     		cmp	r3, r2
 360 014e 0BD8     		bhi	.L25
 269:.\Transfer.c  ****        {
 270:.\Transfer.c  ****         PWM_LED_1_WritePeriod(temp16);
 361              		.loc 1 270 0
 362 0150 3046     		mov	r0, r6
 363 0152 FFF7FEFF 		bl	PWM_LED_1_WritePeriod
 364              	.LVL41:
 271:.\Transfer.c  ****         PWM_LED_2_WritePeriod(temp16);
 365              		.loc 1 271 0
 366 0156 3046     		mov	r0, r6
 367 0158 FFF7FEFF 		bl	PWM_LED_2_WritePeriod
 368              	.LVL42:
 272:.\Transfer.c  ****         PWM_LED_3_WritePeriod(temp16);
 369              		.loc 1 272 0
 370 015c 3046     		mov	r0, r6
 371 015e FFF7FEFF 		bl	PWM_LED_3_WritePeriod
 372              	.LVL43:
 273:.\Transfer.c  ****         PWM_LED_4_WritePeriod(temp16);
 373              		.loc 1 273 0
 374 0162 3046     		mov	r0, r6
 375 0164 FFF7FEFF 		bl	PWM_LED_4_WritePeriod
 376              	.LVL44:
 377              	.L25:
 274:.\Transfer.c  ****        }
 275:.\Transfer.c  ****     }
 276:.\Transfer.c  ****     if(*(data_buf+2)==0X9)								
 378              		.loc 1 276 0
 379 0168 AB78     		ldrb	r3, [r5, #2]	@ zero_extendqisi2
 380 016a 092B     		cmp	r3, #9
 381 016c 06D1     		bne	.L26
 277:.\Transfer.c  ****     {
 278:.\Transfer.c  ****         if(*(data_buf+4) == 99)
 382              		.loc 1 278 0
 383 016e 2B79     		ldrb	r3, [r5, #4]	@ zero_extendqisi2
 384 0170 632B     		cmp	r3, #99
 385 0172 03D1     		bne	.L26
 279:.\Transfer.c  ****         {
 280:.\Transfer.c  ****             g_Car.hearting = 1;
 386              		.loc 1 280 0
 387 0174 0122     		movs	r2, #1
 388 0176 0C4B     		ldr	r3, .L34+4
 389 0178 83F82020 		strb	r2, [r3, #32]
 390              	.L26:
 281:.\Transfer.c  ****         }
 282:.\Transfer.c  ****     }
 283:.\Transfer.c  ****    
 284:.\Transfer.c  **** 	if(*(data_buf+2)==0X13)								
 391              		.loc 1 284 0
 392 017c A878     		ldrb	r0, [r5, #2]	@ zero_extendqisi2
 393 017e 1328     		cmp	r0, #19
 394 0180 02D1     		bne	.L27
ARM GAS  C:\Users\pxc\AppData\Local\Temp\cc2eOiEg.s 			page 13


 285:.\Transfer.c  **** 	{
 286:.\Transfer.c  **** 		DT_Send_Check(*(data_buf+2),sum);
 395              		.loc 1 286 0
 396 0182 2146     		mov	r1, r4
 397 0184 FFF7FEFF 		bl	DT_Send_Check
 398              	.LVL45:
 399              	.L27:
 287:.\Transfer.c  **** 	}
 288:.\Transfer.c  **** 	if(*(data_buf+2)==0X14)								//PID5
 400              		.loc 1 288 0
 401 0188 A878     		ldrb	r0, [r5, #2]	@ zero_extendqisi2
 402 018a 1428     		cmp	r0, #20
 403 018c 02D1     		bne	.L28
 289:.\Transfer.c  **** 	{
 290:.\Transfer.c  **** 		DT_Send_Check(*(data_buf+2),sum);
 404              		.loc 1 290 0
 405 018e 2146     		mov	r1, r4
 406 0190 FFF7FEFF 		bl	DT_Send_Check
 407              	.LVL46:
 408              	.L28:
 291:.\Transfer.c  **** 	}
 292:.\Transfer.c  **** 	if(*(data_buf+2)==0X15)								//PID6
 409              		.loc 1 292 0
 410 0194 A878     		ldrb	r0, [r5, #2]	@ zero_extendqisi2
 411 0196 1528     		cmp	r0, #21
 412 0198 02D1     		bne	.L9
 293:.\Transfer.c  **** 	{
 294:.\Transfer.c  **** 		DT_Send_Check(*(data_buf+2),sum);
 413              		.loc 1 294 0
 414 019a 2146     		mov	r1, r4
 415 019c FFF7FEFF 		bl	DT_Send_Check
 416              	.LVL47:
 417              	.L9:
 418 01a0 70BD     		pop	{r4, r5, r6, pc}
 419              	.LVL48:
 420              	.L35:
 421 01a2 00BF     		.align	2
 422              	.L34:
 423 01a4 00000000 		.word	f
 424 01a8 00000000 		.word	g_Car
 425 01ac 1F85EB51 		.word	1374389535
 426              		.cfi_endproc
 427              	.LFE67:
 428              		.size	DT_Data_Receive_Anl, .-DT_Data_Receive_Anl
 429              		.section	.text.DT_Data_Receive_Prepare,"ax",%progbits
 430              		.align	2
 431              		.global	DT_Data_Receive_Prepare
 432              		.thumb
 433              		.thumb_func
 434              		.type	DT_Data_Receive_Prepare, %function
 435              	DT_Data_Receive_Prepare:
 436              	.LFB66:
 119:.\Transfer.c  **** 	static uint8 RxBuffer[50];
 437              		.loc 1 119 0
 438              		.cfi_startproc
 439              		@ args = 0, pretend = 0, frame = 0
 440              		@ frame_needed = 0, uses_anonymous_args = 0
ARM GAS  C:\Users\pxc\AppData\Local\Temp\cc2eOiEg.s 			page 14


 441              	.LVL49:
 442 0000 10B5     		push	{r4, lr}
 443              		.cfi_def_cfa_offset 8
 444              		.cfi_offset 4, -8
 445              		.cfi_offset 14, -4
 124:.\Transfer.c  **** 	{
 446              		.loc 1 124 0
 447 0002 294B     		ldr	r3, .L45
 448 0004 1B78     		ldrb	r3, [r3]	@ zero_extendqisi2
 449 0006 33B9     		cbnz	r3, .L37
 124:.\Transfer.c  **** 	{
 450              		.loc 1 124 0 is_stmt 0 discriminator 1
 451 0008 AA28     		cmp	r0, #170
 452 000a 04D1     		bne	.L37
 126:.\Transfer.c  **** 		RxBuffer[0]=data;
 453              		.loc 1 126 0 is_stmt 1
 454 000c 264B     		ldr	r3, .L45
 455 000e 0122     		movs	r2, #1
 456 0010 1A70     		strb	r2, [r3]
 127:.\Transfer.c  **** 	}
 457              		.loc 1 127 0
 458 0012 1871     		strb	r0, [r3, #4]
 459 0014 10BD     		pop	{r4, pc}
 460              	.L37:
 129:.\Transfer.c  **** 	{
 461              		.loc 1 129 0
 462 0016 012B     		cmp	r3, #1
 463 0018 06D1     		bne	.L39
 129:.\Transfer.c  **** 	{
 464              		.loc 1 129 0 is_stmt 0 discriminator 1
 465 001a AF28     		cmp	r0, #175
 466 001c 04D1     		bne	.L39
 131:.\Transfer.c  **** 		RxBuffer[1]=data;
 467              		.loc 1 131 0 is_stmt 1
 468 001e 224B     		ldr	r3, .L45
 469 0020 0222     		movs	r2, #2
 470 0022 1A70     		strb	r2, [r3]
 132:.\Transfer.c  **** 	}
 471              		.loc 1 132 0
 472 0024 5871     		strb	r0, [r3, #5]
 473 0026 10BD     		pop	{r4, pc}
 474              	.L39:
 134:.\Transfer.c  **** 	{
 475              		.loc 1 134 0
 476 0028 022B     		cmp	r3, #2
 477 002a 06D1     		bne	.L40
 134:.\Transfer.c  **** 	{
 478              		.loc 1 134 0 is_stmt 0 discriminator 1
 479 002c F028     		cmp	r0, #240
 480 002e 04D8     		bhi	.L40
 136:.\Transfer.c  **** 		RxBuffer[2]=data;
 481              		.loc 1 136 0 is_stmt 1
 482 0030 1D4B     		ldr	r3, .L45
 483 0032 0322     		movs	r2, #3
 484 0034 1A70     		strb	r2, [r3]
 137:.\Transfer.c  **** 	}
 485              		.loc 1 137 0
ARM GAS  C:\Users\pxc\AppData\Local\Temp\cc2eOiEg.s 			page 15


 486 0036 9871     		strb	r0, [r3, #6]
 487 0038 10BD     		pop	{r4, pc}
 488              	.L40:
 139:.\Transfer.c  **** 	{
 489              		.loc 1 139 0
 490 003a 032B     		cmp	r3, #3
 491 003c 0BD1     		bne	.L41
 139:.\Transfer.c  **** 	{
 492              		.loc 1 139 0 is_stmt 0 discriminator 1
 493 003e 3128     		cmp	r0, #49
 494 0040 09D8     		bhi	.L41
 141:.\Transfer.c  **** 		RxBuffer[3]=data;
 495              		.loc 1 141 0 is_stmt 1
 496 0042 194B     		ldr	r3, .L45
 497 0044 0422     		movs	r2, #4
 498 0046 1A70     		strb	r2, [r3]
 142:.\Transfer.c  **** 		_data_len = data;
 499              		.loc 1 142 0
 500 0048 D871     		strb	r0, [r3, #7]
 143:.\Transfer.c  **** 		_data_cnt = 0;
 501              		.loc 1 143 0
 502 004a 83F83600 		strb	r0, [r3, #54]
 144:.\Transfer.c  **** 	}
 503              		.loc 1 144 0
 504 004e 0022     		movs	r2, #0
 505 0050 83F83720 		strb	r2, [r3, #55]
 506 0054 10BD     		pop	{r4, pc}
 507              	.L41:
 146:.\Transfer.c  **** 	{
 508              		.loc 1 146 0
 509 0056 042B     		cmp	r3, #4
 510 0058 13D1     		bne	.L42
 146:.\Transfer.c  **** 	{
 511              		.loc 1 146 0 is_stmt 0 discriminator 1
 512 005a 134A     		ldr	r2, .L45
 513 005c 92F83620 		ldrb	r2, [r2, #54]	@ zero_extendqisi2
 514 0060 7AB1     		cbz	r2, .L42
 148:.\Transfer.c  **** 		RxBuffer[4+_data_cnt++]=data;
 515              		.loc 1 148 0 is_stmt 1
 516 0062 013A     		subs	r2, r2, #1
 517 0064 D2B2     		uxtb	r2, r2
 518 0066 1049     		ldr	r1, .L45
 519 0068 81F83620 		strb	r2, [r1, #54]
 149:.\Transfer.c  **** 		if(_data_len==0)
 520              		.loc 1 149 0
 521 006c 91F83730 		ldrb	r3, [r1, #55]	@ zero_extendqisi2
 522 0070 5C1C     		adds	r4, r3, #1
 523 0072 81F83740 		strb	r4, [r1, #55]
 524 0076 0B44     		add	r3, r3, r1
 525 0078 1872     		strb	r0, [r3, #8]
 150:.\Transfer.c  **** 			state = 5;
 526              		.loc 1 150 0
 527 007a A2B9     		cbnz	r2, .L36
 151:.\Transfer.c  **** 	}
 528              		.loc 1 151 0
 529 007c 0522     		movs	r2, #5
 530 007e 0A70     		strb	r2, [r1]
ARM GAS  C:\Users\pxc\AppData\Local\Temp\cc2eOiEg.s 			page 16


 531 0080 10BD     		pop	{r4, pc}
 532              	.L42:
 153:.\Transfer.c  **** 	{
 533              		.loc 1 153 0
 534 0082 052B     		cmp	r3, #5
 535 0084 0CD1     		bne	.L43
 155:.\Transfer.c  **** 		RxBuffer[4+_data_cnt]=data;
 536              		.loc 1 155 0
 537 0086 084B     		ldr	r3, .L45
 538 0088 0022     		movs	r2, #0
 539 008a 1A70     		strb	r2, [r3]
 156:.\Transfer.c  **** 		DT_Data_Receive_Anl(RxBuffer,_data_cnt+5);
 540              		.loc 1 156 0
 541 008c 93F83710 		ldrb	r1, [r3, #55]	@ zero_extendqisi2
 542 0090 5A18     		adds	r2, r3, r1
 543 0092 1072     		strb	r0, [r2, #8]
 157:.\Transfer.c  **** 	}
 544              		.loc 1 157 0
 545 0094 0531     		adds	r1, r1, #5
 546 0096 181D     		adds	r0, r3, #4
 547              	.LVL50:
 548 0098 C9B2     		uxtb	r1, r1
 549 009a FFF7FEFF 		bl	DT_Data_Receive_Anl
 550              	.LVL51:
 551 009e 10BD     		pop	{r4, pc}
 552              	.LVL52:
 553              	.L43:
 160:.\Transfer.c  ****     
 554              		.loc 1 160 0
 555 00a0 0022     		movs	r2, #0
 556 00a2 014B     		ldr	r3, .L45
 557 00a4 1A70     		strb	r2, [r3]
 558              	.L36:
 559 00a6 10BD     		pop	{r4, pc}
 560              	.L46:
 561              		.align	2
 562              	.L45:
 563 00a8 00000000 		.word	.LANCHOR0
 564              		.cfi_endproc
 565              	.LFE66:
 566              		.size	DT_Data_Receive_Prepare, .-DT_Data_Receive_Prepare
 567              		.section	.text.DT_Send_SystemInfo,"ax",%progbits
 568              		.align	2
 569              		.global	DT_Send_SystemInfo
 570              		.thumb
 571              		.thumb_func
 572              		.type	DT_Send_SystemInfo, %function
 573              	DT_Send_SystemInfo:
 574              	.LFB68:
 295:.\Transfer.c  **** 	}
 296:.\Transfer.c  **** }
 297:.\Transfer.c  **** 
 298:.\Transfer.c  **** void DT_Send_SystemInfo(uint16 hardware_ver,uint16 software_ver,uint16 run_count,uint16 cur_run_tim
 299:.\Transfer.c  **** {
 575              		.loc 1 299 0
 576              		.cfi_startproc
 577              		@ args = 4, pretend = 0, frame = 8
ARM GAS  C:\Users\pxc\AppData\Local\Temp\cc2eOiEg.s 			page 17


 578              		@ frame_needed = 0, uses_anonymous_args = 0
 579              	.LVL53:
 580 0000 70B5     		push	{r4, r5, r6, lr}
 581              		.cfi_def_cfa_offset 16
 582              		.cfi_offset 4, -16
 583              		.cfi_offset 5, -12
 584              		.cfi_offset 6, -8
 585              		.cfi_offset 14, -4
 586 0002 82B0     		sub	sp, sp, #8
 587              		.cfi_def_cfa_offset 24
 588 0004 ADF80600 		strh	r0, [sp, #6]	@ movhi
 589 0008 ADF80410 		strh	r1, [sp, #4]	@ movhi
 590 000c ADF80220 		strh	r2, [sp, #2]	@ movhi
 591 0010 ADF80030 		strh	r3, [sp]	@ movhi
 592              	.LVL54:
 300:.\Transfer.c  **** 	uint8 _cnt=0;
 301:.\Transfer.c  **** 	data_to_send[_cnt++]=0xAA;
 593              		.loc 1 301 0
 594 0014 154D     		ldr	r5, .L51
 595 0016 AA24     		movs	r4, #170
 596 0018 2C70     		strb	r4, [r5]
 597              	.LVL55:
 302:.\Transfer.c  **** 	data_to_send[_cnt++]=0xAA;
 598              		.loc 1 302 0
 599 001a 6C70     		strb	r4, [r5, #1]
 600              	.LVL56:
 303:.\Transfer.c  **** 	data_to_send[_cnt++]=0x00;
 601              		.loc 1 303 0
 602 001c 0024     		movs	r4, #0
 603 001e AC70     		strb	r4, [r5, #2]
 604              	.LVL57:
 304:.\Transfer.c  **** 	data_to_send[_cnt++]=0;
 305:.\Transfer.c  ****     
 306:.\Transfer.c  **** 	data_to_send[_cnt++]=BYTE1(hardware_ver);
 605              		.loc 1 306 0
 606 0020 060A     		lsrs	r6, r0, #8
 607 0022 2E71     		strb	r6, [r5, #4]
 608              	.LVL58:
 307:.\Transfer.c  **** 	data_to_send[_cnt++]=BYTE0(hardware_ver);
 609              		.loc 1 307 0
 610 0024 6871     		strb	r0, [r5, #5]
 611              	.LVL59:
 308:.\Transfer.c  **** 	data_to_send[_cnt++]=BYTE1(software_ver);
 612              		.loc 1 308 0
 613 0026 080A     		lsrs	r0, r1, #8
 614              	.LVL60:
 615 0028 A871     		strb	r0, [r5, #6]
 616              	.LVL61:
 309:.\Transfer.c  **** 	data_to_send[_cnt++]=BYTE0(software_ver);
 617              		.loc 1 309 0
 618 002a E971     		strb	r1, [r5, #7]
 619              	.LVL62:
 310:.\Transfer.c  **** 	data_to_send[_cnt++]=BYTE1(run_count);
 620              		.loc 1 310 0
 621 002c 110A     		lsrs	r1, r2, #8
 622              	.LVL63:
 623 002e 2972     		strb	r1, [r5, #8]
ARM GAS  C:\Users\pxc\AppData\Local\Temp\cc2eOiEg.s 			page 18


 624              	.LVL64:
 311:.\Transfer.c  **** 	data_to_send[_cnt++]=BYTE0(run_count);
 625              		.loc 1 311 0
 626 0030 6A72     		strb	r2, [r5, #9]
 627              	.LVL65:
 312:.\Transfer.c  **** 	data_to_send[_cnt++]=BYTE1(cur_run_time);
 628              		.loc 1 312 0
 629 0032 1A0A     		lsrs	r2, r3, #8
 630              	.LVL66:
 631 0034 AA72     		strb	r2, [r5, #10]
 632              	.LVL67:
 313:.\Transfer.c  **** 	data_to_send[_cnt++]=BYTE0(cur_run_time);
 633              		.loc 1 313 0
 634 0036 EB72     		strb	r3, [r5, #11]
 635              	.LVL68:
 314:.\Transfer.c  ****     
 315:.\Transfer.c  **** 	data_to_send[_cnt++]=BYTE1(car_runing_time);
 636              		.loc 1 315 0
 637 0038 9DF81930 		ldrb	r3, [sp, #25]	@ zero_extendqisi2
 638              	.LVL69:
 639 003c 2B73     		strb	r3, [r5, #12]
 640              	.LVL70:
 316:.\Transfer.c  **** 	data_to_send[_cnt++]=BYTE0(car_runing_time);
 641              		.loc 1 316 0
 642 003e 9DF81830 		ldrb	r3, [sp, #24]	@ zero_extendqisi2
 643 0042 6B73     		strb	r3, [r5, #13]
 317:.\Transfer.c  **** 	data_to_send[3] = _cnt-4;
 644              		.loc 1 317 0
 645 0044 0A23     		movs	r3, #10
 646 0046 EB70     		strb	r3, [r5, #3]
 647              	.LVL71:
 318:.\Transfer.c  **** 	
 319:.\Transfer.c  **** 	uint8 sum = 0;
 320:.\Transfer.c  ****     uint8 i=0;
 321:.\Transfer.c  **** 	for( i=0;i<_cnt;i++)
 648              		.loc 1 321 0
 649 0048 2346     		mov	r3, r4
 319:.\Transfer.c  ****     uint8 i=0;
 650              		.loc 1 319 0
 651 004a 2246     		mov	r2, r4
 652              		.loc 1 321 0
 653 004c 05E0     		b	.L48
 654              	.LVL72:
 655              	.L49:
 322:.\Transfer.c  **** 		sum += data_to_send[i];
 656              		.loc 1 322 0 discriminator 3
 657 004e 0749     		ldr	r1, .L51
 658 0050 C95C     		ldrb	r1, [r1, r3]	@ zero_extendqisi2
 659 0052 0A44     		add	r2, r2, r1
 660              	.LVL73:
 661 0054 D2B2     		uxtb	r2, r2
 662              	.LVL74:
 321:.\Transfer.c  **** 		sum += data_to_send[i];
 663              		.loc 1 321 0 discriminator 3
 664 0056 0133     		adds	r3, r3, #1
 665              	.LVL75:
 666 0058 DBB2     		uxtb	r3, r3
ARM GAS  C:\Users\pxc\AppData\Local\Temp\cc2eOiEg.s 			page 19


 667              	.LVL76:
 668              	.L48:
 321:.\Transfer.c  **** 		sum += data_to_send[i];
 669              		.loc 1 321 0 is_stmt 0 discriminator 1
 670 005a 0D2B     		cmp	r3, #13
 671 005c F7D9     		bls	.L49
 672              	.LVL77:
 323:.\Transfer.c  **** 	data_to_send[_cnt++]=sum;
 673              		.loc 1 323 0 is_stmt 1
 674 005e 0348     		ldr	r0, .L51
 675 0060 8273     		strb	r2, [r0, #14]
 324:.\Transfer.c  **** 	
 325:.\Transfer.c  **** 	DT_Send_Data(data_to_send, _cnt);
 676              		.loc 1 325 0
 677 0062 0F21     		movs	r1, #15
 678 0064 FFF7FEFF 		bl	DT_Send_Data
 679              	.LVL78:
 326:.\Transfer.c  **** }
 680              		.loc 1 326 0
 681 0068 02B0     		add	sp, sp, #8
 682              		.cfi_def_cfa_offset 16
 683              	.LVL79:
 684              		@ sp needed
 685 006a 70BD     		pop	{r4, r5, r6, pc}
 686              	.LVL80:
 687              	.L52:
 688              		.align	2
 689              	.L51:
 690 006c 00000000 		.word	data_to_send
 691              		.cfi_endproc
 692              	.LFE68:
 693              		.size	DT_Send_SystemInfo, .-DT_Send_SystemInfo
 694              		.section	.text.DT_Send_Status,"ax",%progbits
 695              		.align	2
 696              		.global	DT_Send_Status
 697              		.thumb
 698              		.thumb_func
 699              		.type	DT_Send_Status, %function
 700              	DT_Send_Status:
 701              	.LFB69:
 327:.\Transfer.c  **** void DT_Send_Status(uint8 car_lock,enum CAR_DIR car_dir,uint16 car_speed,uint16 car_pull,uint16 Xkm
 328:.\Transfer.c  **** {
 702              		.loc 1 328 0
 703              		.cfi_startproc
 704              		@ args = 4, pretend = 0, frame = 8
 705              		@ frame_needed = 0, uses_anonymous_args = 0
 706              	.LVL81:
 707 0000 70B5     		push	{r4, r5, r6, lr}
 708              		.cfi_def_cfa_offset 16
 709              		.cfi_offset 4, -16
 710              		.cfi_offset 5, -12
 711              		.cfi_offset 6, -8
 712              		.cfi_offset 14, -4
 713 0002 82B0     		sub	sp, sp, #8
 714              		.cfi_def_cfa_offset 24
 715 0004 BDF81860 		ldrh	r6, [sp, #24]
 716              	.LVL82:
ARM GAS  C:\Users\pxc\AppData\Local\Temp\cc2eOiEg.s 			page 20


 329:.\Transfer.c  **** 	uint8 _cnt=0;
 330:.\Transfer.c  ****     uint8 _temp;
 331:.\Transfer.c  **** 	uint16 _temp1;
 332:.\Transfer.c  **** 
 333:.\Transfer.c  **** 	
 334:.\Transfer.c  **** 	data_to_send[_cnt++]=0xAA;
 717              		.loc 1 334 0
 718 0008 134D     		ldr	r5, .L57
 719 000a AA24     		movs	r4, #170
 720 000c 2C70     		strb	r4, [r5]
 721              	.LVL83:
 335:.\Transfer.c  **** 	data_to_send[_cnt++]=0xAA;
 722              		.loc 1 335 0
 723 000e 6C70     		strb	r4, [r5, #1]
 724              	.LVL84:
 336:.\Transfer.c  **** 	data_to_send[_cnt++]=0x01;
 725              		.loc 1 336 0
 726 0010 0124     		movs	r4, #1
 727 0012 AC70     		strb	r4, [r5, #2]
 728              	.LVL85:
 337:.\Transfer.c  **** 	data_to_send[_cnt++]=0;
 729              		.loc 1 337 0
 730 0014 0024     		movs	r4, #0
 731              	.LVL86:
 338:.\Transfer.c  ****     
 339:.\Transfer.c  **** 	_temp = car_lock;
 340:.\Transfer.c  **** 	data_to_send[_cnt++]=_temp;
 732              		.loc 1 340 0
 733 0016 2871     		strb	r0, [r5, #4]
 734              	.LVL87:
 341:.\Transfer.c  **** 	_temp = car_dir;
 342:.\Transfer.c  **** 	data_to_send[_cnt++]=_temp;
 735              		.loc 1 342 0
 736 0018 6971     		strb	r1, [r5, #5]
 737              	.LVL88:
 343:.\Transfer.c  **** 
 344:.\Transfer.c  **** 	_temp1 =  car_speed;
 345:.\Transfer.c  **** 	data_to_send[_cnt++]=BYTE1(_temp1);
 738              		.loc 1 345 0
 739 001a 110A     		lsrs	r1, r2, #8
 740              	.LVL89:
 741 001c A971     		strb	r1, [r5, #6]
 742              	.LVL90:
 346:.\Transfer.c  **** 	data_to_send[_cnt++]=BYTE0(_temp1);
 743              		.loc 1 346 0
 744 001e EA71     		strb	r2, [r5, #7]
 745              	.LVL91:
 347:.\Transfer.c  **** 	
 348:.\Transfer.c  ****     _temp1 =  car_pull;
 349:.\Transfer.c  **** 	data_to_send[_cnt++]=BYTE1(_temp1);
 746              		.loc 1 349 0
 747 0020 1A0A     		lsrs	r2, r3, #8
 748              	.LVL92:
 749 0022 2A72     		strb	r2, [r5, #8]
 750              	.LVL93:
 350:.\Transfer.c  **** 	data_to_send[_cnt++]=BYTE0(_temp1);
 751              		.loc 1 350 0
ARM GAS  C:\Users\pxc\AppData\Local\Temp\cc2eOiEg.s 			page 21


 752 0024 6B72     		strb	r3, [r5, #9]
 351:.\Transfer.c  **** 	_temp1 =  Xkm;
 753              		.loc 1 351 0
 754 0026 ADF80660 		strh	r6, [sp, #6]	@ movhi
 755              	.LVL94:
 352:.\Transfer.c  ****     data_to_send[_cnt++]=BYTE1(_temp1);
 756              		.loc 1 352 0
 757 002a 330A     		lsrs	r3, r6, #8
 758              	.LVL95:
 759 002c AB72     		strb	r3, [r5, #10]
 760              	.LVL96:
 353:.\Transfer.c  **** 	data_to_send[_cnt++]=BYTE0(_temp1);
 761              		.loc 1 353 0
 762 002e EE72     		strb	r6, [r5, #11]
 354:.\Transfer.c  ****     
 355:.\Transfer.c  **** 	data_to_send[3] = _cnt-4;
 763              		.loc 1 355 0
 764 0030 0823     		movs	r3, #8
 765 0032 EB70     		strb	r3, [r5, #3]
 766              	.LVL97:
 356:.\Transfer.c  **** 	
 357:.\Transfer.c  **** 	uint8 sum = 0;
 358:.\Transfer.c  ****     uint8 i=0;
 359:.\Transfer.c  **** 	for(i=0;i<_cnt;i++)
 767              		.loc 1 359 0
 768 0034 2346     		mov	r3, r4
 357:.\Transfer.c  ****     uint8 i=0;
 769              		.loc 1 357 0
 770 0036 2246     		mov	r2, r4
 771              		.loc 1 359 0
 772 0038 05E0     		b	.L54
 773              	.LVL98:
 774              	.L55:
 360:.\Transfer.c  **** 		sum += data_to_send[i];
 775              		.loc 1 360 0 discriminator 3
 776 003a 0749     		ldr	r1, .L57
 777 003c C95C     		ldrb	r1, [r1, r3]	@ zero_extendqisi2
 778 003e 0A44     		add	r2, r2, r1
 779              	.LVL99:
 780 0040 D2B2     		uxtb	r2, r2
 781              	.LVL100:
 359:.\Transfer.c  **** 		sum += data_to_send[i];
 782              		.loc 1 359 0 discriminator 3
 783 0042 0133     		adds	r3, r3, #1
 784              	.LVL101:
 785 0044 DBB2     		uxtb	r3, r3
 786              	.LVL102:
 787              	.L54:
 359:.\Transfer.c  **** 		sum += data_to_send[i];
 788              		.loc 1 359 0 is_stmt 0 discriminator 1
 789 0046 0B2B     		cmp	r3, #11
 790 0048 F7D9     		bls	.L55
 791              	.LVL103:
 361:.\Transfer.c  **** 	data_to_send[_cnt++]=sum;
 792              		.loc 1 361 0 is_stmt 1
 793 004a 0348     		ldr	r0, .L57
 794              	.LVL104:
ARM GAS  C:\Users\pxc\AppData\Local\Temp\cc2eOiEg.s 			page 22


 795 004c 0273     		strb	r2, [r0, #12]
 362:.\Transfer.c  **** 	
 363:.\Transfer.c  **** 	DT_Send_Data(data_to_send, _cnt);
 796              		.loc 1 363 0
 797 004e 0D21     		movs	r1, #13
 798 0050 FFF7FEFF 		bl	DT_Send_Data
 799              	.LVL105:
 364:.\Transfer.c  **** }
 800              		.loc 1 364 0
 801 0054 02B0     		add	sp, sp, #8
 802              		.cfi_def_cfa_offset 16
 803              		@ sp needed
 804 0056 70BD     		pop	{r4, r5, r6, pc}
 805              	.LVL106:
 806              	.L58:
 807              		.align	2
 808              	.L57:
 809 0058 00000000 		.word	data_to_send
 810              		.cfi_endproc
 811              	.LFE69:
 812              		.size	DT_Send_Status, .-DT_Send_Status
 813              		.section	.text.DT_Send_Senser,"ax",%progbits
 814              		.align	2
 815              		.global	DT_Send_Senser
 816              		.thumb
 817              		.thumb_func
 818              		.type	DT_Send_Senser, %function
 819              	DT_Send_Senser:
 820              	.LFB70:
 365:.\Transfer.c  **** void DT_Send_Senser(int32 pitch,int32 roll,int32 yaw,int32 a_x,int32 a_y,int32 a_z)
 366:.\Transfer.c  **** {
 821              		.loc 1 366 0
 822              		.cfi_startproc
 823              		@ args = 8, pretend = 0, frame = 8
 824              		@ frame_needed = 0, uses_anonymous_args = 0
 825              	.LVL107:
 826 0000 F0B5     		push	{r4, r5, r6, r7, lr}
 827              		.cfi_def_cfa_offset 20
 828              		.cfi_offset 4, -20
 829              		.cfi_offset 5, -16
 830              		.cfi_offset 6, -12
 831              		.cfi_offset 7, -8
 832              		.cfi_offset 14, -4
 833 0002 83B0     		sub	sp, sp, #12
 834              		.cfi_def_cfa_offset 32
 835 0004 089F     		ldr	r7, [sp, #32]
 836 0006 099E     		ldr	r6, [sp, #36]
 837              	.LVL108:
 367:.\Transfer.c  **** 	uint8 _cnt=0;
 368:.\Transfer.c  **** 	int32 _temp;
 369:.\Transfer.c  **** 	
 370:.\Transfer.c  **** 	data_to_send[_cnt++]=0xAA;
 838              		.loc 1 370 0
 839 0008 2A4D     		ldr	r5, .L63
 840 000a AA24     		movs	r4, #170
 841 000c 2C70     		strb	r4, [r5]
 842              	.LVL109:
ARM GAS  C:\Users\pxc\AppData\Local\Temp\cc2eOiEg.s 			page 23


 371:.\Transfer.c  **** 	data_to_send[_cnt++]=0xAA;
 843              		.loc 1 371 0
 844 000e 6C70     		strb	r4, [r5, #1]
 845              	.LVL110:
 372:.\Transfer.c  **** 	data_to_send[_cnt++]=0x02;
 846              		.loc 1 372 0
 847 0010 0224     		movs	r4, #2
 848 0012 AC70     		strb	r4, [r5, #2]
 849              	.LVL111:
 373:.\Transfer.c  **** 	data_to_send[_cnt++]=0;
 850              		.loc 1 373 0
 851 0014 0024     		movs	r4, #0
 852              	.LVL112:
 374:.\Transfer.c  **** 	
 375:.\Transfer.c  **** 	_temp = pitch;
 376:.\Transfer.c  **** 	data_to_send[_cnt++]=BYTE3(_temp);
 853              		.loc 1 376 0
 854 0016 4FEA106E 		lsr	lr, r0, #24
 855 001a 85F804E0 		strb	lr, [r5, #4]
 856              	.LVL113:
 377:.\Transfer.c  **** 	data_to_send[_cnt++]=BYTE2(_temp);
 857              		.loc 1 377 0
 858 001e C0F3074E 		ubfx	lr, r0, #16, #8
 859 0022 85F805E0 		strb	lr, [r5, #5]
 860              	.LVL114:
 378:.\Transfer.c  ****     data_to_send[_cnt++]=BYTE1(_temp);
 861              		.loc 1 378 0
 862 0026 C0F3072E 		ubfx	lr, r0, #8, #8
 863 002a 85F806E0 		strb	lr, [r5, #6]
 864              	.LVL115:
 379:.\Transfer.c  **** 	data_to_send[_cnt++]=BYTE0(_temp);
 865              		.loc 1 379 0
 866 002e E871     		strb	r0, [r5, #7]
 867              	.LVL116:
 380:.\Transfer.c  **** 	_temp = roll;
 381:.\Transfer.c  **** 	data_to_send[_cnt++]=BYTE3(_temp);
 868              		.loc 1 381 0
 869 0030 080E     		lsrs	r0, r1, #24
 870              	.LVL117:
 871 0032 2872     		strb	r0, [r5, #8]
 872              	.LVL118:
 382:.\Transfer.c  **** 	data_to_send[_cnt++]=BYTE2(_temp);
 873              		.loc 1 382 0
 874 0034 C1F30740 		ubfx	r0, r1, #16, #8
 875 0038 6872     		strb	r0, [r5, #9]
 876              	.LVL119:
 383:.\Transfer.c  ****     data_to_send[_cnt++]=BYTE1(_temp);
 877              		.loc 1 383 0
 878 003a C1F30720 		ubfx	r0, r1, #8, #8
 879 003e A872     		strb	r0, [r5, #10]
 880              	.LVL120:
 384:.\Transfer.c  **** 	data_to_send[_cnt++]=BYTE0(_temp);
 881              		.loc 1 384 0
 882 0040 E972     		strb	r1, [r5, #11]
 883              	.LVL121:
 385:.\Transfer.c  ****     _temp = yaw;
 386:.\Transfer.c  **** 	data_to_send[_cnt++]=BYTE3(_temp);
ARM GAS  C:\Users\pxc\AppData\Local\Temp\cc2eOiEg.s 			page 24


 884              		.loc 1 386 0
 885 0042 110E     		lsrs	r1, r2, #24
 886              	.LVL122:
 887 0044 2973     		strb	r1, [r5, #12]
 888              	.LVL123:
 387:.\Transfer.c  **** 	data_to_send[_cnt++]=BYTE2(_temp);
 889              		.loc 1 387 0
 890 0046 C2F30741 		ubfx	r1, r2, #16, #8
 891 004a 6973     		strb	r1, [r5, #13]
 892              	.LVL124:
 388:.\Transfer.c  ****     data_to_send[_cnt++]=BYTE1(_temp);
 893              		.loc 1 388 0
 894 004c C2F30721 		ubfx	r1, r2, #8, #8
 895 0050 A973     		strb	r1, [r5, #14]
 896              	.LVL125:
 389:.\Transfer.c  **** 	data_to_send[_cnt++]=BYTE0(_temp);
 897              		.loc 1 389 0
 898 0052 EA73     		strb	r2, [r5, #15]
 899              	.LVL126:
 390:.\Transfer.c  **** 	
 391:.\Transfer.c  ****         _temp = a_x;
 392:.\Transfer.c  **** 	data_to_send[_cnt++]=BYTE3(_temp);
 900              		.loc 1 392 0
 901 0054 1A0E     		lsrs	r2, r3, #24
 902              	.LVL127:
 903 0056 2A74     		strb	r2, [r5, #16]
 904              	.LVL128:
 393:.\Transfer.c  **** 	data_to_send[_cnt++]=BYTE2(_temp);
 905              		.loc 1 393 0
 906 0058 C3F30742 		ubfx	r2, r3, #16, #8
 907 005c 6A74     		strb	r2, [r5, #17]
 908              	.LVL129:
 394:.\Transfer.c  ****     data_to_send[_cnt++]=BYTE1(_temp);
 909              		.loc 1 394 0
 910 005e C3F30722 		ubfx	r2, r3, #8, #8
 911 0062 AA74     		strb	r2, [r5, #18]
 912              	.LVL130:
 395:.\Transfer.c  **** 	data_to_send[_cnt++]=BYTE0(_temp);
 913              		.loc 1 395 0
 914 0064 EB74     		strb	r3, [r5, #19]
 915              	.LVL131:
 396:.\Transfer.c  ****         _temp = a_y;
 397:.\Transfer.c  **** 	data_to_send[_cnt++]=BYTE3(_temp);
 916              		.loc 1 397 0
 917 0066 3B0E     		lsrs	r3, r7, #24
 918              	.LVL132:
 919 0068 2B75     		strb	r3, [r5, #20]
 920              	.LVL133:
 398:.\Transfer.c  **** 	data_to_send[_cnt++]=BYTE2(_temp);
 921              		.loc 1 398 0
 922 006a C7F30743 		ubfx	r3, r7, #16, #8
 923 006e 6B75     		strb	r3, [r5, #21]
 924              	.LVL134:
 399:.\Transfer.c  ****     data_to_send[_cnt++]=BYTE1(_temp);
 925              		.loc 1 399 0
 926 0070 C7F30723 		ubfx	r3, r7, #8, #8
 927 0074 AB75     		strb	r3, [r5, #22]
ARM GAS  C:\Users\pxc\AppData\Local\Temp\cc2eOiEg.s 			page 25


 928              	.LVL135:
 400:.\Transfer.c  **** 	data_to_send[_cnt++]=BYTE0(_temp);
 929              		.loc 1 400 0
 930 0076 EF75     		strb	r7, [r5, #23]
 401:.\Transfer.c  ****         _temp = a_z;
 931              		.loc 1 401 0
 932 0078 0196     		str	r6, [sp, #4]
 933              	.LVL136:
 402:.\Transfer.c  **** 	data_to_send[_cnt++]=BYTE3(_temp);
 934              		.loc 1 402 0
 935 007a 330E     		lsrs	r3, r6, #24
 936 007c 2B76     		strb	r3, [r5, #24]
 937              	.LVL137:
 403:.\Transfer.c  **** 	data_to_send[_cnt++]=BYTE2(_temp);
 938              		.loc 1 403 0
 939 007e C6F30743 		ubfx	r3, r6, #16, #8
 940 0082 6B76     		strb	r3, [r5, #25]
 941              	.LVL138:
 404:.\Transfer.c  ****     data_to_send[_cnt++]=BYTE1(_temp);
 942              		.loc 1 404 0
 943 0084 C6F30723 		ubfx	r3, r6, #8, #8
 944 0088 AB76     		strb	r3, [r5, #26]
 945              	.LVL139:
 405:.\Transfer.c  **** 	data_to_send[_cnt++]=BYTE0(_temp);
 946              		.loc 1 405 0
 947 008a EE76     		strb	r6, [r5, #27]
 406:.\Transfer.c  **** 	
 407:.\Transfer.c  **** 	data_to_send[3] = _cnt-4;
 948              		.loc 1 407 0
 949 008c 1823     		movs	r3, #24
 950 008e EB70     		strb	r3, [r5, #3]
 951              	.LVL140:
 408:.\Transfer.c  **** 	
 409:.\Transfer.c  **** 	uint8 sum = 0;
 410:.\Transfer.c  ****     uint8 i=0;
 411:.\Transfer.c  **** 	for( i=0;i<_cnt;i++)
 952              		.loc 1 411 0
 953 0090 2346     		mov	r3, r4
 409:.\Transfer.c  ****     uint8 i=0;
 954              		.loc 1 409 0
 955 0092 2246     		mov	r2, r4
 956              		.loc 1 411 0
 957 0094 05E0     		b	.L60
 958              	.LVL141:
 959              	.L61:
 412:.\Transfer.c  **** 		sum += data_to_send[i];
 960              		.loc 1 412 0 discriminator 3
 961 0096 0749     		ldr	r1, .L63
 962 0098 C95C     		ldrb	r1, [r1, r3]	@ zero_extendqisi2
 963 009a 0A44     		add	r2, r2, r1
 964              	.LVL142:
 965 009c D2B2     		uxtb	r2, r2
 966              	.LVL143:
 411:.\Transfer.c  **** 		sum += data_to_send[i];
 967              		.loc 1 411 0 discriminator 3
 968 009e 0133     		adds	r3, r3, #1
 969              	.LVL144:
ARM GAS  C:\Users\pxc\AppData\Local\Temp\cc2eOiEg.s 			page 26


 970 00a0 DBB2     		uxtb	r3, r3
 971              	.LVL145:
 972              	.L60:
 411:.\Transfer.c  **** 		sum += data_to_send[i];
 973              		.loc 1 411 0 is_stmt 0 discriminator 1
 974 00a2 1B2B     		cmp	r3, #27
 975 00a4 F7D9     		bls	.L61
 976              	.LVL146:
 413:.\Transfer.c  **** 	data_to_send[_cnt++] = sum;
 977              		.loc 1 413 0 is_stmt 1
 978 00a6 0348     		ldr	r0, .L63
 979 00a8 0277     		strb	r2, [r0, #28]
 414:.\Transfer.c  **** 	
 415:.\Transfer.c  **** 	DT_Send_Data(data_to_send, _cnt);
 980              		.loc 1 415 0
 981 00aa 1D21     		movs	r1, #29
 982 00ac FFF7FEFF 		bl	DT_Send_Data
 983              	.LVL147:
 416:.\Transfer.c  **** }
 984              		.loc 1 416 0
 985 00b0 03B0     		add	sp, sp, #12
 986              		.cfi_def_cfa_offset 20
 987              		@ sp needed
 988 00b2 F0BD     		pop	{r4, r5, r6, r7, pc}
 989              	.LVL148:
 990              	.L64:
 991              		.align	2
 992              	.L63:
 993 00b4 00000000 		.word	data_to_send
 994              		.cfi_endproc
 995              	.LFE70:
 996              		.size	DT_Send_Senser, .-DT_Send_Senser
 997              		.section	.text.DT_Send_Distance,"ax",%progbits
 998              		.align	2
 999              		.global	DT_Send_Distance
 1000              		.thumb
 1001              		.thumb_func
 1002              		.type	DT_Send_Distance, %function
 1003              	DT_Send_Distance:
 1004              	.LFB71:
 417:.\Transfer.c  **** void DT_Send_Distance(uint16 front_distance,uint16 back_distance)
 418:.\Transfer.c  **** {
 1005              		.loc 1 418 0
 1006              		.cfi_startproc
 1007              		@ args = 0, pretend = 0, frame = 8
 1008              		@ frame_needed = 0, uses_anonymous_args = 0
 1009              	.LVL149:
 1010 0000 10B5     		push	{r4, lr}
 1011              		.cfi_def_cfa_offset 8
 1012              		.cfi_offset 4, -8
 1013              		.cfi_offset 14, -4
 1014 0002 82B0     		sub	sp, sp, #8
 1015              		.cfi_def_cfa_offset 16
 1016 0004 ADF80600 		strh	r0, [sp, #6]	@ movhi
 1017 0008 ADF80410 		strh	r1, [sp, #4]	@ movhi
 1018              	.LVL150:
 419:.\Transfer.c  **** 	uint8 _cnt=0;
ARM GAS  C:\Users\pxc\AppData\Local\Temp\cc2eOiEg.s 			page 27


 420:.\Transfer.c  **** 	
 421:.\Transfer.c  **** 	data_to_send[_cnt++]=0xAA;
 1019              		.loc 1 421 0
 1020 000c 0F4B     		ldr	r3, .L69
 1021 000e AA22     		movs	r2, #170
 1022 0010 1A70     		strb	r2, [r3]
 1023              	.LVL151:
 422:.\Transfer.c  **** 	data_to_send[_cnt++]=0xAA;
 1024              		.loc 1 422 0
 1025 0012 5A70     		strb	r2, [r3, #1]
 1026              	.LVL152:
 423:.\Transfer.c  **** 	data_to_send[_cnt++]=0x03;
 1027              		.loc 1 423 0
 1028 0014 0322     		movs	r2, #3
 1029 0016 9A70     		strb	r2, [r3, #2]
 1030              	.LVL153:
 424:.\Transfer.c  **** 	data_to_send[_cnt++]=0;
 1031              		.loc 1 424 0
 1032 0018 0022     		movs	r2, #0
 1033              	.LVL154:
 425:.\Transfer.c  **** 	data_to_send[_cnt++]=BYTE1(front_distance);
 1034              		.loc 1 425 0
 1035 001a 040A     		lsrs	r4, r0, #8
 1036 001c 1C71     		strb	r4, [r3, #4]
 1037              	.LVL155:
 426:.\Transfer.c  **** 	data_to_send[_cnt++]=BYTE0(front_distance);
 1038              		.loc 1 426 0
 1039 001e 5871     		strb	r0, [r3, #5]
 1040              	.LVL156:
 427:.\Transfer.c  ****     
 428:.\Transfer.c  **** 	data_to_send[_cnt++]=BYTE1(back_distance);
 1041              		.loc 1 428 0
 1042 0020 080A     		lsrs	r0, r1, #8
 1043              	.LVL157:
 1044 0022 9871     		strb	r0, [r3, #6]
 1045              	.LVL158:
 429:.\Transfer.c  **** 	data_to_send[_cnt++]=BYTE0(back_distance);
 1046              		.loc 1 429 0
 1047 0024 D971     		strb	r1, [r3, #7]
 430:.\Transfer.c  **** 
 431:.\Transfer.c  **** 	data_to_send[3] = _cnt-4;
 1048              		.loc 1 431 0
 1049 0026 0421     		movs	r1, #4
 1050              	.LVL159:
 1051 0028 D970     		strb	r1, [r3, #3]
 1052              	.LVL160:
 432:.\Transfer.c  **** 	
 433:.\Transfer.c  **** 	uint8 sum = 0;
 434:.\Transfer.c  ****     uint8 i=0;
 435:.\Transfer.c  **** 	for( i=0;i<_cnt;i++)
 1053              		.loc 1 435 0
 1054 002a 1346     		mov	r3, r2
 1055 002c 05E0     		b	.L66
 1056              	.LVL161:
 1057              	.L67:
 436:.\Transfer.c  **** 		sum += data_to_send[i];
 1058              		.loc 1 436 0 discriminator 3
ARM GAS  C:\Users\pxc\AppData\Local\Temp\cc2eOiEg.s 			page 28


 1059 002e 0749     		ldr	r1, .L69
 1060 0030 C95C     		ldrb	r1, [r1, r3]	@ zero_extendqisi2
 1061 0032 0A44     		add	r2, r2, r1
 1062              	.LVL162:
 1063 0034 D2B2     		uxtb	r2, r2
 1064              	.LVL163:
 435:.\Transfer.c  **** 		sum += data_to_send[i];
 1065              		.loc 1 435 0 discriminator 3
 1066 0036 0133     		adds	r3, r3, #1
 1067              	.LVL164:
 1068 0038 DBB2     		uxtb	r3, r3
 1069              	.LVL165:
 1070              	.L66:
 435:.\Transfer.c  **** 		sum += data_to_send[i];
 1071              		.loc 1 435 0 is_stmt 0 discriminator 1
 1072 003a 072B     		cmp	r3, #7
 1073 003c F7D9     		bls	.L67
 1074              	.LVL166:
 437:.\Transfer.c  **** 	
 438:.\Transfer.c  **** 	data_to_send[_cnt++]=sum;
 1075              		.loc 1 438 0 is_stmt 1
 1076 003e 0348     		ldr	r0, .L69
 1077 0040 0272     		strb	r2, [r0, #8]
 439:.\Transfer.c  **** 	
 440:.\Transfer.c  **** 	DT_Send_Data(data_to_send, _cnt);
 1078              		.loc 1 440 0
 1079 0042 0921     		movs	r1, #9
 1080 0044 FFF7FEFF 		bl	DT_Send_Data
 1081              	.LVL167:
 441:.\Transfer.c  **** }
 1082              		.loc 1 441 0
 1083 0048 02B0     		add	sp, sp, #8
 1084              		.cfi_def_cfa_offset 8
 1085              		@ sp needed
 1086 004a 10BD     		pop	{r4, pc}
 1087              	.LVL168:
 1088              	.L70:
 1089              		.align	2
 1090              	.L69:
 1091 004c 00000000 		.word	data_to_send
 1092              		.cfi_endproc
 1093              	.LFE71:
 1094              		.size	DT_Send_Distance, .-DT_Send_Distance
 1095              		.section	.text.DT_Send_Power,"ax",%progbits
 1096              		.align	2
 1097              		.global	DT_Send_Power
 1098              		.thumb
 1099              		.thumb_func
 1100              		.type	DT_Send_Power, %function
 1101              	DT_Send_Power:
 1102              	.LFB72:
 442:.\Transfer.c  **** void DT_Send_Power(uint16 C_votage, uint16 D_votage )
 443:.\Transfer.c  **** {
 1103              		.loc 1 443 0
 1104              		.cfi_startproc
 1105              		@ args = 0, pretend = 0, frame = 8
 1106              		@ frame_needed = 0, uses_anonymous_args = 0
ARM GAS  C:\Users\pxc\AppData\Local\Temp\cc2eOiEg.s 			page 29


 1107              	.LVL169:
 1108 0000 10B5     		push	{r4, lr}
 1109              		.cfi_def_cfa_offset 8
 1110              		.cfi_offset 4, -8
 1111              		.cfi_offset 14, -4
 1112 0002 82B0     		sub	sp, sp, #8
 1113              		.cfi_def_cfa_offset 16
 1114              	.LVL170:
 444:.\Transfer.c  **** 	uint8 _cnt=0;
 445:.\Transfer.c  **** 	uint16 temp;
 446:.\Transfer.c  **** 	
 447:.\Transfer.c  **** 	data_to_send[_cnt++]=0xAA;
 1115              		.loc 1 447 0
 1116 0004 104B     		ldr	r3, .L75
 1117 0006 AA22     		movs	r2, #170
 1118 0008 1A70     		strb	r2, [r3]
 1119              	.LVL171:
 448:.\Transfer.c  **** 	data_to_send[_cnt++]=0xAA;
 1120              		.loc 1 448 0
 1121 000a 5A70     		strb	r2, [r3, #1]
 1122              	.LVL172:
 449:.\Transfer.c  **** 	data_to_send[_cnt++]=0x05;
 1123              		.loc 1 449 0
 1124 000c 0522     		movs	r2, #5
 1125 000e 9A70     		strb	r2, [r3, #2]
 1126              	.LVL173:
 450:.\Transfer.c  **** 	data_to_send[_cnt++]=0;
 1127              		.loc 1 450 0
 1128 0010 0022     		movs	r2, #0
 1129              	.LVL174:
 451:.\Transfer.c  **** 	
 452:.\Transfer.c  **** 	temp = C_votage;
 453:.\Transfer.c  **** 	data_to_send[_cnt++]=BYTE1(temp);
 1130              		.loc 1 453 0
 1131 0012 040A     		lsrs	r4, r0, #8
 1132 0014 1C71     		strb	r4, [r3, #4]
 1133              	.LVL175:
 454:.\Transfer.c  **** 	data_to_send[_cnt++]=BYTE0(temp);
 1134              		.loc 1 454 0
 1135 0016 5871     		strb	r0, [r3, #5]
 455:.\Transfer.c  **** 	temp = D_votage;
 1136              		.loc 1 455 0
 1137 0018 ADF80610 		strh	r1, [sp, #6]	@ movhi
 1138              	.LVL176:
 456:.\Transfer.c  **** 	data_to_send[_cnt++]=BYTE1(temp);
 1139              		.loc 1 456 0
 1140 001c 080A     		lsrs	r0, r1, #8
 1141              	.LVL177:
 1142 001e 9871     		strb	r0, [r3, #6]
 1143              	.LVL178:
 457:.\Transfer.c  **** 	data_to_send[_cnt++]=BYTE0(temp);
 1144              		.loc 1 457 0
 1145 0020 D971     		strb	r1, [r3, #7]
 458:.\Transfer.c  **** 	
 459:.\Transfer.c  **** 	data_to_send[3] = _cnt-4;
 1146              		.loc 1 459 0
 1147 0022 0421     		movs	r1, #4
ARM GAS  C:\Users\pxc\AppData\Local\Temp\cc2eOiEg.s 			page 30


 1148              	.LVL179:
 1149 0024 D970     		strb	r1, [r3, #3]
 1150              	.LVL180:
 460:.\Transfer.c  **** 	
 461:.\Transfer.c  **** 	uint8 sum = 0;
 462:.\Transfer.c  ****     uint8 i=0;
 463:.\Transfer.c  **** 	for( i=0;i<_cnt;i++)
 1151              		.loc 1 463 0
 1152 0026 1346     		mov	r3, r2
 1153 0028 05E0     		b	.L72
 1154              	.LVL181:
 1155              	.L73:
 464:.\Transfer.c  **** 		sum += data_to_send[i];
 1156              		.loc 1 464 0 discriminator 3
 1157 002a 0749     		ldr	r1, .L75
 1158 002c C95C     		ldrb	r1, [r1, r3]	@ zero_extendqisi2
 1159 002e 0A44     		add	r2, r2, r1
 1160              	.LVL182:
 1161 0030 D2B2     		uxtb	r2, r2
 1162              	.LVL183:
 463:.\Transfer.c  **** 		sum += data_to_send[i];
 1163              		.loc 1 463 0 discriminator 3
 1164 0032 0133     		adds	r3, r3, #1
 1165              	.LVL184:
 1166 0034 DBB2     		uxtb	r3, r3
 1167              	.LVL185:
 1168              	.L72:
 463:.\Transfer.c  **** 		sum += data_to_send[i];
 1169              		.loc 1 463 0 is_stmt 0 discriminator 1
 1170 0036 072B     		cmp	r3, #7
 1171 0038 F7D9     		bls	.L73
 1172              	.LVL186:
 465:.\Transfer.c  **** 	
 466:.\Transfer.c  **** 	data_to_send[_cnt++]=sum;  
 1173              		.loc 1 466 0 is_stmt 1
 1174 003a 0348     		ldr	r0, .L75
 1175 003c 0272     		strb	r2, [r0, #8]
 467:.\Transfer.c  **** 	DT_Send_Data(data_to_send, _cnt);
 1176              		.loc 1 467 0
 1177 003e 0921     		movs	r1, #9
 1178 0040 FFF7FEFF 		bl	DT_Send_Data
 1179              	.LVL187:
 468:.\Transfer.c  ****     
 469:.\Transfer.c  **** }
 1180              		.loc 1 469 0
 1181 0044 02B0     		add	sp, sp, #8
 1182              		.cfi_def_cfa_offset 8
 1183              		@ sp needed
 1184 0046 10BD     		pop	{r4, pc}
 1185              	.L76:
 1186              		.align	2
 1187              	.L75:
 1188 0048 00000000 		.word	data_to_send
 1189              		.cfi_endproc
 1190              	.LFE72:
 1191              		.size	DT_Send_Power, .-DT_Send_Power
 1192              		.global	__aeabi_i2d
ARM GAS  C:\Users\pxc\AppData\Local\Temp\cc2eOiEg.s 			page 31


 1193              		.global	__aeabi_dmul
 1194              		.global	__aeabi_d2f
 1195              		.global	__aeabi_fmul
 1196              		.global	__aeabi_f2iz
 1197              		.section	.text.DT_Data_Exchange,"ax",%progbits
 1198              		.align	2
 1199              		.global	DT_Data_Exchange
 1200              		.thumb
 1201              		.thumb_func
 1202              		.type	DT_Data_Exchange, %function
 1203              	DT_Data_Exchange:
 1204              	.LFB63:
  16:.\Transfer.c  ****     static float temp_pitch;
 1205              		.loc 1 16 0
 1206              		.cfi_startproc
 1207              		@ args = 0, pretend = 0, frame = 0
 1208              		@ frame_needed = 0, uses_anonymous_args = 0
 1209 0000 2DE9F041 		push	{r4, r5, r6, r7, r8, lr}
 1210              		.cfi_def_cfa_offset 24
 1211              		.cfi_offset 4, -24
 1212              		.cfi_offset 5, -20
 1213              		.cfi_offset 6, -16
 1214              		.cfi_offset 7, -12
 1215              		.cfi_offset 8, -8
 1216              		.cfi_offset 14, -4
 1217 0004 82B0     		sub	sp, sp, #8
 1218              		.cfi_def_cfa_offset 32
  28:.\Transfer.c  **** 		f.send_senser = 1;	
 1219              		.loc 1 28 0
 1220 0006 734B     		ldr	r3, .L90
 1221 0008 93F83820 		ldrb	r2, [r3, #56]	@ zero_extendqisi2
 1222 000c 724B     		ldr	r3, .L90+4
 1223 000e A3FB0213 		umull	r1, r3, r3, r2
 1224 0012 9B08     		lsrs	r3, r3, #2
 1225 0014 03EB8303 		add	r3, r3, r3, lsl #2
 1226 0018 D31A     		subs	r3, r2, r3
 1227 001a DBB2     		uxtb	r3, r3
 1228 001c 042B     		cmp	r3, #4
 1229 001e 02D1     		bne	.L78
  29:.\Transfer.c  **** 	
 1230              		.loc 1 29 0
 1231 0020 0121     		movs	r1, #1
 1232 0022 6E4B     		ldr	r3, .L90+8
 1233 0024 9970     		strb	r1, [r3, #2]
 1234              	.L78:
  31:.\Transfer.c  **** 		f.send_status = 1;	
 1235              		.loc 1 31 0
 1236 0026 6E4B     		ldr	r3, .L90+12
 1237 0028 A3FB0213 		umull	r1, r3, r3, r2
 1238 002c DB08     		lsrs	r3, r3, #3
 1239 002e 03EB8301 		add	r1, r3, r3, lsl #2
 1240 0032 03EB4103 		add	r3, r3, r1, lsl #1
 1241 0036 D31A     		subs	r3, r2, r3
 1242 0038 DBB2     		uxtb	r3, r3
 1243 003a 0A2B     		cmp	r3, #10
 1244 003c 02D1     		bne	.L79
  32:.\Transfer.c  **** 	
ARM GAS  C:\Users\pxc\AppData\Local\Temp\cc2eOiEg.s 			page 32


 1245              		.loc 1 32 0
 1246 003e 0121     		movs	r1, #1
 1247 0040 664B     		ldr	r3, .L90+8
 1248 0042 5970     		strb	r1, [r3, #1]
 1249              	.L79:
  34:.\Transfer.c  **** 		f.send_distance = 1;	
 1250              		.loc 1 34 0
 1251 0044 674B     		ldr	r3, .L90+16
 1252 0046 A3FB0213 		umull	r1, r3, r3, r2
 1253 004a 9B08     		lsrs	r3, r3, #2
 1254 004c 03EB4301 		add	r1, r3, r3, lsl #1
 1255 0050 03EB8103 		add	r3, r3, r1, lsl #2
 1256 0054 D31A     		subs	r3, r2, r3
 1257 0056 DBB2     		uxtb	r3, r3
 1258 0058 0C2B     		cmp	r3, #12
 1259 005a 02D1     		bne	.L80
  35:.\Transfer.c  **** 	
 1260              		.loc 1 35 0
 1261 005c 0121     		movs	r1, #1
 1262 005e 5F4B     		ldr	r3, .L90+8
 1263 0060 5972     		strb	r1, [r3, #9]
 1264              	.L80:
  37:.\Transfer.c  **** 		f.send_motopwm = 1;	
 1265              		.loc 1 37 0
 1266 0062 5D4B     		ldr	r3, .L90+4
 1267 0064 A3FB0213 		umull	r1, r3, r3, r2
 1268 0068 1B09     		lsrs	r3, r3, #4
 1269 006a 03EB8303 		add	r3, r3, r3, lsl #2
 1270 006e 9B00     		lsls	r3, r3, #2
 1271 0070 D31A     		subs	r3, r2, r3
 1272 0072 DBB2     		uxtb	r3, r3
 1273 0074 132B     		cmp	r3, #19
 1274 0076 02D1     		bne	.L81
  38:.\Transfer.c  ****     
 1275              		.loc 1 38 0
 1276 0078 0121     		movs	r1, #1
 1277 007a 584B     		ldr	r3, .L90+8
 1278 007c D972     		strb	r1, [r3, #11]
 1279              	.L81:
  40:.\Transfer.c  **** 		f.send_power = 1;		
 1280              		.loc 1 40 0
 1281 007e 02F00703 		and	r3, r2, #7
 1282 0082 072B     		cmp	r3, #7
 1283 0084 02D1     		bne	.L82
  41:.\Transfer.c  ****     
 1284              		.loc 1 41 0
 1285 0086 0121     		movs	r1, #1
 1286 0088 544B     		ldr	r3, .L90+8
 1287 008a 1973     		strb	r1, [r3, #12]
 1288              	.L82:
  43:.\Transfer.c  **** /////////////////////////////////////////////////////////////////////////////////////
 1289              		.loc 1 43 0
 1290 008c 0132     		adds	r2, r2, #1
 1291 008e 514B     		ldr	r3, .L90
 1292 0090 83F83820 		strb	r2, [r3, #56]
  45:.\Transfer.c  **** 	{
 1293              		.loc 1 45 0
ARM GAS  C:\Users\pxc\AppData\Local\Temp\cc2eOiEg.s 			page 33


 1294 0094 514B     		ldr	r3, .L90+8
 1295 0096 1B78     		ldrb	r3, [r3]	@ zero_extendqisi2
 1296 0098 93B1     		cbz	r3, .L83
  48:.\Transfer.c  ****         if(f.send_version == 50)
 1297              		.loc 1 48 0
 1298 009a 0133     		adds	r3, r3, #1
 1299 009c DBB2     		uxtb	r3, r3
 1300 009e 4F4A     		ldr	r2, .L90+8
 1301 00a0 1370     		strb	r3, [r2]
  49:.\Transfer.c  ****         {
 1302              		.loc 1 49 0
 1303 00a2 322B     		cmp	r3, #50
 1304 00a4 02D1     		bne	.L84
  51:.\Transfer.c  ****         }
 1305              		.loc 1 51 0
 1306 00a6 0022     		movs	r2, #0
 1307 00a8 4C4B     		ldr	r3, .L90+8
 1308 00aa 1A70     		strb	r2, [r3]
 1309              	.L84:
  53:.\Transfer.c  **** 	}
 1310              		.loc 1 53 0
 1311 00ac 4E4C     		ldr	r4, .L90+20
 1312 00ae A08F     		ldrh	r0, [r4, #60]
 1313 00b0 E18F     		ldrh	r1, [r4, #62]
 1314 00b2 228E     		ldrh	r2, [r4, #48]
 1315 00b4 638E     		ldrh	r3, [r4, #50]
 1316 00b6 A48E     		ldrh	r4, [r4, #52]
 1317 00b8 0094     		str	r4, [sp]
 1318 00ba FFF7FEFF 		bl	DT_Send_SystemInfo
 1319              	.LVL188:
 1320 00be 86E0     		b	.L77
 1321              	.L83:
  56:.\Transfer.c  **** 	{
 1322              		.loc 1 56 0
 1323 00c0 464B     		ldr	r3, .L90+8
 1324 00c2 5B78     		ldrb	r3, [r3, #1]	@ zero_extendqisi2
 1325 00c4 63B1     		cbz	r3, .L86
  58:.\Transfer.c  ****     	DT_Send_Status(0,g_Car.set_dir,g_Car.set_car_speed,P_V,g_Car.Xkm);
 1326              		.loc 1 58 0
 1327 00c6 0020     		movs	r0, #0
 1328 00c8 444B     		ldr	r3, .L90+8
 1329 00ca 5870     		strb	r0, [r3, #1]
  59:.\Transfer.c  **** 
 1330              		.loc 1 59 0
 1331 00cc 464C     		ldr	r4, .L90+20
 1332 00ce A178     		ldrb	r1, [r4, #2]	@ zero_extendqisi2
 1333 00d0 E288     		ldrh	r2, [r4, #6]
 1334 00d2 464B     		ldr	r3, .L90+24
 1335 00d4 1B88     		ldrh	r3, [r3]
 1336 00d6 248D     		ldrh	r4, [r4, #40]
 1337 00d8 0094     		str	r4, [sp]
 1338 00da FFF7FEFF 		bl	DT_Send_Status
 1339              	.LVL189:
 1340 00de 76E0     		b	.L77
 1341              	.L86:
  63:.\Transfer.c  **** 	{
 1342              		.loc 1 63 0
ARM GAS  C:\Users\pxc\AppData\Local\Temp\cc2eOiEg.s 			page 34


 1343 00e0 3E4B     		ldr	r3, .L90+8
 1344 00e2 9B78     		ldrb	r3, [r3, #2]	@ zero_extendqisi2
 1345 00e4 002B     		cmp	r3, #0
 1346 00e6 5AD0     		beq	.L87
  65:.\Transfer.c  ****         temp_pitch =  (S_IMU.pitch/32768.0*180);
 1347              		.loc 1 65 0
 1348 00e8 0024     		movs	r4, #0
 1349 00ea 3C4B     		ldr	r3, .L90+8
 1350 00ec 9C70     		strb	r4, [r3, #2]
  66:.\Transfer.c  ****         tmep_roll =   (S_IMU.roll/32768.0*180);
 1351              		.loc 1 66 0
 1352 00ee 404E     		ldr	r6, .L90+28
 1353 00f0 B6F90C00 		ldrsh	r0, [r6, #12]
 1354 00f4 FFF7FEFF 		bl	__aeabi_i2d
 1355              	.LVL190:
 1356 00f8 0022     		movs	r2, #0
 1357 00fa 4FF07C53 		mov	r3, #1056964608
 1358 00fe FFF7FEFF 		bl	__aeabi_dmul
 1359              	.LVL191:
 1360 0102 0022     		movs	r2, #0
 1361 0104 3B4B     		ldr	r3, .L90+32
 1362 0106 FFF7FEFF 		bl	__aeabi_dmul
 1363              	.LVL192:
 1364 010a FFF7FEFF 		bl	__aeabi_d2f
 1365              	.LVL193:
 1366 010e 8046     		mov	r8, r0
 1367 0110 304D     		ldr	r5, .L90
 1368 0112 E863     		str	r0, [r5, #60]	@ float
  67:.\Transfer.c  ****         temp_yaw   =  (S_IMU.yaw/32768.0*180);
 1369              		.loc 1 67 0
 1370 0114 B6F90E00 		ldrsh	r0, [r6, #14]
 1371 0118 FFF7FEFF 		bl	__aeabi_i2d
 1372              	.LVL194:
 1373 011c 0022     		movs	r2, #0
 1374 011e 4FF07C53 		mov	r3, #1056964608
 1375 0122 FFF7FEFF 		bl	__aeabi_dmul
 1376              	.LVL195:
 1377 0126 0022     		movs	r2, #0
 1378 0128 324B     		ldr	r3, .L90+32
 1379 012a FFF7FEFF 		bl	__aeabi_dmul
 1380              	.LVL196:
 1381 012e FFF7FEFF 		bl	__aeabi_d2f
 1382              	.LVL197:
 1383 0132 0746     		mov	r7, r0
 1384 0134 2864     		str	r0, [r5, #64]	@ float
  68:.\Transfer.c  ****       
 1385              		.loc 1 68 0
 1386 0136 B6F91000 		ldrsh	r0, [r6, #16]
 1387 013a FFF7FEFF 		bl	__aeabi_i2d
 1388              	.LVL198:
 1389 013e 0022     		movs	r2, #0
 1390 0140 4FF07C53 		mov	r3, #1056964608
 1391 0144 FFF7FEFF 		bl	__aeabi_dmul
 1392              	.LVL199:
 1393 0148 0022     		movs	r2, #0
 1394 014a 2A4B     		ldr	r3, .L90+32
 1395 014c FFF7FEFF 		bl	__aeabi_dmul
ARM GAS  C:\Users\pxc\AppData\Local\Temp\cc2eOiEg.s 			page 35


 1396              	.LVL200:
 1397 0150 FFF7FEFF 		bl	__aeabi_d2f
 1398              	.LVL201:
 1399 0154 0646     		mov	r6, r0
 1400 0156 6864     		str	r0, [r5, #68]	@ float
  70:.\Transfer.c  **** 	}	
 1401              		.loc 1 70 0
 1402 0158 4046     		mov	r0, r8
 1403 015a 2749     		ldr	r1, .L90+36
 1404 015c FFF7FEFF 		bl	__aeabi_fmul
 1405              	.LVL202:
 1406 0160 8046     		mov	r8, r0
 1407 0162 3846     		mov	r0, r7
 1408 0164 2449     		ldr	r1, .L90+36
 1409 0166 FFF7FEFF 		bl	__aeabi_fmul
 1410              	.LVL203:
 1411 016a 0546     		mov	r5, r0
 1412 016c 3046     		mov	r0, r6
 1413 016e 2249     		ldr	r1, .L90+36
 1414 0170 FFF7FEFF 		bl	__aeabi_fmul
 1415              	.LVL204:
 1416 0174 0746     		mov	r7, r0
 1417 0176 4046     		mov	r0, r8
 1418 0178 FFF7FEFF 		bl	__aeabi_f2iz
 1419              	.LVL205:
 1420 017c 0646     		mov	r6, r0
 1421 017e 2846     		mov	r0, r5
 1422 0180 FFF7FEFF 		bl	__aeabi_f2iz
 1423              	.LVL206:
 1424 0184 0546     		mov	r5, r0
 1425 0186 3846     		mov	r0, r7
 1426 0188 FFF7FEFF 		bl	__aeabi_f2iz
 1427              	.LVL207:
 1428 018c 0246     		mov	r2, r0
 1429 018e 0094     		str	r4, [sp]
 1430 0190 0194     		str	r4, [sp, #4]
 1431 0192 3046     		mov	r0, r6
 1432 0194 2946     		mov	r1, r5
 1433 0196 2346     		mov	r3, r4
 1434 0198 FFF7FEFF 		bl	DT_Send_Senser
 1435              	.LVL208:
 1436 019c 17E0     		b	.L77
 1437              	.L87:
  75:.\Transfer.c  **** 	{
 1438              		.loc 1 75 0
 1439 019e 0F4B     		ldr	r3, .L90+8
 1440 01a0 5B7A     		ldrb	r3, [r3, #9]	@ zero_extendqisi2
 1441 01a2 43B1     		cbz	r3, .L88
  77:.\Transfer.c  **** 	   DT_Send_Distance(g_Car.distance_front,g_Car.distance_back);
 1442              		.loc 1 77 0
 1443 01a4 0022     		movs	r2, #0
 1444 01a6 0D4B     		ldr	r3, .L90+8
 1445 01a8 5A72     		strb	r2, [r3, #9]
  78:.\Transfer.c  ****          
 1446              		.loc 1 78 0
 1447 01aa 0F4B     		ldr	r3, .L90+20
 1448 01ac 588C     		ldrh	r0, [r3, #34]
ARM GAS  C:\Users\pxc\AppData\Local\Temp\cc2eOiEg.s 			page 36


 1449 01ae 998C     		ldrh	r1, [r3, #36]
 1450 01b0 FFF7FEFF 		bl	DT_Send_Distance
 1451              	.LVL209:
 1452 01b4 0BE0     		b	.L77
 1453              	.L88:
  81:.\Transfer.c  **** 	{
 1454              		.loc 1 81 0
 1455 01b6 094B     		ldr	r3, .L90+8
 1456 01b8 1B7B     		ldrb	r3, [r3, #12]	@ zero_extendqisi2
 1457 01ba 43B1     		cbz	r3, .L77
  83:.\Transfer.c  ****         DT_Send_Power(C_V,D_V);
 1458              		.loc 1 83 0
 1459 01bc 0022     		movs	r2, #0
 1460 01be 074B     		ldr	r3, .L90+8
 1461 01c0 1A73     		strb	r2, [r3, #12]
  84:.\Transfer.c  ****         
 1462              		.loc 1 84 0
 1463 01c2 0E4B     		ldr	r3, .L90+40
 1464 01c4 1888     		ldrh	r0, [r3]
 1465 01c6 0E4B     		ldr	r3, .L90+44
 1466 01c8 1988     		ldrh	r1, [r3]
 1467 01ca FFF7FEFF 		bl	DT_Send_Power
 1468              	.LVL210:
 1469              	.L77:
  90:.\Transfer.c  **** 
 1470              		.loc 1 90 0
 1471 01ce 02B0     		add	sp, sp, #8
 1472              		.cfi_def_cfa_offset 24
 1473              		@ sp needed
 1474 01d0 BDE8F081 		pop	{r4, r5, r6, r7, r8, pc}
 1475              	.L91:
 1476              		.align	2
 1477              	.L90:
 1478 01d4 00000000 		.word	.LANCHOR0
 1479 01d8 CDCCCCCC 		.word	-858993459
 1480 01dc 00000000 		.word	f
 1481 01e0 A38B2EBA 		.word	-1171354717
 1482 01e4 4FECC44E 		.word	1321528399
 1483 01e8 00000000 		.word	g_Car
 1484 01ec 00000000 		.word	P_V
 1485 01f0 00000000 		.word	S_IMU
 1486 01f4 00806640 		.word	1080459264
 1487 01f8 00007A44 		.word	1148846080
 1488 01fc 00000000 		.word	C_V
 1489 0200 00000000 		.word	D_V
 1490              		.cfi_endproc
 1491              	.LFE63:
 1492              		.size	DT_Data_Exchange, .-DT_Data_Exchange
 1493              		.section	.text.DT_Send_MotoPWM,"ax",%progbits
 1494              		.align	2
 1495              		.global	DT_Send_MotoPWM
 1496              		.thumb
 1497              		.thumb_func
 1498              		.type	DT_Send_MotoPWM, %function
 1499              	DT_Send_MotoPWM:
 1500              	.LFB73:
 470:.\Transfer.c  **** void DT_Send_MotoPWM(uint16 m_1,uint16 m_2,uint16 m_3,uint16 m_4,uint16 m_5,uint16 m_6,uint16 m_7,u
ARM GAS  C:\Users\pxc\AppData\Local\Temp\cc2eOiEg.s 			page 37


 471:.\Transfer.c  **** {
 1501              		.loc 1 471 0
 1502              		.cfi_startproc
 1503              		@ args = 16, pretend = 0, frame = 8
 1504              		@ frame_needed = 0, uses_anonymous_args = 0
 1505              	.LVL211:
 1506 0000 70B5     		push	{r4, r5, r6, lr}
 1507              		.cfi_def_cfa_offset 16
 1508              		.cfi_offset 4, -16
 1509              		.cfi_offset 5, -12
 1510              		.cfi_offset 6, -8
 1511              		.cfi_offset 14, -4
 1512 0002 82B0     		sub	sp, sp, #8
 1513              		.cfi_def_cfa_offset 24
 1514 0004 ADF80600 		strh	r0, [sp, #6]	@ movhi
 1515 0008 ADF80410 		strh	r1, [sp, #4]	@ movhi
 1516 000c ADF80220 		strh	r2, [sp, #2]	@ movhi
 1517 0010 ADF80030 		strh	r3, [sp]	@ movhi
 1518              	.LVL212:
 472:.\Transfer.c  **** 	uint8 _cnt=0;
 473:.\Transfer.c  **** 	
 474:.\Transfer.c  **** 	data_to_send[_cnt++]=0xAA;
 1519              		.loc 1 474 0
 1520 0014 1F4D     		ldr	r5, .L96
 1521 0016 AA24     		movs	r4, #170
 1522 0018 2C70     		strb	r4, [r5]
 1523              	.LVL213:
 475:.\Transfer.c  **** 	data_to_send[_cnt++]=0xAA;
 1524              		.loc 1 475 0
 1525 001a 6C70     		strb	r4, [r5, #1]
 1526              	.LVL214:
 476:.\Transfer.c  **** 	data_to_send[_cnt++]=0x06;
 1527              		.loc 1 476 0
 1528 001c 0624     		movs	r4, #6
 1529 001e AC70     		strb	r4, [r5, #2]
 1530              	.LVL215:
 477:.\Transfer.c  **** 	data_to_send[_cnt++]=0;
 1531              		.loc 1 477 0
 1532 0020 0024     		movs	r4, #0
 1533              	.LVL216:
 478:.\Transfer.c  **** 	
 479:.\Transfer.c  **** 	data_to_send[_cnt++]=BYTE1(m_1);
 1534              		.loc 1 479 0
 1535 0022 060A     		lsrs	r6, r0, #8
 1536 0024 2E71     		strb	r6, [r5, #4]
 1537              	.LVL217:
 480:.\Transfer.c  **** 	data_to_send[_cnt++]=BYTE0(m_1);
 1538              		.loc 1 480 0
 1539 0026 6871     		strb	r0, [r5, #5]
 1540              	.LVL218:
 481:.\Transfer.c  **** 	data_to_send[_cnt++]=BYTE1(m_2);
 1541              		.loc 1 481 0
 1542 0028 080A     		lsrs	r0, r1, #8
 1543              	.LVL219:
 1544 002a A871     		strb	r0, [r5, #6]
 1545              	.LVL220:
 482:.\Transfer.c  **** 	data_to_send[_cnt++]=BYTE0(m_2);
ARM GAS  C:\Users\pxc\AppData\Local\Temp\cc2eOiEg.s 			page 38


 1546              		.loc 1 482 0
 1547 002c E971     		strb	r1, [r5, #7]
 1548              	.LVL221:
 483:.\Transfer.c  **** 	data_to_send[_cnt++]=BYTE1(m_3);
 1549              		.loc 1 483 0
 1550 002e 110A     		lsrs	r1, r2, #8
 1551              	.LVL222:
 1552 0030 2972     		strb	r1, [r5, #8]
 1553              	.LVL223:
 484:.\Transfer.c  **** 	data_to_send[_cnt++]=BYTE0(m_3);
 1554              		.loc 1 484 0
 1555 0032 6A72     		strb	r2, [r5, #9]
 1556              	.LVL224:
 485:.\Transfer.c  **** 	data_to_send[_cnt++]=BYTE1(m_4);
 1557              		.loc 1 485 0
 1558 0034 1A0A     		lsrs	r2, r3, #8
 1559              	.LVL225:
 1560 0036 AA72     		strb	r2, [r5, #10]
 1561              	.LVL226:
 486:.\Transfer.c  **** 	data_to_send[_cnt++]=BYTE0(m_4);
 1562              		.loc 1 486 0
 1563 0038 EB72     		strb	r3, [r5, #11]
 1564              	.LVL227:
 487:.\Transfer.c  **** 	data_to_send[_cnt++]=BYTE1(m_5);
 1565              		.loc 1 487 0
 1566 003a 9DF81930 		ldrb	r3, [sp, #25]	@ zero_extendqisi2
 1567              	.LVL228:
 1568 003e 2B73     		strb	r3, [r5, #12]
 1569              	.LVL229:
 488:.\Transfer.c  **** 	data_to_send[_cnt++]=BYTE0(m_5);
 1570              		.loc 1 488 0
 1571 0040 9DF81830 		ldrb	r3, [sp, #24]	@ zero_extendqisi2
 1572 0044 6B73     		strb	r3, [r5, #13]
 1573              	.LVL230:
 489:.\Transfer.c  **** 	data_to_send[_cnt++]=BYTE1(m_6);
 1574              		.loc 1 489 0
 1575 0046 9DF81D30 		ldrb	r3, [sp, #29]	@ zero_extendqisi2
 1576 004a AB73     		strb	r3, [r5, #14]
 1577              	.LVL231:
 490:.\Transfer.c  **** 	data_to_send[_cnt++]=BYTE0(m_6);
 1578              		.loc 1 490 0
 1579 004c 9DF81C30 		ldrb	r3, [sp, #28]	@ zero_extendqisi2
 1580 0050 EB73     		strb	r3, [r5, #15]
 1581              	.LVL232:
 491:.\Transfer.c  **** 	data_to_send[_cnt++]=BYTE1(m_7);
 1582              		.loc 1 491 0
 1583 0052 9DF82130 		ldrb	r3, [sp, #33]	@ zero_extendqisi2
 1584 0056 2B74     		strb	r3, [r5, #16]
 1585              	.LVL233:
 492:.\Transfer.c  **** 	data_to_send[_cnt++]=BYTE0(m_7);
 1586              		.loc 1 492 0
 1587 0058 9DF82030 		ldrb	r3, [sp, #32]	@ zero_extendqisi2
 1588 005c 6B74     		strb	r3, [r5, #17]
 1589              	.LVL234:
 493:.\Transfer.c  **** 	data_to_send[_cnt++]=BYTE1(m_8);
 1590              		.loc 1 493 0
 1591 005e 9DF82530 		ldrb	r3, [sp, #37]	@ zero_extendqisi2
ARM GAS  C:\Users\pxc\AppData\Local\Temp\cc2eOiEg.s 			page 39


 1592 0062 AB74     		strb	r3, [r5, #18]
 1593              	.LVL235:
 494:.\Transfer.c  **** 	data_to_send[_cnt++]=BYTE0(m_8);
 1594              		.loc 1 494 0
 1595 0064 9DF82430 		ldrb	r3, [sp, #36]	@ zero_extendqisi2
 1596 0068 EB74     		strb	r3, [r5, #19]
 495:.\Transfer.c  **** 	
 496:.\Transfer.c  **** 	data_to_send[3] = _cnt-4;
 1597              		.loc 1 496 0
 1598 006a 1023     		movs	r3, #16
 1599 006c EB70     		strb	r3, [r5, #3]
 1600              	.LVL236:
 497:.\Transfer.c  **** 	
 498:.\Transfer.c  **** 	uint8 sum = 0;
 499:.\Transfer.c  ****     uint8 i=0;
 500:.\Transfer.c  **** 	for(i=0;i<_cnt;i++)
 1601              		.loc 1 500 0
 1602 006e 2346     		mov	r3, r4
 498:.\Transfer.c  ****     uint8 i=0;
 1603              		.loc 1 498 0
 1604 0070 2246     		mov	r2, r4
 1605              		.loc 1 500 0
 1606 0072 05E0     		b	.L93
 1607              	.LVL237:
 1608              	.L94:
 501:.\Transfer.c  **** 		sum += data_to_send[i];
 1609              		.loc 1 501 0 discriminator 3
 1610 0074 0749     		ldr	r1, .L96
 1611 0076 C95C     		ldrb	r1, [r1, r3]	@ zero_extendqisi2
 1612 0078 0A44     		add	r2, r2, r1
 1613              	.LVL238:
 1614 007a D2B2     		uxtb	r2, r2
 1615              	.LVL239:
 500:.\Transfer.c  **** 		sum += data_to_send[i];
 1616              		.loc 1 500 0 discriminator 3
 1617 007c 0133     		adds	r3, r3, #1
 1618              	.LVL240:
 1619 007e DBB2     		uxtb	r3, r3
 1620              	.LVL241:
 1621              	.L93:
 500:.\Transfer.c  **** 		sum += data_to_send[i];
 1622              		.loc 1 500 0 is_stmt 0 discriminator 1
 1623 0080 132B     		cmp	r3, #19
 1624 0082 F7D9     		bls	.L94
 1625              	.LVL242:
 502:.\Transfer.c  **** 	
 503:.\Transfer.c  **** 	data_to_send[_cnt++]=sum;
 1626              		.loc 1 503 0 is_stmt 1
 1627 0084 0348     		ldr	r0, .L96
 1628 0086 0275     		strb	r2, [r0, #20]
 504:.\Transfer.c  **** 	
 505:.\Transfer.c  **** 	DT_Send_Data(data_to_send, _cnt);
 1629              		.loc 1 505 0
 1630 0088 1521     		movs	r1, #21
 1631 008a FFF7FEFF 		bl	DT_Send_Data
 1632              	.LVL243:
 506:.\Transfer.c  **** }
ARM GAS  C:\Users\pxc\AppData\Local\Temp\cc2eOiEg.s 			page 40


 1633              		.loc 1 506 0
 1634 008e 02B0     		add	sp, sp, #8
 1635              		.cfi_def_cfa_offset 16
 1636              	.LVL244:
 1637              		@ sp needed
 1638 0090 70BD     		pop	{r4, r5, r6, pc}
 1639              	.LVL245:
 1640              	.L97:
 1641 0092 00BF     		.align	2
 1642              	.L96:
 1643 0094 00000000 		.word	data_to_send
 1644              		.cfi_endproc
 1645              	.LFE73:
 1646              		.size	DT_Send_MotoPWM, .-DT_Send_MotoPWM
 1647              		.section	.text.DT_Send_PID,"ax",%progbits
 1648              		.align	2
 1649              		.global	DT_Send_PID
 1650              		.thumb
 1651              		.thumb_func
 1652              		.type	DT_Send_PID, %function
 1653              	DT_Send_PID:
 1654              	.LFB74:
 507:.\Transfer.c  **** void DT_Send_PID(uint8 group,float p1_p,float p1_i,float p1_d,float p2_p,float p2_i,float p2_d,floa
 508:.\Transfer.c  **** {
 1655              		.loc 1 508 0
 1656              		.cfi_startproc
 1657              		@ args = 24, pretend = 0, frame = 8
 1658              		@ frame_needed = 0, uses_anonymous_args = 0
 1659              	.LVL246:
 1660 0000 F0B5     		push	{r4, r5, r6, r7, lr}
 1661              		.cfi_def_cfa_offset 20
 1662              		.cfi_offset 4, -20
 1663              		.cfi_offset 5, -16
 1664              		.cfi_offset 6, -12
 1665              		.cfi_offset 7, -8
 1666              		.cfi_offset 14, -4
 1667 0002 83B0     		sub	sp, sp, #12
 1668              		.cfi_def_cfa_offset 32
 1669 0004 1746     		mov	r7, r2
 1670 0006 1E46     		mov	r6, r3
 1671              	.LVL247:
 509:.\Transfer.c  **** 	uint8 _cnt=0;
 510:.\Transfer.c  **** 	int16 _temp;
 511:.\Transfer.c  **** 	
 512:.\Transfer.c  **** 	data_to_send[_cnt++]=0xAA;
 1672              		.loc 1 512 0
 1673 0008 3B4D     		ldr	r5, .L102
 1674 000a AA23     		movs	r3, #170
 1675              	.LVL248:
 1676 000c 2B70     		strb	r3, [r5]
 1677              	.LVL249:
 513:.\Transfer.c  **** 	data_to_send[_cnt++]=0xAA;
 1678              		.loc 1 513 0
 1679 000e 6B70     		strb	r3, [r5, #1]
 1680              	.LVL250:
 514:.\Transfer.c  **** 	data_to_send[_cnt++]=0x10+group-1;
 1681              		.loc 1 514 0
ARM GAS  C:\Users\pxc\AppData\Local\Temp\cc2eOiEg.s 			page 41


 1682 0010 0F30     		adds	r0, r0, #15
 1683              	.LVL251:
 1684 0012 A870     		strb	r0, [r5, #2]
 1685              	.LVL252:
 515:.\Transfer.c  **** 	data_to_send[_cnt++]=0;
 1686              		.loc 1 515 0
 1687 0014 0024     		movs	r4, #0
 516:.\Transfer.c  **** 	
 517:.\Transfer.c  **** 	
 518:.\Transfer.c  **** 	_temp = p1_p * 1000;
 1688              		.loc 1 518 0
 1689 0016 0846     		mov	r0, r1
 1690 0018 3849     		ldr	r1, .L102+4
 1691              	.LVL253:
 1692 001a FFF7FEFF 		bl	__aeabi_fmul
 1693              	.LVL254:
 1694 001e FFF7FEFF 		bl	__aeabi_f2iz
 1695              	.LVL255:
 519:.\Transfer.c  **** 	data_to_send[_cnt++]=BYTE1(_temp);
 1696              		.loc 1 519 0
 1697 0022 C0F30723 		ubfx	r3, r0, #8, #8
 1698 0026 2B71     		strb	r3, [r5, #4]
 1699              	.LVL256:
 520:.\Transfer.c  **** 	data_to_send[_cnt++]=BYTE0(_temp);
 1700              		.loc 1 520 0
 1701 0028 6871     		strb	r0, [r5, #5]
 521:.\Transfer.c  **** 	_temp = p1_i  * 1000;
 1702              		.loc 1 521 0
 1703 002a 3846     		mov	r0, r7
 1704 002c 3349     		ldr	r1, .L102+4
 1705 002e FFF7FEFF 		bl	__aeabi_fmul
 1706              	.LVL257:
 1707 0032 FFF7FEFF 		bl	__aeabi_f2iz
 1708              	.LVL258:
 522:.\Transfer.c  **** 	data_to_send[_cnt++]=BYTE1(_temp);
 1709              		.loc 1 522 0
 1710 0036 C0F30723 		ubfx	r3, r0, #8, #8
 1711 003a AB71     		strb	r3, [r5, #6]
 1712              	.LVL259:
 523:.\Transfer.c  **** 	data_to_send[_cnt++]=BYTE0(_temp);
 1713              		.loc 1 523 0
 1714 003c E871     		strb	r0, [r5, #7]
 524:.\Transfer.c  **** 	_temp = p1_d  * 1000;
 1715              		.loc 1 524 0
 1716 003e 3046     		mov	r0, r6
 1717 0040 2E49     		ldr	r1, .L102+4
 1718 0042 FFF7FEFF 		bl	__aeabi_fmul
 1719              	.LVL260:
 1720 0046 FFF7FEFF 		bl	__aeabi_f2iz
 1721              	.LVL261:
 525:.\Transfer.c  **** 	data_to_send[_cnt++]=BYTE1(_temp);
 1722              		.loc 1 525 0
 1723 004a C0F30723 		ubfx	r3, r0, #8, #8
 1724 004e 2B72     		strb	r3, [r5, #8]
 1725              	.LVL262:
 526:.\Transfer.c  **** 	data_to_send[_cnt++]=BYTE0(_temp);
 1726              		.loc 1 526 0
ARM GAS  C:\Users\pxc\AppData\Local\Temp\cc2eOiEg.s 			page 42


 1727 0050 6872     		strb	r0, [r5, #9]
 527:.\Transfer.c  **** 	_temp = p2_p  * 1000;
 1728              		.loc 1 527 0
 1729 0052 0898     		ldr	r0, [sp, #32]	@ float
 1730 0054 2949     		ldr	r1, .L102+4
 1731 0056 FFF7FEFF 		bl	__aeabi_fmul
 1732              	.LVL263:
 1733 005a FFF7FEFF 		bl	__aeabi_f2iz
 1734              	.LVL264:
 528:.\Transfer.c  **** 	data_to_send[_cnt++]=BYTE1(_temp);
 1735              		.loc 1 528 0
 1736 005e C0F30723 		ubfx	r3, r0, #8, #8
 1737 0062 AB72     		strb	r3, [r5, #10]
 1738              	.LVL265:
 529:.\Transfer.c  **** 	data_to_send[_cnt++]=BYTE0(_temp);
 1739              		.loc 1 529 0
 1740 0064 E872     		strb	r0, [r5, #11]
 530:.\Transfer.c  **** 	_temp = p2_i  * 1000;
 1741              		.loc 1 530 0
 1742 0066 0998     		ldr	r0, [sp, #36]	@ float
 1743 0068 2449     		ldr	r1, .L102+4
 1744 006a FFF7FEFF 		bl	__aeabi_fmul
 1745              	.LVL266:
 1746 006e FFF7FEFF 		bl	__aeabi_f2iz
 1747              	.LVL267:
 531:.\Transfer.c  **** 	data_to_send[_cnt++]=BYTE1(_temp);
 1748              		.loc 1 531 0
 1749 0072 C0F30723 		ubfx	r3, r0, #8, #8
 1750 0076 2B73     		strb	r3, [r5, #12]
 1751              	.LVL268:
 532:.\Transfer.c  **** 	data_to_send[_cnt++]=BYTE0(_temp);
 1752              		.loc 1 532 0
 1753 0078 6873     		strb	r0, [r5, #13]
 533:.\Transfer.c  **** 	_temp = p2_d * 1000;
 1754              		.loc 1 533 0
 1755 007a 0A98     		ldr	r0, [sp, #40]	@ float
 1756 007c 1F49     		ldr	r1, .L102+4
 1757 007e FFF7FEFF 		bl	__aeabi_fmul
 1758              	.LVL269:
 1759 0082 FFF7FEFF 		bl	__aeabi_f2iz
 1760              	.LVL270:
 534:.\Transfer.c  **** 	data_to_send[_cnt++]=BYTE1(_temp);
 1761              		.loc 1 534 0
 1762 0086 C0F30723 		ubfx	r3, r0, #8, #8
 1763 008a AB73     		strb	r3, [r5, #14]
 1764              	.LVL271:
 535:.\Transfer.c  **** 	data_to_send[_cnt++]=BYTE0(_temp);
 1765              		.loc 1 535 0
 1766 008c E873     		strb	r0, [r5, #15]
 536:.\Transfer.c  **** 	_temp = p3_p  * 1000;
 1767              		.loc 1 536 0
 1768 008e 0B98     		ldr	r0, [sp, #44]	@ float
 1769 0090 1A49     		ldr	r1, .L102+4
 1770 0092 FFF7FEFF 		bl	__aeabi_fmul
 1771              	.LVL272:
 1772 0096 FFF7FEFF 		bl	__aeabi_f2iz
 1773              	.LVL273:
ARM GAS  C:\Users\pxc\AppData\Local\Temp\cc2eOiEg.s 			page 43


 537:.\Transfer.c  **** 	data_to_send[_cnt++]=BYTE1(_temp);
 1774              		.loc 1 537 0
 1775 009a C0F30723 		ubfx	r3, r0, #8, #8
 1776 009e 2B74     		strb	r3, [r5, #16]
 1777              	.LVL274:
 538:.\Transfer.c  **** 	data_to_send[_cnt++]=BYTE0(_temp);
 1778              		.loc 1 538 0
 1779 00a0 6874     		strb	r0, [r5, #17]
 539:.\Transfer.c  **** 	_temp = p3_i  * 1000;
 1780              		.loc 1 539 0
 1781 00a2 0C98     		ldr	r0, [sp, #48]	@ float
 1782 00a4 1549     		ldr	r1, .L102+4
 1783 00a6 FFF7FEFF 		bl	__aeabi_fmul
 1784              	.LVL275:
 1785 00aa FFF7FEFF 		bl	__aeabi_f2iz
 1786              	.LVL276:
 540:.\Transfer.c  **** 	data_to_send[_cnt++]=BYTE1(_temp);
 1787              		.loc 1 540 0
 1788 00ae C0F30723 		ubfx	r3, r0, #8, #8
 1789 00b2 AB74     		strb	r3, [r5, #18]
 1790              	.LVL277:
 541:.\Transfer.c  **** 	data_to_send[_cnt++]=BYTE0(_temp);
 1791              		.loc 1 541 0
 1792 00b4 E874     		strb	r0, [r5, #19]
 542:.\Transfer.c  **** 	_temp = p3_d * 1000;
 1793              		.loc 1 542 0
 1794 00b6 0D98     		ldr	r0, [sp, #52]	@ float
 1795 00b8 1049     		ldr	r1, .L102+4
 1796 00ba FFF7FEFF 		bl	__aeabi_fmul
 1797              	.LVL278:
 1798 00be FFF7FEFF 		bl	__aeabi_f2iz
 1799              	.LVL279:
 1800 00c2 ADF80600 		strh	r0, [sp, #6]	@ movhi
 1801              	.LVL280:
 543:.\Transfer.c  **** 	data_to_send[_cnt++]=BYTE1(_temp);
 1802              		.loc 1 543 0
 1803 00c6 C0F30723 		ubfx	r3, r0, #8, #8
 1804 00ca 2B75     		strb	r3, [r5, #20]
 1805              	.LVL281:
 544:.\Transfer.c  **** 	data_to_send[_cnt++]=BYTE0(_temp);
 1806              		.loc 1 544 0
 1807 00cc 6875     		strb	r0, [r5, #21]
 545:.\Transfer.c  **** 	
 546:.\Transfer.c  **** 	data_to_send[3] = _cnt-4;
 1808              		.loc 1 546 0
 1809 00ce 1223     		movs	r3, #18
 1810 00d0 EB70     		strb	r3, [r5, #3]
 1811              	.LVL282:
 547:.\Transfer.c  **** 	
 548:.\Transfer.c  **** 	uint8 sum = 0;
 549:.\Transfer.c  ****     uint8 i=0;
 550:.\Transfer.c  **** 	for( i=0;i<_cnt;i++)
 1812              		.loc 1 550 0
 1813 00d2 2346     		mov	r3, r4
 548:.\Transfer.c  ****     uint8 i=0;
 1814              		.loc 1 548 0
 1815 00d4 2246     		mov	r2, r4
ARM GAS  C:\Users\pxc\AppData\Local\Temp\cc2eOiEg.s 			page 44


 1816              		.loc 1 550 0
 1817 00d6 05E0     		b	.L99
 1818              	.LVL283:
 1819              	.L100:
 551:.\Transfer.c  **** 		sum += data_to_send[i];
 1820              		.loc 1 551 0 discriminator 3
 1821 00d8 0749     		ldr	r1, .L102
 1822 00da C95C     		ldrb	r1, [r1, r3]	@ zero_extendqisi2
 1823 00dc 0A44     		add	r2, r2, r1
 1824              	.LVL284:
 1825 00de D2B2     		uxtb	r2, r2
 1826              	.LVL285:
 550:.\Transfer.c  **** 		sum += data_to_send[i];
 1827              		.loc 1 550 0 discriminator 3
 1828 00e0 0133     		adds	r3, r3, #1
 1829              	.LVL286:
 1830 00e2 DBB2     		uxtb	r3, r3
 1831              	.LVL287:
 1832              	.L99:
 550:.\Transfer.c  **** 		sum += data_to_send[i];
 1833              		.loc 1 550 0 is_stmt 0 discriminator 1
 1834 00e4 152B     		cmp	r3, #21
 1835 00e6 F7D9     		bls	.L100
 1836              	.LVL288:
 552:.\Transfer.c  **** 	
 553:.\Transfer.c  **** 	data_to_send[_cnt++]=sum;
 1837              		.loc 1 553 0 is_stmt 1
 1838 00e8 0348     		ldr	r0, .L102
 1839 00ea 8275     		strb	r2, [r0, #22]
 554:.\Transfer.c  **** 
 555:.\Transfer.c  **** 	DT_Send_Data(data_to_send, _cnt);
 1840              		.loc 1 555 0
 1841 00ec 1721     		movs	r1, #23
 1842 00ee FFF7FEFF 		bl	DT_Send_Data
 1843              	.LVL289:
 556:.\Transfer.c  **** }
 1844              		.loc 1 556 0
 1845 00f2 03B0     		add	sp, sp, #12
 1846              		.cfi_def_cfa_offset 20
 1847              		@ sp needed
 1848 00f4 F0BD     		pop	{r4, r5, r6, r7, pc}
 1849              	.LVL290:
 1850              	.L103:
 1851 00f6 00BF     		.align	2
 1852              	.L102:
 1853 00f8 00000000 		.word	data_to_send
 1854 00fc 00007A44 		.word	1148846080
 1855              		.cfi_endproc
 1856              	.LFE74:
 1857              		.size	DT_Send_PID, .-DT_Send_PID
 1858              		.section	.text.DT_Send_Lidar_normal,"ax",%progbits
 1859              		.align	2
 1860              		.global	DT_Send_Lidar_normal
 1861              		.thumb
 1862              		.thumb_func
 1863              		.type	DT_Send_Lidar_normal, %function
 1864              	DT_Send_Lidar_normal:
ARM GAS  C:\Users\pxc\AppData\Local\Temp\cc2eOiEg.s 			page 45


 1865              	.LFB75:
 557:.\Transfer.c  **** void DT_Send_Lidar_normal(uint8 * temp_nodebuf)
 558:.\Transfer.c  **** {
 1866              		.loc 1 558 0
 1867              		.cfi_startproc
 1868              		@ args = 0, pretend = 0, frame = 0
 1869              		@ frame_needed = 0, uses_anonymous_args = 0
 1870              	.LVL291:
 1871 0000 08B5     		push	{r3, lr}
 1872              		.cfi_def_cfa_offset 8
 1873              		.cfi_offset 3, -8
 1874              		.cfi_offset 14, -4
 1875              	.LVL292:
 559:.\Transfer.c  **** 	uint8 _cnt=0;
 560:.\Transfer.c  **** 	int16 _temp;
 561:.\Transfer.c  **** 	
 562:.\Transfer.c  **** 	data_to_send[_cnt++]=0xAA;
 1876              		.loc 1 562 0
 1877 0002 264B     		ldr	r3, .L108
 1878 0004 AA22     		movs	r2, #170
 1879 0006 1A70     		strb	r2, [r3]
 1880              	.LVL293:
 563:.\Transfer.c  **** 	data_to_send[_cnt++]=0xAA;
 1881              		.loc 1 563 0
 1882 0008 5A70     		strb	r2, [r3, #1]
 1883              	.LVL294:
 564:.\Transfer.c  **** 	data_to_send[_cnt++]=0x04;
 1884              		.loc 1 564 0
 1885 000a 0422     		movs	r2, #4
 1886 000c 9A70     		strb	r2, [r3, #2]
 1887              	.LVL295:
 565:.\Transfer.c  **** 	data_to_send[_cnt++]=0;
 1888              		.loc 1 565 0
 1889 000e 0022     		movs	r2, #0
 1890 0010 DA70     		strb	r2, [r3, #3]
 1891              	.LVL296:
 566:.\Transfer.c  **** 	
 567:.\Transfer.c  **** 	data_to_send[_cnt++]=temp_nodebuf[0];
 1892              		.loc 1 567 0
 1893 0012 0178     		ldrb	r1, [r0]	@ zero_extendqisi2
 1894 0014 1971     		strb	r1, [r3, #4]
 1895              	.LVL297:
 568:.\Transfer.c  ****     data_to_send[_cnt++]=temp_nodebuf[2];
 1896              		.loc 1 568 0
 1897 0016 8178     		ldrb	r1, [r0, #2]	@ zero_extendqisi2
 1898 0018 5971     		strb	r1, [r3, #5]
 1899              	.LVL298:
 569:.\Transfer.c  ****     data_to_send[_cnt++]=temp_nodebuf[1];
 1900              		.loc 1 569 0
 1901 001a 4178     		ldrb	r1, [r0, #1]	@ zero_extendqisi2
 1902 001c 9971     		strb	r1, [r3, #6]
 1903              	.LVL299:
 570:.\Transfer.c  ****     data_to_send[_cnt++]=temp_nodebuf[4];
 1904              		.loc 1 570 0
 1905 001e 0179     		ldrb	r1, [r0, #4]	@ zero_extendqisi2
 1906 0020 D971     		strb	r1, [r3, #7]
 1907              	.LVL300:
ARM GAS  C:\Users\pxc\AppData\Local\Temp\cc2eOiEg.s 			page 46


 571:.\Transfer.c  ****     data_to_send[_cnt++]=temp_nodebuf[3];
 1908              		.loc 1 571 0
 1909 0022 C178     		ldrb	r1, [r0, #3]	@ zero_extendqisi2
 1910 0024 1972     		strb	r1, [r3, #8]
 1911              	.LVL301:
 572:.\Transfer.c  ****     
 573:.\Transfer.c  ****     data_to_send[_cnt++]=temp_nodebuf[5];
 1912              		.loc 1 573 0
 1913 0026 4179     		ldrb	r1, [r0, #5]	@ zero_extendqisi2
 1914 0028 5972     		strb	r1, [r3, #9]
 1915              	.LVL302:
 574:.\Transfer.c  ****     data_to_send[_cnt++]=temp_nodebuf[7];
 1916              		.loc 1 574 0
 1917 002a C179     		ldrb	r1, [r0, #7]	@ zero_extendqisi2
 1918 002c 9972     		strb	r1, [r3, #10]
 1919              	.LVL303:
 575:.\Transfer.c  ****     data_to_send[_cnt++]=temp_nodebuf[6];
 1920              		.loc 1 575 0
 1921 002e 8179     		ldrb	r1, [r0, #6]	@ zero_extendqisi2
 1922 0030 D972     		strb	r1, [r3, #11]
 1923              	.LVL304:
 576:.\Transfer.c  ****     data_to_send[_cnt++]=temp_nodebuf[9];
 1924              		.loc 1 576 0
 1925 0032 417A     		ldrb	r1, [r0, #9]	@ zero_extendqisi2
 1926 0034 1973     		strb	r1, [r3, #12]
 1927              	.LVL305:
 577:.\Transfer.c  ****     data_to_send[_cnt++]=temp_nodebuf[8];
 1928              		.loc 1 577 0
 1929 0036 017A     		ldrb	r1, [r0, #8]	@ zero_extendqisi2
 1930 0038 5973     		strb	r1, [r3, #13]
 1931              	.LVL306:
 578:.\Transfer.c  ****     
 579:.\Transfer.c  ****     data_to_send[_cnt++]=temp_nodebuf[10];
 1932              		.loc 1 579 0
 1933 003a 817A     		ldrb	r1, [r0, #10]	@ zero_extendqisi2
 1934 003c 9973     		strb	r1, [r3, #14]
 1935              	.LVL307:
 580:.\Transfer.c  ****     data_to_send[_cnt++]=temp_nodebuf[12];
 1936              		.loc 1 580 0
 1937 003e 017B     		ldrb	r1, [r0, #12]	@ zero_extendqisi2
 1938 0040 D973     		strb	r1, [r3, #15]
 1939              	.LVL308:
 581:.\Transfer.c  ****     data_to_send[_cnt++]=temp_nodebuf[11];
 1940              		.loc 1 581 0
 1941 0042 C17A     		ldrb	r1, [r0, #11]	@ zero_extendqisi2
 1942 0044 1974     		strb	r1, [r3, #16]
 1943              	.LVL309:
 582:.\Transfer.c  ****     data_to_send[_cnt++]=temp_nodebuf[14];
 1944              		.loc 1 582 0
 1945 0046 817B     		ldrb	r1, [r0, #14]	@ zero_extendqisi2
 1946 0048 5974     		strb	r1, [r3, #17]
 1947              	.LVL310:
 583:.\Transfer.c  ****     data_to_send[_cnt++]=temp_nodebuf[13];
 1948              		.loc 1 583 0
 1949 004a 417B     		ldrb	r1, [r0, #13]	@ zero_extendqisi2
 1950 004c 9974     		strb	r1, [r3, #18]
 1951              	.LVL311:
ARM GAS  C:\Users\pxc\AppData\Local\Temp\cc2eOiEg.s 			page 47


 584:.\Transfer.c  ****     
 585:.\Transfer.c  ****     data_to_send[_cnt++]=temp_nodebuf[15];
 1952              		.loc 1 585 0
 1953 004e C17B     		ldrb	r1, [r0, #15]	@ zero_extendqisi2
 1954 0050 D974     		strb	r1, [r3, #19]
 1955              	.LVL312:
 586:.\Transfer.c  ****     data_to_send[_cnt++]=temp_nodebuf[17];
 1956              		.loc 1 586 0
 1957 0052 417C     		ldrb	r1, [r0, #17]	@ zero_extendqisi2
 1958 0054 1975     		strb	r1, [r3, #20]
 1959              	.LVL313:
 587:.\Transfer.c  ****     data_to_send[_cnt++]=temp_nodebuf[16];
 1960              		.loc 1 587 0
 1961 0056 017C     		ldrb	r1, [r0, #16]	@ zero_extendqisi2
 1962 0058 5975     		strb	r1, [r3, #21]
 1963              	.LVL314:
 588:.\Transfer.c  ****     data_to_send[_cnt++]=temp_nodebuf[19];
 1964              		.loc 1 588 0
 1965 005a C17C     		ldrb	r1, [r0, #19]	@ zero_extendqisi2
 1966 005c 9975     		strb	r1, [r3, #22]
 1967              	.LVL315:
 589:.\Transfer.c  ****     data_to_send[_cnt++]=temp_nodebuf[18];
 1968              		.loc 1 589 0
 1969 005e 817C     		ldrb	r1, [r0, #18]	@ zero_extendqisi2
 1970 0060 D975     		strb	r1, [r3, #23]
 1971              	.LVL316:
 590:.\Transfer.c  ****     
 591:.\Transfer.c  ****     data_to_send[_cnt++]=temp_nodebuf[20];
 1972              		.loc 1 591 0
 1973 0062 017D     		ldrb	r1, [r0, #20]	@ zero_extendqisi2
 1974 0064 1976     		strb	r1, [r3, #24]
 1975              	.LVL317:
 592:.\Transfer.c  ****     data_to_send[_cnt++]=temp_nodebuf[22];
 1976              		.loc 1 592 0
 1977 0066 817D     		ldrb	r1, [r0, #22]	@ zero_extendqisi2
 1978 0068 5976     		strb	r1, [r3, #25]
 1979              	.LVL318:
 593:.\Transfer.c  ****     data_to_send[_cnt++]=temp_nodebuf[21];
 1980              		.loc 1 593 0
 1981 006a 417D     		ldrb	r1, [r0, #21]	@ zero_extendqisi2
 1982 006c 9976     		strb	r1, [r3, #26]
 1983              	.LVL319:
 594:.\Transfer.c  ****     data_to_send[_cnt++]=temp_nodebuf[24];
 1984              		.loc 1 594 0
 1985 006e 017E     		ldrb	r1, [r0, #24]	@ zero_extendqisi2
 1986 0070 D976     		strb	r1, [r3, #27]
 1987              	.LVL320:
 595:.\Transfer.c  ****     data_to_send[_cnt++]=temp_nodebuf[23];
 1988              		.loc 1 595 0
 1989 0072 C17D     		ldrb	r1, [r0, #23]	@ zero_extendqisi2
 1990 0074 1977     		strb	r1, [r3, #28]
 596:.\Transfer.c  ****     
 597:.\Transfer.c  ****     
 598:.\Transfer.c  **** 
 599:.\Transfer.c  **** 	data_to_send[3] = _cnt-4;
 1991              		.loc 1 599 0
 1992 0076 1921     		movs	r1, #25
ARM GAS  C:\Users\pxc\AppData\Local\Temp\cc2eOiEg.s 			page 48


 1993 0078 D970     		strb	r1, [r3, #3]
 1994              	.LVL321:
 600:.\Transfer.c  **** 	
 601:.\Transfer.c  **** 	uint8 sum = 0;
 602:.\Transfer.c  ****     uint8 i=0;
 603:.\Transfer.c  **** 	for( i=0;i<_cnt;i++)
 1995              		.loc 1 603 0
 1996 007a 1346     		mov	r3, r2
 1997 007c 05E0     		b	.L105
 1998              	.LVL322:
 1999              	.L106:
 604:.\Transfer.c  **** 		sum += data_to_send[i];
 2000              		.loc 1 604 0 discriminator 3
 2001 007e 0749     		ldr	r1, .L108
 2002 0080 C95C     		ldrb	r1, [r1, r3]	@ zero_extendqisi2
 2003 0082 0A44     		add	r2, r2, r1
 2004              	.LVL323:
 2005 0084 D2B2     		uxtb	r2, r2
 2006              	.LVL324:
 603:.\Transfer.c  **** 		sum += data_to_send[i];
 2007              		.loc 1 603 0 discriminator 3
 2008 0086 0133     		adds	r3, r3, #1
 2009              	.LVL325:
 2010 0088 DBB2     		uxtb	r3, r3
 2011              	.LVL326:
 2012              	.L105:
 603:.\Transfer.c  **** 		sum += data_to_send[i];
 2013              		.loc 1 603 0 is_stmt 0 discriminator 1
 2014 008a 1C2B     		cmp	r3, #28
 2015 008c F7D9     		bls	.L106
 2016              	.LVL327:
 605:.\Transfer.c  **** 	
 606:.\Transfer.c  **** 	data_to_send[_cnt++]=sum;
 2017              		.loc 1 606 0 is_stmt 1
 2018 008e 0348     		ldr	r0, .L108
 2019              	.LVL328:
 2020 0090 4277     		strb	r2, [r0, #29]
 607:.\Transfer.c  **** 
 608:.\Transfer.c  **** 	DT_Send_Data(data_to_send, _cnt);
 2021              		.loc 1 608 0
 2022 0092 1E21     		movs	r1, #30
 2023 0094 FFF7FEFF 		bl	DT_Send_Data
 2024              	.LVL329:
 2025 0098 08BD     		pop	{r3, pc}
 2026              	.L109:
 2027 009a 00BF     		.align	2
 2028              	.L108:
 2029 009c 00000000 		.word	data_to_send
 2030              		.cfi_endproc
 2031              	.LFE75:
 2032              		.size	DT_Send_Lidar_normal, .-DT_Send_Lidar_normal
 2033              		.section	.text.DT_Send_Lidar,"ax",%progbits
 2034              		.align	2
 2035              		.global	DT_Send_Lidar
 2036              		.thumb
 2037              		.thumb_func
 2038              		.type	DT_Send_Lidar, %function
ARM GAS  C:\Users\pxc\AppData\Local\Temp\cc2eOiEg.s 			page 49


 2039              	DT_Send_Lidar:
 2040              	.LFB76:
 609:.\Transfer.c  **** }
 610:.\Transfer.c  **** void DT_Send_Lidar(uint8 * temp_nodebuf)
 611:.\Transfer.c  **** {
 2041              		.loc 1 611 0
 2042              		.cfi_startproc
 2043              		@ args = 0, pretend = 0, frame = 0
 2044              		@ frame_needed = 0, uses_anonymous_args = 0
 2045              	.LVL330:
 2046 0000 08B5     		push	{r3, lr}
 2047              		.cfi_def_cfa_offset 8
 2048              		.cfi_offset 3, -8
 2049              		.cfi_offset 14, -4
 2050              	.LVL331:
 612:.\Transfer.c  **** 	uint8 _cnt=0;
 613:.\Transfer.c  **** 	int16 _temp;
 614:.\Transfer.c  **** 	
 615:.\Transfer.c  **** 	temp_nodebuf[0]=0xAA;
 2051              		.loc 1 615 0
 2052 0002 AA23     		movs	r3, #170
 2053 0004 0370     		strb	r3, [r0]
 616:.\Transfer.c  **** 	temp_nodebuf[1]=0xAA;
 2054              		.loc 1 616 0
 2055 0006 4370     		strb	r3, [r0, #1]
 617:.\Transfer.c  **** 	temp_nodebuf[2]=0x04;
 2056              		.loc 1 617 0
 2057 0008 0423     		movs	r3, #4
 2058 000a 8370     		strb	r3, [r0, #2]
 618:.\Transfer.c  **** 	temp_nodebuf[3]=0;
 2059              		.loc 1 618 0
 2060 000c 0022     		movs	r2, #0
 2061 000e C270     		strb	r2, [r0, #3]
 2062              	.LVL332:
 619:.\Transfer.c  ****     
 620:.\Transfer.c  ****  
 621:.\Transfer.c  **** 	
 622:.\Transfer.c  **** 	uint8 sum = 0;
 623:.\Transfer.c  ****     uint8 i=0;
 624:.\Transfer.c  **** 	for( i=0;i<85;i++)
 2063              		.loc 1 624 0
 2064 0010 1346     		mov	r3, r2
 2065 0012 04E0     		b	.L111
 2066              	.LVL333:
 2067              	.L112:
 625:.\Transfer.c  **** 		sum += temp_nodebuf[i];
 2068              		.loc 1 625 0 discriminator 3
 2069 0014 C15C     		ldrb	r1, [r0, r3]	@ zero_extendqisi2
 2070 0016 0A44     		add	r2, r2, r1
 2071              	.LVL334:
 2072 0018 D2B2     		uxtb	r2, r2
 2073              	.LVL335:
 624:.\Transfer.c  **** 		sum += temp_nodebuf[i];
 2074              		.loc 1 624 0 discriminator 3
 2075 001a 0133     		adds	r3, r3, #1
 2076              	.LVL336:
 2077 001c DBB2     		uxtb	r3, r3
ARM GAS  C:\Users\pxc\AppData\Local\Temp\cc2eOiEg.s 			page 50


 2078              	.LVL337:
 2079              	.L111:
 624:.\Transfer.c  **** 		sum += temp_nodebuf[i];
 2080              		.loc 1 624 0 is_stmt 0 discriminator 1
 2081 001e 542B     		cmp	r3, #84
 2082 0020 F8D9     		bls	.L112
 626:.\Transfer.c  **** 	
 627:.\Transfer.c  **** 	temp_nodebuf[86]=sum;
 2083              		.loc 1 627 0 is_stmt 1
 2084 0022 80F85620 		strb	r2, [r0, #86]
 628:.\Transfer.c  **** 
 629:.\Transfer.c  **** 	DT_Send_Data(temp_nodebuf, 87);
 2085              		.loc 1 629 0
 2086 0026 5721     		movs	r1, #87
 2087 0028 FFF7FEFF 		bl	DT_Send_Data
 2088              	.LVL338:
 2089 002c 08BD     		pop	{r3, pc}
 2090              		.cfi_endproc
 2091              	.LFE76:
 2092              		.size	DT_Send_Lidar, .-DT_Send_Lidar
 2093              		.comm	data_to_send,50,4
 2094              		.comm	f,13,4
 2095              		.comm	P_V,2,2
 2096              		.comm	D_V,2,2
 2097              		.comm	C_V,2,2
 2098              		.comm	S_IMU,20,4
 2099              		.comm	g_Car,64,4
 2100 002e 00BF     		.bss
 2101              		.align	2
 2102              		.set	.LANCHOR0,. + 0
 2103              		.type	state.6891, %object
 2104              		.size	state.6891, 1
 2105              	state.6891:
 2106 0000 00       		.space	1
 2107 0001 000000   		.space	3
 2108              		.type	RxBuffer.6888, %object
 2109              		.size	RxBuffer.6888, 50
 2110              	RxBuffer.6888:
 2111 0004 00000000 		.space	50
 2111      00000000 
 2111      00000000 
 2111      00000000 
 2111      00000000 
 2112              		.type	_data_len.6889, %object
 2113              		.size	_data_len.6889, 1
 2114              	_data_len.6889:
 2115 0036 00       		.space	1
 2116              		.type	_data_cnt.6890, %object
 2117              		.size	_data_cnt.6890, 1
 2118              	_data_cnt.6890:
 2119 0037 00       		.space	1
 2120              		.type	cnt.6866, %object
 2121              		.size	cnt.6866, 1
 2122              	cnt.6866:
 2123 0038 00       		.space	1
 2124 0039 000000   		.space	3
 2125              		.type	temp_pitch.6863, %object
ARM GAS  C:\Users\pxc\AppData\Local\Temp\cc2eOiEg.s 			page 51


 2126              		.size	temp_pitch.6863, 4
 2127              	temp_pitch.6863:
 2128 003c 00000000 		.space	4
 2129              		.type	tmep_roll.6864, %object
 2130              		.size	tmep_roll.6864, 4
 2131              	tmep_roll.6864:
 2132 0040 00000000 		.space	4
 2133              		.type	temp_yaw.6865, %object
 2134              		.size	temp_yaw.6865, 4
 2135              	temp_yaw.6865:
 2136 0044 00000000 		.space	4
 2137              		.text
 2138              	.Letext0:
 2139              		.file 2 "c:\\program files (x86)\\cypress\\psoc creator\\3.3\\psoc creator\\import\\gnu\\arm\\4.9.
 2140              		.file 3 "c:\\program files (x86)\\cypress\\psoc creator\\3.3\\psoc creator\\import\\gnu\\arm\\4.9.
 2141              		.file 4 "Generated_Source\\PSoC5/cytypes.h"
 2142              		.file 5 ".\\car.h"
 2143              		.file 6 ".\\Transfer.h"
 2144              		.file 7 "Generated_Source\\PSoC5/core_cm3.h"
 2145              		.file 8 ".\\battery.h"
 2146              		.file 9 "Generated_Source\\PSoC5/UART_net.h"
 2147              		.file 10 "Generated_Source\\PSoC5/PWM_LED_1.h"
 2148              		.file 11 "Generated_Source\\PSoC5/PWM_LED_2.h"
 2149              		.file 12 "Generated_Source\\PSoC5/PWM_LED_3.h"
 2150              		.file 13 "Generated_Source\\PSoC5/PWM_LED_4.h"
 2151              		.file 14 "Generated_Source\\PSoC5/CHANGE_PWR.h"
 2152              		.section	.debug_info,"",%progbits
 2153              	.Ldebug_info0:
 2154 0000 270F0000 		.4byte	0xf27
 2155 0004 0400     		.2byte	0x4
 2156 0006 00000000 		.4byte	.Ldebug_abbrev0
 2157 000a 04       		.byte	0x4
 2158 000b 01       		.uleb128 0x1
 2159 000c FA050000 		.4byte	.LASF156
 2160 0010 01       		.byte	0x1
 2161 0011 6F010000 		.4byte	.LASF157
 2162 0015 D1050000 		.4byte	.LASF158
 2163 0019 00000000 		.4byte	.Ldebug_ranges0+0
 2164 001d 00000000 		.4byte	0
 2165 0021 00000000 		.4byte	.Ldebug_line0
 2166 0025 02       		.uleb128 0x2
 2167 0026 04       		.byte	0x4
 2168 0027 04       		.byte	0x4
 2169 0028 33010000 		.4byte	.LASF0
 2170 002c 02       		.uleb128 0x2
 2171 002d 01       		.byte	0x1
 2172 002e 06       		.byte	0x6
 2173 002f 4A070000 		.4byte	.LASF1
 2174 0033 02       		.uleb128 0x2
 2175 0034 01       		.byte	0x1
 2176 0035 08       		.byte	0x8
 2177 0036 C3050000 		.4byte	.LASF2
 2178 003a 02       		.uleb128 0x2
 2179 003b 02       		.byte	0x2
 2180 003c 05       		.byte	0x5
 2181 003d 93040000 		.4byte	.LASF3
 2182 0041 02       		.uleb128 0x2
ARM GAS  C:\Users\pxc\AppData\Local\Temp\cc2eOiEg.s 			page 52


 2183 0042 02       		.byte	0x2
 2184 0043 07       		.byte	0x7
 2185 0044 5C070000 		.4byte	.LASF4
 2186 0048 03       		.uleb128 0x3
 2187 0049 99000000 		.4byte	.LASF10
 2188 004d 02       		.byte	0x2
 2189 004e 3F       		.byte	0x3f
 2190 004f 53000000 		.4byte	0x53
 2191 0053 02       		.uleb128 0x2
 2192 0054 04       		.byte	0x4
 2193 0055 05       		.byte	0x5
 2194 0056 9D040000 		.4byte	.LASF5
 2195 005a 02       		.uleb128 0x2
 2196 005b 04       		.byte	0x4
 2197 005c 07       		.byte	0x7
 2198 005d 49050000 		.4byte	.LASF6
 2199 0061 02       		.uleb128 0x2
 2200 0062 08       		.byte	0x8
 2201 0063 05       		.byte	0x5
 2202 0064 60030000 		.4byte	.LASF7
 2203 0068 02       		.uleb128 0x2
 2204 0069 08       		.byte	0x8
 2205 006a 07       		.byte	0x7
 2206 006b 58010000 		.4byte	.LASF8
 2207 006f 04       		.uleb128 0x4
 2208 0070 04       		.byte	0x4
 2209 0071 05       		.byte	0x5
 2210 0072 696E7400 		.ascii	"int\000"
 2211 0076 02       		.uleb128 0x2
 2212 0077 04       		.byte	0x4
 2213 0078 07       		.byte	0x7
 2214 0079 71000000 		.4byte	.LASF9
 2215 007d 03       		.uleb128 0x3
 2216 007e A3050000 		.4byte	.LASF11
 2217 0082 03       		.byte	0x3
 2218 0083 2C       		.byte	0x2c
 2219 0084 48000000 		.4byte	0x48
 2220 0088 03       		.uleb128 0x3
 2221 0089 96070000 		.4byte	.LASF12
 2222 008d 04       		.byte	0x4
 2223 008e C2       		.byte	0xc2
 2224 008f 33000000 		.4byte	0x33
 2225 0093 03       		.uleb128 0x3
 2226 0094 EA020000 		.4byte	.LASF13
 2227 0098 04       		.byte	0x4
 2228 0099 C3       		.byte	0xc3
 2229 009a 41000000 		.4byte	0x41
 2230 009e 03       		.uleb128 0x3
 2231 009f A7030000 		.4byte	.LASF14
 2232 00a3 04       		.byte	0x4
 2233 00a4 C4       		.byte	0xc4
 2234 00a5 5A000000 		.4byte	0x5a
 2235 00a9 03       		.uleb128 0x3
 2236 00aa A3000000 		.4byte	.LASF15
 2237 00ae 04       		.byte	0x4
 2238 00af C6       		.byte	0xc6
 2239 00b0 3A000000 		.4byte	0x3a
ARM GAS  C:\Users\pxc\AppData\Local\Temp\cc2eOiEg.s 			page 53


 2240 00b4 03       		.uleb128 0x3
 2241 00b5 39010000 		.4byte	.LASF16
 2242 00b9 04       		.byte	0x4
 2243 00ba C7       		.byte	0xc7
 2244 00bb 53000000 		.4byte	0x53
 2245 00bf 02       		.uleb128 0x2
 2246 00c0 08       		.byte	0x8
 2247 00c1 04       		.byte	0x4
 2248 00c2 9C070000 		.4byte	.LASF17
 2249 00c6 02       		.uleb128 0x2
 2250 00c7 01       		.byte	0x1
 2251 00c8 08       		.byte	0x8
 2252 00c9 C1020000 		.4byte	.LASF18
 2253 00cd 02       		.uleb128 0x2
 2254 00ce 04       		.byte	0x4
 2255 00cf 07       		.byte	0x7
 2256 00d0 33050000 		.4byte	.LASF19
 2257 00d4 05       		.uleb128 0x5
 2258 00d5 E9010000 		.4byte	.LASF29
 2259 00d9 01       		.byte	0x1
 2260 00da 05       		.byte	0x5
 2261 00db 0F       		.byte	0xf
 2262 00dc 1C010000 		.4byte	0x11c
 2263 00e0 06       		.uleb128 0x6
 2264 00e1 555000   		.ascii	"UP\000"
 2265 00e4 00       		.sleb128 0
 2266 00e5 07       		.uleb128 0x7
 2267 00e6 6F070000 		.4byte	.LASF20
 2268 00ea 01       		.sleb128 1
 2269 00eb 07       		.uleb128 0x7
 2270 00ec 1A030000 		.4byte	.LASF21
 2271 00f0 02       		.sleb128 2
 2272 00f1 07       		.uleb128 0x7
 2273 00f2 1F030000 		.4byte	.LASF22
 2274 00f6 03       		.sleb128 3
 2275 00f7 07       		.uleb128 0x7
 2276 00f8 E1000000 		.4byte	.LASF23
 2277 00fc 04       		.sleb128 4
 2278 00fd 07       		.uleb128 0x7
 2279 00fe 00000000 		.4byte	.LASF24
 2280 0102 05       		.sleb128 5
 2281 0103 07       		.uleb128 0x7
 2282 0104 D6040000 		.4byte	.LASF25
 2283 0108 06       		.sleb128 6
 2284 0109 07       		.uleb128 0x7
 2285 010a 3F010000 		.4byte	.LASF26
 2286 010e 07       		.sleb128 7
 2287 010f 07       		.uleb128 0x7
 2288 0110 17000000 		.4byte	.LASF27
 2289 0114 08       		.sleb128 8
 2290 0115 07       		.uleb128 0x7
 2291 0116 D7060000 		.4byte	.LASF28
 2292 011a 09       		.sleb128 9
 2293 011b 00       		.byte	0
 2294 011c 05       		.uleb128 0x5
 2295 011d EA030000 		.4byte	.LASF30
 2296 0121 01       		.byte	0x1
ARM GAS  C:\Users\pxc\AppData\Local\Temp\cc2eOiEg.s 			page 54


 2297 0122 05       		.byte	0x5
 2298 0123 14       		.byte	0x14
 2299 0124 3B010000 		.4byte	0x13b
 2300 0128 07       		.uleb128 0x7
 2301 0129 1C010000 		.4byte	.LASF31
 2302 012d 00       		.sleb128 0
 2303 012e 07       		.uleb128 0x7
 2304 012f 5C020000 		.4byte	.LASF32
 2305 0133 01       		.sleb128 1
 2306 0134 07       		.uleb128 0x7
 2307 0135 2D030000 		.4byte	.LASF33
 2308 0139 02       		.sleb128 2
 2309 013a 00       		.byte	0
 2310 013b 08       		.uleb128 0x8
 2311 013c 04       		.byte	0x4
 2312 013d 05       		.byte	0x5
 2313 013e 16       		.byte	0x16
 2314 013f 5C010000 		.4byte	0x15c
 2315 0143 09       		.uleb128 0x9
 2316 0144 70776D00 		.ascii	"pwm\000"
 2317 0148 05       		.byte	0x5
 2318 0149 18       		.byte	0x18
 2319 014a 93000000 		.4byte	0x93
 2320 014e 00       		.byte	0
 2321 014f 09       		.uleb128 0x9
 2322 0150 64697200 		.ascii	"dir\000"
 2323 0154 05       		.byte	0x5
 2324 0155 19       		.byte	0x19
 2325 0156 1C010000 		.4byte	0x11c
 2326 015a 02       		.byte	0x2
 2327 015b 00       		.byte	0
 2328 015c 03       		.uleb128 0x3
 2329 015d 25030000 		.4byte	.LASF34
 2330 0161 05       		.byte	0x5
 2331 0162 1A       		.byte	0x1a
 2332 0163 3B010000 		.4byte	0x13b
 2333 0167 08       		.uleb128 0x8
 2334 0168 14       		.byte	0x14
 2335 0169 05       		.byte	0x5
 2336 016a 1B       		.byte	0x1b
 2337 016b D0010000 		.4byte	0x1d0
 2338 016f 0A       		.uleb128 0xa
 2339 0170 07030000 		.4byte	.LASF35
 2340 0174 05       		.byte	0x5
 2341 0175 1D       		.byte	0x1d
 2342 0176 9E000000 		.4byte	0x9e
 2343 017a 00       		.byte	0
 2344 017b 0A       		.uleb128 0xa
 2345 017c 3E040000 		.4byte	.LASF36
 2346 0180 05       		.byte	0x5
 2347 0181 1E       		.byte	0x1e
 2348 0182 93000000 		.4byte	0x93
 2349 0186 04       		.byte	0x4
 2350 0187 0A       		.uleb128 0xa
 2351 0188 C0060000 		.4byte	.LASF37
 2352 018c 05       		.byte	0x5
 2353 018d 1F       		.byte	0x1f
ARM GAS  C:\Users\pxc\AppData\Local\Temp\cc2eOiEg.s 			page 55


 2354 018e 93000000 		.4byte	0x93
 2355 0192 06       		.byte	0x6
 2356 0193 0A       		.uleb128 0xa
 2357 0194 7E000000 		.4byte	.LASF38
 2358 0198 05       		.byte	0x5
 2359 0199 20       		.byte	0x20
 2360 019a 93000000 		.4byte	0x93
 2361 019e 08       		.byte	0x8
 2362 019f 0A       		.uleb128 0xa
 2363 01a0 52030000 		.4byte	.LASF39
 2364 01a4 05       		.byte	0x5
 2365 01a5 21       		.byte	0x21
 2366 01a6 93000000 		.4byte	0x93
 2367 01aa 0A       		.byte	0xa
 2368 01ab 0A       		.uleb128 0xa
 2369 01ac 7F020000 		.4byte	.LASF40
 2370 01b0 05       		.byte	0x5
 2371 01b1 22       		.byte	0x22
 2372 01b2 9E000000 		.4byte	0x9e
 2373 01b6 0C       		.byte	0xc
 2374 01b7 0A       		.uleb128 0xa
 2375 01b8 64000000 		.4byte	.LASF41
 2376 01bc 05       		.byte	0x5
 2377 01bd 23       		.byte	0x23
 2378 01be 93000000 		.4byte	0x93
 2379 01c2 10       		.byte	0x10
 2380 01c3 0A       		.uleb128 0xa
 2381 01c4 88010000 		.4byte	.LASF42
 2382 01c8 05       		.byte	0x5
 2383 01c9 24       		.byte	0x24
 2384 01ca 93000000 		.4byte	0x93
 2385 01ce 12       		.byte	0x12
 2386 01cf 00       		.byte	0
 2387 01d0 03       		.uleb128 0x3
 2388 01d1 3C050000 		.4byte	.LASF43
 2389 01d5 05       		.byte	0x5
 2390 01d6 25       		.byte	0x25
 2391 01d7 67010000 		.4byte	0x167
 2392 01db 08       		.uleb128 0x8
 2393 01dc 40       		.byte	0x40
 2394 01dd 05       		.byte	0x5
 2395 01de 26       		.byte	0x26
 2396 01df E0020000 		.4byte	0x2e0
 2397 01e3 0A       		.uleb128 0xa
 2398 01e4 22050000 		.4byte	.LASF44
 2399 01e8 05       		.byte	0x5
 2400 01e9 28       		.byte	0x28
 2401 01ea 88000000 		.4byte	0x88
 2402 01ee 00       		.byte	0
 2403 01ef 0A       		.uleb128 0xa
 2404 01f0 8E020000 		.4byte	.LASF45
 2405 01f4 05       		.byte	0x5
 2406 01f5 29       		.byte	0x29
 2407 01f6 88000000 		.4byte	0x88
 2408 01fa 01       		.byte	0x1
 2409 01fb 0A       		.uleb128 0xa
 2410 01fc 2B050000 		.4byte	.LASF46
ARM GAS  C:\Users\pxc\AppData\Local\Temp\cc2eOiEg.s 			page 56


 2411 0200 05       		.byte	0x5
 2412 0201 2A       		.byte	0x2a
 2413 0202 D4000000 		.4byte	0xd4
 2414 0206 02       		.byte	0x2
 2415 0207 0A       		.uleb128 0xa
 2416 0208 7C010000 		.4byte	.LASF47
 2417 020c 05       		.byte	0x5
 2418 020d 2B       		.byte	0x2b
 2419 020e D4000000 		.4byte	0xd4
 2420 0212 03       		.byte	0x3
 2421 0213 0A       		.uleb128 0xa
 2422 0214 14010000 		.4byte	.LASF48
 2423 0218 05       		.byte	0x5
 2424 0219 2C       		.byte	0x2c
 2425 021a D4000000 		.4byte	0xd4
 2426 021e 04       		.byte	0x4
 2427 021f 0A       		.uleb128 0xa
 2428 0220 09000000 		.4byte	.LASF49
 2429 0224 05       		.byte	0x5
 2430 0225 2D       		.byte	0x2d
 2431 0226 93000000 		.4byte	0x93
 2432 022a 06       		.byte	0x6
 2433 022b 0A       		.uleb128 0xa
 2434 022c 95010000 		.4byte	.LASF50
 2435 0230 05       		.byte	0x5
 2436 0231 2E       		.byte	0x2e
 2437 0232 5C010000 		.4byte	0x15c
 2438 0236 08       		.byte	0x8
 2439 0237 0A       		.uleb128 0xa
 2440 0238 0C070000 		.4byte	.LASF51
 2441 023c 05       		.byte	0x5
 2442 023d 2F       		.byte	0x2f
 2443 023e 5C010000 		.4byte	0x15c
 2444 0242 0C       		.byte	0xc
 2445 0243 0A       		.uleb128 0xa
 2446 0244 2C040000 		.4byte	.LASF52
 2447 0248 05       		.byte	0x5
 2448 0249 30       		.byte	0x30
 2449 024a 5C010000 		.4byte	0x15c
 2450 024e 10       		.byte	0x10
 2451 024f 0A       		.uleb128 0xa
 2452 0250 34020000 		.4byte	.LASF53
 2453 0254 05       		.byte	0x5
 2454 0255 31       		.byte	0x31
 2455 0256 5C010000 		.4byte	0x15c
 2456 025a 14       		.byte	0x14
 2457 025b 0A       		.uleb128 0xa
 2458 025c 1E070000 		.4byte	.LASF54
 2459 0260 05       		.byte	0x5
 2460 0261 32       		.byte	0x32
 2461 0262 93000000 		.4byte	0x93
 2462 0266 18       		.byte	0x18
 2463 0267 0A       		.uleb128 0xa
 2464 0268 44000000 		.4byte	.LASF55
 2465 026c 05       		.byte	0x5
 2466 026d 33       		.byte	0x33
 2467 026e 93000000 		.4byte	0x93
ARM GAS  C:\Users\pxc\AppData\Local\Temp\cc2eOiEg.s 			page 57


 2468 0272 1A       		.byte	0x1a
 2469 0273 0A       		.uleb128 0xa
 2470 0274 34070000 		.4byte	.LASF56
 2471 0278 05       		.byte	0x5
 2472 0279 34       		.byte	0x34
 2473 027a 93000000 		.4byte	0x93
 2474 027e 1C       		.byte	0x1c
 2475 027f 0A       		.uleb128 0xa
 2476 0280 88060000 		.4byte	.LASF57
 2477 0284 05       		.byte	0x5
 2478 0285 35       		.byte	0x35
 2479 0286 93000000 		.4byte	0x93
 2480 028a 1E       		.byte	0x1e
 2481 028b 0A       		.uleb128 0xa
 2482 028c 76020000 		.4byte	.LASF58
 2483 0290 05       		.byte	0x5
 2484 0291 36       		.byte	0x36
 2485 0292 88000000 		.4byte	0x88
 2486 0296 20       		.byte	0x20
 2487 0297 0A       		.uleb128 0xa
 2488 0298 61040000 		.4byte	.LASF59
 2489 029c 05       		.byte	0x5
 2490 029d 37       		.byte	0x37
 2491 029e 93000000 		.4byte	0x93
 2492 02a2 22       		.byte	0x22
 2493 02a3 0A       		.uleb128 0xa
 2494 02a4 87050000 		.4byte	.LASF60
 2495 02a8 05       		.byte	0x5
 2496 02a9 38       		.byte	0x38
 2497 02aa 93000000 		.4byte	0x93
 2498 02ae 24       		.byte	0x24
 2499 02af 0A       		.uleb128 0xa
 2500 02b0 16040000 		.4byte	.LASF61
 2501 02b4 05       		.byte	0x5
 2502 02b5 39       		.byte	0x39
 2503 02b6 88000000 		.4byte	0x88
 2504 02ba 26       		.byte	0x26
 2505 02bb 09       		.uleb128 0x9
 2506 02bc 586B6D00 		.ascii	"Xkm\000"
 2507 02c0 05       		.byte	0x5
 2508 02c1 3A       		.byte	0x3a
 2509 02c2 A9000000 		.4byte	0xa9
 2510 02c6 28       		.byte	0x28
 2511 02c7 0A       		.uleb128 0xa
 2512 02c8 CD060000 		.4byte	.LASF62
 2513 02cc 05       		.byte	0x5
 2514 02cd 3B       		.byte	0x3b
 2515 02ce 88000000 		.4byte	0x88
 2516 02d2 2A       		.byte	0x2a
 2517 02d3 0A       		.uleb128 0xa
 2518 02d4 AB050000 		.4byte	.LASF63
 2519 02d8 05       		.byte	0x5
 2520 02d9 3C       		.byte	0x3c
 2521 02da D0010000 		.4byte	0x1d0
 2522 02de 2C       		.byte	0x2c
 2523 02df 00       		.byte	0
 2524 02e0 03       		.uleb128 0x3
ARM GAS  C:\Users\pxc\AppData\Local\Temp\cc2eOiEg.s 			page 58


 2525 02e1 0F050000 		.4byte	.LASF64
 2526 02e5 05       		.byte	0x5
 2527 02e6 3D       		.byte	0x3d
 2528 02e7 DB010000 		.4byte	0x1db
 2529 02eb 08       		.uleb128 0x8
 2530 02ec 0D       		.byte	0xd
 2531 02ed 06       		.byte	0x6
 2532 02ee 07       		.byte	0x7
 2533 02ef 90030000 		.4byte	0x390
 2534 02f3 0A       		.uleb128 0xa
 2535 02f4 A9020000 		.4byte	.LASF65
 2536 02f8 06       		.byte	0x6
 2537 02f9 09       		.byte	0x9
 2538 02fa 88000000 		.4byte	0x88
 2539 02fe 00       		.byte	0
 2540 02ff 0A       		.uleb128 0xa
 2541 0300 87040000 		.4byte	.LASF66
 2542 0304 06       		.byte	0x6
 2543 0305 0A       		.byte	0xa
 2544 0306 88000000 		.4byte	0x88
 2545 030a 01       		.byte	0x1
 2546 030b 0A       		.uleb128 0xa
 2547 030c A6040000 		.4byte	.LASF67
 2548 0310 06       		.byte	0x6
 2549 0311 0B       		.byte	0xb
 2550 0312 88000000 		.4byte	0x88
 2551 0316 02       		.byte	0x2
 2552 0317 0A       		.uleb128 0xa
 2553 0318 CB010000 		.4byte	.LASF68
 2554 031c 06       		.byte	0x6
 2555 031d 0C       		.byte	0xc
 2556 031e 88000000 		.4byte	0x88
 2557 0322 03       		.byte	0x3
 2558 0323 0A       		.uleb128 0xa
 2559 0324 D5010000 		.4byte	.LASF69
 2560 0328 06       		.byte	0x6
 2561 0329 0D       		.byte	0xd
 2562 032a 88000000 		.4byte	0x88
 2563 032e 04       		.byte	0x4
 2564 032f 0A       		.uleb128 0xa
 2565 0330 DF010000 		.4byte	.LASF70
 2566 0334 06       		.byte	0x6
 2567 0335 0E       		.byte	0xe
 2568 0336 88000000 		.4byte	0x88
 2569 033a 05       		.byte	0x5
 2570 033b 0A       		.uleb128 0xa
 2571 033c E0060000 		.4byte	.LASF71
 2572 0340 06       		.byte	0x6
 2573 0341 0F       		.byte	0xf
 2574 0342 88000000 		.4byte	0x88
 2575 0346 06       		.byte	0x6
 2576 0347 0A       		.uleb128 0xa
 2577 0348 F1010000 		.4byte	.LASF72
 2578 034c 06       		.byte	0x6
 2579 034d 10       		.byte	0x10
 2580 034e 88000000 		.4byte	0x88
 2581 0352 07       		.byte	0x7
ARM GAS  C:\Users\pxc\AppData\Local\Temp\cc2eOiEg.s 			page 59


 2582 0353 0A       		.uleb128 0xa
 2583 0354 FB010000 		.4byte	.LASF73
 2584 0358 06       		.byte	0x6
 2585 0359 11       		.byte	0x11
 2586 035a 88000000 		.4byte	0x88
 2587 035e 08       		.byte	0x8
 2588 035f 0A       		.uleb128 0xa
 2589 0360 95050000 		.4byte	.LASF74
 2590 0364 06       		.byte	0x6
 2591 0365 12       		.byte	0x12
 2592 0366 88000000 		.4byte	0x88
 2593 036a 09       		.byte	0x9
 2594 036b 0A       		.uleb128 0xa
 2595 036c 9B030000 		.4byte	.LASF75
 2596 0370 06       		.byte	0x6
 2597 0371 13       		.byte	0x13
 2598 0372 88000000 		.4byte	0x88
 2599 0376 0A       		.byte	0xa
 2600 0377 0A       		.uleb128 0xa
 2601 0378 07010000 		.4byte	.LASF76
 2602 037c 06       		.byte	0x6
 2603 037d 14       		.byte	0x14
 2604 037e 88000000 		.4byte	0x88
 2605 0382 0B       		.byte	0xb
 2606 0383 0A       		.uleb128 0xa
 2607 0384 0B040000 		.4byte	.LASF77
 2608 0388 06       		.byte	0x6
 2609 0389 15       		.byte	0x15
 2610 038a 88000000 		.4byte	0x88
 2611 038e 0C       		.byte	0xc
 2612 038f 00       		.byte	0
 2613 0390 03       		.uleb128 0x3
 2614 0391 D7000000 		.4byte	.LASF78
 2615 0395 06       		.byte	0x6
 2616 0396 17       		.byte	0x17
 2617 0397 EB020000 		.4byte	0x2eb
 2618 039b 08       		.uleb128 0x8
 2619 039c 14       		.byte	0x14
 2620 039d 06       		.byte	0x6
 2621 039e 18       		.byte	0x18
 2622 039f 1A040000 		.4byte	0x41a
 2623 03a3 0A       		.uleb128 0xa
 2624 03a4 F0060000 		.4byte	.LASF79
 2625 03a8 06       		.byte	0x6
 2626 03a9 1A       		.byte	0x1a
 2627 03aa A9000000 		.4byte	0xa9
 2628 03ae 00       		.byte	0
 2629 03af 0A       		.uleb128 0xa
 2630 03b0 F6060000 		.4byte	.LASF80
 2631 03b4 06       		.byte	0x6
 2632 03b5 1B       		.byte	0x1b
 2633 03b6 A9000000 		.4byte	0xa9
 2634 03ba 02       		.byte	0x2
 2635 03bb 0A       		.uleb128 0xa
 2636 03bc FC060000 		.4byte	.LASF81
 2637 03c0 06       		.byte	0x6
 2638 03c1 1C       		.byte	0x1c
ARM GAS  C:\Users\pxc\AppData\Local\Temp\cc2eOiEg.s 			page 60


 2639 03c2 A9000000 		.4byte	0xa9
 2640 03c6 04       		.byte	0x4
 2641 03c7 0A       		.uleb128 0xa
 2642 03c8 D8020000 		.4byte	.LASF82
 2643 03cc 06       		.byte	0x6
 2644 03cd 1D       		.byte	0x1d
 2645 03ce A9000000 		.4byte	0xa9
 2646 03d2 06       		.byte	0x6
 2647 03d3 0A       		.uleb128 0xa
 2648 03d4 DE020000 		.4byte	.LASF83
 2649 03d8 06       		.byte	0x6
 2650 03d9 1E       		.byte	0x1e
 2651 03da A9000000 		.4byte	0xa9
 2652 03de 08       		.byte	0x8
 2653 03df 0A       		.uleb128 0xa
 2654 03e0 E4020000 		.4byte	.LASF84
 2655 03e4 06       		.byte	0x6
 2656 03e5 1F       		.byte	0x1f
 2657 03e6 A9000000 		.4byte	0xa9
 2658 03ea 0A       		.byte	0xa
 2659 03eb 0A       		.uleb128 0xa
 2660 03ec B2000000 		.4byte	.LASF85
 2661 03f0 06       		.byte	0x6
 2662 03f1 20       		.byte	0x20
 2663 03f2 A9000000 		.4byte	0xa9
 2664 03f6 0C       		.byte	0xc
 2665 03f7 0A       		.uleb128 0xa
 2666 03f8 0E030000 		.4byte	.LASF86
 2667 03fc 06       		.byte	0x6
 2668 03fd 21       		.byte	0x21
 2669 03fe A9000000 		.4byte	0xa9
 2670 0402 0E       		.byte	0xe
 2671 0403 09       		.uleb128 0x9
 2672 0404 79617700 		.ascii	"yaw\000"
 2673 0408 06       		.byte	0x6
 2674 0409 22       		.byte	0x22
 2675 040a A9000000 		.4byte	0xa9
 2676 040e 10       		.byte	0x10
 2677 040f 09       		.uleb128 0x9
 2678 0410 5400     		.ascii	"T\000"
 2679 0412 06       		.byte	0x6
 2680 0413 24       		.byte	0x24
 2681 0414 A9000000 		.4byte	0xa9
 2682 0418 12       		.byte	0x12
 2683 0419 00       		.byte	0
 2684 041a 0B       		.uleb128 0xb
 2685 041b 494D5500 		.ascii	"IMU\000"
 2686 041f 06       		.byte	0x6
 2687 0420 25       		.byte	0x25
 2688 0421 9B030000 		.4byte	0x39b
 2689 0425 0C       		.uleb128 0xc
 2690 0426 15050000 		.4byte	.LASF91
 2691 042a 01       		.byte	0x1
 2692 042b 5E       		.byte	0x5e
 2693 042c 00000000 		.4byte	.LFB64
 2694 0430 08000000 		.4byte	.LFE64-.LFB64
 2695 0434 01       		.uleb128 0x1
ARM GAS  C:\Users\pxc\AppData\Local\Temp\cc2eOiEg.s 			page 61


 2696 0435 9C       		.byte	0x9c
 2697 0436 6A040000 		.4byte	0x46a
 2698 043a 0D       		.uleb128 0xd
 2699 043b B6020000 		.4byte	.LASF87
 2700 043f 01       		.byte	0x1
 2701 0440 5E       		.byte	0x5e
 2702 0441 6A040000 		.4byte	0x46a
 2703 0445 00000000 		.4byte	.LLST0
 2704 0449 0D       		.uleb128 0xd
 2705 044a B2040000 		.4byte	.LASF88
 2706 044e 01       		.byte	0x1
 2707 044f 5E       		.byte	0x5e
 2708 0450 88000000 		.4byte	0x88
 2709 0454 21000000 		.4byte	.LLST1
 2710 0458 0E       		.uleb128 0xe
 2711 0459 06000000 		.4byte	.LVL1
 2712 045d 6E0E0000 		.4byte	0xe6e
 2713 0461 0F       		.uleb128 0xf
 2714 0462 01       		.uleb128 0x1
 2715 0463 50       		.byte	0x50
 2716 0464 03       		.uleb128 0x3
 2717 0465 F3       		.byte	0xf3
 2718 0466 01       		.uleb128 0x1
 2719 0467 50       		.byte	0x50
 2720 0468 00       		.byte	0
 2721 0469 00       		.byte	0
 2722 046a 10       		.uleb128 0x10
 2723 046b 04       		.byte	0x4
 2724 046c 88000000 		.4byte	0x88
 2725 0470 11       		.uleb128 0x11
 2726 0471 BD010000 		.4byte	.LASF159
 2727 0475 01       		.byte	0x1
 2728 0476 63       		.byte	0x63
 2729 0477 00000000 		.4byte	.LFB65
 2730 047b 3C000000 		.4byte	.LFE65-.LFB65
 2731 047f 01       		.uleb128 0x1
 2732 0480 9C       		.byte	0x9c
 2733 0481 D8040000 		.4byte	0x4d8
 2734 0485 0D       		.uleb128 0xd
 2735 0486 94000000 		.4byte	.LASF89
 2736 048a 01       		.byte	0x1
 2737 048b 63       		.byte	0x63
 2738 048c 88000000 		.4byte	0x88
 2739 0490 42000000 		.4byte	.LLST2
 2740 0494 0D       		.uleb128 0xd
 2741 0495 94020000 		.4byte	.LASF90
 2742 0499 01       		.byte	0x1
 2743 049a 63       		.byte	0x63
 2744 049b 88000000 		.4byte	0x88
 2745 049f 72000000 		.4byte	.LLST3
 2746 04a3 12       		.uleb128 0x12
 2747 04a4 73756D00 		.ascii	"sum\000"
 2748 04a8 01       		.byte	0x1
 2749 04a9 6D       		.byte	0x6d
 2750 04aa 88000000 		.4byte	0x88
 2751 04ae A2000000 		.4byte	.LLST4
 2752 04b2 12       		.uleb128 0x12
ARM GAS  C:\Users\pxc\AppData\Local\Temp\cc2eOiEg.s 			page 62


 2753 04b3 6900     		.ascii	"i\000"
 2754 04b5 01       		.byte	0x1
 2755 04b6 6E       		.byte	0x6e
 2756 04b7 88000000 		.4byte	0x88
 2757 04bb CC000000 		.4byte	.LLST5
 2758 04bf 0E       		.uleb128 0xe
 2759 04c0 36000000 		.4byte	.LVL10
 2760 04c4 25040000 		.4byte	0x425
 2761 04c8 0F       		.uleb128 0xf
 2762 04c9 01       		.uleb128 0x1
 2763 04ca 51       		.byte	0x51
 2764 04cb 01       		.uleb128 0x1
 2765 04cc 37       		.byte	0x37
 2766 04cd 0F       		.uleb128 0xf
 2767 04ce 01       		.uleb128 0x1
 2768 04cf 50       		.byte	0x50
 2769 04d0 05       		.uleb128 0x5
 2770 04d1 03       		.byte	0x3
 2771 04d2 00000000 		.4byte	data_to_send
 2772 04d6 00       		.byte	0
 2773 04d7 00       		.byte	0
 2774 04d8 0C       		.uleb128 0xc
 2775 04d9 EA040000 		.4byte	.LASF92
 2776 04dd 01       		.byte	0x1
 2777 04de A5       		.byte	0xa5
 2778 04df 00000000 		.4byte	.LFB67
 2779 04e3 B0010000 		.4byte	.LFE67-.LFB67
 2780 04e7 01       		.uleb128 0x1
 2781 04e8 9C       		.byte	0x9c
 2782 04e9 3C060000 		.4byte	0x63c
 2783 04ed 0D       		.uleb128 0xd
 2784 04ee CD040000 		.4byte	.LASF93
 2785 04f2 01       		.byte	0x1
 2786 04f3 A5       		.byte	0xa5
 2787 04f4 6A040000 		.4byte	0x46a
 2788 04f8 F6000000 		.4byte	.LLST6
 2789 04fc 13       		.uleb128 0x13
 2790 04fd 6E756D00 		.ascii	"num\000"
 2791 0501 01       		.byte	0x1
 2792 0502 A5       		.byte	0xa5
 2793 0503 88000000 		.4byte	0x88
 2794 0507 22010000 		.4byte	.LLST7
 2795 050b 12       		.uleb128 0x12
 2796 050c 73756D00 		.ascii	"sum\000"
 2797 0510 01       		.byte	0x1
 2798 0511 A7       		.byte	0xa7
 2799 0512 88000000 		.4byte	0x88
 2800 0516 43010000 		.4byte	.LLST8
 2801 051a 14       		.uleb128 0x14
 2802 051b B9040000 		.4byte	.LASF94
 2803 051f 01       		.byte	0x1
 2804 0520 A8       		.byte	0xa8
 2805 0521 88000000 		.4byte	0x88
 2806 0525 62010000 		.4byte	.LLST9
 2807 0529 14       		.uleb128 0x14
 2808 052a E9000000 		.4byte	.LASF95
 2809 052e 01       		.byte	0x1
ARM GAS  C:\Users\pxc\AppData\Local\Temp\cc2eOiEg.s 			page 63


 2810 052f A9       		.byte	0xa9
 2811 0530 93000000 		.4byte	0x93
 2812 0534 A2010000 		.4byte	.LLST10
 2813 0538 12       		.uleb128 0x12
 2814 0539 6900     		.ascii	"i\000"
 2815 053b 01       		.byte	0x1
 2816 053c AA       		.byte	0xaa
 2817 053d 88000000 		.4byte	0x88
 2818 0541 C1010000 		.4byte	.LLST11
 2819 0545 15       		.uleb128 0x15
 2820 0546 8E000000 		.4byte	.LVL21
 2821 054a 8A0E0000 		.4byte	0xe8a
 2822 054e 15       		.uleb128 0x15
 2823 054f A0000000 		.4byte	.LVL22
 2824 0553 950E0000 		.4byte	0xe95
 2825 0557 15       		.uleb128 0x15
 2826 0558 B2000000 		.4byte	.LVL26
 2827 055c 8A0E0000 		.4byte	0xe8a
 2828 0560 15       		.uleb128 0x15
 2829 0561 C4000000 		.4byte	.LVL27
 2830 0565 A60E0000 		.4byte	0xea6
 2831 0569 15       		.uleb128 0x15
 2832 056a D6000000 		.4byte	.LVL31
 2833 056e 8A0E0000 		.4byte	0xe8a
 2834 0572 15       		.uleb128 0x15
 2835 0573 E8000000 		.4byte	.LVL32
 2836 0577 B70E0000 		.4byte	0xeb7
 2837 057b 15       		.uleb128 0x15
 2838 057c FA000000 		.4byte	.LVL36
 2839 0580 8A0E0000 		.4byte	0xe8a
 2840 0584 15       		.uleb128 0x15
 2841 0585 0C010000 		.4byte	.LVL37
 2842 0589 C80E0000 		.4byte	0xec8
 2843 058d 16       		.uleb128 0x16
 2844 058e 2A010000 		.4byte	.LVL38
 2845 0592 D90E0000 		.4byte	0xed9
 2846 0596 A0050000 		.4byte	0x5a0
 2847 059a 0F       		.uleb128 0xf
 2848 059b 01       		.uleb128 0x1
 2849 059c 50       		.byte	0x50
 2850 059d 01       		.uleb128 0x1
 2851 059e 31       		.byte	0x31
 2852 059f 00       		.byte	0
 2853 05a0 16       		.uleb128 0x16
 2854 05a1 32010000 		.4byte	.LVL39
 2855 05a5 D90E0000 		.4byte	0xed9
 2856 05a9 B3050000 		.4byte	0x5b3
 2857 05ad 0F       		.uleb128 0xf
 2858 05ae 01       		.uleb128 0x1
 2859 05af 50       		.byte	0x50
 2860 05b0 01       		.uleb128 0x1
 2861 05b1 30       		.byte	0x30
 2862 05b2 00       		.byte	0
 2863 05b3 16       		.uleb128 0x16
 2864 05b4 56010000 		.4byte	.LVL41
 2865 05b8 EA0E0000 		.4byte	0xeea
 2866 05bc C7050000 		.4byte	0x5c7
ARM GAS  C:\Users\pxc\AppData\Local\Temp\cc2eOiEg.s 			page 64


 2867 05c0 0F       		.uleb128 0xf
 2868 05c1 01       		.uleb128 0x1
 2869 05c2 50       		.byte	0x50
 2870 05c3 02       		.uleb128 0x2
 2871 05c4 76       		.byte	0x76
 2872 05c5 00       		.sleb128 0
 2873 05c6 00       		.byte	0
 2874 05c7 16       		.uleb128 0x16
 2875 05c8 5C010000 		.4byte	.LVL42
 2876 05cc FB0E0000 		.4byte	0xefb
 2877 05d0 DB050000 		.4byte	0x5db
 2878 05d4 0F       		.uleb128 0xf
 2879 05d5 01       		.uleb128 0x1
 2880 05d6 50       		.byte	0x50
 2881 05d7 02       		.uleb128 0x2
 2882 05d8 76       		.byte	0x76
 2883 05d9 00       		.sleb128 0
 2884 05da 00       		.byte	0
 2885 05db 16       		.uleb128 0x16
 2886 05dc 62010000 		.4byte	.LVL43
 2887 05e0 0C0F0000 		.4byte	0xf0c
 2888 05e4 EF050000 		.4byte	0x5ef
 2889 05e8 0F       		.uleb128 0xf
 2890 05e9 01       		.uleb128 0x1
 2891 05ea 50       		.byte	0x50
 2892 05eb 02       		.uleb128 0x2
 2893 05ec 76       		.byte	0x76
 2894 05ed 00       		.sleb128 0
 2895 05ee 00       		.byte	0
 2896 05ef 16       		.uleb128 0x16
 2897 05f0 68010000 		.4byte	.LVL44
 2898 05f4 1D0F0000 		.4byte	0xf1d
 2899 05f8 03060000 		.4byte	0x603
 2900 05fc 0F       		.uleb128 0xf
 2901 05fd 01       		.uleb128 0x1
 2902 05fe 50       		.byte	0x50
 2903 05ff 02       		.uleb128 0x2
 2904 0600 76       		.byte	0x76
 2905 0601 00       		.sleb128 0
 2906 0602 00       		.byte	0
 2907 0603 16       		.uleb128 0x16
 2908 0604 88010000 		.4byte	.LVL45
 2909 0608 70040000 		.4byte	0x470
 2910 060c 17060000 		.4byte	0x617
 2911 0610 0F       		.uleb128 0xf
 2912 0611 01       		.uleb128 0x1
 2913 0612 51       		.byte	0x51
 2914 0613 02       		.uleb128 0x2
 2915 0614 74       		.byte	0x74
 2916 0615 00       		.sleb128 0
 2917 0616 00       		.byte	0
 2918 0617 16       		.uleb128 0x16
 2919 0618 94010000 		.4byte	.LVL46
 2920 061c 70040000 		.4byte	0x470
 2921 0620 2B060000 		.4byte	0x62b
 2922 0624 0F       		.uleb128 0xf
 2923 0625 01       		.uleb128 0x1
ARM GAS  C:\Users\pxc\AppData\Local\Temp\cc2eOiEg.s 			page 65


 2924 0626 51       		.byte	0x51
 2925 0627 02       		.uleb128 0x2
 2926 0628 74       		.byte	0x74
 2927 0629 00       		.sleb128 0
 2928 062a 00       		.byte	0
 2929 062b 0E       		.uleb128 0xe
 2930 062c A0010000 		.4byte	.LVL47
 2931 0630 70040000 		.4byte	0x470
 2932 0634 0F       		.uleb128 0xf
 2933 0635 01       		.uleb128 0x1
 2934 0636 51       		.byte	0x51
 2935 0637 02       		.uleb128 0x2
 2936 0638 74       		.byte	0x74
 2937 0639 00       		.sleb128 0
 2938 063a 00       		.byte	0
 2939 063b 00       		.byte	0
 2940 063c 0C       		.uleb128 0xc
 2941 063d AE030000 		.4byte	.LASF96
 2942 0641 01       		.byte	0x1
 2943 0642 76       		.byte	0x76
 2944 0643 00000000 		.4byte	.LFB66
 2945 0647 AC000000 		.4byte	.LFE66-.LFB66
 2946 064b 01       		.uleb128 0x1
 2947 064c 9C       		.byte	0x9c
 2948 064d B8060000 		.4byte	0x6b8
 2949 0651 0D       		.uleb128 0xd
 2950 0652 F1020000 		.4byte	.LASF97
 2951 0656 01       		.byte	0x1
 2952 0657 76       		.byte	0x76
 2953 0658 88000000 		.4byte	0x88
 2954 065c EB010000 		.4byte	.LLST12
 2955 0660 17       		.uleb128 0x17
 2956 0661 CF020000 		.4byte	.LASF98
 2957 0665 01       		.byte	0x1
 2958 0666 78       		.byte	0x78
 2959 0667 B8060000 		.4byte	0x6b8
 2960 066b 05       		.uleb128 0x5
 2961 066c 03       		.byte	0x3
 2962 066d 04000000 		.4byte	RxBuffer.6888
 2963 0671 17       		.uleb128 0x17
 2964 0672 48030000 		.4byte	.LASF99
 2965 0676 01       		.byte	0x1
 2966 0677 79       		.byte	0x79
 2967 0678 88000000 		.4byte	0x88
 2968 067c 05       		.uleb128 0x5
 2969 067d 03       		.byte	0x3
 2970 067e 36000000 		.4byte	_data_len.6889
 2971 0682 17       		.uleb128 0x17
 2972 0683 6E030000 		.4byte	.LASF100
 2973 0687 01       		.byte	0x1
 2974 0688 79       		.byte	0x79
 2975 0689 88000000 		.4byte	0x88
 2976 068d 05       		.uleb128 0x5
 2977 068e 03       		.byte	0x3
 2978 068f 37000000 		.4byte	_data_cnt.6890
 2979 0693 17       		.uleb128 0x17
 2980 0694 EA060000 		.4byte	.LASF101
ARM GAS  C:\Users\pxc\AppData\Local\Temp\cc2eOiEg.s 			page 66


 2981 0698 01       		.byte	0x1
 2982 0699 7A       		.byte	0x7a
 2983 069a 88000000 		.4byte	0x88
 2984 069e 05       		.uleb128 0x5
 2985 069f 03       		.byte	0x3
 2986 06a0 00000000 		.4byte	state.6891
 2987 06a4 0E       		.uleb128 0xe
 2988 06a5 9E000000 		.4byte	.LVL51
 2989 06a9 D8040000 		.4byte	0x4d8
 2990 06ad 0F       		.uleb128 0xf
 2991 06ae 01       		.uleb128 0x1
 2992 06af 50       		.byte	0x50
 2993 06b0 05       		.uleb128 0x5
 2994 06b1 03       		.byte	0x3
 2995 06b2 04000000 		.4byte	.LANCHOR0+4
 2996 06b6 00       		.byte	0
 2997 06b7 00       		.byte	0
 2998 06b8 18       		.uleb128 0x18
 2999 06b9 88000000 		.4byte	0x88
 3000 06bd C8060000 		.4byte	0x6c8
 3001 06c1 19       		.uleb128 0x19
 3002 06c2 CD000000 		.4byte	0xcd
 3003 06c6 31       		.byte	0x31
 3004 06c7 00       		.byte	0
 3005 06c8 1A       		.uleb128 0x1a
 3006 06c9 B7070000 		.4byte	.LASF102
 3007 06cd 01       		.byte	0x1
 3008 06ce 2A01     		.2byte	0x12a
 3009 06d0 00000000 		.4byte	.LFB68
 3010 06d4 70000000 		.4byte	.LFE68-.LFB68
 3011 06d8 01       		.uleb128 0x1
 3012 06d9 9C       		.byte	0x9c
 3013 06da 72070000 		.4byte	0x772
 3014 06de 1B       		.uleb128 0x1b
 3015 06df 64000000 		.4byte	.LASF41
 3016 06e3 01       		.byte	0x1
 3017 06e4 2A01     		.2byte	0x12a
 3018 06e6 93000000 		.4byte	0x93
 3019 06ea 23020000 		.4byte	.LLST13
 3020 06ee 1B       		.uleb128 0x1b
 3021 06ef 88010000 		.4byte	.LASF42
 3022 06f3 01       		.byte	0x1
 3023 06f4 2A01     		.2byte	0x12a
 3024 06f6 93000000 		.4byte	0x93
 3025 06fa 4E020000 		.4byte	.LLST14
 3026 06fe 1B       		.uleb128 0x1b
 3027 06ff 25020000 		.4byte	.LASF103
 3028 0703 01       		.byte	0x1
 3029 0704 2A01     		.2byte	0x12a
 3030 0706 93000000 		.4byte	0x93
 3031 070a 79020000 		.4byte	.LLST15
 3032 070e 1B       		.uleb128 0x1b
 3033 070f C0060000 		.4byte	.LASF37
 3034 0713 01       		.byte	0x1
 3035 0714 2A01     		.2byte	0x12a
 3036 0716 93000000 		.4byte	0x93
 3037 071a A4020000 		.4byte	.LLST16
ARM GAS  C:\Users\pxc\AppData\Local\Temp\cc2eOiEg.s 			page 67


 3038 071e 1B       		.uleb128 0x1b
 3039 071f 7E000000 		.4byte	.LASF38
 3040 0723 01       		.byte	0x1
 3041 0724 2A01     		.2byte	0x12a
 3042 0726 93000000 		.4byte	0x93
 3043 072a DB020000 		.4byte	.LLST17
 3044 072e 1C       		.uleb128 0x1c
 3045 072f B2070000 		.4byte	.LASF104
 3046 0733 01       		.byte	0x1
 3047 0734 2C01     		.2byte	0x12c
 3048 0736 88000000 		.4byte	0x88
 3049 073a FB020000 		.4byte	.LLST18
 3050 073e 1D       		.uleb128 0x1d
 3051 073f 73756D00 		.ascii	"sum\000"
 3052 0743 01       		.byte	0x1
 3053 0744 3F01     		.2byte	0x13f
 3054 0746 88000000 		.4byte	0x88
 3055 074a AB030000 		.4byte	.LLST19
 3056 074e 1D       		.uleb128 0x1d
 3057 074f 6900     		.ascii	"i\000"
 3058 0751 01       		.byte	0x1
 3059 0752 4001     		.2byte	0x140
 3060 0754 88000000 		.4byte	0x88
 3061 0758 D5030000 		.4byte	.LLST20
 3062 075c 0E       		.uleb128 0xe
 3063 075d 68000000 		.4byte	.LVL78
 3064 0761 25040000 		.4byte	0x425
 3065 0765 0F       		.uleb128 0xf
 3066 0766 01       		.uleb128 0x1
 3067 0767 51       		.byte	0x51
 3068 0768 01       		.uleb128 0x1
 3069 0769 3F       		.byte	0x3f
 3070 076a 0F       		.uleb128 0xf
 3071 076b 01       		.uleb128 0x1
 3072 076c 50       		.byte	0x50
 3073 076d 02       		.uleb128 0x2
 3074 076e 75       		.byte	0x75
 3075 076f 00       		.sleb128 0
 3076 0770 00       		.byte	0
 3077 0771 00       		.byte	0
 3078 0772 1A       		.uleb128 0x1a
 3079 0773 74070000 		.4byte	.LASF105
 3080 0777 01       		.byte	0x1
 3081 0778 4701     		.2byte	0x147
 3082 077a 00000000 		.4byte	.LFB69
 3083 077e 5C000000 		.4byte	.LFE69-.LFB69
 3084 0782 01       		.uleb128 0x1
 3085 0783 9C       		.byte	0x9c
 3086 0784 3B080000 		.4byte	0x83b
 3087 0788 1B       		.uleb128 0x1b
 3088 0789 0F020000 		.4byte	.LASF106
 3089 078d 01       		.byte	0x1
 3090 078e 4701     		.2byte	0x147
 3091 0790 88000000 		.4byte	0x88
 3092 0794 FF030000 		.4byte	.LLST21
 3093 0798 1B       		.uleb128 0x1b
 3094 0799 C6000000 		.4byte	.LASF107
ARM GAS  C:\Users\pxc\AppData\Local\Temp\cc2eOiEg.s 			page 68


 3095 079d 01       		.byte	0x1
 3096 079e 4701     		.2byte	0x147
 3097 07a0 D4000000 		.4byte	0xd4
 3098 07a4 2F040000 		.4byte	.LLST22
 3099 07a8 1B       		.uleb128 0x1b
 3100 07a9 5A000000 		.4byte	.LASF108
 3101 07ad 01       		.byte	0x1
 3102 07ae 4701     		.2byte	0x147
 3103 07b0 93000000 		.4byte	0x93
 3104 07b4 5F040000 		.4byte	.LLST23
 3105 07b8 1B       		.uleb128 0x1b
 3106 07b9 58040000 		.4byte	.LASF109
 3107 07bd 01       		.byte	0x1
 3108 07be 4701     		.2byte	0x147
 3109 07c0 93000000 		.4byte	0x93
 3110 07c4 80040000 		.4byte	.LLST24
 3111 07c8 1E       		.uleb128 0x1e
 3112 07c9 586B6D00 		.ascii	"Xkm\000"
 3113 07cd 01       		.byte	0x1
 3114 07ce 4701     		.2byte	0x147
 3115 07d0 93000000 		.4byte	0x93
 3116 07d4 A1040000 		.4byte	.LLST25
 3117 07d8 1C       		.uleb128 0x1c
 3118 07d9 B2070000 		.4byte	.LASF104
 3119 07dd 01       		.byte	0x1
 3120 07de 4901     		.2byte	0x149
 3121 07e0 88000000 		.4byte	0x88
 3122 07e4 C1040000 		.4byte	.LLST26
 3123 07e8 1C       		.uleb128 0x1c
 3124 07e9 8E000000 		.4byte	.LASF110
 3125 07ed 01       		.byte	0x1
 3126 07ee 4A01     		.2byte	0x14a
 3127 07f0 88000000 		.4byte	0x88
 3128 07f4 65050000 		.4byte	.LLST27
 3129 07f8 1F       		.uleb128 0x1f
 3130 07f9 13030000 		.4byte	.LASF111
 3131 07fd 01       		.byte	0x1
 3132 07fe 4B01     		.2byte	0x14b
 3133 0800 93000000 		.4byte	0x93
 3134 0804 02       		.uleb128 0x2
 3135 0805 91       		.byte	0x91
 3136 0806 6E       		.sleb128 -18
 3137 0807 1D       		.uleb128 0x1d
 3138 0808 73756D00 		.ascii	"sum\000"
 3139 080c 01       		.byte	0x1
 3140 080d 6501     		.2byte	0x165
 3141 080f 88000000 		.4byte	0x88
 3142 0813 A0050000 		.4byte	.LLST28
 3143 0817 1D       		.uleb128 0x1d
 3144 0818 6900     		.ascii	"i\000"
 3145 081a 01       		.byte	0x1
 3146 081b 6601     		.2byte	0x166
 3147 081d 88000000 		.4byte	0x88
 3148 0821 CA050000 		.4byte	.LLST29
 3149 0825 0E       		.uleb128 0xe
 3150 0826 54000000 		.4byte	.LVL105
 3151 082a 25040000 		.4byte	0x425
ARM GAS  C:\Users\pxc\AppData\Local\Temp\cc2eOiEg.s 			page 69


 3152 082e 0F       		.uleb128 0xf
 3153 082f 01       		.uleb128 0x1
 3154 0830 51       		.byte	0x51
 3155 0831 01       		.uleb128 0x1
 3156 0832 3D       		.byte	0x3d
 3157 0833 0F       		.uleb128 0xf
 3158 0834 01       		.uleb128 0x1
 3159 0835 50       		.byte	0x50
 3160 0836 02       		.uleb128 0x2
 3161 0837 75       		.byte	0x75
 3162 0838 00       		.sleb128 0
 3163 0839 00       		.byte	0
 3164 083a 00       		.byte	0
 3165 083b 1A       		.uleb128 0x1a
 3166 083c 24010000 		.4byte	.LASF112
 3167 0840 01       		.byte	0x1
 3168 0841 6D01     		.2byte	0x16d
 3169 0843 00000000 		.4byte	.LFB70
 3170 0847 B8000000 		.4byte	.LFE70-.LFB70
 3171 084b 01       		.uleb128 0x1
 3172 084c 9C       		.byte	0x9c
 3173 084d 04090000 		.4byte	0x904
 3174 0851 1B       		.uleb128 0x1b
 3175 0852 B2000000 		.4byte	.LASF85
 3176 0856 01       		.byte	0x1
 3177 0857 6D01     		.2byte	0x16d
 3178 0859 B4000000 		.4byte	0xb4
 3179 085d F4050000 		.4byte	.LLST30
 3180 0861 1B       		.uleb128 0x1b
 3181 0862 0E030000 		.4byte	.LASF86
 3182 0866 01       		.byte	0x1
 3183 0867 6D01     		.2byte	0x16d
 3184 0869 B4000000 		.4byte	0xb4
 3185 086d 15060000 		.4byte	.LLST31
 3186 0871 1E       		.uleb128 0x1e
 3187 0872 79617700 		.ascii	"yaw\000"
 3188 0876 01       		.byte	0x1
 3189 0877 6D01     		.2byte	0x16d
 3190 0879 B4000000 		.4byte	0xb4
 3191 087d 36060000 		.4byte	.LLST32
 3192 0881 1E       		.uleb128 0x1e
 3193 0882 615F7800 		.ascii	"a_x\000"
 3194 0886 01       		.byte	0x1
 3195 0887 6D01     		.2byte	0x16d
 3196 0889 B4000000 		.4byte	0xb4
 3197 088d 57060000 		.4byte	.LLST33
 3198 0891 1E       		.uleb128 0x1e
 3199 0892 615F7900 		.ascii	"a_y\000"
 3200 0896 01       		.byte	0x1
 3201 0897 6D01     		.2byte	0x16d
 3202 0899 B4000000 		.4byte	0xb4
 3203 089d 78060000 		.4byte	.LLST34
 3204 08a1 1E       		.uleb128 0x1e
 3205 08a2 615F7A00 		.ascii	"a_z\000"
 3206 08a6 01       		.byte	0x1
 3207 08a7 6D01     		.2byte	0x16d
 3208 08a9 B4000000 		.4byte	0xb4
ARM GAS  C:\Users\pxc\AppData\Local\Temp\cc2eOiEg.s 			page 70


 3209 08ad 98060000 		.4byte	.LLST35
 3210 08b1 1C       		.uleb128 0x1c
 3211 08b2 B2070000 		.4byte	.LASF104
 3212 08b6 01       		.byte	0x1
 3213 08b7 6F01     		.2byte	0x16f
 3214 08b9 88000000 		.4byte	0x88
 3215 08bd B8060000 		.4byte	.LLST36
 3216 08c1 1F       		.uleb128 0x1f
 3217 08c2 8E000000 		.4byte	.LASF110
 3218 08c6 01       		.byte	0x1
 3219 08c7 7001     		.2byte	0x170
 3220 08c9 B4000000 		.4byte	0xb4
 3221 08cd 02       		.uleb128 0x2
 3222 08ce 91       		.byte	0x91
 3223 08cf 64       		.sleb128 -28
 3224 08d0 1D       		.uleb128 0x1d
 3225 08d1 73756D00 		.ascii	"sum\000"
 3226 08d5 01       		.byte	0x1
 3227 08d6 9901     		.2byte	0x199
 3228 08d8 88000000 		.4byte	0x88
 3229 08dc 1C080000 		.4byte	.LLST37
 3230 08e0 1D       		.uleb128 0x1d
 3231 08e1 6900     		.ascii	"i\000"
 3232 08e3 01       		.byte	0x1
 3233 08e4 9A01     		.2byte	0x19a
 3234 08e6 88000000 		.4byte	0x88
 3235 08ea 46080000 		.4byte	.LLST38
 3236 08ee 0E       		.uleb128 0xe
 3237 08ef B0000000 		.4byte	.LVL147
 3238 08f3 25040000 		.4byte	0x425
 3239 08f7 0F       		.uleb128 0xf
 3240 08f8 01       		.uleb128 0x1
 3241 08f9 51       		.byte	0x51
 3242 08fa 01       		.uleb128 0x1
 3243 08fb 4D       		.byte	0x4d
 3244 08fc 0F       		.uleb128 0xf
 3245 08fd 01       		.uleb128 0x1
 3246 08fe 50       		.byte	0x50
 3247 08ff 02       		.uleb128 0x2
 3248 0900 75       		.byte	0x75
 3249 0901 00       		.sleb128 0
 3250 0902 00       		.byte	0
 3251 0903 00       		.byte	0
 3252 0904 1A       		.uleb128 0x1a
 3253 0905 F6020000 		.4byte	.LASF113
 3254 0909 01       		.byte	0x1
 3255 090a A101     		.2byte	0x1a1
 3256 090c 00000000 		.4byte	.LFB71
 3257 0910 50000000 		.4byte	.LFE71-.LFB71
 3258 0914 01       		.uleb128 0x1
 3259 0915 9C       		.byte	0x9c
 3260 0916 81090000 		.4byte	0x981
 3261 091a 1B       		.uleb128 0x1b
 3262 091b BE040000 		.4byte	.LASF114
 3263 091f 01       		.byte	0x1
 3264 0920 A101     		.2byte	0x1a1
 3265 0922 93000000 		.4byte	0x93
ARM GAS  C:\Users\pxc\AppData\Local\Temp\cc2eOiEg.s 			page 71


 3266 0926 70080000 		.4byte	.LLST39
 3267 092a 1B       		.uleb128 0x1b
 3268 092b C6030000 		.4byte	.LASF115
 3269 092f 01       		.byte	0x1
 3270 0930 A101     		.2byte	0x1a1
 3271 0932 93000000 		.4byte	0x93
 3272 0936 9B080000 		.4byte	.LLST40
 3273 093a 1C       		.uleb128 0x1c
 3274 093b B2070000 		.4byte	.LASF104
 3275 093f 01       		.byte	0x1
 3276 0940 A301     		.2byte	0x1a3
 3277 0942 88000000 		.4byte	0x88
 3278 0946 C6080000 		.4byte	.LLST41
 3279 094a 1D       		.uleb128 0x1d
 3280 094b 73756D00 		.ascii	"sum\000"
 3281 094f 01       		.byte	0x1
 3282 0950 B101     		.2byte	0x1b1
 3283 0952 88000000 		.4byte	0x88
 3284 0956 3A090000 		.4byte	.LLST42
 3285 095a 1D       		.uleb128 0x1d
 3286 095b 6900     		.ascii	"i\000"
 3287 095d 01       		.byte	0x1
 3288 095e B201     		.2byte	0x1b2
 3289 0960 88000000 		.4byte	0x88
 3290 0964 64090000 		.4byte	.LLST43
 3291 0968 0E       		.uleb128 0xe
 3292 0969 48000000 		.4byte	.LVL167
 3293 096d 25040000 		.4byte	0x425
 3294 0971 0F       		.uleb128 0xf
 3295 0972 01       		.uleb128 0x1
 3296 0973 51       		.byte	0x51
 3297 0974 01       		.uleb128 0x1
 3298 0975 39       		.byte	0x39
 3299 0976 0F       		.uleb128 0xf
 3300 0977 01       		.uleb128 0x1
 3301 0978 50       		.byte	0x50
 3302 0979 05       		.uleb128 0x5
 3303 097a 03       		.byte	0x3
 3304 097b 00000000 		.4byte	data_to_send
 3305 097f 00       		.byte	0
 3306 0980 00       		.byte	0
 3307 0981 1A       		.uleb128 0x1a
 3308 0982 B8000000 		.4byte	.LASF116
 3309 0986 01       		.byte	0x1
 3310 0987 BA01     		.2byte	0x1ba
 3311 0989 00000000 		.4byte	.LFB72
 3312 098d 4C000000 		.4byte	.LFE72-.LFB72
 3313 0991 01       		.uleb128 0x1
 3314 0992 9C       		.byte	0x9c
 3315 0993 0D0A0000 		.4byte	0xa0d
 3316 0997 1B       		.uleb128 0x1b
 3317 0998 C6020000 		.4byte	.LASF117
 3318 099c 01       		.byte	0x1
 3319 099d BA01     		.2byte	0x1ba
 3320 099f 93000000 		.4byte	0x93
 3321 09a3 8E090000 		.4byte	.LLST44
 3322 09a7 1B       		.uleb128 0x1b
ARM GAS  C:\Users\pxc\AppData\Local\Temp\cc2eOiEg.s 			page 72


 3323 09a8 A9000000 		.4byte	.LASF118
 3324 09ac 01       		.byte	0x1
 3325 09ad BA01     		.2byte	0x1ba
 3326 09af 93000000 		.4byte	0x93
 3327 09b3 AF090000 		.4byte	.LLST45
 3328 09b7 1C       		.uleb128 0x1c
 3329 09b8 B2070000 		.4byte	.LASF104
 3330 09bc 01       		.byte	0x1
 3331 09bd BC01     		.2byte	0x1bc
 3332 09bf 88000000 		.4byte	0x88
 3333 09c3 DC090000 		.4byte	.LLST46
 3334 09c7 1F       		.uleb128 0x1f
 3335 09c8 B9040000 		.4byte	.LASF94
 3336 09cc 01       		.byte	0x1
 3337 09cd BD01     		.2byte	0x1bd
 3338 09cf 93000000 		.4byte	0x93
 3339 09d3 02       		.uleb128 0x2
 3340 09d4 91       		.byte	0x91
 3341 09d5 76       		.sleb128 -10
 3342 09d6 1D       		.uleb128 0x1d
 3343 09d7 73756D00 		.ascii	"sum\000"
 3344 09db 01       		.byte	0x1
 3345 09dc CD01     		.2byte	0x1cd
 3346 09de 88000000 		.4byte	0x88
 3347 09e2 500A0000 		.4byte	.LLST47
 3348 09e6 1D       		.uleb128 0x1d
 3349 09e7 6900     		.ascii	"i\000"
 3350 09e9 01       		.byte	0x1
 3351 09ea CE01     		.2byte	0x1ce
 3352 09ec 88000000 		.4byte	0x88
 3353 09f0 7A0A0000 		.4byte	.LLST48
 3354 09f4 0E       		.uleb128 0xe
 3355 09f5 44000000 		.4byte	.LVL187
 3356 09f9 25040000 		.4byte	0x425
 3357 09fd 0F       		.uleb128 0xf
 3358 09fe 01       		.uleb128 0x1
 3359 09ff 51       		.byte	0x51
 3360 0a00 01       		.uleb128 0x1
 3361 0a01 39       		.byte	0x39
 3362 0a02 0F       		.uleb128 0xf
 3363 0a03 01       		.uleb128 0x1
 3364 0a04 50       		.byte	0x50
 3365 0a05 05       		.uleb128 0x5
 3366 0a06 03       		.byte	0x3
 3367 0a07 00000000 		.4byte	data_to_send
 3368 0a0b 00       		.byte	0
 3369 0a0c 00       		.byte	0
 3370 0a0d 20       		.uleb128 0x20
 3371 0a0e 65020000 		.4byte	.LASF119
 3372 0a12 01       		.byte	0x1
 3373 0a13 0F       		.byte	0xf
 3374 0a14 00000000 		.4byte	.LFB63
 3375 0a18 04020000 		.4byte	.LFE63-.LFB63
 3376 0a1c 01       		.uleb128 0x1
 3377 0a1d 9C       		.byte	0x9c
 3378 0a1e 120B0000 		.4byte	0xb12
 3379 0a22 17       		.uleb128 0x17
ARM GAS  C:\Users\pxc\AppData\Local\Temp\cc2eOiEg.s 			page 73


 3380 0a23 B5060000 		.4byte	.LASF120
 3381 0a27 01       		.byte	0x1
 3382 0a28 11       		.byte	0x11
 3383 0a29 25000000 		.4byte	0x25
 3384 0a2d 05       		.uleb128 0x5
 3385 0a2e 03       		.byte	0x3
 3386 0a2f 3C000000 		.4byte	temp_pitch.6863
 3387 0a33 17       		.uleb128 0x17
 3388 0a34 02070000 		.4byte	.LASF121
 3389 0a38 01       		.byte	0x1
 3390 0a39 12       		.byte	0x12
 3391 0a3a 25000000 		.4byte	0x25
 3392 0a3e 05       		.uleb128 0x5
 3393 0a3f 03       		.byte	0x3
 3394 0a40 40000000 		.4byte	tmep_roll.6864
 3395 0a44 17       		.uleb128 0x17
 3396 0a45 CE000000 		.4byte	.LASF122
 3397 0a49 01       		.byte	0x1
 3398 0a4a 13       		.byte	0x13
 3399 0a4b 25000000 		.4byte	0x25
 3400 0a4f 05       		.uleb128 0x5
 3401 0a50 03       		.byte	0x3
 3402 0a51 44000000 		.4byte	temp_yaw.6865
 3403 0a55 21       		.uleb128 0x21
 3404 0a56 636E7400 		.ascii	"cnt\000"
 3405 0a5a 01       		.byte	0x1
 3406 0a5b 15       		.byte	0x15
 3407 0a5c 88000000 		.4byte	0x88
 3408 0a60 05       		.uleb128 0x5
 3409 0a61 03       		.byte	0x3
 3410 0a62 38000000 		.4byte	cnt.6866
 3411 0a66 22       		.uleb128 0x22
 3412 0a67 9E020000 		.4byte	.LASF123
 3413 0a6b 01       		.byte	0x1
 3414 0a6c 16       		.byte	0x16
 3415 0a6d 120B0000 		.4byte	0xb12
 3416 0a71 05       		.byte	0x5
 3417 0a72 22       		.uleb128 0x22
 3418 0a73 9E060000 		.4byte	.LASF124
 3419 0a77 01       		.byte	0x1
 3420 0a78 17       		.byte	0x17
 3421 0a79 120B0000 		.4byte	0xb12
 3422 0a7d 0B       		.byte	0xb
 3423 0a7e 22       		.uleb128 0x22
 3424 0a7f 89070000 		.4byte	.LASF125
 3425 0a83 01       		.byte	0x1
 3426 0a84 18       		.byte	0x18
 3427 0a85 120B0000 		.4byte	0xb12
 3428 0a89 0D       		.byte	0xd
 3429 0a8a 22       		.uleb128 0x22
 3430 0a8b FE040000 		.4byte	.LASF126
 3431 0a8f 01       		.byte	0x1
 3432 0a90 19       		.byte	0x19
 3433 0a91 120B0000 		.4byte	0xb12
 3434 0a95 14       		.byte	0x14
 3435 0a96 22       		.uleb128 0x22
 3436 0a97 4E040000 		.4byte	.LASF127
ARM GAS  C:\Users\pxc\AppData\Local\Temp\cc2eOiEg.s 			page 74


 3437 0a9b 01       		.byte	0x1
 3438 0a9c 1A       		.byte	0x1a
 3439 0a9d 120B0000 		.4byte	0xb12
 3440 0aa1 08       		.byte	0x8
 3441 0aa2 16       		.uleb128 0x16
 3442 0aa3 BE000000 		.4byte	.LVL188
 3443 0aa7 C8060000 		.4byte	0x6c8
 3444 0aab B70A0000 		.4byte	0xab7
 3445 0aaf 0F       		.uleb128 0xf
 3446 0ab0 02       		.uleb128 0x2
 3447 0ab1 7D       		.byte	0x7d
 3448 0ab2 00       		.sleb128 0
 3449 0ab3 02       		.uleb128 0x2
 3450 0ab4 74       		.byte	0x74
 3451 0ab5 00       		.sleb128 0
 3452 0ab6 00       		.byte	0
 3453 0ab7 16       		.uleb128 0x16
 3454 0ab8 DE000000 		.4byte	.LVL189
 3455 0abc 72070000 		.4byte	0x772
 3456 0ac0 D10A0000 		.4byte	0xad1
 3457 0ac4 0F       		.uleb128 0xf
 3458 0ac5 01       		.uleb128 0x1
 3459 0ac6 50       		.byte	0x50
 3460 0ac7 01       		.uleb128 0x1
 3461 0ac8 30       		.byte	0x30
 3462 0ac9 0F       		.uleb128 0xf
 3463 0aca 02       		.uleb128 0x2
 3464 0acb 7D       		.byte	0x7d
 3465 0acc 00       		.sleb128 0
 3466 0acd 02       		.uleb128 0x2
 3467 0ace 74       		.byte	0x74
 3468 0acf 00       		.sleb128 0
 3469 0ad0 00       		.byte	0
 3470 0ad1 16       		.uleb128 0x16
 3471 0ad2 9C010000 		.4byte	.LVL208
 3472 0ad6 3B080000 		.4byte	0x83b
 3473 0ada FF0A0000 		.4byte	0xaff
 3474 0ade 0F       		.uleb128 0xf
 3475 0adf 01       		.uleb128 0x1
 3476 0ae0 53       		.byte	0x53
 3477 0ae1 02       		.uleb128 0x2
 3478 0ae2 74       		.byte	0x74
 3479 0ae3 00       		.sleb128 0
 3480 0ae4 0F       		.uleb128 0xf
 3481 0ae5 01       		.uleb128 0x1
 3482 0ae6 51       		.byte	0x51
 3483 0ae7 02       		.uleb128 0x2
 3484 0ae8 75       		.byte	0x75
 3485 0ae9 00       		.sleb128 0
 3486 0aea 0F       		.uleb128 0xf
 3487 0aeb 01       		.uleb128 0x1
 3488 0aec 50       		.byte	0x50
 3489 0aed 02       		.uleb128 0x2
 3490 0aee 76       		.byte	0x76
 3491 0aef 00       		.sleb128 0
 3492 0af0 0F       		.uleb128 0xf
 3493 0af1 02       		.uleb128 0x2
ARM GAS  C:\Users\pxc\AppData\Local\Temp\cc2eOiEg.s 			page 75


 3494 0af2 7D       		.byte	0x7d
 3495 0af3 04       		.sleb128 4
 3496 0af4 02       		.uleb128 0x2
 3497 0af5 74       		.byte	0x74
 3498 0af6 00       		.sleb128 0
 3499 0af7 0F       		.uleb128 0xf
 3500 0af8 02       		.uleb128 0x2
 3501 0af9 7D       		.byte	0x7d
 3502 0afa 00       		.sleb128 0
 3503 0afb 02       		.uleb128 0x2
 3504 0afc 74       		.byte	0x74
 3505 0afd 00       		.sleb128 0
 3506 0afe 00       		.byte	0
 3507 0aff 15       		.uleb128 0x15
 3508 0b00 B4010000 		.4byte	.LVL209
 3509 0b04 04090000 		.4byte	0x904
 3510 0b08 15       		.uleb128 0x15
 3511 0b09 CE010000 		.4byte	.LVL210
 3512 0b0d 81090000 		.4byte	0x981
 3513 0b11 00       		.byte	0
 3514 0b12 23       		.uleb128 0x23
 3515 0b13 88000000 		.4byte	0x88
 3516 0b17 1A       		.uleb128 0x1a
 3517 0b18 38030000 		.4byte	.LASF128
 3518 0b1c 01       		.byte	0x1
 3519 0b1d D601     		.2byte	0x1d6
 3520 0b1f 00000000 		.4byte	.LFB73
 3521 0b23 98000000 		.4byte	.LFE73-.LFB73
 3522 0b27 01       		.uleb128 0x1
 3523 0b28 9C       		.byte	0x9c
 3524 0b29 F10B0000 		.4byte	0xbf1
 3525 0b2d 1E       		.uleb128 0x1e
 3526 0b2e 6D5F3100 		.ascii	"m_1\000"
 3527 0b32 01       		.byte	0x1
 3528 0b33 D601     		.2byte	0x1d6
 3529 0b35 93000000 		.4byte	0x93
 3530 0b39 A40A0000 		.4byte	.LLST49
 3531 0b3d 1E       		.uleb128 0x1e
 3532 0b3e 6D5F3200 		.ascii	"m_2\000"
 3533 0b42 01       		.byte	0x1
 3534 0b43 D601     		.2byte	0x1d6
 3535 0b45 93000000 		.4byte	0x93
 3536 0b49 CF0A0000 		.4byte	.LLST50
 3537 0b4d 1E       		.uleb128 0x1e
 3538 0b4e 6D5F3300 		.ascii	"m_3\000"
 3539 0b52 01       		.byte	0x1
 3540 0b53 D601     		.2byte	0x1d6
 3541 0b55 93000000 		.4byte	0x93
 3542 0b59 FA0A0000 		.4byte	.LLST51
 3543 0b5d 1E       		.uleb128 0x1e
 3544 0b5e 6D5F3400 		.ascii	"m_4\000"
 3545 0b62 01       		.byte	0x1
 3546 0b63 D601     		.2byte	0x1d6
 3547 0b65 93000000 		.4byte	0x93
 3548 0b69 250B0000 		.4byte	.LLST52
 3549 0b6d 1E       		.uleb128 0x1e
 3550 0b6e 6D5F3500 		.ascii	"m_5\000"
ARM GAS  C:\Users\pxc\AppData\Local\Temp\cc2eOiEg.s 			page 76


 3551 0b72 01       		.byte	0x1
 3552 0b73 D601     		.2byte	0x1d6
 3553 0b75 93000000 		.4byte	0x93
 3554 0b79 5C0B0000 		.4byte	.LLST53
 3555 0b7d 1E       		.uleb128 0x1e
 3556 0b7e 6D5F3600 		.ascii	"m_6\000"
 3557 0b82 01       		.byte	0x1
 3558 0b83 D601     		.2byte	0x1d6
 3559 0b85 93000000 		.4byte	0x93
 3560 0b89 7C0B0000 		.4byte	.LLST54
 3561 0b8d 1E       		.uleb128 0x1e
 3562 0b8e 6D5F3700 		.ascii	"m_7\000"
 3563 0b92 01       		.byte	0x1
 3564 0b93 D601     		.2byte	0x1d6
 3565 0b95 93000000 		.4byte	0x93
 3566 0b99 9C0B0000 		.4byte	.LLST55
 3567 0b9d 1E       		.uleb128 0x1e
 3568 0b9e 6D5F3800 		.ascii	"m_8\000"
 3569 0ba2 01       		.byte	0x1
 3570 0ba3 D601     		.2byte	0x1d6
 3571 0ba5 93000000 		.4byte	0x93
 3572 0ba9 BC0B0000 		.4byte	.LLST56
 3573 0bad 1C       		.uleb128 0x1c
 3574 0bae B2070000 		.4byte	.LASF104
 3575 0bb2 01       		.byte	0x1
 3576 0bb3 D801     		.2byte	0x1d8
 3577 0bb5 88000000 		.4byte	0x88
 3578 0bb9 DC0B0000 		.4byte	.LLST57
 3579 0bbd 1D       		.uleb128 0x1d
 3580 0bbe 73756D00 		.ascii	"sum\000"
 3581 0bc2 01       		.byte	0x1
 3582 0bc3 F201     		.2byte	0x1f2
 3583 0bc5 88000000 		.4byte	0x88
 3584 0bc9 E00C0000 		.4byte	.LLST58
 3585 0bcd 1D       		.uleb128 0x1d
 3586 0bce 6900     		.ascii	"i\000"
 3587 0bd0 01       		.byte	0x1
 3588 0bd1 F301     		.2byte	0x1f3
 3589 0bd3 88000000 		.4byte	0x88
 3590 0bd7 0A0D0000 		.4byte	.LLST59
 3591 0bdb 0E       		.uleb128 0xe
 3592 0bdc 8E000000 		.4byte	.LVL243
 3593 0be0 25040000 		.4byte	0x425
 3594 0be4 0F       		.uleb128 0xf
 3595 0be5 01       		.uleb128 0x1
 3596 0be6 51       		.byte	0x51
 3597 0be7 01       		.uleb128 0x1
 3598 0be8 45       		.byte	0x45
 3599 0be9 0F       		.uleb128 0xf
 3600 0bea 01       		.uleb128 0x1
 3601 0beb 50       		.byte	0x50
 3602 0bec 02       		.uleb128 0x2
 3603 0bed 75       		.byte	0x75
 3604 0bee 00       		.sleb128 0
 3605 0bef 00       		.byte	0
 3606 0bf0 00       		.byte	0
 3607 0bf1 24       		.uleb128 0x24
ARM GAS  C:\Users\pxc\AppData\Local\Temp\cc2eOiEg.s 			page 77


 3608 0bf2 A9060000 		.4byte	.LASF129
 3609 0bf6 01       		.byte	0x1
 3610 0bf7 FB01     		.2byte	0x1fb
 3611 0bf9 00000000 		.4byte	.LFB74
 3612 0bfd 00010000 		.4byte	.LFE74-.LFB74
 3613 0c01 01       		.uleb128 0x1
 3614 0c02 9C       		.byte	0x9c
 3615 0c03 FA0C0000 		.4byte	0xcfa
 3616 0c07 1B       		.uleb128 0x1b
 3617 0c08 70040000 		.4byte	.LASF130
 3618 0c0c 01       		.byte	0x1
 3619 0c0d FB01     		.2byte	0x1fb
 3620 0c0f 88000000 		.4byte	0x88
 3621 0c13 340D0000 		.4byte	.LLST60
 3622 0c17 1B       		.uleb128 0x1b
 3623 0c18 AD070000 		.4byte	.LASF131
 3624 0c1c 01       		.byte	0x1
 3625 0c1d FB01     		.2byte	0x1fb
 3626 0c1f 25000000 		.4byte	0x25
 3627 0c23 550D0000 		.4byte	.LLST61
 3628 0c27 1B       		.uleb128 0x1b
 3629 0c28 A8070000 		.4byte	.LASF132
 3630 0c2c 01       		.byte	0x1
 3631 0c2d FB01     		.2byte	0x1fb
 3632 0c2f 25000000 		.4byte	0x25
 3633 0c33 830D0000 		.4byte	.LLST62
 3634 0c37 1B       		.uleb128 0x1b
 3635 0c38 A3070000 		.4byte	.LASF133
 3636 0c3c 01       		.byte	0x1
 3637 0c3d FB01     		.2byte	0x1fb
 3638 0c3f 25000000 		.4byte	0x25
 3639 0c43 B10D0000 		.4byte	.LLST63
 3640 0c47 1B       		.uleb128 0x1b
 3641 0c48 2F020000 		.4byte	.LASF134
 3642 0c4c 01       		.byte	0x1
 3643 0c4d FB01     		.2byte	0x1fb
 3644 0c4f 25000000 		.4byte	0x25
 3645 0c53 DF0D0000 		.4byte	.LLST64
 3646 0c57 1B       		.uleb128 0x1b
 3647 0c58 0A020000 		.4byte	.LASF135
 3648 0c5c 01       		.byte	0x1
 3649 0c5d FB01     		.2byte	0x1fb
 3650 0c5f 25000000 		.4byte	0x25
 3651 0c63 FF0D0000 		.4byte	.LLST65
 3652 0c67 1B       		.uleb128 0x1b
 3653 0c68 05020000 		.4byte	.LASF136
 3654 0c6c 01       		.byte	0x1
 3655 0c6d FB01     		.2byte	0x1fb
 3656 0c6f 25000000 		.4byte	0x25
 3657 0c73 1F0E0000 		.4byte	.LLST66
 3658 0c77 1B       		.uleb128 0x1b
 3659 0c78 0A050000 		.4byte	.LASF137
 3660 0c7c 01       		.byte	0x1
 3661 0c7d FB01     		.2byte	0x1fb
 3662 0c7f 25000000 		.4byte	0x25
 3663 0c83 3F0E0000 		.4byte	.LLST67
 3664 0c87 1B       		.uleb128 0x1b
ARM GAS  C:\Users\pxc\AppData\Local\Temp\cc2eOiEg.s 			page 78


 3665 0c88 E5040000 		.4byte	.LASF138
 3666 0c8c 01       		.byte	0x1
 3667 0c8d FB01     		.2byte	0x1fb
 3668 0c8f 25000000 		.4byte	0x25
 3669 0c93 5F0E0000 		.4byte	.LLST68
 3670 0c97 1B       		.uleb128 0x1b
 3671 0c98 E0040000 		.4byte	.LASF139
 3672 0c9c 01       		.byte	0x1
 3673 0c9d FB01     		.2byte	0x1fb
 3674 0c9f 25000000 		.4byte	0x25
 3675 0ca3 7F0E0000 		.4byte	.LLST69
 3676 0ca7 1C       		.uleb128 0x1c
 3677 0ca8 B2070000 		.4byte	.LASF104
 3678 0cac 01       		.byte	0x1
 3679 0cad FD01     		.2byte	0x1fd
 3680 0caf 88000000 		.4byte	0x88
 3681 0cb3 9F0E0000 		.4byte	.LLST70
 3682 0cb7 1F       		.uleb128 0x1f
 3683 0cb8 8E000000 		.4byte	.LASF110
 3684 0cbc 01       		.byte	0x1
 3685 0cbd FE01     		.2byte	0x1fe
 3686 0cbf A9000000 		.4byte	0xa9
 3687 0cc3 02       		.uleb128 0x2
 3688 0cc4 91       		.byte	0x91
 3689 0cc5 66       		.sleb128 -26
 3690 0cc6 1D       		.uleb128 0x1d
 3691 0cc7 73756D00 		.ascii	"sum\000"
 3692 0ccb 01       		.byte	0x1
 3693 0ccc 2402     		.2byte	0x224
 3694 0cce 88000000 		.4byte	0x88
 3695 0cd2 BB0F0000 		.4byte	.LLST71
 3696 0cd6 1D       		.uleb128 0x1d
 3697 0cd7 6900     		.ascii	"i\000"
 3698 0cd9 01       		.byte	0x1
 3699 0cda 2502     		.2byte	0x225
 3700 0cdc 88000000 		.4byte	0x88
 3701 0ce0 E50F0000 		.4byte	.LLST72
 3702 0ce4 0E       		.uleb128 0xe
 3703 0ce5 F2000000 		.4byte	.LVL289
 3704 0ce9 25040000 		.4byte	0x425
 3705 0ced 0F       		.uleb128 0xf
 3706 0cee 01       		.uleb128 0x1
 3707 0cef 51       		.byte	0x51
 3708 0cf0 01       		.uleb128 0x1
 3709 0cf1 47       		.byte	0x47
 3710 0cf2 0F       		.uleb128 0xf
 3711 0cf3 01       		.uleb128 0x1
 3712 0cf4 50       		.byte	0x50
 3713 0cf5 02       		.uleb128 0x2
 3714 0cf6 75       		.byte	0x75
 3715 0cf7 00       		.sleb128 0
 3716 0cf8 00       		.byte	0
 3717 0cf9 00       		.byte	0
 3718 0cfa 1A       		.uleb128 0x1a
 3719 0cfb 72050000 		.4byte	.LASF140
 3720 0cff 01       		.byte	0x1
 3721 0d00 2D02     		.2byte	0x22d
ARM GAS  C:\Users\pxc\AppData\Local\Temp\cc2eOiEg.s 			page 79


 3722 0d02 00000000 		.4byte	.LFB75
 3723 0d06 A0000000 		.4byte	.LFE75-.LFB75
 3724 0d0a 01       		.uleb128 0x1
 3725 0d0b 9C       		.byte	0x9c
 3726 0d0c 730D0000 		.4byte	0xd73
 3727 0d10 1B       		.uleb128 0x1b
 3728 0d11 78030000 		.4byte	.LASF141
 3729 0d15 01       		.byte	0x1
 3730 0d16 2D02     		.2byte	0x22d
 3731 0d18 6A040000 		.4byte	0x46a
 3732 0d1c 0F100000 		.4byte	.LLST73
 3733 0d20 1C       		.uleb128 0x1c
 3734 0d21 B2070000 		.4byte	.LASF104
 3735 0d25 01       		.byte	0x1
 3736 0d26 2F02     		.2byte	0x22f
 3737 0d28 88000000 		.4byte	0x88
 3738 0d2c 30100000 		.4byte	.LLST74
 3739 0d30 25       		.uleb128 0x25
 3740 0d31 8E000000 		.4byte	.LASF110
 3741 0d35 01       		.byte	0x1
 3742 0d36 3002     		.2byte	0x230
 3743 0d38 A9000000 		.4byte	0xa9
 3744 0d3c 1D       		.uleb128 0x1d
 3745 0d3d 73756D00 		.ascii	"sum\000"
 3746 0d41 01       		.byte	0x1
 3747 0d42 5902     		.2byte	0x259
 3748 0d44 88000000 		.4byte	0x88
 3749 0d48 A0110000 		.4byte	.LLST75
 3750 0d4c 1D       		.uleb128 0x1d
 3751 0d4d 6900     		.ascii	"i\000"
 3752 0d4f 01       		.byte	0x1
 3753 0d50 5A02     		.2byte	0x25a
 3754 0d52 88000000 		.4byte	0x88
 3755 0d56 CA110000 		.4byte	.LLST76
 3756 0d5a 0E       		.uleb128 0xe
 3757 0d5b 98000000 		.4byte	.LVL329
 3758 0d5f 25040000 		.4byte	0x425
 3759 0d63 0F       		.uleb128 0xf
 3760 0d64 01       		.uleb128 0x1
 3761 0d65 51       		.byte	0x51
 3762 0d66 01       		.uleb128 0x1
 3763 0d67 4E       		.byte	0x4e
 3764 0d68 0F       		.uleb128 0xf
 3765 0d69 01       		.uleb128 0x1
 3766 0d6a 50       		.byte	0x50
 3767 0d6b 05       		.uleb128 0x5
 3768 0d6c 03       		.byte	0x3
 3769 0d6d 00000000 		.4byte	data_to_send
 3770 0d71 00       		.byte	0
 3771 0d72 00       		.byte	0
 3772 0d73 1A       		.uleb128 0x1a
 3773 0d74 4A010000 		.4byte	.LASF142
 3774 0d78 01       		.byte	0x1
 3775 0d79 6202     		.2byte	0x262
 3776 0d7b 00000000 		.4byte	.LFB76
 3777 0d7f 2E000000 		.4byte	.LFE76-.LFB76
 3778 0d83 01       		.uleb128 0x1
ARM GAS  C:\Users\pxc\AppData\Local\Temp\cc2eOiEg.s 			page 80


 3779 0d84 9C       		.byte	0x9c
 3780 0d85 E80D0000 		.4byte	0xde8
 3781 0d89 1B       		.uleb128 0x1b
 3782 0d8a 78030000 		.4byte	.LASF141
 3783 0d8e 01       		.byte	0x1
 3784 0d8f 6202     		.2byte	0x262
 3785 0d91 6A040000 		.4byte	0x46a
 3786 0d95 F4110000 		.4byte	.LLST77
 3787 0d99 26       		.uleb128 0x26
 3788 0d9a B2070000 		.4byte	.LASF104
 3789 0d9e 01       		.byte	0x1
 3790 0d9f 6402     		.2byte	0x264
 3791 0da1 88000000 		.4byte	0x88
 3792 0da5 00       		.byte	0
 3793 0da6 25       		.uleb128 0x25
 3794 0da7 8E000000 		.4byte	.LASF110
 3795 0dab 01       		.byte	0x1
 3796 0dac 6502     		.2byte	0x265
 3797 0dae A9000000 		.4byte	0xa9
 3798 0db2 1D       		.uleb128 0x1d
 3799 0db3 73756D00 		.ascii	"sum\000"
 3800 0db7 01       		.byte	0x1
 3801 0db8 6E02     		.2byte	0x26e
 3802 0dba 88000000 		.4byte	0x88
 3803 0dbe 15120000 		.4byte	.LLST78
 3804 0dc2 1D       		.uleb128 0x1d
 3805 0dc3 6900     		.ascii	"i\000"
 3806 0dc5 01       		.byte	0x1
 3807 0dc6 6F02     		.2byte	0x26f
 3808 0dc8 88000000 		.4byte	0x88
 3809 0dcc 3F120000 		.4byte	.LLST79
 3810 0dd0 0E       		.uleb128 0xe
 3811 0dd1 2C000000 		.4byte	.LVL338
 3812 0dd5 25040000 		.4byte	0x425
 3813 0dd9 0F       		.uleb128 0xf
 3814 0dda 01       		.uleb128 0x1
 3815 0ddb 51       		.byte	0x51
 3816 0ddc 02       		.uleb128 0x2
 3817 0ddd 08       		.byte	0x8
 3818 0dde 57       		.byte	0x57
 3819 0ddf 0F       		.uleb128 0xf
 3820 0de0 01       		.uleb128 0x1
 3821 0de1 50       		.byte	0x50
 3822 0de2 03       		.uleb128 0x3
 3823 0de3 F3       		.byte	0xf3
 3824 0de4 01       		.uleb128 0x1
 3825 0de5 50       		.byte	0x50
 3826 0de6 00       		.byte	0
 3827 0de7 00       		.byte	0
 3828 0de8 27       		.uleb128 0x27
 3829 0de9 18020000 		.4byte	.LASF143
 3830 0ded 07       		.byte	0x7
 3831 0dee 2A06     		.2byte	0x62a
 3832 0df0 F40D0000 		.4byte	0xdf4
 3833 0df4 28       		.uleb128 0x28
 3834 0df5 7D000000 		.4byte	0x7d
 3835 0df9 29       		.uleb128 0x29
ARM GAS  C:\Users\pxc\AppData\Local\Temp\cc2eOiEg.s 			page 81


 3836 0dfa 56070000 		.4byte	.LASF144
 3837 0dfe 05       		.byte	0x5
 3838 0dff 40       		.byte	0x40
 3839 0e00 E0020000 		.4byte	0x2e0
 3840 0e04 05       		.uleb128 0x5
 3841 0e05 03       		.byte	0x3
 3842 0e06 00000000 		.4byte	g_Car
 3843 0e0a 29       		.uleb128 0x29
 3844 0e0b 83070000 		.4byte	.LASF145
 3845 0e0f 06       		.byte	0x6
 3846 0e10 26       		.byte	0x26
 3847 0e11 1A040000 		.4byte	0x41a
 3848 0e15 05       		.uleb128 0x5
 3849 0e16 03       		.byte	0x3
 3850 0e17 00000000 		.4byte	S_IMU
 3851 0e1b 2A       		.uleb128 0x2a
 3852 0e1c 6600     		.ascii	"f\000"
 3853 0e1e 01       		.byte	0x1
 3854 0e1f 0B       		.byte	0xb
 3855 0e20 90030000 		.4byte	0x390
 3856 0e24 05       		.uleb128 0x5
 3857 0e25 03       		.byte	0x3
 3858 0e26 00000000 		.4byte	f
 3859 0e2a 2A       		.uleb128 0x2a
 3860 0e2b 435F5600 		.ascii	"C_V\000"
 3861 0e2f 08       		.byte	0x8
 3862 0e30 16       		.byte	0x16
 3863 0e31 A9000000 		.4byte	0xa9
 3864 0e35 05       		.uleb128 0x5
 3865 0e36 03       		.byte	0x3
 3866 0e37 00000000 		.4byte	C_V
 3867 0e3b 2A       		.uleb128 0x2a
 3868 0e3c 445F5600 		.ascii	"D_V\000"
 3869 0e40 08       		.byte	0x8
 3870 0e41 17       		.byte	0x17
 3871 0e42 A9000000 		.4byte	0xa9
 3872 0e46 05       		.uleb128 0x5
 3873 0e47 03       		.byte	0x3
 3874 0e48 00000000 		.4byte	D_V
 3875 0e4c 2A       		.uleb128 0x2a
 3876 0e4d 505F5600 		.ascii	"P_V\000"
 3877 0e51 08       		.byte	0x8
 3878 0e52 18       		.byte	0x18
 3879 0e53 A9000000 		.4byte	0xa9
 3880 0e57 05       		.uleb128 0x5
 3881 0e58 03       		.byte	0x3
 3882 0e59 00000000 		.4byte	P_V
 3883 0e5d 29       		.uleb128 0x29
 3884 0e5e B6050000 		.4byte	.LASF146
 3885 0e62 01       		.byte	0x1
 3886 0e63 0C       		.byte	0xc
 3887 0e64 B8060000 		.4byte	0x6b8
 3888 0e68 05       		.uleb128 0x5
 3889 0e69 03       		.byte	0x3
 3890 0e6a 00000000 		.4byte	data_to_send
 3891 0e6e 2B       		.uleb128 0x2b
 3892 0e6f 1C000000 		.4byte	.LASF147
ARM GAS  C:\Users\pxc\AppData\Local\Temp\cc2eOiEg.s 			page 82


 3893 0e73 09       		.byte	0x9
 3894 0e74 8C       		.byte	0x8c
 3895 0e75 840E0000 		.4byte	0xe84
 3896 0e79 2C       		.uleb128 0x2c
 3897 0e7a 840E0000 		.4byte	0xe84
 3898 0e7e 2C       		.uleb128 0x2c
 3899 0e7f 88000000 		.4byte	0x88
 3900 0e83 00       		.byte	0
 3901 0e84 10       		.uleb128 0x10
 3902 0e85 04       		.byte	0x4
 3903 0e86 120B0000 		.4byte	0xb12
 3904 0e8a 2D       		.uleb128 0x2d
 3905 0e8b 47020000 		.4byte	.LASF160
 3906 0e8f 0A       		.byte	0xa
 3907 0e90 C0       		.byte	0xc0
 3908 0e91 93000000 		.4byte	0x93
 3909 0e95 2B       		.uleb128 0x2b
 3910 0e96 F0000000 		.4byte	.LASF148
 3911 0e9a 0A       		.byte	0xa
 3912 0e9b C3       		.byte	0xc3
 3913 0e9c A60E0000 		.4byte	0xea6
 3914 0ea0 2C       		.uleb128 0x2c
 3915 0ea1 93000000 		.4byte	0x93
 3916 0ea5 00       		.byte	0
 3917 0ea6 2B       		.uleb128 0x2b
 3918 0ea7 A6010000 		.4byte	.LASF149
 3919 0eab 0B       		.byte	0xb
 3920 0eac C3       		.byte	0xc3
 3921 0ead B70E0000 		.4byte	0xeb7
 3922 0eb1 2C       		.uleb128 0x2c
 3923 0eb2 93000000 		.4byte	0x93
 3924 0eb6 00       		.byte	0
 3925 0eb7 2B       		.uleb128 0x2b
 3926 0eb8 F4030000 		.4byte	.LASF150
 3927 0ebc 0C       		.byte	0xc
 3928 0ebd C3       		.byte	0xc3
 3929 0ebe C80E0000 		.4byte	0xec8
 3930 0ec2 2C       		.uleb128 0x2c
 3931 0ec3 93000000 		.4byte	0x93
 3932 0ec7 00       		.byte	0
 3933 0ec8 2B       		.uleb128 0x2b
 3934 0ec9 5B050000 		.4byte	.LASF151
 3935 0ecd 0D       		.byte	0xd
 3936 0ece C3       		.byte	0xc3
 3937 0ecf D90E0000 		.4byte	0xed9
 3938 0ed3 2C       		.uleb128 0x2c
 3939 0ed4 93000000 		.4byte	0x93
 3940 0ed8 00       		.byte	0
 3941 0ed9 2B       		.uleb128 0x2b
 3942 0eda 76040000 		.4byte	.LASF152
 3943 0ede 0E       		.byte	0xe
 3944 0edf 28       		.byte	0x28
 3945 0ee0 EA0E0000 		.4byte	0xeea
 3946 0ee4 2C       		.uleb128 0x2c
 3947 0ee5 88000000 		.4byte	0x88
 3948 0ee9 00       		.byte	0
 3949 0eea 2B       		.uleb128 0x2b
ARM GAS  C:\Users\pxc\AppData\Local\Temp\cc2eOiEg.s 			page 83


 3950 0eeb D4030000 		.4byte	.LASF153
 3951 0eef 0A       		.byte	0xa
 3952 0ef0 BE       		.byte	0xbe
 3953 0ef1 FB0E0000 		.4byte	0xefb
 3954 0ef5 2C       		.uleb128 0x2c
 3955 0ef6 93000000 		.4byte	0x93
 3956 0efa 00       		.byte	0
 3957 0efb 2B       		.uleb128 0x2b
 3958 0efc CA070000 		.4byte	.LASF154
 3959 0f00 0B       		.byte	0xb
 3960 0f01 BE       		.byte	0xbe
 3961 0f02 0C0F0000 		.4byte	0xf0c
 3962 0f06 2C       		.uleb128 0x2c
 3963 0f07 93000000 		.4byte	0x93
 3964 0f0b 00       		.byte	0
 3965 0f0c 2B       		.uleb128 0x2b
 3966 0f0d 85030000 		.4byte	.LASF155
 3967 0f11 0C       		.byte	0xc
 3968 0f12 BE       		.byte	0xbe
 3969 0f13 1D0F0000 		.4byte	0xf1d
 3970 0f17 2C       		.uleb128 0x2c
 3971 0f18 93000000 		.4byte	0x93
 3972 0f1c 00       		.byte	0
 3973 0f1d 2E       		.uleb128 0x2e
 3974 0f1e 2E000000 		.4byte	.LASF161
 3975 0f22 0D       		.byte	0xd
 3976 0f23 BE       		.byte	0xbe
 3977 0f24 2C       		.uleb128 0x2c
 3978 0f25 93000000 		.4byte	0x93
 3979 0f29 00       		.byte	0
 3980 0f2a 00       		.byte	0
 3981              		.section	.debug_abbrev,"",%progbits
 3982              	.Ldebug_abbrev0:
 3983 0000 01       		.uleb128 0x1
 3984 0001 11       		.uleb128 0x11
 3985 0002 01       		.byte	0x1
 3986 0003 25       		.uleb128 0x25
 3987 0004 0E       		.uleb128 0xe
 3988 0005 13       		.uleb128 0x13
 3989 0006 0B       		.uleb128 0xb
 3990 0007 03       		.uleb128 0x3
 3991 0008 0E       		.uleb128 0xe
 3992 0009 1B       		.uleb128 0x1b
 3993 000a 0E       		.uleb128 0xe
 3994 000b 55       		.uleb128 0x55
 3995 000c 17       		.uleb128 0x17
 3996 000d 11       		.uleb128 0x11
 3997 000e 01       		.uleb128 0x1
 3998 000f 10       		.uleb128 0x10
 3999 0010 17       		.uleb128 0x17
 4000 0011 00       		.byte	0
 4001 0012 00       		.byte	0
 4002 0013 02       		.uleb128 0x2
 4003 0014 24       		.uleb128 0x24
 4004 0015 00       		.byte	0
 4005 0016 0B       		.uleb128 0xb
 4006 0017 0B       		.uleb128 0xb
ARM GAS  C:\Users\pxc\AppData\Local\Temp\cc2eOiEg.s 			page 84


 4007 0018 3E       		.uleb128 0x3e
 4008 0019 0B       		.uleb128 0xb
 4009 001a 03       		.uleb128 0x3
 4010 001b 0E       		.uleb128 0xe
 4011 001c 00       		.byte	0
 4012 001d 00       		.byte	0
 4013 001e 03       		.uleb128 0x3
 4014 001f 16       		.uleb128 0x16
 4015 0020 00       		.byte	0
 4016 0021 03       		.uleb128 0x3
 4017 0022 0E       		.uleb128 0xe
 4018 0023 3A       		.uleb128 0x3a
 4019 0024 0B       		.uleb128 0xb
 4020 0025 3B       		.uleb128 0x3b
 4021 0026 0B       		.uleb128 0xb
 4022 0027 49       		.uleb128 0x49
 4023 0028 13       		.uleb128 0x13
 4024 0029 00       		.byte	0
 4025 002a 00       		.byte	0
 4026 002b 04       		.uleb128 0x4
 4027 002c 24       		.uleb128 0x24
 4028 002d 00       		.byte	0
 4029 002e 0B       		.uleb128 0xb
 4030 002f 0B       		.uleb128 0xb
 4031 0030 3E       		.uleb128 0x3e
 4032 0031 0B       		.uleb128 0xb
 4033 0032 03       		.uleb128 0x3
 4034 0033 08       		.uleb128 0x8
 4035 0034 00       		.byte	0
 4036 0035 00       		.byte	0
 4037 0036 05       		.uleb128 0x5
 4038 0037 04       		.uleb128 0x4
 4039 0038 01       		.byte	0x1
 4040 0039 03       		.uleb128 0x3
 4041 003a 0E       		.uleb128 0xe
 4042 003b 0B       		.uleb128 0xb
 4043 003c 0B       		.uleb128 0xb
 4044 003d 3A       		.uleb128 0x3a
 4045 003e 0B       		.uleb128 0xb
 4046 003f 3B       		.uleb128 0x3b
 4047 0040 0B       		.uleb128 0xb
 4048 0041 01       		.uleb128 0x1
 4049 0042 13       		.uleb128 0x13
 4050 0043 00       		.byte	0
 4051 0044 00       		.byte	0
 4052 0045 06       		.uleb128 0x6
 4053 0046 28       		.uleb128 0x28
 4054 0047 00       		.byte	0
 4055 0048 03       		.uleb128 0x3
 4056 0049 08       		.uleb128 0x8
 4057 004a 1C       		.uleb128 0x1c
 4058 004b 0D       		.uleb128 0xd
 4059 004c 00       		.byte	0
 4060 004d 00       		.byte	0
 4061 004e 07       		.uleb128 0x7
 4062 004f 28       		.uleb128 0x28
 4063 0050 00       		.byte	0
ARM GAS  C:\Users\pxc\AppData\Local\Temp\cc2eOiEg.s 			page 85


 4064 0051 03       		.uleb128 0x3
 4065 0052 0E       		.uleb128 0xe
 4066 0053 1C       		.uleb128 0x1c
 4067 0054 0D       		.uleb128 0xd
 4068 0055 00       		.byte	0
 4069 0056 00       		.byte	0
 4070 0057 08       		.uleb128 0x8
 4071 0058 13       		.uleb128 0x13
 4072 0059 01       		.byte	0x1
 4073 005a 0B       		.uleb128 0xb
 4074 005b 0B       		.uleb128 0xb
 4075 005c 3A       		.uleb128 0x3a
 4076 005d 0B       		.uleb128 0xb
 4077 005e 3B       		.uleb128 0x3b
 4078 005f 0B       		.uleb128 0xb
 4079 0060 01       		.uleb128 0x1
 4080 0061 13       		.uleb128 0x13
 4081 0062 00       		.byte	0
 4082 0063 00       		.byte	0
 4083 0064 09       		.uleb128 0x9
 4084 0065 0D       		.uleb128 0xd
 4085 0066 00       		.byte	0
 4086 0067 03       		.uleb128 0x3
 4087 0068 08       		.uleb128 0x8
 4088 0069 3A       		.uleb128 0x3a
 4089 006a 0B       		.uleb128 0xb
 4090 006b 3B       		.uleb128 0x3b
 4091 006c 0B       		.uleb128 0xb
 4092 006d 49       		.uleb128 0x49
 4093 006e 13       		.uleb128 0x13
 4094 006f 38       		.uleb128 0x38
 4095 0070 0B       		.uleb128 0xb
 4096 0071 00       		.byte	0
 4097 0072 00       		.byte	0
 4098 0073 0A       		.uleb128 0xa
 4099 0074 0D       		.uleb128 0xd
 4100 0075 00       		.byte	0
 4101 0076 03       		.uleb128 0x3
 4102 0077 0E       		.uleb128 0xe
 4103 0078 3A       		.uleb128 0x3a
 4104 0079 0B       		.uleb128 0xb
 4105 007a 3B       		.uleb128 0x3b
 4106 007b 0B       		.uleb128 0xb
 4107 007c 49       		.uleb128 0x49
 4108 007d 13       		.uleb128 0x13
 4109 007e 38       		.uleb128 0x38
 4110 007f 0B       		.uleb128 0xb
 4111 0080 00       		.byte	0
 4112 0081 00       		.byte	0
 4113 0082 0B       		.uleb128 0xb
 4114 0083 16       		.uleb128 0x16
 4115 0084 00       		.byte	0
 4116 0085 03       		.uleb128 0x3
 4117 0086 08       		.uleb128 0x8
 4118 0087 3A       		.uleb128 0x3a
 4119 0088 0B       		.uleb128 0xb
 4120 0089 3B       		.uleb128 0x3b
ARM GAS  C:\Users\pxc\AppData\Local\Temp\cc2eOiEg.s 			page 86


 4121 008a 0B       		.uleb128 0xb
 4122 008b 49       		.uleb128 0x49
 4123 008c 13       		.uleb128 0x13
 4124 008d 00       		.byte	0
 4125 008e 00       		.byte	0
 4126 008f 0C       		.uleb128 0xc
 4127 0090 2E       		.uleb128 0x2e
 4128 0091 01       		.byte	0x1
 4129 0092 3F       		.uleb128 0x3f
 4130 0093 19       		.uleb128 0x19
 4131 0094 03       		.uleb128 0x3
 4132 0095 0E       		.uleb128 0xe
 4133 0096 3A       		.uleb128 0x3a
 4134 0097 0B       		.uleb128 0xb
 4135 0098 3B       		.uleb128 0x3b
 4136 0099 0B       		.uleb128 0xb
 4137 009a 27       		.uleb128 0x27
 4138 009b 19       		.uleb128 0x19
 4139 009c 11       		.uleb128 0x11
 4140 009d 01       		.uleb128 0x1
 4141 009e 12       		.uleb128 0x12
 4142 009f 06       		.uleb128 0x6
 4143 00a0 40       		.uleb128 0x40
 4144 00a1 18       		.uleb128 0x18
 4145 00a2 9742     		.uleb128 0x2117
 4146 00a4 19       		.uleb128 0x19
 4147 00a5 01       		.uleb128 0x1
 4148 00a6 13       		.uleb128 0x13
 4149 00a7 00       		.byte	0
 4150 00a8 00       		.byte	0
 4151 00a9 0D       		.uleb128 0xd
 4152 00aa 05       		.uleb128 0x5
 4153 00ab 00       		.byte	0
 4154 00ac 03       		.uleb128 0x3
 4155 00ad 0E       		.uleb128 0xe
 4156 00ae 3A       		.uleb128 0x3a
 4157 00af 0B       		.uleb128 0xb
 4158 00b0 3B       		.uleb128 0x3b
 4159 00b1 0B       		.uleb128 0xb
 4160 00b2 49       		.uleb128 0x49
 4161 00b3 13       		.uleb128 0x13
 4162 00b4 02       		.uleb128 0x2
 4163 00b5 17       		.uleb128 0x17
 4164 00b6 00       		.byte	0
 4165 00b7 00       		.byte	0
 4166 00b8 0E       		.uleb128 0xe
 4167 00b9 898201   		.uleb128 0x4109
 4168 00bc 01       		.byte	0x1
 4169 00bd 11       		.uleb128 0x11
 4170 00be 01       		.uleb128 0x1
 4171 00bf 31       		.uleb128 0x31
 4172 00c0 13       		.uleb128 0x13
 4173 00c1 00       		.byte	0
 4174 00c2 00       		.byte	0
 4175 00c3 0F       		.uleb128 0xf
 4176 00c4 8A8201   		.uleb128 0x410a
 4177 00c7 00       		.byte	0
ARM GAS  C:\Users\pxc\AppData\Local\Temp\cc2eOiEg.s 			page 87


 4178 00c8 02       		.uleb128 0x2
 4179 00c9 18       		.uleb128 0x18
 4180 00ca 9142     		.uleb128 0x2111
 4181 00cc 18       		.uleb128 0x18
 4182 00cd 00       		.byte	0
 4183 00ce 00       		.byte	0
 4184 00cf 10       		.uleb128 0x10
 4185 00d0 0F       		.uleb128 0xf
 4186 00d1 00       		.byte	0
 4187 00d2 0B       		.uleb128 0xb
 4188 00d3 0B       		.uleb128 0xb
 4189 00d4 49       		.uleb128 0x49
 4190 00d5 13       		.uleb128 0x13
 4191 00d6 00       		.byte	0
 4192 00d7 00       		.byte	0
 4193 00d8 11       		.uleb128 0x11
 4194 00d9 2E       		.uleb128 0x2e
 4195 00da 01       		.byte	0x1
 4196 00db 03       		.uleb128 0x3
 4197 00dc 0E       		.uleb128 0xe
 4198 00dd 3A       		.uleb128 0x3a
 4199 00de 0B       		.uleb128 0xb
 4200 00df 3B       		.uleb128 0x3b
 4201 00e0 0B       		.uleb128 0xb
 4202 00e1 27       		.uleb128 0x27
 4203 00e2 19       		.uleb128 0x19
 4204 00e3 11       		.uleb128 0x11
 4205 00e4 01       		.uleb128 0x1
 4206 00e5 12       		.uleb128 0x12
 4207 00e6 06       		.uleb128 0x6
 4208 00e7 40       		.uleb128 0x40
 4209 00e8 18       		.uleb128 0x18
 4210 00e9 9742     		.uleb128 0x2117
 4211 00eb 19       		.uleb128 0x19
 4212 00ec 01       		.uleb128 0x1
 4213 00ed 13       		.uleb128 0x13
 4214 00ee 00       		.byte	0
 4215 00ef 00       		.byte	0
 4216 00f0 12       		.uleb128 0x12
 4217 00f1 34       		.uleb128 0x34
 4218 00f2 00       		.byte	0
 4219 00f3 03       		.uleb128 0x3
 4220 00f4 08       		.uleb128 0x8
 4221 00f5 3A       		.uleb128 0x3a
 4222 00f6 0B       		.uleb128 0xb
 4223 00f7 3B       		.uleb128 0x3b
 4224 00f8 0B       		.uleb128 0xb
 4225 00f9 49       		.uleb128 0x49
 4226 00fa 13       		.uleb128 0x13
 4227 00fb 02       		.uleb128 0x2
 4228 00fc 17       		.uleb128 0x17
 4229 00fd 00       		.byte	0
 4230 00fe 00       		.byte	0
 4231 00ff 13       		.uleb128 0x13
 4232 0100 05       		.uleb128 0x5
 4233 0101 00       		.byte	0
 4234 0102 03       		.uleb128 0x3
ARM GAS  C:\Users\pxc\AppData\Local\Temp\cc2eOiEg.s 			page 88


 4235 0103 08       		.uleb128 0x8
 4236 0104 3A       		.uleb128 0x3a
 4237 0105 0B       		.uleb128 0xb
 4238 0106 3B       		.uleb128 0x3b
 4239 0107 0B       		.uleb128 0xb
 4240 0108 49       		.uleb128 0x49
 4241 0109 13       		.uleb128 0x13
 4242 010a 02       		.uleb128 0x2
 4243 010b 17       		.uleb128 0x17
 4244 010c 00       		.byte	0
 4245 010d 00       		.byte	0
 4246 010e 14       		.uleb128 0x14
 4247 010f 34       		.uleb128 0x34
 4248 0110 00       		.byte	0
 4249 0111 03       		.uleb128 0x3
 4250 0112 0E       		.uleb128 0xe
 4251 0113 3A       		.uleb128 0x3a
 4252 0114 0B       		.uleb128 0xb
 4253 0115 3B       		.uleb128 0x3b
 4254 0116 0B       		.uleb128 0xb
 4255 0117 49       		.uleb128 0x49
 4256 0118 13       		.uleb128 0x13
 4257 0119 02       		.uleb128 0x2
 4258 011a 17       		.uleb128 0x17
 4259 011b 00       		.byte	0
 4260 011c 00       		.byte	0
 4261 011d 15       		.uleb128 0x15
 4262 011e 898201   		.uleb128 0x4109
 4263 0121 00       		.byte	0
 4264 0122 11       		.uleb128 0x11
 4265 0123 01       		.uleb128 0x1
 4266 0124 31       		.uleb128 0x31
 4267 0125 13       		.uleb128 0x13
 4268 0126 00       		.byte	0
 4269 0127 00       		.byte	0
 4270 0128 16       		.uleb128 0x16
 4271 0129 898201   		.uleb128 0x4109
 4272 012c 01       		.byte	0x1
 4273 012d 11       		.uleb128 0x11
 4274 012e 01       		.uleb128 0x1
 4275 012f 31       		.uleb128 0x31
 4276 0130 13       		.uleb128 0x13
 4277 0131 01       		.uleb128 0x1
 4278 0132 13       		.uleb128 0x13
 4279 0133 00       		.byte	0
 4280 0134 00       		.byte	0
 4281 0135 17       		.uleb128 0x17
 4282 0136 34       		.uleb128 0x34
 4283 0137 00       		.byte	0
 4284 0138 03       		.uleb128 0x3
 4285 0139 0E       		.uleb128 0xe
 4286 013a 3A       		.uleb128 0x3a
 4287 013b 0B       		.uleb128 0xb
 4288 013c 3B       		.uleb128 0x3b
 4289 013d 0B       		.uleb128 0xb
 4290 013e 49       		.uleb128 0x49
 4291 013f 13       		.uleb128 0x13
ARM GAS  C:\Users\pxc\AppData\Local\Temp\cc2eOiEg.s 			page 89


 4292 0140 02       		.uleb128 0x2
 4293 0141 18       		.uleb128 0x18
 4294 0142 00       		.byte	0
 4295 0143 00       		.byte	0
 4296 0144 18       		.uleb128 0x18
 4297 0145 01       		.uleb128 0x1
 4298 0146 01       		.byte	0x1
 4299 0147 49       		.uleb128 0x49
 4300 0148 13       		.uleb128 0x13
 4301 0149 01       		.uleb128 0x1
 4302 014a 13       		.uleb128 0x13
 4303 014b 00       		.byte	0
 4304 014c 00       		.byte	0
 4305 014d 19       		.uleb128 0x19
 4306 014e 21       		.uleb128 0x21
 4307 014f 00       		.byte	0
 4308 0150 49       		.uleb128 0x49
 4309 0151 13       		.uleb128 0x13
 4310 0152 2F       		.uleb128 0x2f
 4311 0153 0B       		.uleb128 0xb
 4312 0154 00       		.byte	0
 4313 0155 00       		.byte	0
 4314 0156 1A       		.uleb128 0x1a
 4315 0157 2E       		.uleb128 0x2e
 4316 0158 01       		.byte	0x1
 4317 0159 3F       		.uleb128 0x3f
 4318 015a 19       		.uleb128 0x19
 4319 015b 03       		.uleb128 0x3
 4320 015c 0E       		.uleb128 0xe
 4321 015d 3A       		.uleb128 0x3a
 4322 015e 0B       		.uleb128 0xb
 4323 015f 3B       		.uleb128 0x3b
 4324 0160 05       		.uleb128 0x5
 4325 0161 27       		.uleb128 0x27
 4326 0162 19       		.uleb128 0x19
 4327 0163 11       		.uleb128 0x11
 4328 0164 01       		.uleb128 0x1
 4329 0165 12       		.uleb128 0x12
 4330 0166 06       		.uleb128 0x6
 4331 0167 40       		.uleb128 0x40
 4332 0168 18       		.uleb128 0x18
 4333 0169 9742     		.uleb128 0x2117
 4334 016b 19       		.uleb128 0x19
 4335 016c 01       		.uleb128 0x1
 4336 016d 13       		.uleb128 0x13
 4337 016e 00       		.byte	0
 4338 016f 00       		.byte	0
 4339 0170 1B       		.uleb128 0x1b
 4340 0171 05       		.uleb128 0x5
 4341 0172 00       		.byte	0
 4342 0173 03       		.uleb128 0x3
 4343 0174 0E       		.uleb128 0xe
 4344 0175 3A       		.uleb128 0x3a
 4345 0176 0B       		.uleb128 0xb
 4346 0177 3B       		.uleb128 0x3b
 4347 0178 05       		.uleb128 0x5
 4348 0179 49       		.uleb128 0x49
ARM GAS  C:\Users\pxc\AppData\Local\Temp\cc2eOiEg.s 			page 90


 4349 017a 13       		.uleb128 0x13
 4350 017b 02       		.uleb128 0x2
 4351 017c 17       		.uleb128 0x17
 4352 017d 00       		.byte	0
 4353 017e 00       		.byte	0
 4354 017f 1C       		.uleb128 0x1c
 4355 0180 34       		.uleb128 0x34
 4356 0181 00       		.byte	0
 4357 0182 03       		.uleb128 0x3
 4358 0183 0E       		.uleb128 0xe
 4359 0184 3A       		.uleb128 0x3a
 4360 0185 0B       		.uleb128 0xb
 4361 0186 3B       		.uleb128 0x3b
 4362 0187 05       		.uleb128 0x5
 4363 0188 49       		.uleb128 0x49
 4364 0189 13       		.uleb128 0x13
 4365 018a 02       		.uleb128 0x2
 4366 018b 17       		.uleb128 0x17
 4367 018c 00       		.byte	0
 4368 018d 00       		.byte	0
 4369 018e 1D       		.uleb128 0x1d
 4370 018f 34       		.uleb128 0x34
 4371 0190 00       		.byte	0
 4372 0191 03       		.uleb128 0x3
 4373 0192 08       		.uleb128 0x8
 4374 0193 3A       		.uleb128 0x3a
 4375 0194 0B       		.uleb128 0xb
 4376 0195 3B       		.uleb128 0x3b
 4377 0196 05       		.uleb128 0x5
 4378 0197 49       		.uleb128 0x49
 4379 0198 13       		.uleb128 0x13
 4380 0199 02       		.uleb128 0x2
 4381 019a 17       		.uleb128 0x17
 4382 019b 00       		.byte	0
 4383 019c 00       		.byte	0
 4384 019d 1E       		.uleb128 0x1e
 4385 019e 05       		.uleb128 0x5
 4386 019f 00       		.byte	0
 4387 01a0 03       		.uleb128 0x3
 4388 01a1 08       		.uleb128 0x8
 4389 01a2 3A       		.uleb128 0x3a
 4390 01a3 0B       		.uleb128 0xb
 4391 01a4 3B       		.uleb128 0x3b
 4392 01a5 05       		.uleb128 0x5
 4393 01a6 49       		.uleb128 0x49
 4394 01a7 13       		.uleb128 0x13
 4395 01a8 02       		.uleb128 0x2
 4396 01a9 17       		.uleb128 0x17
 4397 01aa 00       		.byte	0
 4398 01ab 00       		.byte	0
 4399 01ac 1F       		.uleb128 0x1f
 4400 01ad 34       		.uleb128 0x34
 4401 01ae 00       		.byte	0
 4402 01af 03       		.uleb128 0x3
 4403 01b0 0E       		.uleb128 0xe
 4404 01b1 3A       		.uleb128 0x3a
 4405 01b2 0B       		.uleb128 0xb
ARM GAS  C:\Users\pxc\AppData\Local\Temp\cc2eOiEg.s 			page 91


 4406 01b3 3B       		.uleb128 0x3b
 4407 01b4 05       		.uleb128 0x5
 4408 01b5 49       		.uleb128 0x49
 4409 01b6 13       		.uleb128 0x13
 4410 01b7 02       		.uleb128 0x2
 4411 01b8 18       		.uleb128 0x18
 4412 01b9 00       		.byte	0
 4413 01ba 00       		.byte	0
 4414 01bb 20       		.uleb128 0x20
 4415 01bc 2E       		.uleb128 0x2e
 4416 01bd 01       		.byte	0x1
 4417 01be 3F       		.uleb128 0x3f
 4418 01bf 19       		.uleb128 0x19
 4419 01c0 03       		.uleb128 0x3
 4420 01c1 0E       		.uleb128 0xe
 4421 01c2 3A       		.uleb128 0x3a
 4422 01c3 0B       		.uleb128 0xb
 4423 01c4 3B       		.uleb128 0x3b
 4424 01c5 0B       		.uleb128 0xb
 4425 01c6 27       		.uleb128 0x27
 4426 01c7 19       		.uleb128 0x19
 4427 01c8 11       		.uleb128 0x11
 4428 01c9 01       		.uleb128 0x1
 4429 01ca 12       		.uleb128 0x12
 4430 01cb 06       		.uleb128 0x6
 4431 01cc 40       		.uleb128 0x40
 4432 01cd 18       		.uleb128 0x18
 4433 01ce 9642     		.uleb128 0x2116
 4434 01d0 19       		.uleb128 0x19
 4435 01d1 01       		.uleb128 0x1
 4436 01d2 13       		.uleb128 0x13
 4437 01d3 00       		.byte	0
 4438 01d4 00       		.byte	0
 4439 01d5 21       		.uleb128 0x21
 4440 01d6 34       		.uleb128 0x34
 4441 01d7 00       		.byte	0
 4442 01d8 03       		.uleb128 0x3
 4443 01d9 08       		.uleb128 0x8
 4444 01da 3A       		.uleb128 0x3a
 4445 01db 0B       		.uleb128 0xb
 4446 01dc 3B       		.uleb128 0x3b
 4447 01dd 0B       		.uleb128 0xb
 4448 01de 49       		.uleb128 0x49
 4449 01df 13       		.uleb128 0x13
 4450 01e0 02       		.uleb128 0x2
 4451 01e1 18       		.uleb128 0x18
 4452 01e2 00       		.byte	0
 4453 01e3 00       		.byte	0
 4454 01e4 22       		.uleb128 0x22
 4455 01e5 34       		.uleb128 0x34
 4456 01e6 00       		.byte	0
 4457 01e7 03       		.uleb128 0x3
 4458 01e8 0E       		.uleb128 0xe
 4459 01e9 3A       		.uleb128 0x3a
 4460 01ea 0B       		.uleb128 0xb
 4461 01eb 3B       		.uleb128 0x3b
 4462 01ec 0B       		.uleb128 0xb
ARM GAS  C:\Users\pxc\AppData\Local\Temp\cc2eOiEg.s 			page 92


 4463 01ed 49       		.uleb128 0x49
 4464 01ee 13       		.uleb128 0x13
 4465 01ef 1C       		.uleb128 0x1c
 4466 01f0 0B       		.uleb128 0xb
 4467 01f1 00       		.byte	0
 4468 01f2 00       		.byte	0
 4469 01f3 23       		.uleb128 0x23
 4470 01f4 26       		.uleb128 0x26
 4471 01f5 00       		.byte	0
 4472 01f6 49       		.uleb128 0x49
 4473 01f7 13       		.uleb128 0x13
 4474 01f8 00       		.byte	0
 4475 01f9 00       		.byte	0
 4476 01fa 24       		.uleb128 0x24
 4477 01fb 2E       		.uleb128 0x2e
 4478 01fc 01       		.byte	0x1
 4479 01fd 3F       		.uleb128 0x3f
 4480 01fe 19       		.uleb128 0x19
 4481 01ff 03       		.uleb128 0x3
 4482 0200 0E       		.uleb128 0xe
 4483 0201 3A       		.uleb128 0x3a
 4484 0202 0B       		.uleb128 0xb
 4485 0203 3B       		.uleb128 0x3b
 4486 0204 05       		.uleb128 0x5
 4487 0205 27       		.uleb128 0x27
 4488 0206 19       		.uleb128 0x19
 4489 0207 11       		.uleb128 0x11
 4490 0208 01       		.uleb128 0x1
 4491 0209 12       		.uleb128 0x12
 4492 020a 06       		.uleb128 0x6
 4493 020b 40       		.uleb128 0x40
 4494 020c 18       		.uleb128 0x18
 4495 020d 9642     		.uleb128 0x2116
 4496 020f 19       		.uleb128 0x19
 4497 0210 01       		.uleb128 0x1
 4498 0211 13       		.uleb128 0x13
 4499 0212 00       		.byte	0
 4500 0213 00       		.byte	0
 4501 0214 25       		.uleb128 0x25
 4502 0215 34       		.uleb128 0x34
 4503 0216 00       		.byte	0
 4504 0217 03       		.uleb128 0x3
 4505 0218 0E       		.uleb128 0xe
 4506 0219 3A       		.uleb128 0x3a
 4507 021a 0B       		.uleb128 0xb
 4508 021b 3B       		.uleb128 0x3b
 4509 021c 05       		.uleb128 0x5
 4510 021d 49       		.uleb128 0x49
 4511 021e 13       		.uleb128 0x13
 4512 021f 00       		.byte	0
 4513 0220 00       		.byte	0
 4514 0221 26       		.uleb128 0x26
 4515 0222 34       		.uleb128 0x34
 4516 0223 00       		.byte	0
 4517 0224 03       		.uleb128 0x3
 4518 0225 0E       		.uleb128 0xe
 4519 0226 3A       		.uleb128 0x3a
ARM GAS  C:\Users\pxc\AppData\Local\Temp\cc2eOiEg.s 			page 93


 4520 0227 0B       		.uleb128 0xb
 4521 0228 3B       		.uleb128 0x3b
 4522 0229 05       		.uleb128 0x5
 4523 022a 49       		.uleb128 0x49
 4524 022b 13       		.uleb128 0x13
 4525 022c 1C       		.uleb128 0x1c
 4526 022d 0B       		.uleb128 0xb
 4527 022e 00       		.byte	0
 4528 022f 00       		.byte	0
 4529 0230 27       		.uleb128 0x27
 4530 0231 34       		.uleb128 0x34
 4531 0232 00       		.byte	0
 4532 0233 03       		.uleb128 0x3
 4533 0234 0E       		.uleb128 0xe
 4534 0235 3A       		.uleb128 0x3a
 4535 0236 0B       		.uleb128 0xb
 4536 0237 3B       		.uleb128 0x3b
 4537 0238 05       		.uleb128 0x5
 4538 0239 49       		.uleb128 0x49
 4539 023a 13       		.uleb128 0x13
 4540 023b 3F       		.uleb128 0x3f
 4541 023c 19       		.uleb128 0x19
 4542 023d 3C       		.uleb128 0x3c
 4543 023e 19       		.uleb128 0x19
 4544 023f 00       		.byte	0
 4545 0240 00       		.byte	0
 4546 0241 28       		.uleb128 0x28
 4547 0242 35       		.uleb128 0x35
 4548 0243 00       		.byte	0
 4549 0244 49       		.uleb128 0x49
 4550 0245 13       		.uleb128 0x13
 4551 0246 00       		.byte	0
 4552 0247 00       		.byte	0
 4553 0248 29       		.uleb128 0x29
 4554 0249 34       		.uleb128 0x34
 4555 024a 00       		.byte	0
 4556 024b 03       		.uleb128 0x3
 4557 024c 0E       		.uleb128 0xe
 4558 024d 3A       		.uleb128 0x3a
 4559 024e 0B       		.uleb128 0xb
 4560 024f 3B       		.uleb128 0x3b
 4561 0250 0B       		.uleb128 0xb
 4562 0251 49       		.uleb128 0x49
 4563 0252 13       		.uleb128 0x13
 4564 0253 3F       		.uleb128 0x3f
 4565 0254 19       		.uleb128 0x19
 4566 0255 02       		.uleb128 0x2
 4567 0256 18       		.uleb128 0x18
 4568 0257 00       		.byte	0
 4569 0258 00       		.byte	0
 4570 0259 2A       		.uleb128 0x2a
 4571 025a 34       		.uleb128 0x34
 4572 025b 00       		.byte	0
 4573 025c 03       		.uleb128 0x3
 4574 025d 08       		.uleb128 0x8
 4575 025e 3A       		.uleb128 0x3a
 4576 025f 0B       		.uleb128 0xb
ARM GAS  C:\Users\pxc\AppData\Local\Temp\cc2eOiEg.s 			page 94


 4577 0260 3B       		.uleb128 0x3b
 4578 0261 0B       		.uleb128 0xb
 4579 0262 49       		.uleb128 0x49
 4580 0263 13       		.uleb128 0x13
 4581 0264 3F       		.uleb128 0x3f
 4582 0265 19       		.uleb128 0x19
 4583 0266 02       		.uleb128 0x2
 4584 0267 18       		.uleb128 0x18
 4585 0268 00       		.byte	0
 4586 0269 00       		.byte	0
 4587 026a 2B       		.uleb128 0x2b
 4588 026b 2E       		.uleb128 0x2e
 4589 026c 01       		.byte	0x1
 4590 026d 3F       		.uleb128 0x3f
 4591 026e 19       		.uleb128 0x19
 4592 026f 03       		.uleb128 0x3
 4593 0270 0E       		.uleb128 0xe
 4594 0271 3A       		.uleb128 0x3a
 4595 0272 0B       		.uleb128 0xb
 4596 0273 3B       		.uleb128 0x3b
 4597 0274 0B       		.uleb128 0xb
 4598 0275 27       		.uleb128 0x27
 4599 0276 19       		.uleb128 0x19
 4600 0277 3C       		.uleb128 0x3c
 4601 0278 19       		.uleb128 0x19
 4602 0279 01       		.uleb128 0x1
 4603 027a 13       		.uleb128 0x13
 4604 027b 00       		.byte	0
 4605 027c 00       		.byte	0
 4606 027d 2C       		.uleb128 0x2c
 4607 027e 05       		.uleb128 0x5
 4608 027f 00       		.byte	0
 4609 0280 49       		.uleb128 0x49
 4610 0281 13       		.uleb128 0x13
 4611 0282 00       		.byte	0
 4612 0283 00       		.byte	0
 4613 0284 2D       		.uleb128 0x2d
 4614 0285 2E       		.uleb128 0x2e
 4615 0286 00       		.byte	0
 4616 0287 3F       		.uleb128 0x3f
 4617 0288 19       		.uleb128 0x19
 4618 0289 03       		.uleb128 0x3
 4619 028a 0E       		.uleb128 0xe
 4620 028b 3A       		.uleb128 0x3a
 4621 028c 0B       		.uleb128 0xb
 4622 028d 3B       		.uleb128 0x3b
 4623 028e 0B       		.uleb128 0xb
 4624 028f 27       		.uleb128 0x27
 4625 0290 19       		.uleb128 0x19
 4626 0291 49       		.uleb128 0x49
 4627 0292 13       		.uleb128 0x13
 4628 0293 3C       		.uleb128 0x3c
 4629 0294 19       		.uleb128 0x19
 4630 0295 00       		.byte	0
 4631 0296 00       		.byte	0
 4632 0297 2E       		.uleb128 0x2e
 4633 0298 2E       		.uleb128 0x2e
ARM GAS  C:\Users\pxc\AppData\Local\Temp\cc2eOiEg.s 			page 95


 4634 0299 01       		.byte	0x1
 4635 029a 3F       		.uleb128 0x3f
 4636 029b 19       		.uleb128 0x19
 4637 029c 03       		.uleb128 0x3
 4638 029d 0E       		.uleb128 0xe
 4639 029e 3A       		.uleb128 0x3a
 4640 029f 0B       		.uleb128 0xb
 4641 02a0 3B       		.uleb128 0x3b
 4642 02a1 0B       		.uleb128 0xb
 4643 02a2 27       		.uleb128 0x27
 4644 02a3 19       		.uleb128 0x19
 4645 02a4 3C       		.uleb128 0x3c
 4646 02a5 19       		.uleb128 0x19
 4647 02a6 00       		.byte	0
 4648 02a7 00       		.byte	0
 4649 02a8 00       		.byte	0
 4650              		.section	.debug_loc,"",%progbits
 4651              	.Ldebug_loc0:
 4652              	.LLST0:
 4653 0000 00000000 		.4byte	.LVL0
 4654 0004 05000000 		.4byte	.LVL1-1
 4655 0008 0100     		.2byte	0x1
 4656 000a 50       		.byte	0x50
 4657 000b 05000000 		.4byte	.LVL1-1
 4658 000f 08000000 		.4byte	.LFE64
 4659 0013 0400     		.2byte	0x4
 4660 0015 F3       		.byte	0xf3
 4661 0016 01       		.uleb128 0x1
 4662 0017 50       		.byte	0x50
 4663 0018 9F       		.byte	0x9f
 4664 0019 00000000 		.4byte	0
 4665 001d 00000000 		.4byte	0
 4666              	.LLST1:
 4667 0021 00000000 		.4byte	.LVL0
 4668 0025 05000000 		.4byte	.LVL1-1
 4669 0029 0100     		.2byte	0x1
 4670 002b 51       		.byte	0x51
 4671 002c 05000000 		.4byte	.LVL1-1
 4672 0030 08000000 		.4byte	.LFE64
 4673 0034 0400     		.2byte	0x4
 4674 0036 F3       		.byte	0xf3
 4675 0037 01       		.uleb128 0x1
 4676 0038 51       		.byte	0x51
 4677 0039 9F       		.byte	0x9f
 4678 003a 00000000 		.4byte	0
 4679 003e 00000000 		.4byte	0
 4680              	.LLST2:
 4681 0042 00000000 		.4byte	.LVL2
 4682 0046 2E000000 		.4byte	.LVL9
 4683 004a 0100     		.2byte	0x1
 4684 004c 50       		.byte	0x50
 4685 004d 2E000000 		.4byte	.LVL9
 4686 0051 35000000 		.4byte	.LVL10-1
 4687 0055 0500     		.2byte	0x5
 4688 0057 03       		.byte	0x3
 4689 0058 04000000 		.4byte	data_to_send+4
 4690 005c 35000000 		.4byte	.LVL10-1
ARM GAS  C:\Users\pxc\AppData\Local\Temp\cc2eOiEg.s 			page 96


 4691 0060 3C000000 		.4byte	.LFE65
 4692 0064 0400     		.2byte	0x4
 4693 0066 F3       		.byte	0xf3
 4694 0067 01       		.uleb128 0x1
 4695 0068 50       		.byte	0x50
 4696 0069 9F       		.byte	0x9f
 4697 006a 00000000 		.4byte	0
 4698 006e 00000000 		.4byte	0
 4699              	.LLST3:
 4700 0072 00000000 		.4byte	.LVL2
 4701 0076 1C000000 		.4byte	.LVL4
 4702 007a 0100     		.2byte	0x1
 4703 007c 51       		.byte	0x51
 4704 007d 1C000000 		.4byte	.LVL4
 4705 0081 35000000 		.4byte	.LVL10-1
 4706 0085 0500     		.2byte	0x5
 4707 0087 03       		.byte	0x3
 4708 0088 05000000 		.4byte	data_to_send+5
 4709 008c 35000000 		.4byte	.LVL10-1
 4710 0090 3C000000 		.4byte	.LFE65
 4711 0094 0400     		.2byte	0x4
 4712 0096 F3       		.byte	0xf3
 4713 0097 01       		.uleb128 0x1
 4714 0098 51       		.byte	0x51
 4715 0099 9F       		.byte	0x9f
 4716 009a 00000000 		.4byte	0
 4717 009e 00000000 		.4byte	0
 4718              	.LLST4:
 4719 00a2 16000000 		.4byte	.LVL3
 4720 00a6 1C000000 		.4byte	.LVL4
 4721 00aa 0200     		.2byte	0x2
 4722 00ac 30       		.byte	0x30
 4723 00ad 9F       		.byte	0x9f
 4724 00ae 1C000000 		.4byte	.LVL4
 4725 00b2 22000000 		.4byte	.LVL5
 4726 00b6 0100     		.2byte	0x1
 4727 00b8 52       		.byte	0x52
 4728 00b9 24000000 		.4byte	.LVL6
 4729 00bd 35000000 		.4byte	.LVL10-1
 4730 00c1 0100     		.2byte	0x1
 4731 00c3 52       		.byte	0x52
 4732 00c4 00000000 		.4byte	0
 4733 00c8 00000000 		.4byte	0
 4734              	.LLST5:
 4735 00cc 16000000 		.4byte	.LVL3
 4736 00d0 1C000000 		.4byte	.LVL4
 4737 00d4 0200     		.2byte	0x2
 4738 00d6 30       		.byte	0x30
 4739 00d7 9F       		.byte	0x9f
 4740 00d8 1C000000 		.4byte	.LVL4
 4741 00dc 26000000 		.4byte	.LVL7
 4742 00e0 0100     		.2byte	0x1
 4743 00e2 53       		.byte	0x53
 4744 00e3 28000000 		.4byte	.LVL8
 4745 00e7 35000000 		.4byte	.LVL10-1
 4746 00eb 0100     		.2byte	0x1
 4747 00ed 53       		.byte	0x53
ARM GAS  C:\Users\pxc\AppData\Local\Temp\cc2eOiEg.s 			page 97


 4748 00ee 00000000 		.4byte	0
 4749 00f2 00000000 		.4byte	0
 4750              	.LLST6:
 4751 00f6 00000000 		.4byte	.LVL11
 4752 00fa 8D000000 		.4byte	.LVL21-1
 4753 00fe 0100     		.2byte	0x1
 4754 0100 50       		.byte	0x50
 4755 0101 8D000000 		.4byte	.LVL21-1
 4756 0105 A0010000 		.4byte	.LVL47
 4757 0109 0100     		.2byte	0x1
 4758 010b 55       		.byte	0x55
 4759 010c A0010000 		.4byte	.LVL47
 4760 0110 B0010000 		.4byte	.LFE67
 4761 0114 0400     		.2byte	0x4
 4762 0116 F3       		.byte	0xf3
 4763 0117 01       		.uleb128 0x1
 4764 0118 50       		.byte	0x50
 4765 0119 9F       		.byte	0x9f
 4766 011a 00000000 		.4byte	0
 4767 011e 00000000 		.4byte	0
 4768              	.LLST7:
 4769 0122 00000000 		.4byte	.LVL11
 4770 0126 3C000000 		.4byte	.LVL18
 4771 012a 0100     		.2byte	0x1
 4772 012c 51       		.byte	0x51
 4773 012d 3C000000 		.4byte	.LVL18
 4774 0131 B0010000 		.4byte	.LFE67
 4775 0135 0400     		.2byte	0x4
 4776 0137 F3       		.byte	0xf3
 4777 0138 01       		.uleb128 0x1
 4778 0139 51       		.byte	0x51
 4779 013a 9F       		.byte	0x9f
 4780 013b 00000000 		.4byte	0
 4781 013f 00000000 		.4byte	0
 4782              	.LLST8:
 4783 0143 02000000 		.4byte	.LVL12
 4784 0147 08000000 		.4byte	.LVL13
 4785 014b 0200     		.2byte	0x2
 4786 014d 30       		.byte	0x30
 4787 014e 9F       		.byte	0x9f
 4788 014f 08000000 		.4byte	.LVL13
 4789 0153 A2010000 		.4byte	.LVL48
 4790 0157 0100     		.2byte	0x1
 4791 0159 54       		.byte	0x54
 4792 015a 00000000 		.4byte	0
 4793 015e 00000000 		.4byte	0
 4794              	.LLST9:
 4795 0162 02000000 		.4byte	.LVL12
 4796 0166 84000000 		.4byte	.LVL19
 4797 016a 0200     		.2byte	0x2
 4798 016c 30       		.byte	0x30
 4799 016d 9F       		.byte	0x9f
 4800 016e 84000000 		.4byte	.LVL19
 4801 0172 A2000000 		.4byte	.LVL23
 4802 0176 0100     		.2byte	0x1
 4803 0178 56       		.byte	0x56
 4804 0179 A8000000 		.4byte	.LVL24
ARM GAS  C:\Users\pxc\AppData\Local\Temp\cc2eOiEg.s 			page 98


 4805 017d C6000000 		.4byte	.LVL28
 4806 0181 0100     		.2byte	0x1
 4807 0183 56       		.byte	0x56
 4808 0184 CC000000 		.4byte	.LVL29
 4809 0188 EA000000 		.4byte	.LVL33
 4810 018c 0100     		.2byte	0x1
 4811 018e 56       		.byte	0x56
 4812 018f F0000000 		.4byte	.LVL34
 4813 0193 0C010000 		.4byte	.LVL37
 4814 0197 0100     		.2byte	0x1
 4815 0199 56       		.byte	0x56
 4816 019a 00000000 		.4byte	0
 4817 019e 00000000 		.4byte	0
 4818              	.LLST10:
 4819 01a2 02000000 		.4byte	.LVL12
 4820 01a6 40010000 		.4byte	.LVL40
 4821 01aa 0200     		.2byte	0x2
 4822 01ac 30       		.byte	0x30
 4823 01ad 9F       		.byte	0x9f
 4824 01ae 40010000 		.4byte	.LVL40
 4825 01b2 68010000 		.4byte	.LVL44
 4826 01b6 0100     		.2byte	0x1
 4827 01b8 56       		.byte	0x56
 4828 01b9 00000000 		.4byte	0
 4829 01bd 00000000 		.4byte	0
 4830              	.LLST11:
 4831 01c1 02000000 		.4byte	.LVL12
 4832 01c5 08000000 		.4byte	.LVL13
 4833 01c9 0200     		.2byte	0x2
 4834 01cb 30       		.byte	0x30
 4835 01cc 9F       		.byte	0x9f
 4836 01cd 08000000 		.4byte	.LVL13
 4837 01d1 10000000 		.4byte	.LVL15
 4838 01d5 0100     		.2byte	0x1
 4839 01d7 53       		.byte	0x53
 4840 01d8 12000000 		.4byte	.LVL16
 4841 01dc 1A000000 		.4byte	.LVL17
 4842 01e0 0100     		.2byte	0x1
 4843 01e2 53       		.byte	0x53
 4844 01e3 00000000 		.4byte	0
 4845 01e7 00000000 		.4byte	0
 4846              	.LLST12:
 4847 01eb 00000000 		.4byte	.LVL49
 4848 01ef 98000000 		.4byte	.LVL50
 4849 01f3 0100     		.2byte	0x1
 4850 01f5 50       		.byte	0x50
 4851 01f6 98000000 		.4byte	.LVL50
 4852 01fa 9D000000 		.4byte	.LVL51-1
 4853 01fe 0200     		.2byte	0x2
 4854 0200 72       		.byte	0x72
 4855 0201 08       		.sleb128 8
 4856 0202 9D000000 		.4byte	.LVL51-1
 4857 0206 A0000000 		.4byte	.LVL52
 4858 020a 0400     		.2byte	0x4
 4859 020c F3       		.byte	0xf3
 4860 020d 01       		.uleb128 0x1
 4861 020e 50       		.byte	0x50
ARM GAS  C:\Users\pxc\AppData\Local\Temp\cc2eOiEg.s 			page 99


 4862 020f 9F       		.byte	0x9f
 4863 0210 A0000000 		.4byte	.LVL52
 4864 0214 AC000000 		.4byte	.LFE66
 4865 0218 0100     		.2byte	0x1
 4866 021a 50       		.byte	0x50
 4867 021b 00000000 		.4byte	0
 4868 021f 00000000 		.4byte	0
 4869              	.LLST13:
 4870 0223 00000000 		.4byte	.LVL53
 4871 0227 28000000 		.4byte	.LVL60
 4872 022b 0100     		.2byte	0x1
 4873 022d 50       		.byte	0x50
 4874 022e 28000000 		.4byte	.LVL60
 4875 0232 6C000000 		.4byte	.LVL80
 4876 0236 0200     		.2byte	0x2
 4877 0238 91       		.byte	0x91
 4878 0239 6E       		.sleb128 -18
 4879 023a 6C000000 		.4byte	.LVL80
 4880 023e 70000000 		.4byte	.LFE68
 4881 0242 0200     		.2byte	0x2
 4882 0244 7D       		.byte	0x7d
 4883 0245 6E       		.sleb128 -18
 4884 0246 00000000 		.4byte	0
 4885 024a 00000000 		.4byte	0
 4886              	.LLST14:
 4887 024e 00000000 		.4byte	.LVL53
 4888 0252 2E000000 		.4byte	.LVL63
 4889 0256 0100     		.2byte	0x1
 4890 0258 51       		.byte	0x51
 4891 0259 2E000000 		.4byte	.LVL63
 4892 025d 6C000000 		.4byte	.LVL80
 4893 0261 0200     		.2byte	0x2
 4894 0263 91       		.byte	0x91
 4895 0264 6C       		.sleb128 -20
 4896 0265 6C000000 		.4byte	.LVL80
 4897 0269 70000000 		.4byte	.LFE68
 4898 026d 0200     		.2byte	0x2
 4899 026f 7D       		.byte	0x7d
 4900 0270 6C       		.sleb128 -20
 4901 0271 00000000 		.4byte	0
 4902 0275 00000000 		.4byte	0
 4903              	.LLST15:
 4904 0279 00000000 		.4byte	.LVL53
 4905 027d 34000000 		.4byte	.LVL66
 4906 0281 0100     		.2byte	0x1
 4907 0283 52       		.byte	0x52
 4908 0284 34000000 		.4byte	.LVL66
 4909 0288 6C000000 		.4byte	.LVL80
 4910 028c 0200     		.2byte	0x2
 4911 028e 91       		.byte	0x91
 4912 028f 6A       		.sleb128 -22
 4913 0290 6C000000 		.4byte	.LVL80
 4914 0294 70000000 		.4byte	.LFE68
 4915 0298 0200     		.2byte	0x2
 4916 029a 7D       		.byte	0x7d
 4917 029b 6A       		.sleb128 -22
 4918 029c 00000000 		.4byte	0
ARM GAS  C:\Users\pxc\AppData\Local\Temp\cc2eOiEg.s 			page 100


 4919 02a0 00000000 		.4byte	0
 4920              	.LLST16:
 4921 02a4 00000000 		.4byte	.LVL53
 4922 02a8 3C000000 		.4byte	.LVL69
 4923 02ac 0100     		.2byte	0x1
 4924 02ae 53       		.byte	0x53
 4925 02af 3C000000 		.4byte	.LVL69
 4926 02b3 6A000000 		.4byte	.LVL79
 4927 02b7 0200     		.2byte	0x2
 4928 02b9 7D       		.byte	0x7d
 4929 02ba 00       		.sleb128 0
 4930 02bb 6A000000 		.4byte	.LVL79
 4931 02bf 6C000000 		.4byte	.LVL80
 4932 02c3 0200     		.2byte	0x2
 4933 02c5 91       		.byte	0x91
 4934 02c6 68       		.sleb128 -24
 4935 02c7 6C000000 		.4byte	.LVL80
 4936 02cb 70000000 		.4byte	.LFE68
 4937 02cf 0200     		.2byte	0x2
 4938 02d1 7D       		.byte	0x7d
 4939 02d2 68       		.sleb128 -24
 4940 02d3 00000000 		.4byte	0
 4941 02d7 00000000 		.4byte	0
 4942              	.LLST17:
 4943 02db 00000000 		.4byte	.LVL53
 4944 02df 6C000000 		.4byte	.LVL80
 4945 02e3 0200     		.2byte	0x2
 4946 02e5 91       		.byte	0x91
 4947 02e6 00       		.sleb128 0
 4948 02e7 6C000000 		.4byte	.LVL80
 4949 02eb 70000000 		.4byte	.LFE68
 4950 02ef 0200     		.2byte	0x2
 4951 02f1 7D       		.byte	0x7d
 4952 02f2 00       		.sleb128 0
 4953 02f3 00000000 		.4byte	0
 4954 02f7 00000000 		.4byte	0
 4955              	.LLST18:
 4956 02fb 14000000 		.4byte	.LVL54
 4957 02ff 1A000000 		.4byte	.LVL55
 4958 0303 0200     		.2byte	0x2
 4959 0305 31       		.byte	0x31
 4960 0306 9F       		.byte	0x9f
 4961 0307 1A000000 		.4byte	.LVL55
 4962 030b 1C000000 		.4byte	.LVL56
 4963 030f 0200     		.2byte	0x2
 4964 0311 32       		.byte	0x32
 4965 0312 9F       		.byte	0x9f
 4966 0313 1C000000 		.4byte	.LVL56
 4967 0317 20000000 		.4byte	.LVL57
 4968 031b 0200     		.2byte	0x2
 4969 031d 33       		.byte	0x33
 4970 031e 9F       		.byte	0x9f
 4971 031f 20000000 		.4byte	.LVL57
 4972 0323 24000000 		.4byte	.LVL58
 4973 0327 0200     		.2byte	0x2
 4974 0329 35       		.byte	0x35
 4975 032a 9F       		.byte	0x9f
ARM GAS  C:\Users\pxc\AppData\Local\Temp\cc2eOiEg.s 			page 101


 4976 032b 24000000 		.4byte	.LVL58
 4977 032f 26000000 		.4byte	.LVL59
 4978 0333 0200     		.2byte	0x2
 4979 0335 36       		.byte	0x36
 4980 0336 9F       		.byte	0x9f
 4981 0337 26000000 		.4byte	.LVL59
 4982 033b 2A000000 		.4byte	.LVL61
 4983 033f 0200     		.2byte	0x2
 4984 0341 37       		.byte	0x37
 4985 0342 9F       		.byte	0x9f
 4986 0343 2A000000 		.4byte	.LVL61
 4987 0347 2C000000 		.4byte	.LVL62
 4988 034b 0200     		.2byte	0x2
 4989 034d 38       		.byte	0x38
 4990 034e 9F       		.byte	0x9f
 4991 034f 2C000000 		.4byte	.LVL62
 4992 0353 30000000 		.4byte	.LVL64
 4993 0357 0200     		.2byte	0x2
 4994 0359 39       		.byte	0x39
 4995 035a 9F       		.byte	0x9f
 4996 035b 30000000 		.4byte	.LVL64
 4997 035f 32000000 		.4byte	.LVL65
 4998 0363 0200     		.2byte	0x2
 4999 0365 3A       		.byte	0x3a
 5000 0366 9F       		.byte	0x9f
 5001 0367 32000000 		.4byte	.LVL65
 5002 036b 36000000 		.4byte	.LVL67
 5003 036f 0200     		.2byte	0x2
 5004 0371 3B       		.byte	0x3b
 5005 0372 9F       		.byte	0x9f
 5006 0373 36000000 		.4byte	.LVL67
 5007 0377 38000000 		.4byte	.LVL68
 5008 037b 0200     		.2byte	0x2
 5009 037d 3C       		.byte	0x3c
 5010 037e 9F       		.byte	0x9f
 5011 037f 38000000 		.4byte	.LVL68
 5012 0383 3E000000 		.4byte	.LVL70
 5013 0387 0200     		.2byte	0x2
 5014 0389 3D       		.byte	0x3d
 5015 038a 9F       		.byte	0x9f
 5016 038b 3E000000 		.4byte	.LVL70
 5017 038f 5E000000 		.4byte	.LVL77
 5018 0393 0200     		.2byte	0x2
 5019 0395 3E       		.byte	0x3e
 5020 0396 9F       		.byte	0x9f
 5021 0397 5E000000 		.4byte	.LVL77
 5022 039b 70000000 		.4byte	.LFE68
 5023 039f 0200     		.2byte	0x2
 5024 03a1 3F       		.byte	0x3f
 5025 03a2 9F       		.byte	0x9f
 5026 03a3 00000000 		.4byte	0
 5027 03a7 00000000 		.4byte	0
 5028              	.LLST19:
 5029 03ab 48000000 		.4byte	.LVL71
 5030 03af 4E000000 		.4byte	.LVL72
 5031 03b3 0200     		.2byte	0x2
 5032 03b5 30       		.byte	0x30
ARM GAS  C:\Users\pxc\AppData\Local\Temp\cc2eOiEg.s 			page 102


 5033 03b6 9F       		.byte	0x9f
 5034 03b7 4E000000 		.4byte	.LVL72
 5035 03bb 54000000 		.4byte	.LVL73
 5036 03bf 0100     		.2byte	0x1
 5037 03c1 52       		.byte	0x52
 5038 03c2 56000000 		.4byte	.LVL74
 5039 03c6 67000000 		.4byte	.LVL78-1
 5040 03ca 0100     		.2byte	0x1
 5041 03cc 52       		.byte	0x52
 5042 03cd 00000000 		.4byte	0
 5043 03d1 00000000 		.4byte	0
 5044              	.LLST20:
 5045 03d5 48000000 		.4byte	.LVL71
 5046 03d9 4E000000 		.4byte	.LVL72
 5047 03dd 0200     		.2byte	0x2
 5048 03df 30       		.byte	0x30
 5049 03e0 9F       		.byte	0x9f
 5050 03e1 4E000000 		.4byte	.LVL72
 5051 03e5 58000000 		.4byte	.LVL75
 5052 03e9 0100     		.2byte	0x1
 5053 03eb 53       		.byte	0x53
 5054 03ec 5A000000 		.4byte	.LVL76
 5055 03f0 67000000 		.4byte	.LVL78-1
 5056 03f4 0100     		.2byte	0x1
 5057 03f6 53       		.byte	0x53
 5058 03f7 00000000 		.4byte	0
 5059 03fb 00000000 		.4byte	0
 5060              	.LLST21:
 5061 03ff 00000000 		.4byte	.LVL81
 5062 0403 4C000000 		.4byte	.LVL104
 5063 0407 0100     		.2byte	0x1
 5064 0409 50       		.byte	0x50
 5065 040a 4C000000 		.4byte	.LVL104
 5066 040e 53000000 		.4byte	.LVL105-1
 5067 0412 0500     		.2byte	0x5
 5068 0414 03       		.byte	0x3
 5069 0415 04000000 		.4byte	data_to_send+4
 5070 0419 53000000 		.4byte	.LVL105-1
 5071 041d 5C000000 		.4byte	.LFE69
 5072 0421 0400     		.2byte	0x4
 5073 0423 F3       		.byte	0xf3
 5074 0424 01       		.uleb128 0x1
 5075 0425 50       		.byte	0x50
 5076 0426 9F       		.byte	0x9f
 5077 0427 00000000 		.4byte	0
 5078 042b 00000000 		.4byte	0
 5079              	.LLST22:
 5080 042f 00000000 		.4byte	.LVL81
 5081 0433 1C000000 		.4byte	.LVL89
 5082 0437 0100     		.2byte	0x1
 5083 0439 51       		.byte	0x51
 5084 043a 1C000000 		.4byte	.LVL89
 5085 043e 53000000 		.4byte	.LVL105-1
 5086 0442 0500     		.2byte	0x5
 5087 0444 03       		.byte	0x3
 5088 0445 05000000 		.4byte	data_to_send+5
 5089 0449 53000000 		.4byte	.LVL105-1
ARM GAS  C:\Users\pxc\AppData\Local\Temp\cc2eOiEg.s 			page 103


 5090 044d 5C000000 		.4byte	.LFE69
 5091 0451 0400     		.2byte	0x4
 5092 0453 F3       		.byte	0xf3
 5093 0454 01       		.uleb128 0x1
 5094 0455 51       		.byte	0x51
 5095 0456 9F       		.byte	0x9f
 5096 0457 00000000 		.4byte	0
 5097 045b 00000000 		.4byte	0
 5098              	.LLST23:
 5099 045f 00000000 		.4byte	.LVL81
 5100 0463 22000000 		.4byte	.LVL92
 5101 0467 0100     		.2byte	0x1
 5102 0469 52       		.byte	0x52
 5103 046a 22000000 		.4byte	.LVL92
 5104 046e 5C000000 		.4byte	.LFE69
 5105 0472 0400     		.2byte	0x4
 5106 0474 F3       		.byte	0xf3
 5107 0475 01       		.uleb128 0x1
 5108 0476 52       		.byte	0x52
 5109 0477 9F       		.byte	0x9f
 5110 0478 00000000 		.4byte	0
 5111 047c 00000000 		.4byte	0
 5112              	.LLST24:
 5113 0480 00000000 		.4byte	.LVL81
 5114 0484 2C000000 		.4byte	.LVL95
 5115 0488 0100     		.2byte	0x1
 5116 048a 53       		.byte	0x53
 5117 048b 2C000000 		.4byte	.LVL95
 5118 048f 5C000000 		.4byte	.LFE69
 5119 0493 0400     		.2byte	0x4
 5120 0495 F3       		.byte	0xf3
 5121 0496 01       		.uleb128 0x1
 5122 0497 53       		.byte	0x53
 5123 0498 9F       		.byte	0x9f
 5124 0499 00000000 		.4byte	0
 5125 049d 00000000 		.4byte	0
 5126              	.LLST25:
 5127 04a1 00000000 		.4byte	.LVL81
 5128 04a5 58000000 		.4byte	.LVL106
 5129 04a9 0200     		.2byte	0x2
 5130 04ab 91       		.byte	0x91
 5131 04ac 00       		.sleb128 0
 5132 04ad 58000000 		.4byte	.LVL106
 5133 04b1 5C000000 		.4byte	.LFE69
 5134 04b5 0200     		.2byte	0x2
 5135 04b7 7D       		.byte	0x7d
 5136 04b8 00       		.sleb128 0
 5137 04b9 00000000 		.4byte	0
 5138 04bd 00000000 		.4byte	0
 5139              	.LLST26:
 5140 04c1 08000000 		.4byte	.LVL82
 5141 04c5 0E000000 		.4byte	.LVL83
 5142 04c9 0200     		.2byte	0x2
 5143 04cb 31       		.byte	0x31
 5144 04cc 9F       		.byte	0x9f
 5145 04cd 0E000000 		.4byte	.LVL83
 5146 04d1 10000000 		.4byte	.LVL84
ARM GAS  C:\Users\pxc\AppData\Local\Temp\cc2eOiEg.s 			page 104


 5147 04d5 0200     		.2byte	0x2
 5148 04d7 32       		.byte	0x32
 5149 04d8 9F       		.byte	0x9f
 5150 04d9 10000000 		.4byte	.LVL84
 5151 04dd 14000000 		.4byte	.LVL85
 5152 04e1 0200     		.2byte	0x2
 5153 04e3 33       		.byte	0x33
 5154 04e4 9F       		.byte	0x9f
 5155 04e5 14000000 		.4byte	.LVL85
 5156 04e9 16000000 		.4byte	.LVL86
 5157 04ed 0200     		.2byte	0x2
 5158 04ef 34       		.byte	0x34
 5159 04f0 9F       		.byte	0x9f
 5160 04f1 16000000 		.4byte	.LVL86
 5161 04f5 18000000 		.4byte	.LVL87
 5162 04f9 0200     		.2byte	0x2
 5163 04fb 35       		.byte	0x35
 5164 04fc 9F       		.byte	0x9f
 5165 04fd 18000000 		.4byte	.LVL87
 5166 0501 1A000000 		.4byte	.LVL88
 5167 0505 0200     		.2byte	0x2
 5168 0507 36       		.byte	0x36
 5169 0508 9F       		.byte	0x9f
 5170 0509 1A000000 		.4byte	.LVL88
 5171 050d 1E000000 		.4byte	.LVL90
 5172 0511 0200     		.2byte	0x2
 5173 0513 37       		.byte	0x37
 5174 0514 9F       		.byte	0x9f
 5175 0515 1E000000 		.4byte	.LVL90
 5176 0519 20000000 		.4byte	.LVL91
 5177 051d 0200     		.2byte	0x2
 5178 051f 38       		.byte	0x38
 5179 0520 9F       		.byte	0x9f
 5180 0521 20000000 		.4byte	.LVL91
 5181 0525 24000000 		.4byte	.LVL93
 5182 0529 0200     		.2byte	0x2
 5183 052b 39       		.byte	0x39
 5184 052c 9F       		.byte	0x9f
 5185 052d 24000000 		.4byte	.LVL93
 5186 0531 2A000000 		.4byte	.LVL94
 5187 0535 0200     		.2byte	0x2
 5188 0537 3A       		.byte	0x3a
 5189 0538 9F       		.byte	0x9f
 5190 0539 2A000000 		.4byte	.LVL94
 5191 053d 2E000000 		.4byte	.LVL96
 5192 0541 0200     		.2byte	0x2
 5193 0543 3B       		.byte	0x3b
 5194 0544 9F       		.byte	0x9f
 5195 0545 2E000000 		.4byte	.LVL96
 5196 0549 4A000000 		.4byte	.LVL103
 5197 054d 0200     		.2byte	0x2
 5198 054f 3C       		.byte	0x3c
 5199 0550 9F       		.byte	0x9f
 5200 0551 4A000000 		.4byte	.LVL103
 5201 0555 5C000000 		.4byte	.LFE69
 5202 0559 0200     		.2byte	0x2
 5203 055b 3D       		.byte	0x3d
ARM GAS  C:\Users\pxc\AppData\Local\Temp\cc2eOiEg.s 			page 105


 5204 055c 9F       		.byte	0x9f
 5205 055d 00000000 		.4byte	0
 5206 0561 00000000 		.4byte	0
 5207              	.LLST27:
 5208 0565 16000000 		.4byte	.LVL86
 5209 0569 18000000 		.4byte	.LVL87
 5210 056d 0100     		.2byte	0x1
 5211 056f 50       		.byte	0x50
 5212 0570 18000000 		.4byte	.LVL87
 5213 0574 1C000000 		.4byte	.LVL89
 5214 0578 0100     		.2byte	0x1
 5215 057a 51       		.byte	0x51
 5216 057b 1C000000 		.4byte	.LVL89
 5217 057f 53000000 		.4byte	.LVL105-1
 5218 0583 0500     		.2byte	0x5
 5219 0585 03       		.byte	0x3
 5220 0586 05000000 		.4byte	data_to_send+5
 5221 058a 53000000 		.4byte	.LVL105-1
 5222 058e 5C000000 		.4byte	.LFE69
 5223 0592 0400     		.2byte	0x4
 5224 0594 F3       		.byte	0xf3
 5225 0595 01       		.uleb128 0x1
 5226 0596 51       		.byte	0x51
 5227 0597 9F       		.byte	0x9f
 5228 0598 00000000 		.4byte	0
 5229 059c 00000000 		.4byte	0
 5230              	.LLST28:
 5231 05a0 34000000 		.4byte	.LVL97
 5232 05a4 3A000000 		.4byte	.LVL98
 5233 05a8 0200     		.2byte	0x2
 5234 05aa 30       		.byte	0x30
 5235 05ab 9F       		.byte	0x9f
 5236 05ac 3A000000 		.4byte	.LVL98
 5237 05b0 40000000 		.4byte	.LVL99
 5238 05b4 0100     		.2byte	0x1
 5239 05b6 52       		.byte	0x52
 5240 05b7 42000000 		.4byte	.LVL100
 5241 05bb 53000000 		.4byte	.LVL105-1
 5242 05bf 0100     		.2byte	0x1
 5243 05c1 52       		.byte	0x52
 5244 05c2 00000000 		.4byte	0
 5245 05c6 00000000 		.4byte	0
 5246              	.LLST29:
 5247 05ca 34000000 		.4byte	.LVL97
 5248 05ce 3A000000 		.4byte	.LVL98
 5249 05d2 0200     		.2byte	0x2
 5250 05d4 30       		.byte	0x30
 5251 05d5 9F       		.byte	0x9f
 5252 05d6 3A000000 		.4byte	.LVL98
 5253 05da 44000000 		.4byte	.LVL101
 5254 05de 0100     		.2byte	0x1
 5255 05e0 53       		.byte	0x53
 5256 05e1 46000000 		.4byte	.LVL102
 5257 05e5 53000000 		.4byte	.LVL105-1
 5258 05e9 0100     		.2byte	0x1
 5259 05eb 53       		.byte	0x53
 5260 05ec 00000000 		.4byte	0
ARM GAS  C:\Users\pxc\AppData\Local\Temp\cc2eOiEg.s 			page 106


 5261 05f0 00000000 		.4byte	0
 5262              	.LLST30:
 5263 05f4 00000000 		.4byte	.LVL107
 5264 05f8 32000000 		.4byte	.LVL117
 5265 05fc 0100     		.2byte	0x1
 5266 05fe 50       		.byte	0x50
 5267 05ff 32000000 		.4byte	.LVL117
 5268 0603 B8000000 		.4byte	.LFE70
 5269 0607 0400     		.2byte	0x4
 5270 0609 F3       		.byte	0xf3
 5271 060a 01       		.uleb128 0x1
 5272 060b 50       		.byte	0x50
 5273 060c 9F       		.byte	0x9f
 5274 060d 00000000 		.4byte	0
 5275 0611 00000000 		.4byte	0
 5276              	.LLST31:
 5277 0615 00000000 		.4byte	.LVL107
 5278 0619 44000000 		.4byte	.LVL122
 5279 061d 0100     		.2byte	0x1
 5280 061f 51       		.byte	0x51
 5281 0620 44000000 		.4byte	.LVL122
 5282 0624 B8000000 		.4byte	.LFE70
 5283 0628 0400     		.2byte	0x4
 5284 062a F3       		.byte	0xf3
 5285 062b 01       		.uleb128 0x1
 5286 062c 51       		.byte	0x51
 5287 062d 9F       		.byte	0x9f
 5288 062e 00000000 		.4byte	0
 5289 0632 00000000 		.4byte	0
 5290              	.LLST32:
 5291 0636 00000000 		.4byte	.LVL107
 5292 063a 56000000 		.4byte	.LVL127
 5293 063e 0100     		.2byte	0x1
 5294 0640 52       		.byte	0x52
 5295 0641 56000000 		.4byte	.LVL127
 5296 0645 B8000000 		.4byte	.LFE70
 5297 0649 0400     		.2byte	0x4
 5298 064b F3       		.byte	0xf3
 5299 064c 01       		.uleb128 0x1
 5300 064d 52       		.byte	0x52
 5301 064e 9F       		.byte	0x9f
 5302 064f 00000000 		.4byte	0
 5303 0653 00000000 		.4byte	0
 5304              	.LLST33:
 5305 0657 00000000 		.4byte	.LVL107
 5306 065b 68000000 		.4byte	.LVL132
 5307 065f 0100     		.2byte	0x1
 5308 0661 53       		.byte	0x53
 5309 0662 68000000 		.4byte	.LVL132
 5310 0666 B8000000 		.4byte	.LFE70
 5311 066a 0400     		.2byte	0x4
 5312 066c F3       		.byte	0xf3
 5313 066d 01       		.uleb128 0x1
 5314 066e 53       		.byte	0x53
 5315 066f 9F       		.byte	0x9f
 5316 0670 00000000 		.4byte	0
 5317 0674 00000000 		.4byte	0
ARM GAS  C:\Users\pxc\AppData\Local\Temp\cc2eOiEg.s 			page 107


 5318              	.LLST34:
 5319 0678 00000000 		.4byte	.LVL107
 5320 067c B4000000 		.4byte	.LVL148
 5321 0680 0200     		.2byte	0x2
 5322 0682 91       		.byte	0x91
 5323 0683 00       		.sleb128 0
 5324 0684 B4000000 		.4byte	.LVL148
 5325 0688 B8000000 		.4byte	.LFE70
 5326 068c 0200     		.2byte	0x2
 5327 068e 7D       		.byte	0x7d
 5328 068f 00       		.sleb128 0
 5329 0690 00000000 		.4byte	0
 5330 0694 00000000 		.4byte	0
 5331              	.LLST35:
 5332 0698 00000000 		.4byte	.LVL107
 5333 069c B4000000 		.4byte	.LVL148
 5334 06a0 0200     		.2byte	0x2
 5335 06a2 91       		.byte	0x91
 5336 06a3 04       		.sleb128 4
 5337 06a4 B4000000 		.4byte	.LVL148
 5338 06a8 B8000000 		.4byte	.LFE70
 5339 06ac 0200     		.2byte	0x2
 5340 06ae 7D       		.byte	0x7d
 5341 06af 04       		.sleb128 4
 5342 06b0 00000000 		.4byte	0
 5343 06b4 00000000 		.4byte	0
 5344              	.LLST36:
 5345 06b8 08000000 		.4byte	.LVL108
 5346 06bc 0E000000 		.4byte	.LVL109
 5347 06c0 0200     		.2byte	0x2
 5348 06c2 31       		.byte	0x31
 5349 06c3 9F       		.byte	0x9f
 5350 06c4 0E000000 		.4byte	.LVL109
 5351 06c8 10000000 		.4byte	.LVL110
 5352 06cc 0200     		.2byte	0x2
 5353 06ce 32       		.byte	0x32
 5354 06cf 9F       		.byte	0x9f
 5355 06d0 10000000 		.4byte	.LVL110
 5356 06d4 14000000 		.4byte	.LVL111
 5357 06d8 0200     		.2byte	0x2
 5358 06da 33       		.byte	0x33
 5359 06db 9F       		.byte	0x9f
 5360 06dc 14000000 		.4byte	.LVL111
 5361 06e0 16000000 		.4byte	.LVL112
 5362 06e4 0200     		.2byte	0x2
 5363 06e6 34       		.byte	0x34
 5364 06e7 9F       		.byte	0x9f
 5365 06e8 16000000 		.4byte	.LVL112
 5366 06ec 1E000000 		.4byte	.LVL113
 5367 06f0 0200     		.2byte	0x2
 5368 06f2 35       		.byte	0x35
 5369 06f3 9F       		.byte	0x9f
 5370 06f4 1E000000 		.4byte	.LVL113
 5371 06f8 26000000 		.4byte	.LVL114
 5372 06fc 0200     		.2byte	0x2
 5373 06fe 36       		.byte	0x36
 5374 06ff 9F       		.byte	0x9f
ARM GAS  C:\Users\pxc\AppData\Local\Temp\cc2eOiEg.s 			page 108


 5375 0700 26000000 		.4byte	.LVL114
 5376 0704 2E000000 		.4byte	.LVL115
 5377 0708 0200     		.2byte	0x2
 5378 070a 37       		.byte	0x37
 5379 070b 9F       		.byte	0x9f
 5380 070c 2E000000 		.4byte	.LVL115
 5381 0710 30000000 		.4byte	.LVL116
 5382 0714 0200     		.2byte	0x2
 5383 0716 38       		.byte	0x38
 5384 0717 9F       		.byte	0x9f
 5385 0718 30000000 		.4byte	.LVL116
 5386 071c 34000000 		.4byte	.LVL118
 5387 0720 0200     		.2byte	0x2
 5388 0722 39       		.byte	0x39
 5389 0723 9F       		.byte	0x9f
 5390 0724 34000000 		.4byte	.LVL118
 5391 0728 3A000000 		.4byte	.LVL119
 5392 072c 0200     		.2byte	0x2
 5393 072e 3A       		.byte	0x3a
 5394 072f 9F       		.byte	0x9f
 5395 0730 3A000000 		.4byte	.LVL119
 5396 0734 40000000 		.4byte	.LVL120
 5397 0738 0200     		.2byte	0x2
 5398 073a 3B       		.byte	0x3b
 5399 073b 9F       		.byte	0x9f
 5400 073c 40000000 		.4byte	.LVL120
 5401 0740 42000000 		.4byte	.LVL121
 5402 0744 0200     		.2byte	0x2
 5403 0746 3C       		.byte	0x3c
 5404 0747 9F       		.byte	0x9f
 5405 0748 42000000 		.4byte	.LVL121
 5406 074c 46000000 		.4byte	.LVL123
 5407 0750 0200     		.2byte	0x2
 5408 0752 3D       		.byte	0x3d
 5409 0753 9F       		.byte	0x9f
 5410 0754 46000000 		.4byte	.LVL123
 5411 0758 4C000000 		.4byte	.LVL124
 5412 075c 0200     		.2byte	0x2
 5413 075e 3E       		.byte	0x3e
 5414 075f 9F       		.byte	0x9f
 5415 0760 4C000000 		.4byte	.LVL124
 5416 0764 52000000 		.4byte	.LVL125
 5417 0768 0200     		.2byte	0x2
 5418 076a 3F       		.byte	0x3f
 5419 076b 9F       		.byte	0x9f
 5420 076c 52000000 		.4byte	.LVL125
 5421 0770 54000000 		.4byte	.LVL126
 5422 0774 0200     		.2byte	0x2
 5423 0776 40       		.byte	0x40
 5424 0777 9F       		.byte	0x9f
 5425 0778 54000000 		.4byte	.LVL126
 5426 077c 58000000 		.4byte	.LVL128
 5427 0780 0200     		.2byte	0x2
 5428 0782 41       		.byte	0x41
 5429 0783 9F       		.byte	0x9f
 5430 0784 58000000 		.4byte	.LVL128
 5431 0788 5E000000 		.4byte	.LVL129
ARM GAS  C:\Users\pxc\AppData\Local\Temp\cc2eOiEg.s 			page 109


 5432 078c 0200     		.2byte	0x2
 5433 078e 42       		.byte	0x42
 5434 078f 9F       		.byte	0x9f
 5435 0790 5E000000 		.4byte	.LVL129
 5436 0794 64000000 		.4byte	.LVL130
 5437 0798 0200     		.2byte	0x2
 5438 079a 43       		.byte	0x43
 5439 079b 9F       		.byte	0x9f
 5440 079c 64000000 		.4byte	.LVL130
 5441 07a0 66000000 		.4byte	.LVL131
 5442 07a4 0200     		.2byte	0x2
 5443 07a6 44       		.byte	0x44
 5444 07a7 9F       		.byte	0x9f
 5445 07a8 66000000 		.4byte	.LVL131
 5446 07ac 6A000000 		.4byte	.LVL133
 5447 07b0 0200     		.2byte	0x2
 5448 07b2 45       		.byte	0x45
 5449 07b3 9F       		.byte	0x9f
 5450 07b4 6A000000 		.4byte	.LVL133
 5451 07b8 70000000 		.4byte	.LVL134
 5452 07bc 0200     		.2byte	0x2
 5453 07be 46       		.byte	0x46
 5454 07bf 9F       		.byte	0x9f
 5455 07c0 70000000 		.4byte	.LVL134
 5456 07c4 76000000 		.4byte	.LVL135
 5457 07c8 0200     		.2byte	0x2
 5458 07ca 47       		.byte	0x47
 5459 07cb 9F       		.byte	0x9f
 5460 07cc 76000000 		.4byte	.LVL135
 5461 07d0 7A000000 		.4byte	.LVL136
 5462 07d4 0200     		.2byte	0x2
 5463 07d6 48       		.byte	0x48
 5464 07d7 9F       		.byte	0x9f
 5465 07d8 7A000000 		.4byte	.LVL136
 5466 07dc 7E000000 		.4byte	.LVL137
 5467 07e0 0200     		.2byte	0x2
 5468 07e2 49       		.byte	0x49
 5469 07e3 9F       		.byte	0x9f
 5470 07e4 7E000000 		.4byte	.LVL137
 5471 07e8 84000000 		.4byte	.LVL138
 5472 07ec 0200     		.2byte	0x2
 5473 07ee 4A       		.byte	0x4a
 5474 07ef 9F       		.byte	0x9f
 5475 07f0 84000000 		.4byte	.LVL138
 5476 07f4 8A000000 		.4byte	.LVL139
 5477 07f8 0200     		.2byte	0x2
 5478 07fa 4B       		.byte	0x4b
 5479 07fb 9F       		.byte	0x9f
 5480 07fc 8A000000 		.4byte	.LVL139
 5481 0800 A6000000 		.4byte	.LVL146
 5482 0804 0200     		.2byte	0x2
 5483 0806 4C       		.byte	0x4c
 5484 0807 9F       		.byte	0x9f
 5485 0808 A6000000 		.4byte	.LVL146
 5486 080c B8000000 		.4byte	.LFE70
 5487 0810 0200     		.2byte	0x2
 5488 0812 4D       		.byte	0x4d
ARM GAS  C:\Users\pxc\AppData\Local\Temp\cc2eOiEg.s 			page 110


 5489 0813 9F       		.byte	0x9f
 5490 0814 00000000 		.4byte	0
 5491 0818 00000000 		.4byte	0
 5492              	.LLST37:
 5493 081c 90000000 		.4byte	.LVL140
 5494 0820 96000000 		.4byte	.LVL141
 5495 0824 0200     		.2byte	0x2
 5496 0826 30       		.byte	0x30
 5497 0827 9F       		.byte	0x9f
 5498 0828 96000000 		.4byte	.LVL141
 5499 082c 9C000000 		.4byte	.LVL142
 5500 0830 0100     		.2byte	0x1
 5501 0832 52       		.byte	0x52
 5502 0833 9E000000 		.4byte	.LVL143
 5503 0837 AF000000 		.4byte	.LVL147-1
 5504 083b 0100     		.2byte	0x1
 5505 083d 52       		.byte	0x52
 5506 083e 00000000 		.4byte	0
 5507 0842 00000000 		.4byte	0
 5508              	.LLST38:
 5509 0846 90000000 		.4byte	.LVL140
 5510 084a 96000000 		.4byte	.LVL141
 5511 084e 0200     		.2byte	0x2
 5512 0850 30       		.byte	0x30
 5513 0851 9F       		.byte	0x9f
 5514 0852 96000000 		.4byte	.LVL141
 5515 0856 A0000000 		.4byte	.LVL144
 5516 085a 0100     		.2byte	0x1
 5517 085c 53       		.byte	0x53
 5518 085d A2000000 		.4byte	.LVL145
 5519 0861 AF000000 		.4byte	.LVL147-1
 5520 0865 0100     		.2byte	0x1
 5521 0867 53       		.byte	0x53
 5522 0868 00000000 		.4byte	0
 5523 086c 00000000 		.4byte	0
 5524              	.LLST39:
 5525 0870 00000000 		.4byte	.LVL149
 5526 0874 22000000 		.4byte	.LVL157
 5527 0878 0100     		.2byte	0x1
 5528 087a 50       		.byte	0x50
 5529 087b 22000000 		.4byte	.LVL157
 5530 087f 4C000000 		.4byte	.LVL168
 5531 0883 0200     		.2byte	0x2
 5532 0885 91       		.byte	0x91
 5533 0886 76       		.sleb128 -10
 5534 0887 4C000000 		.4byte	.LVL168
 5535 088b 50000000 		.4byte	.LFE71
 5536 088f 0200     		.2byte	0x2
 5537 0891 7D       		.byte	0x7d
 5538 0892 76       		.sleb128 -10
 5539 0893 00000000 		.4byte	0
 5540 0897 00000000 		.4byte	0
 5541              	.LLST40:
 5542 089b 00000000 		.4byte	.LVL149
 5543 089f 28000000 		.4byte	.LVL159
 5544 08a3 0100     		.2byte	0x1
 5545 08a5 51       		.byte	0x51
ARM GAS  C:\Users\pxc\AppData\Local\Temp\cc2eOiEg.s 			page 111


 5546 08a6 28000000 		.4byte	.LVL159
 5547 08aa 4C000000 		.4byte	.LVL168
 5548 08ae 0200     		.2byte	0x2
 5549 08b0 91       		.byte	0x91
 5550 08b1 74       		.sleb128 -12
 5551 08b2 4C000000 		.4byte	.LVL168
 5552 08b6 50000000 		.4byte	.LFE71
 5553 08ba 0200     		.2byte	0x2
 5554 08bc 7D       		.byte	0x7d
 5555 08bd 74       		.sleb128 -12
 5556 08be 00000000 		.4byte	0
 5557 08c2 00000000 		.4byte	0
 5558              	.LLST41:
 5559 08c6 0C000000 		.4byte	.LVL150
 5560 08ca 12000000 		.4byte	.LVL151
 5561 08ce 0200     		.2byte	0x2
 5562 08d0 31       		.byte	0x31
 5563 08d1 9F       		.byte	0x9f
 5564 08d2 12000000 		.4byte	.LVL151
 5565 08d6 14000000 		.4byte	.LVL152
 5566 08da 0200     		.2byte	0x2
 5567 08dc 32       		.byte	0x32
 5568 08dd 9F       		.byte	0x9f
 5569 08de 14000000 		.4byte	.LVL152
 5570 08e2 18000000 		.4byte	.LVL153
 5571 08e6 0200     		.2byte	0x2
 5572 08e8 33       		.byte	0x33
 5573 08e9 9F       		.byte	0x9f
 5574 08ea 18000000 		.4byte	.LVL153
 5575 08ee 1A000000 		.4byte	.LVL154
 5576 08f2 0200     		.2byte	0x2
 5577 08f4 34       		.byte	0x34
 5578 08f5 9F       		.byte	0x9f
 5579 08f6 1A000000 		.4byte	.LVL154
 5580 08fa 1E000000 		.4byte	.LVL155
 5581 08fe 0200     		.2byte	0x2
 5582 0900 35       		.byte	0x35
 5583 0901 9F       		.byte	0x9f
 5584 0902 1E000000 		.4byte	.LVL155
 5585 0906 20000000 		.4byte	.LVL156
 5586 090a 0200     		.2byte	0x2
 5587 090c 36       		.byte	0x36
 5588 090d 9F       		.byte	0x9f
 5589 090e 20000000 		.4byte	.LVL156
 5590 0912 24000000 		.4byte	.LVL158
 5591 0916 0200     		.2byte	0x2
 5592 0918 37       		.byte	0x37
 5593 0919 9F       		.byte	0x9f
 5594 091a 24000000 		.4byte	.LVL158
 5595 091e 3E000000 		.4byte	.LVL166
 5596 0922 0200     		.2byte	0x2
 5597 0924 38       		.byte	0x38
 5598 0925 9F       		.byte	0x9f
 5599 0926 3E000000 		.4byte	.LVL166
 5600 092a 50000000 		.4byte	.LFE71
 5601 092e 0200     		.2byte	0x2
 5602 0930 39       		.byte	0x39
ARM GAS  C:\Users\pxc\AppData\Local\Temp\cc2eOiEg.s 			page 112


 5603 0931 9F       		.byte	0x9f
 5604 0932 00000000 		.4byte	0
 5605 0936 00000000 		.4byte	0
 5606              	.LLST42:
 5607 093a 2A000000 		.4byte	.LVL160
 5608 093e 2E000000 		.4byte	.LVL161
 5609 0942 0200     		.2byte	0x2
 5610 0944 30       		.byte	0x30
 5611 0945 9F       		.byte	0x9f
 5612 0946 2E000000 		.4byte	.LVL161
 5613 094a 34000000 		.4byte	.LVL162
 5614 094e 0100     		.2byte	0x1
 5615 0950 52       		.byte	0x52
 5616 0951 36000000 		.4byte	.LVL163
 5617 0955 47000000 		.4byte	.LVL167-1
 5618 0959 0100     		.2byte	0x1
 5619 095b 52       		.byte	0x52
 5620 095c 00000000 		.4byte	0
 5621 0960 00000000 		.4byte	0
 5622              	.LLST43:
 5623 0964 2A000000 		.4byte	.LVL160
 5624 0968 2E000000 		.4byte	.LVL161
 5625 096c 0200     		.2byte	0x2
 5626 096e 30       		.byte	0x30
 5627 096f 9F       		.byte	0x9f
 5628 0970 2E000000 		.4byte	.LVL161
 5629 0974 38000000 		.4byte	.LVL164
 5630 0978 0100     		.2byte	0x1
 5631 097a 53       		.byte	0x53
 5632 097b 3A000000 		.4byte	.LVL165
 5633 097f 47000000 		.4byte	.LVL167-1
 5634 0983 0100     		.2byte	0x1
 5635 0985 53       		.byte	0x53
 5636 0986 00000000 		.4byte	0
 5637 098a 00000000 		.4byte	0
 5638              	.LLST44:
 5639 098e 00000000 		.4byte	.LVL169
 5640 0992 1E000000 		.4byte	.LVL177
 5641 0996 0100     		.2byte	0x1
 5642 0998 50       		.byte	0x50
 5643 0999 1E000000 		.4byte	.LVL177
 5644 099d 4C000000 		.4byte	.LFE72
 5645 09a1 0400     		.2byte	0x4
 5646 09a3 F3       		.byte	0xf3
 5647 09a4 01       		.uleb128 0x1
 5648 09a5 50       		.byte	0x50
 5649 09a6 9F       		.byte	0x9f
 5650 09a7 00000000 		.4byte	0
 5651 09ab 00000000 		.4byte	0
 5652              	.LLST45:
 5653 09af 00000000 		.4byte	.LVL169
 5654 09b3 24000000 		.4byte	.LVL179
 5655 09b7 0100     		.2byte	0x1
 5656 09b9 51       		.byte	0x51
 5657 09ba 24000000 		.4byte	.LVL179
 5658 09be 43000000 		.4byte	.LVL187-1
 5659 09c2 0200     		.2byte	0x2
ARM GAS  C:\Users\pxc\AppData\Local\Temp\cc2eOiEg.s 			page 113


 5660 09c4 91       		.byte	0x91
 5661 09c5 76       		.sleb128 -10
 5662 09c6 43000000 		.4byte	.LVL187-1
 5663 09ca 4C000000 		.4byte	.LFE72
 5664 09ce 0400     		.2byte	0x4
 5665 09d0 F3       		.byte	0xf3
 5666 09d1 01       		.uleb128 0x1
 5667 09d2 51       		.byte	0x51
 5668 09d3 9F       		.byte	0x9f
 5669 09d4 00000000 		.4byte	0
 5670 09d8 00000000 		.4byte	0
 5671              	.LLST46:
 5672 09dc 04000000 		.4byte	.LVL170
 5673 09e0 0A000000 		.4byte	.LVL171
 5674 09e4 0200     		.2byte	0x2
 5675 09e6 31       		.byte	0x31
 5676 09e7 9F       		.byte	0x9f
 5677 09e8 0A000000 		.4byte	.LVL171
 5678 09ec 0C000000 		.4byte	.LVL172
 5679 09f0 0200     		.2byte	0x2
 5680 09f2 32       		.byte	0x32
 5681 09f3 9F       		.byte	0x9f
 5682 09f4 0C000000 		.4byte	.LVL172
 5683 09f8 10000000 		.4byte	.LVL173
 5684 09fc 0200     		.2byte	0x2
 5685 09fe 33       		.byte	0x33
 5686 09ff 9F       		.byte	0x9f
 5687 0a00 10000000 		.4byte	.LVL173
 5688 0a04 12000000 		.4byte	.LVL174
 5689 0a08 0200     		.2byte	0x2
 5690 0a0a 34       		.byte	0x34
 5691 0a0b 9F       		.byte	0x9f
 5692 0a0c 12000000 		.4byte	.LVL174
 5693 0a10 16000000 		.4byte	.LVL175
 5694 0a14 0200     		.2byte	0x2
 5695 0a16 35       		.byte	0x35
 5696 0a17 9F       		.byte	0x9f
 5697 0a18 16000000 		.4byte	.LVL175
 5698 0a1c 1C000000 		.4byte	.LVL176
 5699 0a20 0200     		.2byte	0x2
 5700 0a22 36       		.byte	0x36
 5701 0a23 9F       		.byte	0x9f
 5702 0a24 1C000000 		.4byte	.LVL176
 5703 0a28 20000000 		.4byte	.LVL178
 5704 0a2c 0200     		.2byte	0x2
 5705 0a2e 37       		.byte	0x37
 5706 0a2f 9F       		.byte	0x9f
 5707 0a30 20000000 		.4byte	.LVL178
 5708 0a34 3A000000 		.4byte	.LVL186
 5709 0a38 0200     		.2byte	0x2
 5710 0a3a 38       		.byte	0x38
 5711 0a3b 9F       		.byte	0x9f
 5712 0a3c 3A000000 		.4byte	.LVL186
 5713 0a40 4C000000 		.4byte	.LFE72
 5714 0a44 0200     		.2byte	0x2
 5715 0a46 39       		.byte	0x39
 5716 0a47 9F       		.byte	0x9f
ARM GAS  C:\Users\pxc\AppData\Local\Temp\cc2eOiEg.s 			page 114


 5717 0a48 00000000 		.4byte	0
 5718 0a4c 00000000 		.4byte	0
 5719              	.LLST47:
 5720 0a50 26000000 		.4byte	.LVL180
 5721 0a54 2A000000 		.4byte	.LVL181
 5722 0a58 0200     		.2byte	0x2
 5723 0a5a 30       		.byte	0x30
 5724 0a5b 9F       		.byte	0x9f
 5725 0a5c 2A000000 		.4byte	.LVL181
 5726 0a60 30000000 		.4byte	.LVL182
 5727 0a64 0100     		.2byte	0x1
 5728 0a66 52       		.byte	0x52
 5729 0a67 32000000 		.4byte	.LVL183
 5730 0a6b 43000000 		.4byte	.LVL187-1
 5731 0a6f 0100     		.2byte	0x1
 5732 0a71 52       		.byte	0x52
 5733 0a72 00000000 		.4byte	0
 5734 0a76 00000000 		.4byte	0
 5735              	.LLST48:
 5736 0a7a 26000000 		.4byte	.LVL180
 5737 0a7e 2A000000 		.4byte	.LVL181
 5738 0a82 0200     		.2byte	0x2
 5739 0a84 30       		.byte	0x30
 5740 0a85 9F       		.byte	0x9f
 5741 0a86 2A000000 		.4byte	.LVL181
 5742 0a8a 34000000 		.4byte	.LVL184
 5743 0a8e 0100     		.2byte	0x1
 5744 0a90 53       		.byte	0x53
 5745 0a91 36000000 		.4byte	.LVL185
 5746 0a95 43000000 		.4byte	.LVL187-1
 5747 0a99 0100     		.2byte	0x1
 5748 0a9b 53       		.byte	0x53
 5749 0a9c 00000000 		.4byte	0
 5750 0aa0 00000000 		.4byte	0
 5751              	.LLST49:
 5752 0aa4 00000000 		.4byte	.LVL211
 5753 0aa8 2A000000 		.4byte	.LVL219
 5754 0aac 0100     		.2byte	0x1
 5755 0aae 50       		.byte	0x50
 5756 0aaf 2A000000 		.4byte	.LVL219
 5757 0ab3 92000000 		.4byte	.LVL245
 5758 0ab7 0200     		.2byte	0x2
 5759 0ab9 91       		.byte	0x91
 5760 0aba 6E       		.sleb128 -18
 5761 0abb 92000000 		.4byte	.LVL245
 5762 0abf 98000000 		.4byte	.LFE73
 5763 0ac3 0200     		.2byte	0x2
 5764 0ac5 7D       		.byte	0x7d
 5765 0ac6 6E       		.sleb128 -18
 5766 0ac7 00000000 		.4byte	0
 5767 0acb 00000000 		.4byte	0
 5768              	.LLST50:
 5769 0acf 00000000 		.4byte	.LVL211
 5770 0ad3 30000000 		.4byte	.LVL222
 5771 0ad7 0100     		.2byte	0x1
 5772 0ad9 51       		.byte	0x51
 5773 0ada 30000000 		.4byte	.LVL222
ARM GAS  C:\Users\pxc\AppData\Local\Temp\cc2eOiEg.s 			page 115


 5774 0ade 92000000 		.4byte	.LVL245
 5775 0ae2 0200     		.2byte	0x2
 5776 0ae4 91       		.byte	0x91
 5777 0ae5 6C       		.sleb128 -20
 5778 0ae6 92000000 		.4byte	.LVL245
 5779 0aea 98000000 		.4byte	.LFE73
 5780 0aee 0200     		.2byte	0x2
 5781 0af0 7D       		.byte	0x7d
 5782 0af1 6C       		.sleb128 -20
 5783 0af2 00000000 		.4byte	0
 5784 0af6 00000000 		.4byte	0
 5785              	.LLST51:
 5786 0afa 00000000 		.4byte	.LVL211
 5787 0afe 36000000 		.4byte	.LVL225
 5788 0b02 0100     		.2byte	0x1
 5789 0b04 52       		.byte	0x52
 5790 0b05 36000000 		.4byte	.LVL225
 5791 0b09 92000000 		.4byte	.LVL245
 5792 0b0d 0200     		.2byte	0x2
 5793 0b0f 91       		.byte	0x91
 5794 0b10 6A       		.sleb128 -22
 5795 0b11 92000000 		.4byte	.LVL245
 5796 0b15 98000000 		.4byte	.LFE73
 5797 0b19 0200     		.2byte	0x2
 5798 0b1b 7D       		.byte	0x7d
 5799 0b1c 6A       		.sleb128 -22
 5800 0b1d 00000000 		.4byte	0
 5801 0b21 00000000 		.4byte	0
 5802              	.LLST52:
 5803 0b25 00000000 		.4byte	.LVL211
 5804 0b29 3E000000 		.4byte	.LVL228
 5805 0b2d 0100     		.2byte	0x1
 5806 0b2f 53       		.byte	0x53
 5807 0b30 3E000000 		.4byte	.LVL228
 5808 0b34 90000000 		.4byte	.LVL244
 5809 0b38 0200     		.2byte	0x2
 5810 0b3a 7D       		.byte	0x7d
 5811 0b3b 00       		.sleb128 0
 5812 0b3c 90000000 		.4byte	.LVL244
 5813 0b40 92000000 		.4byte	.LVL245
 5814 0b44 0200     		.2byte	0x2
 5815 0b46 91       		.byte	0x91
 5816 0b47 68       		.sleb128 -24
 5817 0b48 92000000 		.4byte	.LVL245
 5818 0b4c 98000000 		.4byte	.LFE73
 5819 0b50 0200     		.2byte	0x2
 5820 0b52 7D       		.byte	0x7d
 5821 0b53 68       		.sleb128 -24
 5822 0b54 00000000 		.4byte	0
 5823 0b58 00000000 		.4byte	0
 5824              	.LLST53:
 5825 0b5c 00000000 		.4byte	.LVL211
 5826 0b60 92000000 		.4byte	.LVL245
 5827 0b64 0200     		.2byte	0x2
 5828 0b66 91       		.byte	0x91
 5829 0b67 00       		.sleb128 0
 5830 0b68 92000000 		.4byte	.LVL245
ARM GAS  C:\Users\pxc\AppData\Local\Temp\cc2eOiEg.s 			page 116


 5831 0b6c 98000000 		.4byte	.LFE73
 5832 0b70 0200     		.2byte	0x2
 5833 0b72 7D       		.byte	0x7d
 5834 0b73 00       		.sleb128 0
 5835 0b74 00000000 		.4byte	0
 5836 0b78 00000000 		.4byte	0
 5837              	.LLST54:
 5838 0b7c 00000000 		.4byte	.LVL211
 5839 0b80 92000000 		.4byte	.LVL245
 5840 0b84 0200     		.2byte	0x2
 5841 0b86 91       		.byte	0x91
 5842 0b87 04       		.sleb128 4
 5843 0b88 92000000 		.4byte	.LVL245
 5844 0b8c 98000000 		.4byte	.LFE73
 5845 0b90 0200     		.2byte	0x2
 5846 0b92 7D       		.byte	0x7d
 5847 0b93 04       		.sleb128 4
 5848 0b94 00000000 		.4byte	0
 5849 0b98 00000000 		.4byte	0
 5850              	.LLST55:
 5851 0b9c 00000000 		.4byte	.LVL211
 5852 0ba0 92000000 		.4byte	.LVL245
 5853 0ba4 0200     		.2byte	0x2
 5854 0ba6 91       		.byte	0x91
 5855 0ba7 08       		.sleb128 8
 5856 0ba8 92000000 		.4byte	.LVL245
 5857 0bac 98000000 		.4byte	.LFE73
 5858 0bb0 0200     		.2byte	0x2
 5859 0bb2 7D       		.byte	0x7d
 5860 0bb3 08       		.sleb128 8
 5861 0bb4 00000000 		.4byte	0
 5862 0bb8 00000000 		.4byte	0
 5863              	.LLST56:
 5864 0bbc 00000000 		.4byte	.LVL211
 5865 0bc0 92000000 		.4byte	.LVL245
 5866 0bc4 0200     		.2byte	0x2
 5867 0bc6 91       		.byte	0x91
 5868 0bc7 0C       		.sleb128 12
 5869 0bc8 92000000 		.4byte	.LVL245
 5870 0bcc 98000000 		.4byte	.LFE73
 5871 0bd0 0200     		.2byte	0x2
 5872 0bd2 7D       		.byte	0x7d
 5873 0bd3 0C       		.sleb128 12
 5874 0bd4 00000000 		.4byte	0
 5875 0bd8 00000000 		.4byte	0
 5876              	.LLST57:
 5877 0bdc 14000000 		.4byte	.LVL212
 5878 0be0 1A000000 		.4byte	.LVL213
 5879 0be4 0200     		.2byte	0x2
 5880 0be6 31       		.byte	0x31
 5881 0be7 9F       		.byte	0x9f
 5882 0be8 1A000000 		.4byte	.LVL213
 5883 0bec 1C000000 		.4byte	.LVL214
 5884 0bf0 0200     		.2byte	0x2
 5885 0bf2 32       		.byte	0x32
 5886 0bf3 9F       		.byte	0x9f
 5887 0bf4 1C000000 		.4byte	.LVL214
ARM GAS  C:\Users\pxc\AppData\Local\Temp\cc2eOiEg.s 			page 117


 5888 0bf8 20000000 		.4byte	.LVL215
 5889 0bfc 0200     		.2byte	0x2
 5890 0bfe 33       		.byte	0x33
 5891 0bff 9F       		.byte	0x9f
 5892 0c00 20000000 		.4byte	.LVL215
 5893 0c04 22000000 		.4byte	.LVL216
 5894 0c08 0200     		.2byte	0x2
 5895 0c0a 34       		.byte	0x34
 5896 0c0b 9F       		.byte	0x9f
 5897 0c0c 22000000 		.4byte	.LVL216
 5898 0c10 26000000 		.4byte	.LVL217
 5899 0c14 0200     		.2byte	0x2
 5900 0c16 35       		.byte	0x35
 5901 0c17 9F       		.byte	0x9f
 5902 0c18 26000000 		.4byte	.LVL217
 5903 0c1c 28000000 		.4byte	.LVL218
 5904 0c20 0200     		.2byte	0x2
 5905 0c22 36       		.byte	0x36
 5906 0c23 9F       		.byte	0x9f
 5907 0c24 28000000 		.4byte	.LVL218
 5908 0c28 2C000000 		.4byte	.LVL220
 5909 0c2c 0200     		.2byte	0x2
 5910 0c2e 37       		.byte	0x37
 5911 0c2f 9F       		.byte	0x9f
 5912 0c30 2C000000 		.4byte	.LVL220
 5913 0c34 2E000000 		.4byte	.LVL221
 5914 0c38 0200     		.2byte	0x2
 5915 0c3a 38       		.byte	0x38
 5916 0c3b 9F       		.byte	0x9f
 5917 0c3c 2E000000 		.4byte	.LVL221
 5918 0c40 32000000 		.4byte	.LVL223
 5919 0c44 0200     		.2byte	0x2
 5920 0c46 39       		.byte	0x39
 5921 0c47 9F       		.byte	0x9f
 5922 0c48 32000000 		.4byte	.LVL223
 5923 0c4c 34000000 		.4byte	.LVL224
 5924 0c50 0200     		.2byte	0x2
 5925 0c52 3A       		.byte	0x3a
 5926 0c53 9F       		.byte	0x9f
 5927 0c54 34000000 		.4byte	.LVL224
 5928 0c58 38000000 		.4byte	.LVL226
 5929 0c5c 0200     		.2byte	0x2
 5930 0c5e 3B       		.byte	0x3b
 5931 0c5f 9F       		.byte	0x9f
 5932 0c60 38000000 		.4byte	.LVL226
 5933 0c64 3A000000 		.4byte	.LVL227
 5934 0c68 0200     		.2byte	0x2
 5935 0c6a 3C       		.byte	0x3c
 5936 0c6b 9F       		.byte	0x9f
 5937 0c6c 3A000000 		.4byte	.LVL227
 5938 0c70 40000000 		.4byte	.LVL229
 5939 0c74 0200     		.2byte	0x2
 5940 0c76 3D       		.byte	0x3d
 5941 0c77 9F       		.byte	0x9f
 5942 0c78 40000000 		.4byte	.LVL229
 5943 0c7c 46000000 		.4byte	.LVL230
 5944 0c80 0200     		.2byte	0x2
ARM GAS  C:\Users\pxc\AppData\Local\Temp\cc2eOiEg.s 			page 118


 5945 0c82 3E       		.byte	0x3e
 5946 0c83 9F       		.byte	0x9f
 5947 0c84 46000000 		.4byte	.LVL230
 5948 0c88 4C000000 		.4byte	.LVL231
 5949 0c8c 0200     		.2byte	0x2
 5950 0c8e 3F       		.byte	0x3f
 5951 0c8f 9F       		.byte	0x9f
 5952 0c90 4C000000 		.4byte	.LVL231
 5953 0c94 52000000 		.4byte	.LVL232
 5954 0c98 0200     		.2byte	0x2
 5955 0c9a 40       		.byte	0x40
 5956 0c9b 9F       		.byte	0x9f
 5957 0c9c 52000000 		.4byte	.LVL232
 5958 0ca0 58000000 		.4byte	.LVL233
 5959 0ca4 0200     		.2byte	0x2
 5960 0ca6 41       		.byte	0x41
 5961 0ca7 9F       		.byte	0x9f
 5962 0ca8 58000000 		.4byte	.LVL233
 5963 0cac 5E000000 		.4byte	.LVL234
 5964 0cb0 0200     		.2byte	0x2
 5965 0cb2 42       		.byte	0x42
 5966 0cb3 9F       		.byte	0x9f
 5967 0cb4 5E000000 		.4byte	.LVL234
 5968 0cb8 64000000 		.4byte	.LVL235
 5969 0cbc 0200     		.2byte	0x2
 5970 0cbe 43       		.byte	0x43
 5971 0cbf 9F       		.byte	0x9f
 5972 0cc0 64000000 		.4byte	.LVL235
 5973 0cc4 84000000 		.4byte	.LVL242
 5974 0cc8 0200     		.2byte	0x2
 5975 0cca 44       		.byte	0x44
 5976 0ccb 9F       		.byte	0x9f
 5977 0ccc 84000000 		.4byte	.LVL242
 5978 0cd0 98000000 		.4byte	.LFE73
 5979 0cd4 0200     		.2byte	0x2
 5980 0cd6 45       		.byte	0x45
 5981 0cd7 9F       		.byte	0x9f
 5982 0cd8 00000000 		.4byte	0
 5983 0cdc 00000000 		.4byte	0
 5984              	.LLST58:
 5985 0ce0 6E000000 		.4byte	.LVL236
 5986 0ce4 74000000 		.4byte	.LVL237
 5987 0ce8 0200     		.2byte	0x2
 5988 0cea 30       		.byte	0x30
 5989 0ceb 9F       		.byte	0x9f
 5990 0cec 74000000 		.4byte	.LVL237
 5991 0cf0 7A000000 		.4byte	.LVL238
 5992 0cf4 0100     		.2byte	0x1
 5993 0cf6 52       		.byte	0x52
 5994 0cf7 7C000000 		.4byte	.LVL239
 5995 0cfb 8D000000 		.4byte	.LVL243-1
 5996 0cff 0100     		.2byte	0x1
 5997 0d01 52       		.byte	0x52
 5998 0d02 00000000 		.4byte	0
 5999 0d06 00000000 		.4byte	0
 6000              	.LLST59:
 6001 0d0a 6E000000 		.4byte	.LVL236
ARM GAS  C:\Users\pxc\AppData\Local\Temp\cc2eOiEg.s 			page 119


 6002 0d0e 74000000 		.4byte	.LVL237
 6003 0d12 0200     		.2byte	0x2
 6004 0d14 30       		.byte	0x30
 6005 0d15 9F       		.byte	0x9f
 6006 0d16 74000000 		.4byte	.LVL237
 6007 0d1a 7E000000 		.4byte	.LVL240
 6008 0d1e 0100     		.2byte	0x1
 6009 0d20 53       		.byte	0x53
 6010 0d21 80000000 		.4byte	.LVL241
 6011 0d25 8D000000 		.4byte	.LVL243-1
 6012 0d29 0100     		.2byte	0x1
 6013 0d2b 53       		.byte	0x53
 6014 0d2c 00000000 		.4byte	0
 6015 0d30 00000000 		.4byte	0
 6016              	.LLST60:
 6017 0d34 00000000 		.4byte	.LVL246
 6018 0d38 12000000 		.4byte	.LVL251
 6019 0d3c 0100     		.2byte	0x1
 6020 0d3e 50       		.byte	0x50
 6021 0d3f 12000000 		.4byte	.LVL251
 6022 0d43 00010000 		.4byte	.LFE74
 6023 0d47 0400     		.2byte	0x4
 6024 0d49 F3       		.byte	0xf3
 6025 0d4a 01       		.uleb128 0x1
 6026 0d4b 50       		.byte	0x50
 6027 0d4c 9F       		.byte	0x9f
 6028 0d4d 00000000 		.4byte	0
 6029 0d51 00000000 		.4byte	0
 6030              	.LLST61:
 6031 0d55 00000000 		.4byte	.LVL246
 6032 0d59 1A000000 		.4byte	.LVL253
 6033 0d5d 0100     		.2byte	0x1
 6034 0d5f 51       		.byte	0x51
 6035 0d60 1A000000 		.4byte	.LVL253
 6036 0d64 1D000000 		.4byte	.LVL254-1
 6037 0d68 0100     		.2byte	0x1
 6038 0d6a 50       		.byte	0x50
 6039 0d6b 1D000000 		.4byte	.LVL254-1
 6040 0d6f 00010000 		.4byte	.LFE74
 6041 0d73 0600     		.2byte	0x6
 6042 0d75 F3       		.byte	0xf3
 6043 0d76 03       		.uleb128 0x3
 6044 0d77 F5       		.byte	0xf5
 6045 0d78 01       		.uleb128 0x1
 6046 0d79 25       		.uleb128 0x25
 6047 0d7a 9F       		.byte	0x9f
 6048 0d7b 00000000 		.4byte	0
 6049 0d7f 00000000 		.4byte	0
 6050              	.LLST62:
 6051 0d83 00000000 		.4byte	.LVL246
 6052 0d87 1D000000 		.4byte	.LVL254-1
 6053 0d8b 0100     		.2byte	0x1
 6054 0d8d 52       		.byte	0x52
 6055 0d8e 1D000000 		.4byte	.LVL254-1
 6056 0d92 F6000000 		.4byte	.LVL290
 6057 0d96 0100     		.2byte	0x1
 6058 0d98 57       		.byte	0x57
ARM GAS  C:\Users\pxc\AppData\Local\Temp\cc2eOiEg.s 			page 120


 6059 0d99 F6000000 		.4byte	.LVL290
 6060 0d9d 00010000 		.4byte	.LFE74
 6061 0da1 0600     		.2byte	0x6
 6062 0da3 F3       		.byte	0xf3
 6063 0da4 03       		.uleb128 0x3
 6064 0da5 F5       		.byte	0xf5
 6065 0da6 02       		.uleb128 0x2
 6066 0da7 25       		.uleb128 0x25
 6067 0da8 9F       		.byte	0x9f
 6068 0da9 00000000 		.4byte	0
 6069 0dad 00000000 		.4byte	0
 6070              	.LLST63:
 6071 0db1 00000000 		.4byte	.LVL246
 6072 0db5 0C000000 		.4byte	.LVL248
 6073 0db9 0100     		.2byte	0x1
 6074 0dbb 53       		.byte	0x53
 6075 0dbc 0C000000 		.4byte	.LVL248
 6076 0dc0 F6000000 		.4byte	.LVL290
 6077 0dc4 0100     		.2byte	0x1
 6078 0dc6 56       		.byte	0x56
 6079 0dc7 F6000000 		.4byte	.LVL290
 6080 0dcb 00010000 		.4byte	.LFE74
 6081 0dcf 0600     		.2byte	0x6
 6082 0dd1 F3       		.byte	0xf3
 6083 0dd2 03       		.uleb128 0x3
 6084 0dd3 F5       		.byte	0xf5
 6085 0dd4 03       		.uleb128 0x3
 6086 0dd5 25       		.uleb128 0x25
 6087 0dd6 9F       		.byte	0x9f
 6088 0dd7 00000000 		.4byte	0
 6089 0ddb 00000000 		.4byte	0
 6090              	.LLST64:
 6091 0ddf 00000000 		.4byte	.LVL246
 6092 0de3 F6000000 		.4byte	.LVL290
 6093 0de7 0200     		.2byte	0x2
 6094 0de9 91       		.byte	0x91
 6095 0dea 00       		.sleb128 0
 6096 0deb F6000000 		.4byte	.LVL290
 6097 0def 00010000 		.4byte	.LFE74
 6098 0df3 0200     		.2byte	0x2
 6099 0df5 7D       		.byte	0x7d
 6100 0df6 00       		.sleb128 0
 6101 0df7 00000000 		.4byte	0
 6102 0dfb 00000000 		.4byte	0
 6103              	.LLST65:
 6104 0dff 00000000 		.4byte	.LVL246
 6105 0e03 F6000000 		.4byte	.LVL290
 6106 0e07 0200     		.2byte	0x2
 6107 0e09 91       		.byte	0x91
 6108 0e0a 04       		.sleb128 4
 6109 0e0b F6000000 		.4byte	.LVL290
 6110 0e0f 00010000 		.4byte	.LFE74
 6111 0e13 0200     		.2byte	0x2
 6112 0e15 7D       		.byte	0x7d
 6113 0e16 04       		.sleb128 4
 6114 0e17 00000000 		.4byte	0
 6115 0e1b 00000000 		.4byte	0
ARM GAS  C:\Users\pxc\AppData\Local\Temp\cc2eOiEg.s 			page 121


 6116              	.LLST66:
 6117 0e1f 00000000 		.4byte	.LVL246
 6118 0e23 F6000000 		.4byte	.LVL290
 6119 0e27 0200     		.2byte	0x2
 6120 0e29 91       		.byte	0x91
 6121 0e2a 08       		.sleb128 8
 6122 0e2b F6000000 		.4byte	.LVL290
 6123 0e2f 00010000 		.4byte	.LFE74
 6124 0e33 0200     		.2byte	0x2
 6125 0e35 7D       		.byte	0x7d
 6126 0e36 08       		.sleb128 8
 6127 0e37 00000000 		.4byte	0
 6128 0e3b 00000000 		.4byte	0
 6129              	.LLST67:
 6130 0e3f 00000000 		.4byte	.LVL246
 6131 0e43 F6000000 		.4byte	.LVL290
 6132 0e47 0200     		.2byte	0x2
 6133 0e49 91       		.byte	0x91
 6134 0e4a 0C       		.sleb128 12
 6135 0e4b F6000000 		.4byte	.LVL290
 6136 0e4f 00010000 		.4byte	.LFE74
 6137 0e53 0200     		.2byte	0x2
 6138 0e55 7D       		.byte	0x7d
 6139 0e56 0C       		.sleb128 12
 6140 0e57 00000000 		.4byte	0
 6141 0e5b 00000000 		.4byte	0
 6142              	.LLST68:
 6143 0e5f 00000000 		.4byte	.LVL246
 6144 0e63 F6000000 		.4byte	.LVL290
 6145 0e67 0200     		.2byte	0x2
 6146 0e69 91       		.byte	0x91
 6147 0e6a 10       		.sleb128 16
 6148 0e6b F6000000 		.4byte	.LVL290
 6149 0e6f 00010000 		.4byte	.LFE74
 6150 0e73 0200     		.2byte	0x2
 6151 0e75 7D       		.byte	0x7d
 6152 0e76 10       		.sleb128 16
 6153 0e77 00000000 		.4byte	0
 6154 0e7b 00000000 		.4byte	0
 6155              	.LLST69:
 6156 0e7f 00000000 		.4byte	.LVL246
 6157 0e83 F6000000 		.4byte	.LVL290
 6158 0e87 0200     		.2byte	0x2
 6159 0e89 91       		.byte	0x91
 6160 0e8a 14       		.sleb128 20
 6161 0e8b F6000000 		.4byte	.LVL290
 6162 0e8f 00010000 		.4byte	.LFE74
 6163 0e93 0200     		.2byte	0x2
 6164 0e95 7D       		.byte	0x7d
 6165 0e96 14       		.sleb128 20
 6166 0e97 00000000 		.4byte	0
 6167 0e9b 00000000 		.4byte	0
 6168              	.LLST70:
 6169 0e9f 08000000 		.4byte	.LVL247
 6170 0ea3 0E000000 		.4byte	.LVL249
 6171 0ea7 0200     		.2byte	0x2
 6172 0ea9 31       		.byte	0x31
ARM GAS  C:\Users\pxc\AppData\Local\Temp\cc2eOiEg.s 			page 122


 6173 0eaa 9F       		.byte	0x9f
 6174 0eab 0E000000 		.4byte	.LVL249
 6175 0eaf 10000000 		.4byte	.LVL250
 6176 0eb3 0200     		.2byte	0x2
 6177 0eb5 32       		.byte	0x32
 6178 0eb6 9F       		.byte	0x9f
 6179 0eb7 10000000 		.4byte	.LVL250
 6180 0ebb 14000000 		.4byte	.LVL252
 6181 0ebf 0200     		.2byte	0x2
 6182 0ec1 33       		.byte	0x33
 6183 0ec2 9F       		.byte	0x9f
 6184 0ec3 14000000 		.4byte	.LVL252
 6185 0ec7 22000000 		.4byte	.LVL255
 6186 0ecb 0200     		.2byte	0x2
 6187 0ecd 34       		.byte	0x34
 6188 0ece 9F       		.byte	0x9f
 6189 0ecf 22000000 		.4byte	.LVL255
 6190 0ed3 28000000 		.4byte	.LVL256
 6191 0ed7 0200     		.2byte	0x2
 6192 0ed9 35       		.byte	0x35
 6193 0eda 9F       		.byte	0x9f
 6194 0edb 28000000 		.4byte	.LVL256
 6195 0edf 36000000 		.4byte	.LVL258
 6196 0ee3 0200     		.2byte	0x2
 6197 0ee5 36       		.byte	0x36
 6198 0ee6 9F       		.byte	0x9f
 6199 0ee7 36000000 		.4byte	.LVL258
 6200 0eeb 3C000000 		.4byte	.LVL259
 6201 0eef 0200     		.2byte	0x2
 6202 0ef1 37       		.byte	0x37
 6203 0ef2 9F       		.byte	0x9f
 6204 0ef3 3C000000 		.4byte	.LVL259
 6205 0ef7 4A000000 		.4byte	.LVL261
 6206 0efb 0200     		.2byte	0x2
 6207 0efd 38       		.byte	0x38
 6208 0efe 9F       		.byte	0x9f
 6209 0eff 4A000000 		.4byte	.LVL261
 6210 0f03 50000000 		.4byte	.LVL262
 6211 0f07 0200     		.2byte	0x2
 6212 0f09 39       		.byte	0x39
 6213 0f0a 9F       		.byte	0x9f
 6214 0f0b 50000000 		.4byte	.LVL262
 6215 0f0f 5E000000 		.4byte	.LVL264
 6216 0f13 0200     		.2byte	0x2
 6217 0f15 3A       		.byte	0x3a
 6218 0f16 9F       		.byte	0x9f
 6219 0f17 5E000000 		.4byte	.LVL264
 6220 0f1b 64000000 		.4byte	.LVL265
 6221 0f1f 0200     		.2byte	0x2
 6222 0f21 3B       		.byte	0x3b
 6223 0f22 9F       		.byte	0x9f
 6224 0f23 64000000 		.4byte	.LVL265
 6225 0f27 72000000 		.4byte	.LVL267
 6226 0f2b 0200     		.2byte	0x2
 6227 0f2d 3C       		.byte	0x3c
 6228 0f2e 9F       		.byte	0x9f
 6229 0f2f 72000000 		.4byte	.LVL267
ARM GAS  C:\Users\pxc\AppData\Local\Temp\cc2eOiEg.s 			page 123


 6230 0f33 78000000 		.4byte	.LVL268
 6231 0f37 0200     		.2byte	0x2
 6232 0f39 3D       		.byte	0x3d
 6233 0f3a 9F       		.byte	0x9f
 6234 0f3b 78000000 		.4byte	.LVL268
 6235 0f3f 86000000 		.4byte	.LVL270
 6236 0f43 0200     		.2byte	0x2
 6237 0f45 3E       		.byte	0x3e
 6238 0f46 9F       		.byte	0x9f
 6239 0f47 86000000 		.4byte	.LVL270
 6240 0f4b 8C000000 		.4byte	.LVL271
 6241 0f4f 0200     		.2byte	0x2
 6242 0f51 3F       		.byte	0x3f
 6243 0f52 9F       		.byte	0x9f
 6244 0f53 8C000000 		.4byte	.LVL271
 6245 0f57 9A000000 		.4byte	.LVL273
 6246 0f5b 0200     		.2byte	0x2
 6247 0f5d 40       		.byte	0x40
 6248 0f5e 9F       		.byte	0x9f
 6249 0f5f 9A000000 		.4byte	.LVL273
 6250 0f63 A0000000 		.4byte	.LVL274
 6251 0f67 0200     		.2byte	0x2
 6252 0f69 41       		.byte	0x41
 6253 0f6a 9F       		.byte	0x9f
 6254 0f6b A0000000 		.4byte	.LVL274
 6255 0f6f AE000000 		.4byte	.LVL276
 6256 0f73 0200     		.2byte	0x2
 6257 0f75 42       		.byte	0x42
 6258 0f76 9F       		.byte	0x9f
 6259 0f77 AE000000 		.4byte	.LVL276
 6260 0f7b B4000000 		.4byte	.LVL277
 6261 0f7f 0200     		.2byte	0x2
 6262 0f81 43       		.byte	0x43
 6263 0f82 9F       		.byte	0x9f
 6264 0f83 B4000000 		.4byte	.LVL277
 6265 0f87 C6000000 		.4byte	.LVL280
 6266 0f8b 0200     		.2byte	0x2
 6267 0f8d 44       		.byte	0x44
 6268 0f8e 9F       		.byte	0x9f
 6269 0f8f C6000000 		.4byte	.LVL280
 6270 0f93 CC000000 		.4byte	.LVL281
 6271 0f97 0200     		.2byte	0x2
 6272 0f99 45       		.byte	0x45
 6273 0f9a 9F       		.byte	0x9f
 6274 0f9b CC000000 		.4byte	.LVL281
 6275 0f9f E8000000 		.4byte	.LVL288
 6276 0fa3 0200     		.2byte	0x2
 6277 0fa5 46       		.byte	0x46
 6278 0fa6 9F       		.byte	0x9f
 6279 0fa7 E8000000 		.4byte	.LVL288
 6280 0fab 00010000 		.4byte	.LFE74
 6281 0faf 0200     		.2byte	0x2
 6282 0fb1 47       		.byte	0x47
 6283 0fb2 9F       		.byte	0x9f
 6284 0fb3 00000000 		.4byte	0
 6285 0fb7 00000000 		.4byte	0
 6286              	.LLST71:
ARM GAS  C:\Users\pxc\AppData\Local\Temp\cc2eOiEg.s 			page 124


 6287 0fbb D2000000 		.4byte	.LVL282
 6288 0fbf D8000000 		.4byte	.LVL283
 6289 0fc3 0200     		.2byte	0x2
 6290 0fc5 30       		.byte	0x30
 6291 0fc6 9F       		.byte	0x9f
 6292 0fc7 D8000000 		.4byte	.LVL283
 6293 0fcb DE000000 		.4byte	.LVL284
 6294 0fcf 0100     		.2byte	0x1
 6295 0fd1 52       		.byte	0x52
 6296 0fd2 E0000000 		.4byte	.LVL285
 6297 0fd6 F1000000 		.4byte	.LVL289-1
 6298 0fda 0100     		.2byte	0x1
 6299 0fdc 52       		.byte	0x52
 6300 0fdd 00000000 		.4byte	0
 6301 0fe1 00000000 		.4byte	0
 6302              	.LLST72:
 6303 0fe5 D2000000 		.4byte	.LVL282
 6304 0fe9 D8000000 		.4byte	.LVL283
 6305 0fed 0200     		.2byte	0x2
 6306 0fef 30       		.byte	0x30
 6307 0ff0 9F       		.byte	0x9f
 6308 0ff1 D8000000 		.4byte	.LVL283
 6309 0ff5 E2000000 		.4byte	.LVL286
 6310 0ff9 0100     		.2byte	0x1
 6311 0ffb 53       		.byte	0x53
 6312 0ffc E4000000 		.4byte	.LVL287
 6313 1000 F1000000 		.4byte	.LVL289-1
 6314 1004 0100     		.2byte	0x1
 6315 1006 53       		.byte	0x53
 6316 1007 00000000 		.4byte	0
 6317 100b 00000000 		.4byte	0
 6318              	.LLST73:
 6319 100f 00000000 		.4byte	.LVL291
 6320 1013 90000000 		.4byte	.LVL328
 6321 1017 0100     		.2byte	0x1
 6322 1019 50       		.byte	0x50
 6323 101a 90000000 		.4byte	.LVL328
 6324 101e A0000000 		.4byte	.LFE75
 6325 1022 0400     		.2byte	0x4
 6326 1024 F3       		.byte	0xf3
 6327 1025 01       		.uleb128 0x1
 6328 1026 50       		.byte	0x50
 6329 1027 9F       		.byte	0x9f
 6330 1028 00000000 		.4byte	0
 6331 102c 00000000 		.4byte	0
 6332              	.LLST74:
 6333 1030 02000000 		.4byte	.LVL292
 6334 1034 08000000 		.4byte	.LVL293
 6335 1038 0200     		.2byte	0x2
 6336 103a 31       		.byte	0x31
 6337 103b 9F       		.byte	0x9f
 6338 103c 08000000 		.4byte	.LVL293
 6339 1040 0A000000 		.4byte	.LVL294
 6340 1044 0200     		.2byte	0x2
 6341 1046 32       		.byte	0x32
 6342 1047 9F       		.byte	0x9f
 6343 1048 0A000000 		.4byte	.LVL294
ARM GAS  C:\Users\pxc\AppData\Local\Temp\cc2eOiEg.s 			page 125


 6344 104c 0E000000 		.4byte	.LVL295
 6345 1050 0200     		.2byte	0x2
 6346 1052 33       		.byte	0x33
 6347 1053 9F       		.byte	0x9f
 6348 1054 0E000000 		.4byte	.LVL295
 6349 1058 12000000 		.4byte	.LVL296
 6350 105c 0200     		.2byte	0x2
 6351 105e 34       		.byte	0x34
 6352 105f 9F       		.byte	0x9f
 6353 1060 12000000 		.4byte	.LVL296
 6354 1064 16000000 		.4byte	.LVL297
 6355 1068 0200     		.2byte	0x2
 6356 106a 35       		.byte	0x35
 6357 106b 9F       		.byte	0x9f
 6358 106c 16000000 		.4byte	.LVL297
 6359 1070 1A000000 		.4byte	.LVL298
 6360 1074 0200     		.2byte	0x2
 6361 1076 36       		.byte	0x36
 6362 1077 9F       		.byte	0x9f
 6363 1078 1A000000 		.4byte	.LVL298
 6364 107c 1E000000 		.4byte	.LVL299
 6365 1080 0200     		.2byte	0x2
 6366 1082 37       		.byte	0x37
 6367 1083 9F       		.byte	0x9f
 6368 1084 1E000000 		.4byte	.LVL299
 6369 1088 22000000 		.4byte	.LVL300
 6370 108c 0200     		.2byte	0x2
 6371 108e 38       		.byte	0x38
 6372 108f 9F       		.byte	0x9f
 6373 1090 22000000 		.4byte	.LVL300
 6374 1094 26000000 		.4byte	.LVL301
 6375 1098 0200     		.2byte	0x2
 6376 109a 39       		.byte	0x39
 6377 109b 9F       		.byte	0x9f
 6378 109c 26000000 		.4byte	.LVL301
 6379 10a0 2A000000 		.4byte	.LVL302
 6380 10a4 0200     		.2byte	0x2
 6381 10a6 3A       		.byte	0x3a
 6382 10a7 9F       		.byte	0x9f
 6383 10a8 2A000000 		.4byte	.LVL302
 6384 10ac 2E000000 		.4byte	.LVL303
 6385 10b0 0200     		.2byte	0x2
 6386 10b2 3B       		.byte	0x3b
 6387 10b3 9F       		.byte	0x9f
 6388 10b4 2E000000 		.4byte	.LVL303
 6389 10b8 32000000 		.4byte	.LVL304
 6390 10bc 0200     		.2byte	0x2
 6391 10be 3C       		.byte	0x3c
 6392 10bf 9F       		.byte	0x9f
 6393 10c0 32000000 		.4byte	.LVL304
 6394 10c4 36000000 		.4byte	.LVL305
 6395 10c8 0200     		.2byte	0x2
 6396 10ca 3D       		.byte	0x3d
 6397 10cb 9F       		.byte	0x9f
 6398 10cc 36000000 		.4byte	.LVL305
 6399 10d0 3A000000 		.4byte	.LVL306
 6400 10d4 0200     		.2byte	0x2
ARM GAS  C:\Users\pxc\AppData\Local\Temp\cc2eOiEg.s 			page 126


 6401 10d6 3E       		.byte	0x3e
 6402 10d7 9F       		.byte	0x9f
 6403 10d8 3A000000 		.4byte	.LVL306
 6404 10dc 3E000000 		.4byte	.LVL307
 6405 10e0 0200     		.2byte	0x2
 6406 10e2 3F       		.byte	0x3f
 6407 10e3 9F       		.byte	0x9f
 6408 10e4 3E000000 		.4byte	.LVL307
 6409 10e8 42000000 		.4byte	.LVL308
 6410 10ec 0200     		.2byte	0x2
 6411 10ee 40       		.byte	0x40
 6412 10ef 9F       		.byte	0x9f
 6413 10f0 42000000 		.4byte	.LVL308
 6414 10f4 46000000 		.4byte	.LVL309
 6415 10f8 0200     		.2byte	0x2
 6416 10fa 41       		.byte	0x41
 6417 10fb 9F       		.byte	0x9f
 6418 10fc 46000000 		.4byte	.LVL309
 6419 1100 4A000000 		.4byte	.LVL310
 6420 1104 0200     		.2byte	0x2
 6421 1106 42       		.byte	0x42
 6422 1107 9F       		.byte	0x9f
 6423 1108 4A000000 		.4byte	.LVL310
 6424 110c 4E000000 		.4byte	.LVL311
 6425 1110 0200     		.2byte	0x2
 6426 1112 43       		.byte	0x43
 6427 1113 9F       		.byte	0x9f
 6428 1114 4E000000 		.4byte	.LVL311
 6429 1118 52000000 		.4byte	.LVL312
 6430 111c 0200     		.2byte	0x2
 6431 111e 44       		.byte	0x44
 6432 111f 9F       		.byte	0x9f
 6433 1120 52000000 		.4byte	.LVL312
 6434 1124 56000000 		.4byte	.LVL313
 6435 1128 0200     		.2byte	0x2
 6436 112a 45       		.byte	0x45
 6437 112b 9F       		.byte	0x9f
 6438 112c 56000000 		.4byte	.LVL313
 6439 1130 5A000000 		.4byte	.LVL314
 6440 1134 0200     		.2byte	0x2
 6441 1136 46       		.byte	0x46
 6442 1137 9F       		.byte	0x9f
 6443 1138 5A000000 		.4byte	.LVL314
 6444 113c 5E000000 		.4byte	.LVL315
 6445 1140 0200     		.2byte	0x2
 6446 1142 47       		.byte	0x47
 6447 1143 9F       		.byte	0x9f
 6448 1144 5E000000 		.4byte	.LVL315
 6449 1148 62000000 		.4byte	.LVL316
 6450 114c 0200     		.2byte	0x2
 6451 114e 48       		.byte	0x48
 6452 114f 9F       		.byte	0x9f
 6453 1150 62000000 		.4byte	.LVL316
 6454 1154 66000000 		.4byte	.LVL317
 6455 1158 0200     		.2byte	0x2
 6456 115a 49       		.byte	0x49
 6457 115b 9F       		.byte	0x9f
ARM GAS  C:\Users\pxc\AppData\Local\Temp\cc2eOiEg.s 			page 127


 6458 115c 66000000 		.4byte	.LVL317
 6459 1160 6A000000 		.4byte	.LVL318
 6460 1164 0200     		.2byte	0x2
 6461 1166 4A       		.byte	0x4a
 6462 1167 9F       		.byte	0x9f
 6463 1168 6A000000 		.4byte	.LVL318
 6464 116c 6E000000 		.4byte	.LVL319
 6465 1170 0200     		.2byte	0x2
 6466 1172 4B       		.byte	0x4b
 6467 1173 9F       		.byte	0x9f
 6468 1174 6E000000 		.4byte	.LVL319
 6469 1178 72000000 		.4byte	.LVL320
 6470 117c 0200     		.2byte	0x2
 6471 117e 4C       		.byte	0x4c
 6472 117f 9F       		.byte	0x9f
 6473 1180 72000000 		.4byte	.LVL320
 6474 1184 8E000000 		.4byte	.LVL327
 6475 1188 0200     		.2byte	0x2
 6476 118a 4D       		.byte	0x4d
 6477 118b 9F       		.byte	0x9f
 6478 118c 8E000000 		.4byte	.LVL327
 6479 1190 A0000000 		.4byte	.LFE75
 6480 1194 0200     		.2byte	0x2
 6481 1196 4E       		.byte	0x4e
 6482 1197 9F       		.byte	0x9f
 6483 1198 00000000 		.4byte	0
 6484 119c 00000000 		.4byte	0
 6485              	.LLST75:
 6486 11a0 7A000000 		.4byte	.LVL321
 6487 11a4 7E000000 		.4byte	.LVL322
 6488 11a8 0200     		.2byte	0x2
 6489 11aa 30       		.byte	0x30
 6490 11ab 9F       		.byte	0x9f
 6491 11ac 7E000000 		.4byte	.LVL322
 6492 11b0 84000000 		.4byte	.LVL323
 6493 11b4 0100     		.2byte	0x1
 6494 11b6 52       		.byte	0x52
 6495 11b7 86000000 		.4byte	.LVL324
 6496 11bb 97000000 		.4byte	.LVL329-1
 6497 11bf 0100     		.2byte	0x1
 6498 11c1 52       		.byte	0x52
 6499 11c2 00000000 		.4byte	0
 6500 11c6 00000000 		.4byte	0
 6501              	.LLST76:
 6502 11ca 7A000000 		.4byte	.LVL321
 6503 11ce 7E000000 		.4byte	.LVL322
 6504 11d2 0200     		.2byte	0x2
 6505 11d4 30       		.byte	0x30
 6506 11d5 9F       		.byte	0x9f
 6507 11d6 7E000000 		.4byte	.LVL322
 6508 11da 88000000 		.4byte	.LVL325
 6509 11de 0100     		.2byte	0x1
 6510 11e0 53       		.byte	0x53
 6511 11e1 8A000000 		.4byte	.LVL326
 6512 11e5 97000000 		.4byte	.LVL329-1
 6513 11e9 0100     		.2byte	0x1
 6514 11eb 53       		.byte	0x53
ARM GAS  C:\Users\pxc\AppData\Local\Temp\cc2eOiEg.s 			page 128


 6515 11ec 00000000 		.4byte	0
 6516 11f0 00000000 		.4byte	0
 6517              	.LLST77:
 6518 11f4 00000000 		.4byte	.LVL330
 6519 11f8 2B000000 		.4byte	.LVL338-1
 6520 11fc 0100     		.2byte	0x1
 6521 11fe 50       		.byte	0x50
 6522 11ff 2B000000 		.4byte	.LVL338-1
 6523 1203 2E000000 		.4byte	.LFE76
 6524 1207 0400     		.2byte	0x4
 6525 1209 F3       		.byte	0xf3
 6526 120a 01       		.uleb128 0x1
 6527 120b 50       		.byte	0x50
 6528 120c 9F       		.byte	0x9f
 6529 120d 00000000 		.4byte	0
 6530 1211 00000000 		.4byte	0
 6531              	.LLST78:
 6532 1215 10000000 		.4byte	.LVL332
 6533 1219 14000000 		.4byte	.LVL333
 6534 121d 0200     		.2byte	0x2
 6535 121f 30       		.byte	0x30
 6536 1220 9F       		.byte	0x9f
 6537 1221 14000000 		.4byte	.LVL333
 6538 1225 18000000 		.4byte	.LVL334
 6539 1229 0100     		.2byte	0x1
 6540 122b 52       		.byte	0x52
 6541 122c 1A000000 		.4byte	.LVL335
 6542 1230 2B000000 		.4byte	.LVL338-1
 6543 1234 0100     		.2byte	0x1
 6544 1236 52       		.byte	0x52
 6545 1237 00000000 		.4byte	0
 6546 123b 00000000 		.4byte	0
 6547              	.LLST79:
 6548 123f 10000000 		.4byte	.LVL332
 6549 1243 14000000 		.4byte	.LVL333
 6550 1247 0200     		.2byte	0x2
 6551 1249 30       		.byte	0x30
 6552 124a 9F       		.byte	0x9f
 6553 124b 14000000 		.4byte	.LVL333
 6554 124f 1C000000 		.4byte	.LVL336
 6555 1253 0100     		.2byte	0x1
 6556 1255 53       		.byte	0x53
 6557 1256 1E000000 		.4byte	.LVL337
 6558 125a 2B000000 		.4byte	.LVL338-1
 6559 125e 0100     		.2byte	0x1
 6560 1260 53       		.byte	0x53
 6561 1261 00000000 		.4byte	0
 6562 1265 00000000 		.4byte	0
 6563              		.section	.debug_aranges,"",%progbits
 6564 0000 84000000 		.4byte	0x84
 6565 0004 0200     		.2byte	0x2
 6566 0006 00000000 		.4byte	.Ldebug_info0
 6567 000a 04       		.byte	0x4
 6568 000b 00       		.byte	0
 6569 000c 0000     		.2byte	0
 6570 000e 0000     		.2byte	0
 6571 0010 00000000 		.4byte	.LFB64
ARM GAS  C:\Users\pxc\AppData\Local\Temp\cc2eOiEg.s 			page 129


 6572 0014 08000000 		.4byte	.LFE64-.LFB64
 6573 0018 00000000 		.4byte	.LFB65
 6574 001c 3C000000 		.4byte	.LFE65-.LFB65
 6575 0020 00000000 		.4byte	.LFB67
 6576 0024 B0010000 		.4byte	.LFE67-.LFB67
 6577 0028 00000000 		.4byte	.LFB66
 6578 002c AC000000 		.4byte	.LFE66-.LFB66
 6579 0030 00000000 		.4byte	.LFB68
 6580 0034 70000000 		.4byte	.LFE68-.LFB68
 6581 0038 00000000 		.4byte	.LFB69
 6582 003c 5C000000 		.4byte	.LFE69-.LFB69
 6583 0040 00000000 		.4byte	.LFB70
 6584 0044 B8000000 		.4byte	.LFE70-.LFB70
 6585 0048 00000000 		.4byte	.LFB71
 6586 004c 50000000 		.4byte	.LFE71-.LFB71
 6587 0050 00000000 		.4byte	.LFB72
 6588 0054 4C000000 		.4byte	.LFE72-.LFB72
 6589 0058 00000000 		.4byte	.LFB63
 6590 005c 04020000 		.4byte	.LFE63-.LFB63
 6591 0060 00000000 		.4byte	.LFB73
 6592 0064 98000000 		.4byte	.LFE73-.LFB73
 6593 0068 00000000 		.4byte	.LFB74
 6594 006c 00010000 		.4byte	.LFE74-.LFB74
 6595 0070 00000000 		.4byte	.LFB75
 6596 0074 A0000000 		.4byte	.LFE75-.LFB75
 6597 0078 00000000 		.4byte	.LFB76
 6598 007c 2E000000 		.4byte	.LFE76-.LFB76
 6599 0080 00000000 		.4byte	0
 6600 0084 00000000 		.4byte	0
 6601              		.section	.debug_ranges,"",%progbits
 6602              	.Ldebug_ranges0:
 6603 0000 00000000 		.4byte	.LFB64
 6604 0004 08000000 		.4byte	.LFE64
 6605 0008 00000000 		.4byte	.LFB65
 6606 000c 3C000000 		.4byte	.LFE65
 6607 0010 00000000 		.4byte	.LFB67
 6608 0014 B0010000 		.4byte	.LFE67
 6609 0018 00000000 		.4byte	.LFB66
 6610 001c AC000000 		.4byte	.LFE66
 6611 0020 00000000 		.4byte	.LFB68
 6612 0024 70000000 		.4byte	.LFE68
 6613 0028 00000000 		.4byte	.LFB69
 6614 002c 5C000000 		.4byte	.LFE69
 6615 0030 00000000 		.4byte	.LFB70
 6616 0034 B8000000 		.4byte	.LFE70
 6617 0038 00000000 		.4byte	.LFB71
 6618 003c 50000000 		.4byte	.LFE71
 6619 0040 00000000 		.4byte	.LFB72
 6620 0044 4C000000 		.4byte	.LFE72
 6621 0048 00000000 		.4byte	.LFB63
 6622 004c 04020000 		.4byte	.LFE63
 6623 0050 00000000 		.4byte	.LFB73
 6624 0054 98000000 		.4byte	.LFE73
 6625 0058 00000000 		.4byte	.LFB74
 6626 005c 00010000 		.4byte	.LFE74
 6627 0060 00000000 		.4byte	.LFB75
 6628 0064 A0000000 		.4byte	.LFE75
ARM GAS  C:\Users\pxc\AppData\Local\Temp\cc2eOiEg.s 			page 130


 6629 0068 00000000 		.4byte	.LFB76
 6630 006c 2E000000 		.4byte	.LFE76
 6631 0070 00000000 		.4byte	0
 6632 0074 00000000 		.4byte	0
 6633              		.section	.debug_line,"",%progbits
 6634              	.Ldebug_line0:
 6635 0000 ED040000 		.section	.debug_str,"MS",%progbits,1
 6635      0200D101 
 6635      00000201 
 6635      FB0E0D00 
 6635      01010101 
 6636              	.LASF24:
 6637 0000 55505F52 		.ascii	"UP_RIGHT\000"
 6637      49474854 
 6637      00
 6638              	.LASF49:
 6639 0009 7365745F 		.ascii	"set_car_speed\000"
 6639      6361725F 
 6639      73706565 
 6639      6400
 6640              	.LASF27:
 6641 0017 53544F50 		.ascii	"STOP\000"
 6641      00
 6642              	.LASF147:
 6643 001c 55415254 		.ascii	"UART_net_PutArray\000"
 6643      5F6E6574 
 6643      5F507574 
 6643      41727261 
 6643      7900
 6644              	.LASF161:
 6645 002e 50574D5F 		.ascii	"PWM_LED_4_WritePeriod\000"
 6645      4C45445F 
 6645      345F5772 
 6645      69746550 
 6645      6572696F 
 6646              	.LASF55:
 6647 0044 73746565 		.ascii	"steering_set_positon1\000"
 6647      72696E67 
 6647      5F736574 
 6647      5F706F73 
 6647      69746F6E 
 6648              	.LASF108:
 6649 005a 6361725F 		.ascii	"car_speed\000"
 6649      73706565 
 6649      6400
 6650              	.LASF41:
 6651 0064 68617264 		.ascii	"hardware_ver\000"
 6651      77617265 
 6651      5F766572 
 6651      00
 6652              	.LASF9:
 6653 0071 756E7369 		.ascii	"unsigned int\000"
 6653      676E6564 
 6653      20696E74 
 6653      00
 6654              	.LASF38:
 6655 007e 6361725F 		.ascii	"car_runing_time\000"
ARM GAS  C:\Users\pxc\AppData\Local\Temp\cc2eOiEg.s 			page 131


 6655      72756E69 
 6655      6E675F74 
 6655      696D6500 
 6656              	.LASF110:
 6657 008e 5F74656D 		.ascii	"_temp\000"
 6657      7000
 6658              	.LASF89:
 6659 0094 68656164 		.ascii	"head\000"
 6659      00
 6660              	.LASF10:
 6661 0099 5F5F696E 		.ascii	"__int32_t\000"
 6661      7433325F 
 6661      7400
 6662              	.LASF15:
 6663 00a3 696E7431 		.ascii	"int16\000"
 6663      3600
 6664              	.LASF118:
 6665 00a9 445F766F 		.ascii	"D_votage\000"
 6665      74616765 
 6665      00
 6666              	.LASF85:
 6667 00b2 70697463 		.ascii	"pitch\000"
 6667      6800
 6668              	.LASF116:
 6669 00b8 44545F53 		.ascii	"DT_Send_Power\000"
 6669      656E645F 
 6669      506F7765 
 6669      7200
 6670              	.LASF107:
 6671 00c6 6361725F 		.ascii	"car_dir\000"
 6671      64697200 
 6672              	.LASF122:
 6673 00ce 74656D70 		.ascii	"temp_yaw\000"
 6673      5F796177 
 6673      00
 6674              	.LASF78:
 6675 00d7 64745F66 		.ascii	"dt_flag_t\000"
 6675      6C61675F 
 6675      7400
 6676              	.LASF23:
 6677 00e1 55505F4C 		.ascii	"UP_LEFT\000"
 6677      45465400 
 6678              	.LASF95:
 6679 00e9 74656D70 		.ascii	"temp16\000"
 6679      313600
 6680              	.LASF148:
 6681 00f0 50574D5F 		.ascii	"PWM_LED_1_WriteCompare\000"
 6681      4C45445F 
 6681      315F5772 
 6681      69746543 
 6681      6F6D7061 
 6682              	.LASF76:
 6683 0107 73656E64 		.ascii	"send_motopwm\000"
 6683      5F6D6F74 
 6683      6F70776D 
 6683      00
 6684              	.LASF48:
ARM GAS  C:\Users\pxc\AppData\Local\Temp\cc2eOiEg.s 			page 132


 6685 0114 7072655F 		.ascii	"pre_dir\000"
 6685      64697200 
 6686              	.LASF31:
 6687 011c 464F5257 		.ascii	"FORWARD\000"
 6687      41524400 
 6688              	.LASF112:
 6689 0124 44545F53 		.ascii	"DT_Send_Senser\000"
 6689      656E645F 
 6689      53656E73 
 6689      657200
 6690              	.LASF0:
 6691 0133 666C6F61 		.ascii	"float\000"
 6691      7400
 6692              	.LASF16:
 6693 0139 696E7433 		.ascii	"int32\000"
 6693      3200
 6694              	.LASF26:
 6695 013f 444F574E 		.ascii	"DOWN_RIGHT\000"
 6695      5F524947 
 6695      485400
 6696              	.LASF142:
 6697 014a 44545F53 		.ascii	"DT_Send_Lidar\000"
 6697      656E645F 
 6697      4C696461 
 6697      7200
 6698              	.LASF8:
 6699 0158 6C6F6E67 		.ascii	"long long unsigned int\000"
 6699      206C6F6E 
 6699      6720756E 
 6699      7369676E 
 6699      65642069 
 6700              	.LASF157:
 6701 016f 2E5C5472 		.ascii	".\\Transfer.c\000"
 6701      616E7366 
 6701      65722E63 
 6701      00
 6702              	.LASF47:
 6703 017c 7365745F 		.ascii	"set_ptz_dir\000"
 6703      70747A5F 
 6703      64697200 
 6704              	.LASF42:
 6705 0188 736F6674 		.ascii	"software_ver\000"
 6705      77617265 
 6705      5F766572 
 6705      00
 6706              	.LASF50:
 6707 0195 6C656674 		.ascii	"left_front_wheel\000"
 6707      5F66726F 
 6707      6E745F77 
 6707      6865656C 
 6707      00
 6708              	.LASF149:
 6709 01a6 50574D5F 		.ascii	"PWM_LED_2_WriteCompare\000"
 6709      4C45445F 
 6709      325F5772 
 6709      69746543 
 6709      6F6D7061 
ARM GAS  C:\Users\pxc\AppData\Local\Temp\cc2eOiEg.s 			page 133


 6710              	.LASF159:
 6711 01bd 44545F53 		.ascii	"DT_Send_Check\000"
 6711      656E645F 
 6711      43686563 
 6711      6B00
 6712              	.LASF68:
 6713 01cb 73656E64 		.ascii	"send_pid1\000"
 6713      5F706964 
 6713      3100
 6714              	.LASF69:
 6715 01d5 73656E64 		.ascii	"send_pid2\000"
 6715      5F706964 
 6715      3200
 6716              	.LASF70:
 6717 01df 73656E64 		.ascii	"send_pid3\000"
 6717      5F706964 
 6717      3300
 6718              	.LASF29:
 6719 01e9 4341525F 		.ascii	"CAR_DIR\000"
 6719      44495200 
 6720              	.LASF72:
 6721 01f1 73656E64 		.ascii	"send_pid5\000"
 6721      5F706964 
 6721      3500
 6722              	.LASF73:
 6723 01fb 73656E64 		.ascii	"send_pid6\000"
 6723      5F706964 
 6723      3600
 6724              	.LASF136:
 6725 0205 70325F64 		.ascii	"p2_d\000"
 6725      00
 6726              	.LASF135:
 6727 020a 70325F69 		.ascii	"p2_i\000"
 6727      00
 6728              	.LASF106:
 6729 020f 6361725F 		.ascii	"car_lock\000"
 6729      6C6F636B 
 6729      00
 6730              	.LASF143:
 6731 0218 49544D5F 		.ascii	"ITM_RxBuffer\000"
 6731      52784275 
 6731      66666572 
 6731      00
 6732              	.LASF103:
 6733 0225 72756E5F 		.ascii	"run_count\000"
 6733      636F756E 
 6733      7400
 6734              	.LASF134:
 6735 022f 70325F70 		.ascii	"p2_p\000"
 6735      00
 6736              	.LASF53:
 6737 0234 72696768 		.ascii	"right_behind_wheel\000"
 6737      745F6265 
 6737      68696E64 
 6737      5F776865 
 6737      656C00
 6738              	.LASF160:
ARM GAS  C:\Users\pxc\AppData\Local\Temp\cc2eOiEg.s 			page 134


 6739 0247 50574D5F 		.ascii	"PWM_LED_1_ReadPeriod\000"
 6739      4C45445F 
 6739      315F5265 
 6739      61645065 
 6739      72696F64 
 6740              	.LASF32:
 6741 025c 52455645 		.ascii	"REVERSAL\000"
 6741      5253414C 
 6741      00
 6742              	.LASF119:
 6743 0265 44545F44 		.ascii	"DT_Data_Exchange\000"
 6743      6174615F 
 6743      45786368 
 6743      616E6765 
 6743      00
 6744              	.LASF58:
 6745 0276 68656172 		.ascii	"hearting\000"
 6745      74696E67 
 6745      00
 6746              	.LASF40:
 6747 027f 746F746F 		.ascii	"totol_run_time\000"
 6747      6C5F7275 
 6747      6E5F7469 
 6747      6D6500
 6748              	.LASF45:
 6749 028e 6572726F 		.ascii	"error\000"
 6749      7200
 6750              	.LASF90:
 6751 0294 63686563 		.ascii	"check_sum\000"
 6751      6B5F7375 
 6751      6D00
 6752              	.LASF123:
 6753 029e 73656E73 		.ascii	"senser_cnt\000"
 6753      65725F63 
 6753      6E7400
 6754              	.LASF65:
 6755 02a9 73656E64 		.ascii	"send_version\000"
 6755      5F766572 
 6755      73696F6E 
 6755      00
 6756              	.LASF87:
 6757 02b6 64617461 		.ascii	"dataToSend\000"
 6757      546F5365 
 6757      6E6400
 6758              	.LASF18:
 6759 02c1 63686172 		.ascii	"char\000"
 6759      00
 6760              	.LASF117:
 6761 02c6 435F766F 		.ascii	"C_votage\000"
 6761      74616765 
 6761      00
 6762              	.LASF98:
 6763 02cf 52784275 		.ascii	"RxBuffer\000"
 6763      66666572 
 6763      00
 6764              	.LASF82:
 6765 02d8 6779725F 		.ascii	"gyr_x\000"
ARM GAS  C:\Users\pxc\AppData\Local\Temp\cc2eOiEg.s 			page 135


 6765      7800
 6766              	.LASF83:
 6767 02de 6779725F 		.ascii	"gyr_y\000"
 6767      7900
 6768              	.LASF84:
 6769 02e4 6779725F 		.ascii	"gyr_z\000"
 6769      7A00
 6770              	.LASF13:
 6771 02ea 75696E74 		.ascii	"uint16\000"
 6771      313600
 6772              	.LASF97:
 6773 02f1 64617461 		.ascii	"data\000"
 6773      00
 6774              	.LASF113:
 6775 02f6 44545F53 		.ascii	"DT_Send_Distance\000"
 6775      656E645F 
 6775      44697374 
 6775      616E6365 
 6775      00
 6776              	.LASF35:
 6777 0307 4E554C4C 		.ascii	"NULL_S\000"
 6777      5F5300
 6778              	.LASF86:
 6779 030e 726F6C6C 		.ascii	"roll\000"
 6779      00
 6780              	.LASF111:
 6781 0313 5F74656D 		.ascii	"_temp1\000"
 6781      703100
 6782              	.LASF21:
 6783 031a 4C454654 		.ascii	"LEFT\000"
 6783      00
 6784              	.LASF22:
 6785 031f 52494748 		.ascii	"RIGHT\000"
 6785      5400
 6786              	.LASF34:
 6787 0325 535F5748 		.ascii	"S_WHEEL\000"
 6787      45454C00 
 6788              	.LASF33:
 6789 032d 57484545 		.ascii	"WHEEL_STOP\000"
 6789      4C5F5354 
 6789      4F5000
 6790              	.LASF128:
 6791 0338 44545F53 		.ascii	"DT_Send_MotoPWM\000"
 6791      656E645F 
 6791      4D6F746F 
 6791      50574D00 
 6792              	.LASF99:
 6793 0348 5F646174 		.ascii	"_data_len\000"
 6793      615F6C65 
 6793      6E00
 6794              	.LASF39:
 6795 0352 6C617374 		.ascii	"last_run_time\000"
 6795      5F72756E 
 6795      5F74696D 
 6795      6500
 6796              	.LASF7:
 6797 0360 6C6F6E67 		.ascii	"long long int\000"
ARM GAS  C:\Users\pxc\AppData\Local\Temp\cc2eOiEg.s 			page 136


 6797      206C6F6E 
 6797      6720696E 
 6797      7400
 6798              	.LASF100:
 6799 036e 5F646174 		.ascii	"_data_cnt\000"
 6799      615F636E 
 6799      7400
 6800              	.LASF141:
 6801 0378 74656D70 		.ascii	"temp_nodebuf\000"
 6801      5F6E6F64 
 6801      65627566 
 6801      00
 6802              	.LASF155:
 6803 0385 50574D5F 		.ascii	"PWM_LED_3_WritePeriod\000"
 6803      4C45445F 
 6803      335F5772 
 6803      69746550 
 6803      6572696F 
 6804              	.LASF75:
 6805 039b 73656E64 		.ascii	"send_offset\000"
 6805      5F6F6666 
 6805      73657400 
 6806              	.LASF14:
 6807 03a7 75696E74 		.ascii	"uint32\000"
 6807      333200
 6808              	.LASF96:
 6809 03ae 44545F44 		.ascii	"DT_Data_Receive_Prepare\000"
 6809      6174615F 
 6809      52656365 
 6809      6976655F 
 6809      50726570 
 6810              	.LASF115:
 6811 03c6 6261636B 		.ascii	"back_distance\000"
 6811      5F646973 
 6811      74616E63 
 6811      6500
 6812              	.LASF153:
 6813 03d4 50574D5F 		.ascii	"PWM_LED_1_WritePeriod\000"
 6813      4C45445F 
 6813      315F5772 
 6813      69746550 
 6813      6572696F 
 6814              	.LASF30:
 6815 03ea 57484545 		.ascii	"WHEEL_DIR\000"
 6815      4C5F4449 
 6815      5200
 6816              	.LASF150:
 6817 03f4 50574D5F 		.ascii	"PWM_LED_3_WriteCompare\000"
 6817      4C45445F 
 6817      335F5772 
 6817      69746543 
 6817      6F6D7061 
 6818              	.LASF77:
 6819 040b 73656E64 		.ascii	"send_power\000"
 6819      5F706F77 
 6819      657200
 6820              	.LASF61:
ARM GAS  C:\Users\pxc\AppData\Local\Temp\cc2eOiEg.s 			page 137


 6821 0416 6D656173 		.ascii	"measure_distance_flag\000"
 6821      7572655F 
 6821      64697374 
 6821      616E6365 
 6821      5F666C61 
 6822              	.LASF52:
 6823 042c 72696768 		.ascii	"right_front_wheel\000"
 6823      745F6672 
 6823      6F6E745F 
 6823      77686565 
 6823      6C00
 6824              	.LASF36:
 6825 043e 746F746F 		.ascii	"totol_run_count\000"
 6825      6C5F7275 
 6825      6E5F636F 
 6825      756E7400 
 6826              	.LASF127:
 6827 044e 706F7765 		.ascii	"power_cnt\000"
 6827      725F636E 
 6827      7400
 6828              	.LASF109:
 6829 0458 6361725F 		.ascii	"car_pull\000"
 6829      70756C6C 
 6829      00
 6830              	.LASF59:
 6831 0461 64697374 		.ascii	"distance_front\000"
 6831      616E6365 
 6831      5F66726F 
 6831      6E7400
 6832              	.LASF130:
 6833 0470 67726F75 		.ascii	"group\000"
 6833      7000
 6834              	.LASF152:
 6835 0476 4348414E 		.ascii	"CHANGE_PWR_Write\000"
 6835      47455F50 
 6835      57525F57 
 6835      72697465 
 6835      00
 6836              	.LASF66:
 6837 0487 73656E64 		.ascii	"send_status\000"
 6837      5F737461 
 6837      74757300 
 6838              	.LASF3:
 6839 0493 73686F72 		.ascii	"short int\000"
 6839      7420696E 
 6839      7400
 6840              	.LASF5:
 6841 049d 6C6F6E67 		.ascii	"long int\000"
 6841      20696E74 
 6841      00
 6842              	.LASF67:
 6843 04a6 73656E64 		.ascii	"send_senser\000"
 6843      5F73656E 
 6843      73657200 
 6844              	.LASF88:
 6845 04b2 6C656E67 		.ascii	"length\000"
 6845      746800
ARM GAS  C:\Users\pxc\AppData\Local\Temp\cc2eOiEg.s 			page 138


 6846              	.LASF94:
 6847 04b9 74656D70 		.ascii	"temp\000"
 6847      00
 6848              	.LASF114:
 6849 04be 66726F6E 		.ascii	"front_distance\000"
 6849      745F6469 
 6849      7374616E 
 6849      636500
 6850              	.LASF93:
 6851 04cd 64617461 		.ascii	"data_buf\000"
 6851      5F627566 
 6851      00
 6852              	.LASF25:
 6853 04d6 444F574E 		.ascii	"DOWN_LEFT\000"
 6853      5F4C4546 
 6853      5400
 6854              	.LASF139:
 6855 04e0 70335F64 		.ascii	"p3_d\000"
 6855      00
 6856              	.LASF138:
 6857 04e5 70335F69 		.ascii	"p3_i\000"
 6857      00
 6858              	.LASF92:
 6859 04ea 44545F44 		.ascii	"DT_Data_Receive_Anl\000"
 6859      6174615F 
 6859      52656365 
 6859      6976655F 
 6859      416E6C00 
 6860              	.LASF126:
 6861 04fe 6D6F746F 		.ascii	"motopwm_cnt\000"
 6861      70776D5F 
 6861      636E7400 
 6862              	.LASF137:
 6863 050a 70335F70 		.ascii	"p3_p\000"
 6863      00
 6864              	.LASF64:
 6865 050f 535F4341 		.ascii	"S_CAR\000"
 6865      5200
 6866              	.LASF91:
 6867 0515 44545F53 		.ascii	"DT_Send_Data\000"
 6867      656E645F 
 6867      44617461 
 6867      00
 6868              	.LASF44:
 6869 0522 4361725F 		.ascii	"Car_lock\000"
 6869      6C6F636B 
 6869      00
 6870              	.LASF46:
 6871 052b 7365745F 		.ascii	"set_dir\000"
 6871      64697200 
 6872              	.LASF19:
 6873 0533 73697A65 		.ascii	"sizetype\000"
 6873      74797065 
 6873      00
 6874              	.LASF43:
 6875 053c 535F5359 		.ascii	"S_SYSTEMINFO\000"
 6875      5354454D 
ARM GAS  C:\Users\pxc\AppData\Local\Temp\cc2eOiEg.s 			page 139


 6875      494E464F 
 6875      00
 6876              	.LASF6:
 6877 0549 6C6F6E67 		.ascii	"long unsigned int\000"
 6877      20756E73 
 6877      69676E65 
 6877      6420696E 
 6877      7400
 6878              	.LASF151:
 6879 055b 50574D5F 		.ascii	"PWM_LED_4_WriteCompare\000"
 6879      4C45445F 
 6879      345F5772 
 6879      69746543 
 6879      6F6D7061 
 6880              	.LASF140:
 6881 0572 44545F53 		.ascii	"DT_Send_Lidar_normal\000"
 6881      656E645F 
 6881      4C696461 
 6881      725F6E6F 
 6881      726D616C 
 6882              	.LASF60:
 6883 0587 64697374 		.ascii	"distance_back\000"
 6883      616E6365 
 6883      5F626163 
 6883      6B00
 6884              	.LASF74:
 6885 0595 73656E64 		.ascii	"send_distance\000"
 6885      5F646973 
 6885      74616E63 
 6885      6500
 6886              	.LASF11:
 6887 05a3 696E7433 		.ascii	"int32_t\000"
 6887      325F7400 
 6888              	.LASF63:
 6889 05ab 73797374 		.ascii	"systeminfo\000"
 6889      656D696E 
 6889      666F00
 6890              	.LASF146:
 6891 05b6 64617461 		.ascii	"data_to_send\000"
 6891      5F746F5F 
 6891      73656E64 
 6891      00
 6892              	.LASF2:
 6893 05c3 756E7369 		.ascii	"unsigned char\000"
 6893      676E6564 
 6893      20636861 
 6893      7200
 6894              	.LASF158:
 6895 05d1 443A5C72 		.ascii	"D:\\robot\\git_code\\robot_car_V5\\car.cydsn\000"
 6895      6F626F74 
 6895      5C676974 
 6895      5F636F64 
 6895      655C726F 
 6896              	.LASF156:
 6897 05fa 474E5520 		.ascii	"GNU C 4.9.3 20150303 (release) [ARM/embedded-4_9-br"
 6897      4320342E 
 6897      392E3320 
ARM GAS  C:\Users\pxc\AppData\Local\Temp\cc2eOiEg.s 			page 140


 6897      32303135 
 6897      30333033 
 6898 062d 616E6368 		.ascii	"anch revision 221220] -mcpu=cortex-m3 -mthumb -g -O"
 6898      20726576 
 6898      6973696F 
 6898      6E203232 
 6898      31323230 
 6899 0660 67202D66 		.ascii	"g -ffunction-sections -ffat-lto-objects\000"
 6899      66756E63 
 6899      74696F6E 
 6899      2D736563 
 6899      74696F6E 
 6900              	.LASF57:
 6901 0688 73746565 		.ascii	"steering_set_positon2\000"
 6901      72696E67 
 6901      5F736574 
 6901      5F706F73 
 6901      69746F6E 
 6902              	.LASF124:
 6903 069e 73746174 		.ascii	"status_cnt\000"
 6903      75735F63 
 6903      6E7400
 6904              	.LASF129:
 6905 06a9 44545F53 		.ascii	"DT_Send_PID\000"
 6905      656E645F 
 6905      50494400 
 6906              	.LASF120:
 6907 06b5 74656D70 		.ascii	"temp_pitch\000"
 6907      5F706974 
 6907      636800
 6908              	.LASF37:
 6909 06c0 6375725F 		.ascii	"cur_run_time\000"
 6909      72756E5F 
 6909      74696D65 
 6909      00
 6910              	.LASF62:
 6911 06cd 4D5F436F 		.ascii	"M_Command\000"
 6911      6D6D616E 
 6911      6400
 6912              	.LASF28:
 6913 06d7 57414954 		.ascii	"WAIT_DIR\000"
 6913      5F444952 
 6913      00
 6914              	.LASF71:
 6915 06e0 73656E64 		.ascii	"send_pid4\000"
 6915      5F706964 
 6915      3400
 6916              	.LASF101:
 6917 06ea 73746174 		.ascii	"state\000"
 6917      6500
 6918              	.LASF79:
 6919 06f0 6163635F 		.ascii	"acc_x\000"
 6919      7800
 6920              	.LASF80:
 6921 06f6 6163635F 		.ascii	"acc_y\000"
 6921      7900
 6922              	.LASF81:
ARM GAS  C:\Users\pxc\AppData\Local\Temp\cc2eOiEg.s 			page 141


 6923 06fc 6163635F 		.ascii	"acc_z\000"
 6923      7A00
 6924              	.LASF121:
 6925 0702 746D6570 		.ascii	"tmep_roll\000"
 6925      5F726F6C 
 6925      6C00
 6926              	.LASF51:
 6927 070c 6C656674 		.ascii	"left_behind_wheel\000"
 6927      5F626568 
 6927      696E645F 
 6927      77686565 
 6927      6C00
 6928              	.LASF54:
 6929 071e 73746565 		.ascii	"steering_cur_positon1\000"
 6929      72696E67 
 6929      5F637572 
 6929      5F706F73 
 6929      69746F6E 
 6930              	.LASF56:
 6931 0734 73746565 		.ascii	"steering_cur_positon2\000"
 6931      72696E67 
 6931      5F637572 
 6931      5F706F73 
 6931      69746F6E 
 6932              	.LASF1:
 6933 074a 7369676E 		.ascii	"signed char\000"
 6933      65642063 
 6933      68617200 
 6934              	.LASF144:
 6935 0756 675F4361 		.ascii	"g_Car\000"
 6935      7200
 6936              	.LASF4:
 6937 075c 73686F72 		.ascii	"short unsigned int\000"
 6937      7420756E 
 6937      7369676E 
 6937      65642069 
 6937      6E7400
 6938              	.LASF20:
 6939 076f 444F574E 		.ascii	"DOWN\000"
 6939      00
 6940              	.LASF105:
 6941 0774 44545F53 		.ascii	"DT_Send_Status\000"
 6941      656E645F 
 6941      53746174 
 6941      757300
 6942              	.LASF145:
 6943 0783 535F494D 		.ascii	"S_IMU\000"
 6943      5500
 6944              	.LASF125:
 6945 0789 64697374 		.ascii	"distance_cnt\000"
 6945      616E6365 
 6945      5F636E74 
 6945      00
 6946              	.LASF12:
 6947 0796 75696E74 		.ascii	"uint8\000"
 6947      3800
 6948              	.LASF17:
ARM GAS  C:\Users\pxc\AppData\Local\Temp\cc2eOiEg.s 			page 142


 6949 079c 646F7562 		.ascii	"double\000"
 6949      6C6500
 6950              	.LASF133:
 6951 07a3 70315F64 		.ascii	"p1_d\000"
 6951      00
 6952              	.LASF132:
 6953 07a8 70315F69 		.ascii	"p1_i\000"
 6953      00
 6954              	.LASF131:
 6955 07ad 70315F70 		.ascii	"p1_p\000"
 6955      00
 6956              	.LASF104:
 6957 07b2 5F636E74 		.ascii	"_cnt\000"
 6957      00
 6958              	.LASF102:
 6959 07b7 44545F53 		.ascii	"DT_Send_SystemInfo\000"
 6959      656E645F 
 6959      53797374 
 6959      656D496E 
 6959      666F00
 6960              	.LASF154:
 6961 07ca 50574D5F 		.ascii	"PWM_LED_2_WritePeriod\000"
 6961      4C45445F 
 6961      325F5772 
 6961      69746550 
 6961      6572696F 
 6962              		.ident	"GCC: (GNU Tools for ARM Embedded Processors) 4.9.3 20150303 (release) [ARM/embedded-4_9-br
