ARM GAS  C:\Users\PANXIA~1\AppData\Local\Temp\cc1T2PPa.s 			page 1


   1              		.syntax unified
   2              		.cpu cortex-m3
   3              		.fpu softvfp
   4              		.eabi_attribute 20, 1
   5              		.eabi_attribute 21, 1
   6              		.eabi_attribute 23, 3
   7              		.eabi_attribute 24, 1
   8              		.eabi_attribute 25, 1
   9              		.eabi_attribute 26, 1
  10              		.eabi_attribute 30, 1
  11              		.eabi_attribute 34, 1
  12              		.eabi_attribute 18, 4
  13              		.thumb
  14              		.file	"Transfer.c"
  15              		.text
  16              	.Ltext0:
  17              		.cfi_sections	.debug_frame
  18              		.section	.text.DT_Send_Data,"ax",%progbits
  19              		.align	2
  20              		.global	DT_Send_Data
  21              		.thumb
  22              		.thumb_func
  23              		.type	DT_Send_Data, %function
  24              	DT_Send_Data:
  25              	.LFB64:
  26              		.file 1 ".\\Transfer.c"
   1:.\Transfer.c  **** #include "Transfer.h"
   2:.\Transfer.c  **** #include "car.h"
   3:.\Transfer.c  **** #include "battery.h"
   4:.\Transfer.c  **** #include "Lidar.h"
   5:.\Transfer.c  **** #include "M_thickness.h"
   6:.\Transfer.c  **** #define BYTE0(dwTemp)       ( *( (char *)(&dwTemp)	  ) )
   7:.\Transfer.c  **** #define BYTE1(dwTemp)       ( *( (char *)(&dwTemp) + 1) )
   8:.\Transfer.c  **** #define BYTE2(dwTemp)       ( *( (char *)(&dwTemp) + 2) )
   9:.\Transfer.c  **** #define BYTE3(dwTemp)       ( *( (char *)(&dwTemp) + 3) )
  10:.\Transfer.c  **** 
  11:.\Transfer.c  **** dt_flag_t f;					//需要发送数据的标志
  12:.\Transfer.c  **** uint8 data_to_send[50];     	//发送数据缓存
  13:.\Transfer.c  **** 
  14:.\Transfer.c  **** extern uint16 time_count;
  15:.\Transfer.c  **** void DT_Data_Exchange(void)
  16:.\Transfer.c  **** {
  17:.\Transfer.c  ****     static float temp_pitch;
  18:.\Transfer.c  ****     static float tmep_roll;
  19:.\Transfer.c  ****     static float temp_yaw;
  20:.\Transfer.c  ****     
  21:.\Transfer.c  **** 	static uint8 cnt = 0;
  22:.\Transfer.c  **** 	static uint8 senser_cnt 	=   5;
  23:.\Transfer.c  **** 	static uint8 status_cnt 	=   11;
  24:.\Transfer.c  **** 	static uint8 distance_cnt 	=   13;
  25:.\Transfer.c  **** 	static uint8 motopwm_cnt	=   20;
  26:.\Transfer.c  **** 	static uint8 power_cnt		=	8;
  27:.\Transfer.c  **** 	
  28:.\Transfer.c  **** 	if((cnt % senser_cnt) == (senser_cnt-1))
  29:.\Transfer.c  **** 		f.send_senser = 1;	
  30:.\Transfer.c  **** 	
  31:.\Transfer.c  **** 	if((cnt % status_cnt) == (status_cnt-1))
ARM GAS  C:\Users\PANXIA~1\AppData\Local\Temp\cc1T2PPa.s 			page 2


  32:.\Transfer.c  **** 		f.send_status = 1;	
  33:.\Transfer.c  **** 	
  34:.\Transfer.c  **** 	if((cnt % distance_cnt) == (distance_cnt-1))
  35:.\Transfer.c  **** 		f.send_distance = 1;	
  36:.\Transfer.c  **** 	
  37:.\Transfer.c  **** 	if((cnt % motopwm_cnt) == (motopwm_cnt-1))
  38:.\Transfer.c  **** 		f.send_motopwm = 1;	
  39:.\Transfer.c  ****     
  40:.\Transfer.c  **** 	if((cnt % power_cnt)   == (power_cnt-1))
  41:.\Transfer.c  **** 		f.send_power = 1;		
  42:.\Transfer.c  ****     
  43:.\Transfer.c  **** 	cnt++;
  44:.\Transfer.c  **** /////////////////////////////////////////////////////////////////////////////////////
  45:.\Transfer.c  **** 	if(f.send_version)
  46:.\Transfer.c  **** 	{
  47:.\Transfer.c  ****         
  48:.\Transfer.c  **** 		f.send_version ++;
  49:.\Transfer.c  ****         if(f.send_version == 50)
  50:.\Transfer.c  ****         {
  51:.\Transfer.c  ****             f.send_version = 0;
  52:.\Transfer.c  ****         }
  53:.\Transfer.c  **** 	    DT_Send_SystemInfo(g_Car.systeminfo.hardware_ver,g_Car.systeminfo.software_ver,g_Car.systeminf
  54:.\Transfer.c  **** 	}
  55:.\Transfer.c  **** /////////////////////////////////////////////////////////////////////////////////////
  56:.\Transfer.c  **** 	else if(f.send_status)
  57:.\Transfer.c  **** 	{
  58:.\Transfer.c  **** 		f.send_status = 0;
  59:.\Transfer.c  ****     	DT_Send_Status(0,g_Car.set_dir,g_Car.set_car_speed/10,P_V,g_Car.Xkm);
  60:.\Transfer.c  **** 	}	
  61:.\Transfer.c  **** /////////////////////////////////////////////////////////////////////////////////////
  62:.\Transfer.c  ****     else if(f.send_senser)
  63:.\Transfer.c  **** 	{
  64:.\Transfer.c  **** 		f.send_senser = 0;
  65:.\Transfer.c  ****         temp_pitch =  (S_IMU.pitch/32768.0*180);
  66:.\Transfer.c  ****         tmep_roll =   (S_IMU.roll/32768.0*180);
  67:.\Transfer.c  ****         temp_yaw   =  (S_IMU.yaw/32768.0*180);
  68:.\Transfer.c  ****       
  69:.\Transfer.c  **** 	    DT_Send_Senser(temp_pitch*1000,tmep_roll*1000,temp_yaw*1000,g_Car.M_value,g_Car.M_radix,0);
  70:.\Transfer.c  **** 	}	
  71:.\Transfer.c  **** ///////////////////////////////////////////////////////////////////////////////////////
  72:.\Transfer.c  **** 
  73:.\Transfer.c  **** /////////////////////////////////////////////////////////////////////////////////////// 
  74:.\Transfer.c  ****     else if(f.send_distance)
  75:.\Transfer.c  **** 	{
  76:.\Transfer.c  **** 	   f.send_distance = 0;
  77:.\Transfer.c  **** 	   DT_Send_Distance(g_Car.distance_front,g_Car.distance_back);
  78:.\Transfer.c  ****          
  79:.\Transfer.c  **** 	}
  80:.\Transfer.c  **** 	else if(f.send_power)
  81:.\Transfer.c  **** 	{
  82:.\Transfer.c  **** 		f.send_power = 0;
  83:.\Transfer.c  ****         DT_Send_Power(g_Car.cap,g_Car.A_V,g_Car.current,g_Car.batteryTemp);
  84:.\Transfer.c  ****         
  85:.\Transfer.c  **** 	}
  86:.\Transfer.c  **** 
  87:.\Transfer.c  **** ///////////////////////////////////////////////////////////////////////////////////////
  88:.\Transfer.c  **** 
ARM GAS  C:\Users\PANXIA~1\AppData\Local\Temp\cc1T2PPa.s 			page 3


  89:.\Transfer.c  **** }
  90:.\Transfer.c  **** 
  91:.\Transfer.c  **** /////////////////////////////////////////////////////////////////////////////////////
  92:.\Transfer.c  **** 
  93:.\Transfer.c  **** void DT_Send_Data(uint8 *dataToSend , uint8 length)
  94:.\Transfer.c  **** {
  27              		.loc 1 94 0
  28              		.cfi_startproc
  29              		@ args = 0, pretend = 0, frame = 0
  30              		@ frame_needed = 0, uses_anonymous_args = 0
  31              	.LVL0:
  32 0000 08B5     		push	{r3, lr}
  33              		.cfi_def_cfa_offset 8
  34              		.cfi_offset 3, -8
  35              		.cfi_offset 14, -4
  95:.\Transfer.c  ****     UART_net_PutArray(dataToSend,length);
  36              		.loc 1 95 0
  37 0002 FFF7FEFF 		bl	UART_net_PutArray
  38              	.LVL1:
  39 0006 08BD     		pop	{r3, pc}
  40              		.cfi_endproc
  41              	.LFE64:
  42              		.size	DT_Send_Data, .-DT_Send_Data
  43              		.section	.text.DT_Send_Check,"ax",%progbits
  44              		.align	2
  45              		.thumb
  46              		.thumb_func
  47              		.type	DT_Send_Check, %function
  48              	DT_Send_Check:
  49              	.LFB65:
  96:.\Transfer.c  **** }
  97:.\Transfer.c  **** 
  98:.\Transfer.c  **** static void DT_Send_Check(uint8 head, uint8 check_sum)
  99:.\Transfer.c  **** {
  50              		.loc 1 99 0
  51              		.cfi_startproc
  52              		@ args = 0, pretend = 0, frame = 0
  53              		@ frame_needed = 0, uses_anonymous_args = 0
  54              	.LVL2:
  55 0000 08B5     		push	{r3, lr}
  56              		.cfi_def_cfa_offset 8
  57              		.cfi_offset 3, -8
  58              		.cfi_offset 14, -4
 100:.\Transfer.c  **** 	data_to_send[0]=0xAA;
  59              		.loc 1 100 0
  60 0002 0D4B     		ldr	r3, .L7
  61 0004 AA22     		movs	r2, #170
  62 0006 1A70     		strb	r2, [r3]
 101:.\Transfer.c  **** 	data_to_send[1]=0xAA;
  63              		.loc 1 101 0
  64 0008 5A70     		strb	r2, [r3, #1]
 102:.\Transfer.c  **** 	data_to_send[2]=0xEF;
  65              		.loc 1 102 0
  66 000a EF22     		movs	r2, #239
  67 000c 9A70     		strb	r2, [r3, #2]
 103:.\Transfer.c  **** 	data_to_send[3]=2;
  68              		.loc 1 103 0
ARM GAS  C:\Users\PANXIA~1\AppData\Local\Temp\cc1T2PPa.s 			page 4


  69 000e 0222     		movs	r2, #2
  70 0010 DA70     		strb	r2, [r3, #3]
 104:.\Transfer.c  **** 	data_to_send[4]=head;
  71              		.loc 1 104 0
  72 0012 1871     		strb	r0, [r3, #4]
 105:.\Transfer.c  **** 	data_to_send[5]=check_sum;
  73              		.loc 1 105 0
  74 0014 5971     		strb	r1, [r3, #5]
  75              	.LVL3:
 106:.\Transfer.c  **** 	
 107:.\Transfer.c  **** 	
 108:.\Transfer.c  **** 	uint8 sum = 0;
 109:.\Transfer.c  ****     uint8 i=0;
 110:.\Transfer.c  **** 	for(i=0;i<6;i++)
  76              		.loc 1 110 0
  77 0016 0023     		movs	r3, #0
 108:.\Transfer.c  ****     uint8 i=0;
  78              		.loc 1 108 0
  79 0018 1A46     		mov	r2, r3
  80              		.loc 1 110 0
  81 001a 05E0     		b	.L4
  82              	.LVL4:
  83              	.L5:
 111:.\Transfer.c  **** 		sum += data_to_send[i];
  84              		.loc 1 111 0 discriminator 3
  85 001c 0649     		ldr	r1, .L7
  86 001e C95C     		ldrb	r1, [r1, r3]	@ zero_extendqisi2
  87 0020 0A44     		add	r2, r2, r1
  88              	.LVL5:
  89 0022 D2B2     		uxtb	r2, r2
  90              	.LVL6:
 110:.\Transfer.c  **** 		sum += data_to_send[i];
  91              		.loc 1 110 0 discriminator 3
  92 0024 0133     		adds	r3, r3, #1
  93              	.LVL7:
  94 0026 DBB2     		uxtb	r3, r3
  95              	.LVL8:
  96              	.L4:
 110:.\Transfer.c  **** 		sum += data_to_send[i];
  97              		.loc 1 110 0 is_stmt 0 discriminator 1
  98 0028 052B     		cmp	r3, #5
  99 002a F7D9     		bls	.L5
 112:.\Transfer.c  **** 	data_to_send[6]=sum;
 100              		.loc 1 112 0 is_stmt 1
 101 002c 0248     		ldr	r0, .L7
 102              	.LVL9:
 103 002e 8271     		strb	r2, [r0, #6]
 113:.\Transfer.c  **** 
 114:.\Transfer.c  **** 	DT_Send_Data(data_to_send, 7);
 104              		.loc 1 114 0
 105 0030 0721     		movs	r1, #7
 106 0032 FFF7FEFF 		bl	DT_Send_Data
 107              	.LVL10:
 108 0036 08BD     		pop	{r3, pc}
 109              	.L8:
 110              		.align	2
 111              	.L7:
ARM GAS  C:\Users\PANXIA~1\AppData\Local\Temp\cc1T2PPa.s 			page 5


 112 0038 00000000 		.word	data_to_send
 113              		.cfi_endproc
 114              	.LFE65:
 115              		.size	DT_Send_Check, .-DT_Send_Check
 116              		.section	.text.DT_Data_Receive_Anl,"ax",%progbits
 117              		.align	2
 118              		.global	DT_Data_Receive_Anl
 119              		.thumb
 120              		.thumb_func
 121              		.type	DT_Data_Receive_Anl, %function
 122              	DT_Data_Receive_Anl:
 123              	.LFB67:
 115:.\Transfer.c  **** }
 116:.\Transfer.c  **** 
 117:.\Transfer.c  **** void DT_Data_Receive_Prepare(uint8 data)
 118:.\Transfer.c  **** {
 119:.\Transfer.c  **** 	static uint8 RxBuffer[50];
 120:.\Transfer.c  **** 	static uint8 _data_len = 0,_data_cnt = 0;
 121:.\Transfer.c  **** 	static uint8 state = 0;
 122:.\Transfer.c  **** 	
 123:.\Transfer.c  **** 	if(state==0&&data==0xAA)
 124:.\Transfer.c  **** 	{
 125:.\Transfer.c  **** 		state=1;
 126:.\Transfer.c  **** 		RxBuffer[0]=data;
 127:.\Transfer.c  **** 	}
 128:.\Transfer.c  **** 	else if(state==1&&data==0xAF)
 129:.\Transfer.c  **** 	{
 130:.\Transfer.c  **** 		state=2;
 131:.\Transfer.c  **** 		RxBuffer[1]=data;
 132:.\Transfer.c  **** 	}
 133:.\Transfer.c  **** 	else if(state==2&&data<0XF1) //fuciton
 134:.\Transfer.c  **** 	{
 135:.\Transfer.c  **** 		state=3;
 136:.\Transfer.c  **** 		RxBuffer[2]=data;
 137:.\Transfer.c  **** 	}
 138:.\Transfer.c  **** 	else if(state==3&&data<50)   //len
 139:.\Transfer.c  **** 	{
 140:.\Transfer.c  **** 		state = 4;
 141:.\Transfer.c  **** 		RxBuffer[3]=data;
 142:.\Transfer.c  **** 		_data_len = data;
 143:.\Transfer.c  **** 		_data_cnt = 0;
 144:.\Transfer.c  **** 	}
 145:.\Transfer.c  **** 	else if(state==4&&_data_len>0)//data
 146:.\Transfer.c  **** 	{
 147:.\Transfer.c  **** 		_data_len--;
 148:.\Transfer.c  **** 		RxBuffer[4+_data_cnt++]=data;
 149:.\Transfer.c  **** 		if(_data_len==0)
 150:.\Transfer.c  **** 			state = 5;
 151:.\Transfer.c  **** 	}
 152:.\Transfer.c  **** 	else if(state==5)//sum
 153:.\Transfer.c  **** 	{
 154:.\Transfer.c  **** 		state = 0;
 155:.\Transfer.c  **** 		RxBuffer[4+_data_cnt]=data;
 156:.\Transfer.c  **** 		DT_Data_Receive_Anl(RxBuffer,_data_cnt+5);
 157:.\Transfer.c  **** 	}
 158:.\Transfer.c  **** 	else
 159:.\Transfer.c  **** 		state = 0;
ARM GAS  C:\Users\PANXIA~1\AppData\Local\Temp\cc1T2PPa.s 			page 6


 160:.\Transfer.c  ****     
 161:.\Transfer.c  **** 
 162:.\Transfer.c  **** }
 163:.\Transfer.c  **** 
 164:.\Transfer.c  **** void DT_Data_Receive_Anl(uint8 *data_buf,uint8 num)
 165:.\Transfer.c  **** {
 124              		.loc 1 165 0
 125              		.cfi_startproc
 126              		@ args = 0, pretend = 0, frame = 0
 127              		@ frame_needed = 0, uses_anonymous_args = 0
 128              	.LVL11:
 129 0000 70B5     		push	{r4, r5, r6, lr}
 130              		.cfi_def_cfa_offset 16
 131              		.cfi_offset 4, -16
 132              		.cfi_offset 5, -12
 133              		.cfi_offset 6, -8
 134              		.cfi_offset 14, -4
 135              	.LVL12:
 166:.\Transfer.c  **** 	uint8 sum = 0;
 167:.\Transfer.c  ****     uint8 temp = 0;
 168:.\Transfer.c  ****     uint16 temp16 = 0;
 169:.\Transfer.c  ****     uint8 i=0;
 170:.\Transfer.c  **** 	for( i=0;i<(num-1);i++)
 136              		.loc 1 170 0
 137 0002 0023     		movs	r3, #0
 166:.\Transfer.c  **** 	uint8 sum = 0;
 138              		.loc 1 166 0
 139 0004 1C46     		mov	r4, r3
 140              		.loc 1 170 0
 141 0006 04E0     		b	.L10
 142              	.LVL13:
 143              	.L11:
 171:.\Transfer.c  **** 		sum += *(data_buf+i);
 144              		.loc 1 171 0 discriminator 3
 145 0008 C25C     		ldrb	r2, [r0, r3]	@ zero_extendqisi2
 146 000a 2244     		add	r2, r2, r4
 147 000c D4B2     		uxtb	r4, r2
 148              	.LVL14:
 170:.\Transfer.c  **** 		sum += *(data_buf+i);
 149              		.loc 1 170 0 discriminator 3
 150 000e 0133     		adds	r3, r3, #1
 151              	.LVL15:
 152 0010 DBB2     		uxtb	r3, r3
 153              	.LVL16:
 154              	.L10:
 170:.\Transfer.c  **** 		sum += *(data_buf+i);
 155              		.loc 1 170 0 is_stmt 0 discriminator 1
 156 0012 4A1E     		subs	r2, r1, #1
 157 0014 9342     		cmp	r3, r2
 158 0016 F7DB     		blt	.L11
 172:.\Transfer.c  **** 	if(!(sum==*(data_buf+num-1)))		return;		                //判断sum
 159              		.loc 1 172 0 is_stmt 1
 160 0018 835C     		ldrb	r3, [r0, r2]	@ zero_extendqisi2
 161              	.LVL17:
 162 001a A342     		cmp	r3, r4
 163 001c 40F0EF80 		bne	.L9
 173:.\Transfer.c  **** 	if(!(*(data_buf)==0xAA && *(data_buf+1)==0xAF))		return;		//判断帧头
ARM GAS  C:\Users\PANXIA~1\AppData\Local\Temp\cc1T2PPa.s 			page 7


 164              		.loc 1 173 0
 165 0020 0378     		ldrb	r3, [r0]	@ zero_extendqisi2
 166 0022 AA2B     		cmp	r3, #170
 167 0024 40F0EB80 		bne	.L9
 168              		.loc 1 173 0 is_stmt 0 discriminator 1
 169 0028 4378     		ldrb	r3, [r0, #1]	@ zero_extendqisi2
 170 002a AF2B     		cmp	r3, #175
 171 002c 40F0E780 		bne	.L9
 174:.\Transfer.c  **** 	if(*(data_buf+2) == 0x00)
 172              		.loc 1 174 0 is_stmt 1
 173 0030 8378     		ldrb	r3, [r0, #2]	@ zero_extendqisi2
 174 0032 2BB9     		cbnz	r3, .L13
 175:.\Transfer.c  ****     {
 176:.\Transfer.c  ****        if(*(data_buf+4) == 0xAA)
 175              		.loc 1 176 0
 176 0034 0279     		ldrb	r2, [r0, #4]	@ zero_extendqisi2
 177 0036 AA2A     		cmp	r2, #170
 178 0038 02D1     		bne	.L13
 177:.\Transfer.c  ****       {
 178:.\Transfer.c  ****        f.send_version = 1;
 179              		.loc 1 178 0
 180 003a 0121     		movs	r1, #1
 181              	.LVL18:
 182 003c 704A     		ldr	r2, .L39
 183 003e 1170     		strb	r1, [r2]
 184              	.L13:
 179:.\Transfer.c  ****       }
 180:.\Transfer.c  ****     }
 181:.\Transfer.c  ****     
 182:.\Transfer.c  **** 	if(*(data_buf+2)==0X01)
 185              		.loc 1 182 0
 186 0040 012B     		cmp	r3, #1
 187 0042 02D1     		bne	.L14
 183:.\Transfer.c  **** 	{
 184:.\Transfer.c  ****        g_Car.Car_lock = *(data_buf+4);
 188              		.loc 1 184 0
 189 0044 0179     		ldrb	r1, [r0, #4]	@ zero_extendqisi2
 190 0046 6F4A     		ldr	r2, .L39+4
 191 0048 1170     		strb	r1, [r2]
 192              	.L14:
 185:.\Transfer.c  **** 	}
 186:.\Transfer.c  **** 	
 187:.\Transfer.c  **** 	if(*(data_buf+2)==0X02)
 193              		.loc 1 187 0
 194 004a 022B     		cmp	r3, #2
 195 004c 0FD1     		bne	.L15
 188:.\Transfer.c  **** 	{
 189:.\Transfer.c  ****        g_Car.set_dir = *(data_buf+4);
 196              		.loc 1 189 0
 197 004e 0379     		ldrb	r3, [r0, #4]	@ zero_extendqisi2
 198 0050 6C4A     		ldr	r2, .L39+4
 199 0052 9370     		strb	r3, [r2, #2]
 190:.\Transfer.c  ****     if(g_Car.fallback_mode == 1)
 200              		.loc 1 190 0
 201 0054 92F83820 		ldrb	r2, [r2, #56]	@ zero_extendqisi2
 202 0058 012A     		cmp	r2, #1
 203 005a 08D1     		bne	.L15
ARM GAS  C:\Users\PANXIA~1\AppData\Local\Temp\cc1T2PPa.s 			page 8


 191:.\Transfer.c  ****     {
 192:.\Transfer.c  ****         if(g_Car.set_dir == UP)
 204              		.loc 1 192 0
 205 005c 13B9     		cbnz	r3, .L16
 193:.\Transfer.c  ****         {
 194:.\Transfer.c  ****             g_Car.set_dir = DOWN;
 206              		.loc 1 194 0
 207 005e 694B     		ldr	r3, .L39+4
 208 0060 9A70     		strb	r2, [r3, #2]
 209 0062 04E0     		b	.L15
 210              	.L16:
 195:.\Transfer.c  ****         }
 196:.\Transfer.c  ****         else if (g_Car.set_dir == DOWN)
 211              		.loc 1 196 0
 212 0064 012B     		cmp	r3, #1
 213 0066 02D1     		bne	.L15
 197:.\Transfer.c  ****         {
 198:.\Transfer.c  ****             g_Car.set_dir = UP;
 214              		.loc 1 198 0
 215 0068 0022     		movs	r2, #0
 216 006a 664B     		ldr	r3, .L39+4
 217 006c 9A70     		strb	r2, [r3, #2]
 218              	.L15:
 219 006e 0546     		mov	r5, r0
 199:.\Transfer.c  ****           
 200:.\Transfer.c  ****         }
 201:.\Transfer.c  ****     }
 202:.\Transfer.c  **** 
 203:.\Transfer.c  **** 	}
 204:.\Transfer.c  ****    	if(*(data_buf+2)==0X03)
 220              		.loc 1 204 0
 221 0070 8378     		ldrb	r3, [r0, #2]	@ zero_extendqisi2
 222 0072 032B     		cmp	r3, #3
 223 0074 14D1     		bne	.L17
 205:.\Transfer.c  **** 	{
 206:.\Transfer.c  ****         g_Car.set_car_speed  = (int16)(*(data_buf+4)<<8)|*(data_buf+5)*10;
 224              		.loc 1 206 0
 225 0076 0179     		ldrb	r1, [r0, #4]	@ zero_extendqisi2
 226 0078 4279     		ldrb	r2, [r0, #5]	@ zero_extendqisi2
 227 007a 02EB8202 		add	r2, r2, r2, lsl #2
 228 007e 5300     		lsls	r3, r2, #1
 229 0080 43EA0123 		orr	r3, r3, r1, lsl #8
 230 0084 9BB2     		uxth	r3, r3
 231 0086 5F4A     		ldr	r2, .L39+4
 232 0088 D380     		strh	r3, [r2, #6]	@ movhi
 207:.\Transfer.c  ****         if(g_Car.set_car_speed > 1000)
 233              		.loc 1 207 0
 234 008a B3F57A7F 		cmp	r3, #1000
 235 008e 02D9     		bls	.L18
 208:.\Transfer.c  ****         {
 209:.\Transfer.c  ****             g_Car.set_car_speed = 0;
 236              		.loc 1 209 0
 237 0090 0022     		movs	r2, #0
 238 0092 5C4B     		ldr	r3, .L39+4
 239 0094 DA80     		strh	r2, [r3, #6]	@ movhi
 240              	.L18:
 210:.\Transfer.c  ****         }
ARM GAS  C:\Users\PANXIA~1\AppData\Local\Temp\cc1T2PPa.s 			page 9


 211:.\Transfer.c  ****          PWM_LED_1_WriteCompare(temp*(PWM_LED_1_ReadPeriod()/100));
 241              		.loc 1 211 0
 242 0096 FFF7FEFF 		bl	PWM_LED_1_ReadPeriod
 243              	.LVL19:
 244 009a 0020     		movs	r0, #0
 245 009c FFF7FEFF 		bl	PWM_LED_1_WriteCompare
 246              	.LVL20:
 247              	.L17:
 212:.\Transfer.c  ****     }
 213:.\Transfer.c  ****     if(*(data_buf+2)==0x04)
 248              		.loc 1 213 0
 249 00a0 AB78     		ldrb	r3, [r5, #2]	@ zero_extendqisi2
 250 00a2 042B     		cmp	r3, #4
 251 00a4 47D1     		bne	.L19
 214:.\Transfer.c  ****     {
 215:.\Transfer.c  ****         temp = 100-*(data_buf+4); 
 252              		.loc 1 215 0
 253 00a6 2E79     		ldrb	r6, [r5, #4]	@ zero_extendqisi2
 254 00a8 C6F16406 		rsb	r6, r6, #100
 255 00ac F6B2     		uxtb	r6, r6
 256              	.LVL21:
 216:.\Transfer.c  ****         if(temp>=100)
 257              		.loc 1 216 0
 258 00ae 632E     		cmp	r6, #99
 259 00b0 00D9     		bls	.L20
 217:.\Transfer.c  ****         {
 218:.\Transfer.c  ****             temp =100;
 260              		.loc 1 218 0
 261 00b2 6426     		movs	r6, #100
 262              	.LVL22:
 263              	.L20:
 219:.\Transfer.c  ****         }
 220:.\Transfer.c  ****         if(temp<=0)
 221:.\Transfer.c  ****         {
 222:.\Transfer.c  ****             temp=0;
 223:.\Transfer.c  ****         }
 224:.\Transfer.c  ****     //    PWM_LED_WriteCompare1(temp*100); 
 225:.\Transfer.c  ****         PWM_LED_1_WriteCompare(temp*(PWM_LED_1_ReadPeriod()/100));
 264              		.loc 1 225 0
 265 00b4 FFF7FEFF 		bl	PWM_LED_1_ReadPeriod
 266              	.LVL23:
 267 00b8 534B     		ldr	r3, .L39+8
 268 00ba A3FB0030 		umull	r3, r0, r3, r0
 269 00be 4009     		lsrs	r0, r0, #5
 270 00c0 06FB00F0 		mul	r0, r6, r0
 271 00c4 80B2     		uxth	r0, r0
 272 00c6 FFF7FEFF 		bl	PWM_LED_1_WriteCompare
 273              	.LVL24:
 226:.\Transfer.c  ****      
 227:.\Transfer.c  ****         temp = 100-*(data_buf+5); 
 274              		.loc 1 227 0
 275 00ca 6E79     		ldrb	r6, [r5, #5]	@ zero_extendqisi2
 276              	.LVL25:
 277 00cc C6F16406 		rsb	r6, r6, #100
 278 00d0 F6B2     		uxtb	r6, r6
 279              	.LVL26:
 228:.\Transfer.c  ****         if(temp>=100)
ARM GAS  C:\Users\PANXIA~1\AppData\Local\Temp\cc1T2PPa.s 			page 10


 280              		.loc 1 228 0
 281 00d2 632E     		cmp	r6, #99
 282 00d4 00D9     		bls	.L21
 229:.\Transfer.c  ****         {
 230:.\Transfer.c  ****             temp =100;
 283              		.loc 1 230 0
 284 00d6 6426     		movs	r6, #100
 285              	.LVL27:
 286              	.L21:
 231:.\Transfer.c  ****         }
 232:.\Transfer.c  ****         if(temp<=0)
 233:.\Transfer.c  ****         {
 234:.\Transfer.c  ****             temp=0;
 235:.\Transfer.c  ****         }
 236:.\Transfer.c  **** 
 237:.\Transfer.c  ****         PWM_LED_2_WriteCompare(temp*(PWM_LED_1_ReadPeriod()/100)); 
 287              		.loc 1 237 0
 288 00d8 FFF7FEFF 		bl	PWM_LED_1_ReadPeriod
 289              	.LVL28:
 290 00dc 4A4B     		ldr	r3, .L39+8
 291 00de A3FB0030 		umull	r3, r0, r3, r0
 292 00e2 4009     		lsrs	r0, r0, #5
 293 00e4 06FB00F0 		mul	r0, r6, r0
 294 00e8 80B2     		uxth	r0, r0
 295 00ea FFF7FEFF 		bl	PWM_LED_2_WriteCompare
 296              	.LVL29:
 238:.\Transfer.c  ****         temp = 100-*(data_buf+6); 
 297              		.loc 1 238 0
 298 00ee AE79     		ldrb	r6, [r5, #6]	@ zero_extendqisi2
 299              	.LVL30:
 300 00f0 C6F16406 		rsb	r6, r6, #100
 301 00f4 F6B2     		uxtb	r6, r6
 302              	.LVL31:
 239:.\Transfer.c  ****         if(temp>=100)
 303              		.loc 1 239 0
 304 00f6 632E     		cmp	r6, #99
 305 00f8 00D9     		bls	.L22
 240:.\Transfer.c  ****         {
 241:.\Transfer.c  ****             temp = 100;
 306              		.loc 1 241 0
 307 00fa 6426     		movs	r6, #100
 308              	.LVL32:
 309              	.L22:
 242:.\Transfer.c  ****         }
 243:.\Transfer.c  ****         if(temp<=0)
 244:.\Transfer.c  ****         {
 245:.\Transfer.c  ****             temp= 0;
 246:.\Transfer.c  ****         }
 247:.\Transfer.c  ****  
 248:.\Transfer.c  ****          PWM_LED_3_WriteCompare(temp*(PWM_LED_1_ReadPeriod()/100));
 310              		.loc 1 248 0
 311 00fc FFF7FEFF 		bl	PWM_LED_1_ReadPeriod
 312              	.LVL33:
 313 0100 414B     		ldr	r3, .L39+8
 314 0102 A3FB0030 		umull	r3, r0, r3, r0
 315 0106 4009     		lsrs	r0, r0, #5
 316 0108 06FB00F0 		mul	r0, r6, r0
ARM GAS  C:\Users\PANXIA~1\AppData\Local\Temp\cc1T2PPa.s 			page 11


 317 010c 80B2     		uxth	r0, r0
 318 010e FFF7FEFF 		bl	PWM_LED_3_WriteCompare
 319              	.LVL34:
 249:.\Transfer.c  ****         temp = 100-*(data_buf+7); 
 320              		.loc 1 249 0
 321 0112 EE79     		ldrb	r6, [r5, #7]	@ zero_extendqisi2
 322              	.LVL35:
 323 0114 C6F16406 		rsb	r6, r6, #100
 324 0118 F6B2     		uxtb	r6, r6
 325              	.LVL36:
 250:.\Transfer.c  ****         if(temp>=100)
 326              		.loc 1 250 0
 327 011a 632E     		cmp	r6, #99
 328 011c 00D9     		bls	.L23
 251:.\Transfer.c  ****         {
 252:.\Transfer.c  ****             temp =100;
 329              		.loc 1 252 0
 330 011e 6426     		movs	r6, #100
 331              	.LVL37:
 332              	.L23:
 253:.\Transfer.c  ****         }
 254:.\Transfer.c  ****         if(temp<=0)
 255:.\Transfer.c  ****         {
 256:.\Transfer.c  ****             temp=0;
 257:.\Transfer.c  ****         }
 258:.\Transfer.c  **** 
 259:.\Transfer.c  ****        PWM_LED_4_WriteCompare(temp*(PWM_LED_1_ReadPeriod()/100));
 333              		.loc 1 259 0
 334 0120 FFF7FEFF 		bl	PWM_LED_1_ReadPeriod
 335              	.LVL38:
 336 0124 384B     		ldr	r3, .L39+8
 337 0126 A3FB0030 		umull	r3, r0, r3, r0
 338 012a 4009     		lsrs	r0, r0, #5
 339 012c 06FB00F0 		mul	r0, r6, r0
 340 0130 80B2     		uxth	r0, r0
 341 0132 FFF7FEFF 		bl	PWM_LED_4_WriteCompare
 342              	.LVL39:
 343              	.L19:
 260:.\Transfer.c  ****     }
 261:.\Transfer.c  **** 	if(*(data_buf+2)==0X5)								
 344              		.loc 1 261 0
 345 0136 AB78     		ldrb	r3, [r5, #2]	@ zero_extendqisi2
 346 0138 052B     		cmp	r3, #5
 347 013a 02D1     		bne	.L24
 262:.\Transfer.c  ****     {
 263:.\Transfer.c  ****        g_Car.set_ptz_dir = *(data_buf+4);
 348              		.loc 1 263 0
 349 013c 2A79     		ldrb	r2, [r5, #4]	@ zero_extendqisi2
 350 013e 314B     		ldr	r3, .L39+4
 351 0140 DA70     		strb	r2, [r3, #3]
 352              	.L24:
 264:.\Transfer.c  ****     } 
 265:.\Transfer.c  ****     
 266:.\Transfer.c  ****     if(*(data_buf+2)==0X6)								
 353              		.loc 1 266 0
 354 0142 AB78     		ldrb	r3, [r5, #2]	@ zero_extendqisi2
 355 0144 062B     		cmp	r3, #6
ARM GAS  C:\Users\PANXIA~1\AppData\Local\Temp\cc1T2PPa.s 			page 12


 356 0146 09D1     		bne	.L25
 267:.\Transfer.c  ****     {	
 268:.\Transfer.c  ****       if(*(data_buf+4) == 1)
 357              		.loc 1 268 0
 358 0148 2B79     		ldrb	r3, [r5, #4]	@ zero_extendqisi2
 359 014a 012B     		cmp	r3, #1
 360 014c 03D1     		bne	.L26
 269:.\Transfer.c  ****       {
 270:.\Transfer.c  ****            CHANGE_PWR_Write(1);
 361              		.loc 1 270 0
 362 014e 0120     		movs	r0, #1
 363 0150 FFF7FEFF 		bl	CHANGE_PWR_Write
 364              	.LVL40:
 365 0154 02E0     		b	.L25
 366              	.L26:
 271:.\Transfer.c  ****       }
 272:.\Transfer.c  ****       else
 273:.\Transfer.c  ****       {
 274:.\Transfer.c  ****            CHANGE_PWR_Write(0);
 367              		.loc 1 274 0
 368 0156 0020     		movs	r0, #0
 369 0158 FFF7FEFF 		bl	CHANGE_PWR_Write
 370              	.LVL41:
 371              	.L25:
 275:.\Transfer.c  ****       }
 276:.\Transfer.c  ****     }
 277:.\Transfer.c  ****     if(*(data_buf+2)==0X7)								
 372              		.loc 1 277 0
 373 015c AB78     		ldrb	r3, [r5, #2]	@ zero_extendqisi2
 374 015e 072B     		cmp	r3, #7
 375 0160 17D1     		bne	.L27
 278:.\Transfer.c  ****     {	
 279:.\Transfer.c  ****         temp16 = (uint16)(*(data_buf+4)<<8)|*(data_buf+5);
 376              		.loc 1 279 0
 377 0162 2E79     		ldrb	r6, [r5, #4]	@ zero_extendqisi2
 378 0164 6B79     		ldrb	r3, [r5, #5]	@ zero_extendqisi2
 379 0166 43EA0626 		orr	r6, r3, r6, lsl #8
 380              	.LVL42:
 280:.\Transfer.c  ****        if(temp16 >=10000 && temp16<=60000 )
 381              		.loc 1 280 0
 382 016a A6F51C53 		sub	r3, r6, #9984
 383 016e 103B     		subs	r3, r3, #16
 384 0170 9BB2     		uxth	r3, r3
 385 0172 4CF25032 		movw	r2, #50000
 386 0176 9342     		cmp	r3, r2
 387 0178 0BD8     		bhi	.L27
 281:.\Transfer.c  ****        {
 282:.\Transfer.c  ****         PWM_LED_1_WritePeriod(temp16);
 388              		.loc 1 282 0
 389 017a 3046     		mov	r0, r6
 390 017c FFF7FEFF 		bl	PWM_LED_1_WritePeriod
 391              	.LVL43:
 283:.\Transfer.c  ****         PWM_LED_2_WritePeriod(temp16);
 392              		.loc 1 283 0
 393 0180 3046     		mov	r0, r6
 394 0182 FFF7FEFF 		bl	PWM_LED_2_WritePeriod
 395              	.LVL44:
ARM GAS  C:\Users\PANXIA~1\AppData\Local\Temp\cc1T2PPa.s 			page 13


 284:.\Transfer.c  ****         PWM_LED_3_WritePeriod(temp16);
 396              		.loc 1 284 0
 397 0186 3046     		mov	r0, r6
 398 0188 FFF7FEFF 		bl	PWM_LED_3_WritePeriod
 399              	.LVL45:
 285:.\Transfer.c  ****         PWM_LED_4_WritePeriod(temp16);
 400              		.loc 1 285 0
 401 018c 3046     		mov	r0, r6
 402 018e FFF7FEFF 		bl	PWM_LED_4_WritePeriod
 403              	.LVL46:
 404              	.L27:
 286:.\Transfer.c  ****        }
 287:.\Transfer.c  ****     }
 288:.\Transfer.c  ****     if(*(data_buf+2)==0X8)	
 405              		.loc 1 288 0
 406 0192 AB78     		ldrb	r3, [r5, #2]	@ zero_extendqisi2
 407 0194 082B     		cmp	r3, #8
 408 0196 08D1     		bne	.L28
 289:.\Transfer.c  ****     {
 290:.\Transfer.c  ****        g_Car.set_push_dir = *(data_buf+4);
 409              		.loc 1 290 0
 410 0198 2B79     		ldrb	r3, [r5, #4]	@ zero_extendqisi2
 411 019a 1A4A     		ldr	r2, .L39+4
 412 019c 5371     		strb	r3, [r2, #5]
 291:.\Transfer.c  ****        if( g_Car.set_push_dir == 2)
 413              		.loc 1 291 0
 414 019e 022B     		cmp	r3, #2
 415 01a0 03D1     		bne	.L28
 292:.\Transfer.c  ****        {
 293:.\Transfer.c  ****           g_Car.M_Command = M_POWER_ON;
 416              		.loc 1 293 0
 417 01a2 0122     		movs	r2, #1
 418 01a4 174B     		ldr	r3, .L39+4
 419 01a6 83F82C20 		strb	r2, [r3, #44]
 420              	.L28:
 294:.\Transfer.c  ****        }
 295:.\Transfer.c  ****     }
 296:.\Transfer.c  ****     if(*(data_buf+2)==0X9)								
 421              		.loc 1 296 0
 422 01aa AB78     		ldrb	r3, [r5, #2]	@ zero_extendqisi2
 423 01ac 092B     		cmp	r3, #9
 424 01ae 06D1     		bne	.L29
 297:.\Transfer.c  ****     {
 298:.\Transfer.c  ****         if(*(data_buf+4) == 99)
 425              		.loc 1 298 0
 426 01b0 2B79     		ldrb	r3, [r5, #4]	@ zero_extendqisi2
 427 01b2 632B     		cmp	r3, #99
 428 01b4 03D1     		bne	.L29
 299:.\Transfer.c  ****         {
 300:.\Transfer.c  ****             g_Car.hearting = 1;
 429              		.loc 1 300 0
 430 01b6 0122     		movs	r2, #1
 431 01b8 124B     		ldr	r3, .L39+4
 432 01ba 83F82020 		strb	r2, [r3, #32]
 433              	.L29:
 301:.\Transfer.c  ****         }
 302:.\Transfer.c  ****     }
ARM GAS  C:\Users\PANXIA~1\AppData\Local\Temp\cc1T2PPa.s 			page 14


 303:.\Transfer.c  ****     if(*(data_buf+2)== 10)
 434              		.loc 1 303 0
 435 01be AB78     		ldrb	r3, [r5, #2]	@ zero_extendqisi2
 436 01c0 0A2B     		cmp	r3, #10
 437 01c2 03D1     		bne	.L30
 304:.\Transfer.c  ****     {
 305:.\Transfer.c  ****         
 306:.\Transfer.c  ****             g_Car.fallback_mode = *(data_buf+4);
 438              		.loc 1 306 0
 439 01c4 2A79     		ldrb	r2, [r5, #4]	@ zero_extendqisi2
 440 01c6 0F4B     		ldr	r3, .L39+4
 441 01c8 83F83820 		strb	r2, [r3, #56]
 442              	.L30:
 307:.\Transfer.c  ****         
 308:.\Transfer.c  ****     }
 309:.\Transfer.c  ****       if(*(data_buf+2)== 30)
 443              		.loc 1 309 0
 444 01cc AB78     		ldrb	r3, [r5, #2]	@ zero_extendqisi2
 445 01ce 1E2B     		cmp	r3, #30
 446 01d0 03D1     		bne	.L31
 310:.\Transfer.c  ****     {
 311:.\Transfer.c  ****         
 312:.\Transfer.c  ****         g_Car.liheqi = *(data_buf+4);
 447              		.loc 1 312 0
 448 01d2 2A79     		ldrb	r2, [r5, #4]	@ zero_extendqisi2
 449 01d4 0B4B     		ldr	r3, .L39+4
 450 01d6 83F85420 		strb	r2, [r3, #84]
 451              	.L31:
 313:.\Transfer.c  ****     
 314:.\Transfer.c  ****     }
 315:.\Transfer.c  ****    
 316:.\Transfer.c  ****    
 317:.\Transfer.c  **** 	if(*(data_buf+2)==0X13)								
 452              		.loc 1 317 0
 453 01da A878     		ldrb	r0, [r5, #2]	@ zero_extendqisi2
 454 01dc 1328     		cmp	r0, #19
 455 01de 02D1     		bne	.L32
 318:.\Transfer.c  **** 	{
 319:.\Transfer.c  **** 		DT_Send_Check(*(data_buf+2),sum);
 456              		.loc 1 319 0
 457 01e0 2146     		mov	r1, r4
 458 01e2 FFF7FEFF 		bl	DT_Send_Check
 459              	.LVL47:
 460              	.L32:
 320:.\Transfer.c  **** 	}
 321:.\Transfer.c  **** 	if(*(data_buf+2)==0X14)							
 461              		.loc 1 321 0
 462 01e6 A878     		ldrb	r0, [r5, #2]	@ zero_extendqisi2
 463 01e8 1428     		cmp	r0, #20
 464 01ea 02D1     		bne	.L33
 322:.\Transfer.c  **** 	{
 323:.\Transfer.c  **** 		DT_Send_Check(*(data_buf+2),sum);
 465              		.loc 1 323 0
 466 01ec 2146     		mov	r1, r4
 467 01ee FFF7FEFF 		bl	DT_Send_Check
 468              	.LVL48:
 469              	.L33:
ARM GAS  C:\Users\PANXIA~1\AppData\Local\Temp\cc1T2PPa.s 			page 15


 324:.\Transfer.c  **** 	}
 325:.\Transfer.c  **** 	if(*(data_buf+2)==0X15)								//PID6
 470              		.loc 1 325 0
 471 01f2 A878     		ldrb	r0, [r5, #2]	@ zero_extendqisi2
 472 01f4 1528     		cmp	r0, #21
 473 01f6 02D1     		bne	.L9
 326:.\Transfer.c  **** 	{
 327:.\Transfer.c  **** 		DT_Send_Check(*(data_buf+2),sum);
 474              		.loc 1 327 0
 475 01f8 2146     		mov	r1, r4
 476 01fa FFF7FEFF 		bl	DT_Send_Check
 477              	.LVL49:
 478              	.L9:
 479 01fe 70BD     		pop	{r4, r5, r6, pc}
 480              	.LVL50:
 481              	.L40:
 482              		.align	2
 483              	.L39:
 484 0200 00000000 		.word	f
 485 0204 00000000 		.word	g_Car
 486 0208 1F85EB51 		.word	1374389535
 487              		.cfi_endproc
 488              	.LFE67:
 489              		.size	DT_Data_Receive_Anl, .-DT_Data_Receive_Anl
 490              		.section	.text.DT_Data_Receive_Prepare,"ax",%progbits
 491              		.align	2
 492              		.global	DT_Data_Receive_Prepare
 493              		.thumb
 494              		.thumb_func
 495              		.type	DT_Data_Receive_Prepare, %function
 496              	DT_Data_Receive_Prepare:
 497              	.LFB66:
 118:.\Transfer.c  **** 	static uint8 RxBuffer[50];
 498              		.loc 1 118 0
 499              		.cfi_startproc
 500              		@ args = 0, pretend = 0, frame = 0
 501              		@ frame_needed = 0, uses_anonymous_args = 0
 502              	.LVL51:
 503 0000 10B5     		push	{r4, lr}
 504              		.cfi_def_cfa_offset 8
 505              		.cfi_offset 4, -8
 506              		.cfi_offset 14, -4
 123:.\Transfer.c  **** 	{
 507              		.loc 1 123 0
 508 0002 294B     		ldr	r3, .L50
 509 0004 1B78     		ldrb	r3, [r3]	@ zero_extendqisi2
 510 0006 33B9     		cbnz	r3, .L42
 123:.\Transfer.c  **** 	{
 511              		.loc 1 123 0 is_stmt 0 discriminator 1
 512 0008 AA28     		cmp	r0, #170
 513 000a 04D1     		bne	.L42
 125:.\Transfer.c  **** 		RxBuffer[0]=data;
 514              		.loc 1 125 0 is_stmt 1
 515 000c 264B     		ldr	r3, .L50
 516 000e 0122     		movs	r2, #1
 517 0010 1A70     		strb	r2, [r3]
 126:.\Transfer.c  **** 	}
ARM GAS  C:\Users\PANXIA~1\AppData\Local\Temp\cc1T2PPa.s 			page 16


 518              		.loc 1 126 0
 519 0012 1871     		strb	r0, [r3, #4]
 520 0014 10BD     		pop	{r4, pc}
 521              	.L42:
 128:.\Transfer.c  **** 	{
 522              		.loc 1 128 0
 523 0016 012B     		cmp	r3, #1
 524 0018 06D1     		bne	.L44
 128:.\Transfer.c  **** 	{
 525              		.loc 1 128 0 is_stmt 0 discriminator 1
 526 001a AF28     		cmp	r0, #175
 527 001c 04D1     		bne	.L44
 130:.\Transfer.c  **** 		RxBuffer[1]=data;
 528              		.loc 1 130 0 is_stmt 1
 529 001e 224B     		ldr	r3, .L50
 530 0020 0222     		movs	r2, #2
 531 0022 1A70     		strb	r2, [r3]
 131:.\Transfer.c  **** 	}
 532              		.loc 1 131 0
 533 0024 5871     		strb	r0, [r3, #5]
 534 0026 10BD     		pop	{r4, pc}
 535              	.L44:
 133:.\Transfer.c  **** 	{
 536              		.loc 1 133 0
 537 0028 022B     		cmp	r3, #2
 538 002a 06D1     		bne	.L45
 133:.\Transfer.c  **** 	{
 539              		.loc 1 133 0 is_stmt 0 discriminator 1
 540 002c F028     		cmp	r0, #240
 541 002e 04D8     		bhi	.L45
 135:.\Transfer.c  **** 		RxBuffer[2]=data;
 542              		.loc 1 135 0 is_stmt 1
 543 0030 1D4B     		ldr	r3, .L50
 544 0032 0322     		movs	r2, #3
 545 0034 1A70     		strb	r2, [r3]
 136:.\Transfer.c  **** 	}
 546              		.loc 1 136 0
 547 0036 9871     		strb	r0, [r3, #6]
 548 0038 10BD     		pop	{r4, pc}
 549              	.L45:
 138:.\Transfer.c  **** 	{
 550              		.loc 1 138 0
 551 003a 032B     		cmp	r3, #3
 552 003c 0BD1     		bne	.L46
 138:.\Transfer.c  **** 	{
 553              		.loc 1 138 0 is_stmt 0 discriminator 1
 554 003e 3128     		cmp	r0, #49
 555 0040 09D8     		bhi	.L46
 140:.\Transfer.c  **** 		RxBuffer[3]=data;
 556              		.loc 1 140 0 is_stmt 1
 557 0042 194B     		ldr	r3, .L50
 558 0044 0422     		movs	r2, #4
 559 0046 1A70     		strb	r2, [r3]
 141:.\Transfer.c  **** 		_data_len = data;
 560              		.loc 1 141 0
 561 0048 D871     		strb	r0, [r3, #7]
 142:.\Transfer.c  **** 		_data_cnt = 0;
ARM GAS  C:\Users\PANXIA~1\AppData\Local\Temp\cc1T2PPa.s 			page 17


 562              		.loc 1 142 0
 563 004a 83F83600 		strb	r0, [r3, #54]
 143:.\Transfer.c  **** 	}
 564              		.loc 1 143 0
 565 004e 0022     		movs	r2, #0
 566 0050 83F83720 		strb	r2, [r3, #55]
 567 0054 10BD     		pop	{r4, pc}
 568              	.L46:
 145:.\Transfer.c  **** 	{
 569              		.loc 1 145 0
 570 0056 042B     		cmp	r3, #4
 571 0058 13D1     		bne	.L47
 145:.\Transfer.c  **** 	{
 572              		.loc 1 145 0 is_stmt 0 discriminator 1
 573 005a 134A     		ldr	r2, .L50
 574 005c 92F83620 		ldrb	r2, [r2, #54]	@ zero_extendqisi2
 575 0060 7AB1     		cbz	r2, .L47
 147:.\Transfer.c  **** 		RxBuffer[4+_data_cnt++]=data;
 576              		.loc 1 147 0 is_stmt 1
 577 0062 013A     		subs	r2, r2, #1
 578 0064 D2B2     		uxtb	r2, r2
 579 0066 1049     		ldr	r1, .L50
 580 0068 81F83620 		strb	r2, [r1, #54]
 148:.\Transfer.c  **** 		if(_data_len==0)
 581              		.loc 1 148 0
 582 006c 91F83730 		ldrb	r3, [r1, #55]	@ zero_extendqisi2
 583 0070 5C1C     		adds	r4, r3, #1
 584 0072 81F83740 		strb	r4, [r1, #55]
 585 0076 0B44     		add	r3, r3, r1
 586 0078 1872     		strb	r0, [r3, #8]
 149:.\Transfer.c  **** 			state = 5;
 587              		.loc 1 149 0
 588 007a A2B9     		cbnz	r2, .L41
 150:.\Transfer.c  **** 	}
 589              		.loc 1 150 0
 590 007c 0522     		movs	r2, #5
 591 007e 0A70     		strb	r2, [r1]
 592 0080 10BD     		pop	{r4, pc}
 593              	.L47:
 152:.\Transfer.c  **** 	{
 594              		.loc 1 152 0
 595 0082 052B     		cmp	r3, #5
 596 0084 0CD1     		bne	.L48
 154:.\Transfer.c  **** 		RxBuffer[4+_data_cnt]=data;
 597              		.loc 1 154 0
 598 0086 084B     		ldr	r3, .L50
 599 0088 0022     		movs	r2, #0
 600 008a 1A70     		strb	r2, [r3]
 155:.\Transfer.c  **** 		DT_Data_Receive_Anl(RxBuffer,_data_cnt+5);
 601              		.loc 1 155 0
 602 008c 93F83710 		ldrb	r1, [r3, #55]	@ zero_extendqisi2
 603 0090 5A18     		adds	r2, r3, r1
 604 0092 1072     		strb	r0, [r2, #8]
 156:.\Transfer.c  **** 	}
 605              		.loc 1 156 0
 606 0094 0531     		adds	r1, r1, #5
 607 0096 181D     		adds	r0, r3, #4
ARM GAS  C:\Users\PANXIA~1\AppData\Local\Temp\cc1T2PPa.s 			page 18


 608              	.LVL52:
 609 0098 C9B2     		uxtb	r1, r1
 610 009a FFF7FEFF 		bl	DT_Data_Receive_Anl
 611              	.LVL53:
 612 009e 10BD     		pop	{r4, pc}
 613              	.LVL54:
 614              	.L48:
 159:.\Transfer.c  ****     
 615              		.loc 1 159 0
 616 00a0 0022     		movs	r2, #0
 617 00a2 014B     		ldr	r3, .L50
 618 00a4 1A70     		strb	r2, [r3]
 619              	.L41:
 620 00a6 10BD     		pop	{r4, pc}
 621              	.L51:
 622              		.align	2
 623              	.L50:
 624 00a8 00000000 		.word	.LANCHOR0
 625              		.cfi_endproc
 626              	.LFE66:
 627              		.size	DT_Data_Receive_Prepare, .-DT_Data_Receive_Prepare
 628              		.section	.text.DT_Send_SystemInfo,"ax",%progbits
 629              		.align	2
 630              		.global	DT_Send_SystemInfo
 631              		.thumb
 632              		.thumb_func
 633              		.type	DT_Send_SystemInfo, %function
 634              	DT_Send_SystemInfo:
 635              	.LFB68:
 328:.\Transfer.c  **** 	}
 329:.\Transfer.c  **** }
 330:.\Transfer.c  **** 
 331:.\Transfer.c  **** void DT_Send_SystemInfo(uint16 hardware_ver,uint16 software_ver,uint16 run_count,uint16 cur_run_tim
 332:.\Transfer.c  **** {
 636              		.loc 1 332 0
 637              		.cfi_startproc
 638              		@ args = 4, pretend = 0, frame = 8
 639              		@ frame_needed = 0, uses_anonymous_args = 0
 640              	.LVL55:
 641 0000 70B5     		push	{r4, r5, r6, lr}
 642              		.cfi_def_cfa_offset 16
 643              		.cfi_offset 4, -16
 644              		.cfi_offset 5, -12
 645              		.cfi_offset 6, -8
 646              		.cfi_offset 14, -4
 647 0002 82B0     		sub	sp, sp, #8
 648              		.cfi_def_cfa_offset 24
 649 0004 ADF80600 		strh	r0, [sp, #6]	@ movhi
 650 0008 ADF80410 		strh	r1, [sp, #4]	@ movhi
 651 000c ADF80220 		strh	r2, [sp, #2]	@ movhi
 652 0010 ADF80030 		strh	r3, [sp]	@ movhi
 653              	.LVL56:
 333:.\Transfer.c  **** 	uint8 _cnt=0;
 334:.\Transfer.c  **** 	data_to_send[_cnt++]=0xAA;
 654              		.loc 1 334 0
 655 0014 154D     		ldr	r5, .L56
 656 0016 AA24     		movs	r4, #170
ARM GAS  C:\Users\PANXIA~1\AppData\Local\Temp\cc1T2PPa.s 			page 19


 657 0018 2C70     		strb	r4, [r5]
 658              	.LVL57:
 335:.\Transfer.c  **** 	data_to_send[_cnt++]=0xAA;
 659              		.loc 1 335 0
 660 001a 6C70     		strb	r4, [r5, #1]
 661              	.LVL58:
 336:.\Transfer.c  **** 	data_to_send[_cnt++]=0x00;
 662              		.loc 1 336 0
 663 001c 0024     		movs	r4, #0
 664 001e AC70     		strb	r4, [r5, #2]
 665              	.LVL59:
 337:.\Transfer.c  **** 	data_to_send[_cnt++]=0;
 338:.\Transfer.c  ****     
 339:.\Transfer.c  **** 	data_to_send[_cnt++]=BYTE1(hardware_ver);
 666              		.loc 1 339 0
 667 0020 060A     		lsrs	r6, r0, #8
 668 0022 2E71     		strb	r6, [r5, #4]
 669              	.LVL60:
 340:.\Transfer.c  **** 	data_to_send[_cnt++]=BYTE0(hardware_ver);
 670              		.loc 1 340 0
 671 0024 6871     		strb	r0, [r5, #5]
 672              	.LVL61:
 341:.\Transfer.c  **** 	data_to_send[_cnt++]=BYTE1(software_ver);
 673              		.loc 1 341 0
 674 0026 080A     		lsrs	r0, r1, #8
 675              	.LVL62:
 676 0028 A871     		strb	r0, [r5, #6]
 677              	.LVL63:
 342:.\Transfer.c  **** 	data_to_send[_cnt++]=BYTE0(software_ver);
 678              		.loc 1 342 0
 679 002a E971     		strb	r1, [r5, #7]
 680              	.LVL64:
 343:.\Transfer.c  **** 	data_to_send[_cnt++]=BYTE1(run_count);
 681              		.loc 1 343 0
 682 002c 110A     		lsrs	r1, r2, #8
 683              	.LVL65:
 684 002e 2972     		strb	r1, [r5, #8]
 685              	.LVL66:
 344:.\Transfer.c  **** 	data_to_send[_cnt++]=BYTE0(run_count);
 686              		.loc 1 344 0
 687 0030 6A72     		strb	r2, [r5, #9]
 688              	.LVL67:
 345:.\Transfer.c  **** 	data_to_send[_cnt++]=BYTE1(cur_run_time);
 689              		.loc 1 345 0
 690 0032 1A0A     		lsrs	r2, r3, #8
 691              	.LVL68:
 692 0034 AA72     		strb	r2, [r5, #10]
 693              	.LVL69:
 346:.\Transfer.c  **** 	data_to_send[_cnt++]=BYTE0(cur_run_time);
 694              		.loc 1 346 0
 695 0036 EB72     		strb	r3, [r5, #11]
 696              	.LVL70:
 347:.\Transfer.c  ****     
 348:.\Transfer.c  **** 	data_to_send[_cnt++]=BYTE1(car_runing_time);
 697              		.loc 1 348 0
 698 0038 9DF81930 		ldrb	r3, [sp, #25]	@ zero_extendqisi2
 699              	.LVL71:
ARM GAS  C:\Users\PANXIA~1\AppData\Local\Temp\cc1T2PPa.s 			page 20


 700 003c 2B73     		strb	r3, [r5, #12]
 701              	.LVL72:
 349:.\Transfer.c  **** 	data_to_send[_cnt++]=BYTE0(car_runing_time);
 702              		.loc 1 349 0
 703 003e 9DF81830 		ldrb	r3, [sp, #24]	@ zero_extendqisi2
 704 0042 6B73     		strb	r3, [r5, #13]
 350:.\Transfer.c  **** 	data_to_send[3] = _cnt-4;
 705              		.loc 1 350 0
 706 0044 0A23     		movs	r3, #10
 707 0046 EB70     		strb	r3, [r5, #3]
 708              	.LVL73:
 351:.\Transfer.c  **** 	
 352:.\Transfer.c  **** 	uint8 sum = 0;
 353:.\Transfer.c  ****     uint8 i=0;
 354:.\Transfer.c  **** 	for( i=0;i<_cnt;i++)
 709              		.loc 1 354 0
 710 0048 2346     		mov	r3, r4
 352:.\Transfer.c  ****     uint8 i=0;
 711              		.loc 1 352 0
 712 004a 2246     		mov	r2, r4
 713              		.loc 1 354 0
 714 004c 05E0     		b	.L53
 715              	.LVL74:
 716              	.L54:
 355:.\Transfer.c  **** 		sum += data_to_send[i];
 717              		.loc 1 355 0 discriminator 3
 718 004e 0749     		ldr	r1, .L56
 719 0050 C95C     		ldrb	r1, [r1, r3]	@ zero_extendqisi2
 720 0052 0A44     		add	r2, r2, r1
 721              	.LVL75:
 722 0054 D2B2     		uxtb	r2, r2
 723              	.LVL76:
 354:.\Transfer.c  **** 		sum += data_to_send[i];
 724              		.loc 1 354 0 discriminator 3
 725 0056 0133     		adds	r3, r3, #1
 726              	.LVL77:
 727 0058 DBB2     		uxtb	r3, r3
 728              	.LVL78:
 729              	.L53:
 354:.\Transfer.c  **** 		sum += data_to_send[i];
 730              		.loc 1 354 0 is_stmt 0 discriminator 1
 731 005a 0D2B     		cmp	r3, #13
 732 005c F7D9     		bls	.L54
 733              	.LVL79:
 356:.\Transfer.c  **** 	data_to_send[_cnt++]=sum;
 734              		.loc 1 356 0 is_stmt 1
 735 005e 0348     		ldr	r0, .L56
 736 0060 8273     		strb	r2, [r0, #14]
 357:.\Transfer.c  **** 	
 358:.\Transfer.c  **** 	DT_Send_Data(data_to_send, _cnt);
 737              		.loc 1 358 0
 738 0062 0F21     		movs	r1, #15
 739 0064 FFF7FEFF 		bl	DT_Send_Data
 740              	.LVL80:
 359:.\Transfer.c  **** }
 741              		.loc 1 359 0
 742 0068 02B0     		add	sp, sp, #8
ARM GAS  C:\Users\PANXIA~1\AppData\Local\Temp\cc1T2PPa.s 			page 21


 743              		.cfi_def_cfa_offset 16
 744              	.LVL81:
 745              		@ sp needed
 746 006a 70BD     		pop	{r4, r5, r6, pc}
 747              	.LVL82:
 748              	.L57:
 749              		.align	2
 750              	.L56:
 751 006c 00000000 		.word	data_to_send
 752              		.cfi_endproc
 753              	.LFE68:
 754              		.size	DT_Send_SystemInfo, .-DT_Send_SystemInfo
 755              		.section	.text.DT_Send_Status,"ax",%progbits
 756              		.align	2
 757              		.global	DT_Send_Status
 758              		.thumb
 759              		.thumb_func
 760              		.type	DT_Send_Status, %function
 761              	DT_Send_Status:
 762              	.LFB69:
 360:.\Transfer.c  **** void DT_Send_Status(uint8 car_lock,enum CAR_DIR car_dir,uint16 car_speed,uint16 car_pull,int32 Xkm)
 361:.\Transfer.c  **** {
 763              		.loc 1 361 0
 764              		.cfi_startproc
 765              		@ args = 4, pretend = 0, frame = 8
 766              		@ frame_needed = 0, uses_anonymous_args = 0
 767              	.LVL83:
 768 0000 70B5     		push	{r4, r5, r6, lr}
 769              		.cfi_def_cfa_offset 16
 770              		.cfi_offset 4, -16
 771              		.cfi_offset 5, -12
 772              		.cfi_offset 6, -8
 773              		.cfi_offset 14, -4
 774 0002 82B0     		sub	sp, sp, #8
 775              		.cfi_def_cfa_offset 24
 776 0004 069E     		ldr	r6, [sp, #24]
 777              	.LVL84:
 362:.\Transfer.c  **** 	uint8 _cnt=0;
 363:.\Transfer.c  ****     uint8 _temp;
 364:.\Transfer.c  **** 	uint16 _temp1;
 365:.\Transfer.c  ****     int32   _temp2;
 366:.\Transfer.c  **** 	
 367:.\Transfer.c  **** 	data_to_send[_cnt++]=0xAA;
 778              		.loc 1 367 0
 779 0006 174D     		ldr	r5, .L62
 780 0008 AA24     		movs	r4, #170
 781 000a 2C70     		strb	r4, [r5]
 782              	.LVL85:
 368:.\Transfer.c  **** 	data_to_send[_cnt++]=0xAA;
 783              		.loc 1 368 0
 784 000c 6C70     		strb	r4, [r5, #1]
 785              	.LVL86:
 369:.\Transfer.c  **** 	data_to_send[_cnt++]=0x01;
 786              		.loc 1 369 0
 787 000e 0124     		movs	r4, #1
 788 0010 AC70     		strb	r4, [r5, #2]
 789              	.LVL87:
ARM GAS  C:\Users\PANXIA~1\AppData\Local\Temp\cc1T2PPa.s 			page 22


 370:.\Transfer.c  **** 	data_to_send[_cnt++]=0;
 790              		.loc 1 370 0
 791 0012 0024     		movs	r4, #0
 792              	.LVL88:
 371:.\Transfer.c  ****     
 372:.\Transfer.c  **** 	_temp = car_lock;
 373:.\Transfer.c  **** 	data_to_send[_cnt++]=_temp;
 793              		.loc 1 373 0
 794 0014 2871     		strb	r0, [r5, #4]
 795              	.LVL89:
 374:.\Transfer.c  **** 	_temp = car_dir;
 375:.\Transfer.c  **** 	data_to_send[_cnt++]=_temp;
 796              		.loc 1 375 0
 797 0016 6971     		strb	r1, [r5, #5]
 798              	.LVL90:
 376:.\Transfer.c  **** 
 377:.\Transfer.c  **** 	_temp1 =  car_speed;
 378:.\Transfer.c  **** 	data_to_send[_cnt++]=BYTE1(_temp1);
 799              		.loc 1 378 0
 800 0018 110A     		lsrs	r1, r2, #8
 801              	.LVL91:
 802 001a A971     		strb	r1, [r5, #6]
 803              	.LVL92:
 379:.\Transfer.c  **** 	data_to_send[_cnt++]=BYTE0(_temp1);
 804              		.loc 1 379 0
 805 001c EA71     		strb	r2, [r5, #7]
 380:.\Transfer.c  **** 	
 381:.\Transfer.c  ****     _temp1 =  car_pull;
 806              		.loc 1 381 0
 807 001e ADF80630 		strh	r3, [sp, #6]	@ movhi
 808              	.LVL93:
 382:.\Transfer.c  **** 	data_to_send[_cnt++]=BYTE1(_temp1);
 809              		.loc 1 382 0
 810 0022 1A0A     		lsrs	r2, r3, #8
 811              	.LVL94:
 812 0024 2A72     		strb	r2, [r5, #8]
 813              	.LVL95:
 383:.\Transfer.c  **** 	data_to_send[_cnt++]=BYTE0(_temp1);
 814              		.loc 1 383 0
 815 0026 6B72     		strb	r3, [r5, #9]
 384:.\Transfer.c  **** 	_temp2 =  Xkm;
 816              		.loc 1 384 0
 817 0028 0096     		str	r6, [sp]
 818              	.LVL96:
 385:.\Transfer.c  ****     data_to_send[_cnt++]=BYTE3(_temp2);
 819              		.loc 1 385 0
 820 002a 330E     		lsrs	r3, r6, #24
 821              	.LVL97:
 822 002c AB72     		strb	r3, [r5, #10]
 823              	.LVL98:
 386:.\Transfer.c  **** 	data_to_send[_cnt++]=BYTE2(_temp2);
 824              		.loc 1 386 0
 825 002e C6F30743 		ubfx	r3, r6, #16, #8
 826 0032 EB72     		strb	r3, [r5, #11]
 827              	.LVL99:
 387:.\Transfer.c  ****     data_to_send[_cnt++]=BYTE1(_temp2);
 828              		.loc 1 387 0
ARM GAS  C:\Users\PANXIA~1\AppData\Local\Temp\cc1T2PPa.s 			page 23


 829 0034 C6F30723 		ubfx	r3, r6, #8, #8
 830 0038 2B73     		strb	r3, [r5, #12]
 831              	.LVL100:
 388:.\Transfer.c  **** 	data_to_send[_cnt++]=BYTE0(_temp2);
 832              		.loc 1 388 0
 833 003a 6E73     		strb	r6, [r5, #13]
 389:.\Transfer.c  ****     
 390:.\Transfer.c  **** 	data_to_send[3] = _cnt-4;
 834              		.loc 1 390 0
 835 003c 0A23     		movs	r3, #10
 836 003e EB70     		strb	r3, [r5, #3]
 837              	.LVL101:
 391:.\Transfer.c  **** 	
 392:.\Transfer.c  **** 	uint8 sum = 0;
 393:.\Transfer.c  ****     uint8 i=0;
 394:.\Transfer.c  **** 	for(i=0;i<_cnt;i++)
 838              		.loc 1 394 0
 839 0040 2346     		mov	r3, r4
 392:.\Transfer.c  ****     uint8 i=0;
 840              		.loc 1 392 0
 841 0042 2246     		mov	r2, r4
 842              		.loc 1 394 0
 843 0044 05E0     		b	.L59
 844              	.LVL102:
 845              	.L60:
 395:.\Transfer.c  **** 		sum += data_to_send[i];
 846              		.loc 1 395 0 discriminator 3
 847 0046 0749     		ldr	r1, .L62
 848 0048 C95C     		ldrb	r1, [r1, r3]	@ zero_extendqisi2
 849 004a 0A44     		add	r2, r2, r1
 850              	.LVL103:
 851 004c D2B2     		uxtb	r2, r2
 852              	.LVL104:
 394:.\Transfer.c  **** 		sum += data_to_send[i];
 853              		.loc 1 394 0 discriminator 3
 854 004e 0133     		adds	r3, r3, #1
 855              	.LVL105:
 856 0050 DBB2     		uxtb	r3, r3
 857              	.LVL106:
 858              	.L59:
 394:.\Transfer.c  **** 		sum += data_to_send[i];
 859              		.loc 1 394 0 is_stmt 0 discriminator 1
 860 0052 0D2B     		cmp	r3, #13
 861 0054 F7D9     		bls	.L60
 862              	.LVL107:
 396:.\Transfer.c  **** 	data_to_send[_cnt++]=sum;
 863              		.loc 1 396 0 is_stmt 1
 864 0056 0348     		ldr	r0, .L62
 865              	.LVL108:
 866 0058 8273     		strb	r2, [r0, #14]
 397:.\Transfer.c  **** 	
 398:.\Transfer.c  **** 	DT_Send_Data(data_to_send, _cnt);
 867              		.loc 1 398 0
 868 005a 0F21     		movs	r1, #15
 869 005c FFF7FEFF 		bl	DT_Send_Data
 870              	.LVL109:
 399:.\Transfer.c  **** }
ARM GAS  C:\Users\PANXIA~1\AppData\Local\Temp\cc1T2PPa.s 			page 24


 871              		.loc 1 399 0
 872 0060 02B0     		add	sp, sp, #8
 873              		.cfi_def_cfa_offset 16
 874              		@ sp needed
 875 0062 70BD     		pop	{r4, r5, r6, pc}
 876              	.LVL110:
 877              	.L63:
 878              		.align	2
 879              	.L62:
 880 0064 00000000 		.word	data_to_send
 881              		.cfi_endproc
 882              	.LFE69:
 883              		.size	DT_Send_Status, .-DT_Send_Status
 884              		.section	.text.DT_Send_Senser,"ax",%progbits
 885              		.align	2
 886              		.global	DT_Send_Senser
 887              		.thumb
 888              		.thumb_func
 889              		.type	DT_Send_Senser, %function
 890              	DT_Send_Senser:
 891              	.LFB70:
 400:.\Transfer.c  **** void DT_Send_Senser(int32 pitch,int32 roll,int32 yaw,int32 a_x,int32 a_y,int32 a_z)
 401:.\Transfer.c  **** {
 892              		.loc 1 401 0
 893              		.cfi_startproc
 894              		@ args = 8, pretend = 0, frame = 8
 895              		@ frame_needed = 0, uses_anonymous_args = 0
 896              	.LVL111:
 897 0000 F0B5     		push	{r4, r5, r6, r7, lr}
 898              		.cfi_def_cfa_offset 20
 899              		.cfi_offset 4, -20
 900              		.cfi_offset 5, -16
 901              		.cfi_offset 6, -12
 902              		.cfi_offset 7, -8
 903              		.cfi_offset 14, -4
 904 0002 83B0     		sub	sp, sp, #12
 905              		.cfi_def_cfa_offset 32
 906 0004 089F     		ldr	r7, [sp, #32]
 907 0006 099E     		ldr	r6, [sp, #36]
 908              	.LVL112:
 402:.\Transfer.c  **** 	uint8 _cnt=0;
 403:.\Transfer.c  **** 	int32 _temp;
 404:.\Transfer.c  **** 	
 405:.\Transfer.c  **** 	data_to_send[_cnt++]=0xAA;
 909              		.loc 1 405 0
 910 0008 2A4D     		ldr	r5, .L68
 911 000a AA24     		movs	r4, #170
 912 000c 2C70     		strb	r4, [r5]
 913              	.LVL113:
 406:.\Transfer.c  **** 	data_to_send[_cnt++]=0xAA;
 914              		.loc 1 406 0
 915 000e 6C70     		strb	r4, [r5, #1]
 916              	.LVL114:
 407:.\Transfer.c  **** 	data_to_send[_cnt++]=0x02;
 917              		.loc 1 407 0
 918 0010 0224     		movs	r4, #2
 919 0012 AC70     		strb	r4, [r5, #2]
ARM GAS  C:\Users\PANXIA~1\AppData\Local\Temp\cc1T2PPa.s 			page 25


 920              	.LVL115:
 408:.\Transfer.c  **** 	data_to_send[_cnt++]=0;
 921              		.loc 1 408 0
 922 0014 0024     		movs	r4, #0
 923              	.LVL116:
 409:.\Transfer.c  **** 	
 410:.\Transfer.c  **** 	_temp = pitch;
 411:.\Transfer.c  **** 	data_to_send[_cnt++]=BYTE3(_temp);
 924              		.loc 1 411 0
 925 0016 4FEA106E 		lsr	lr, r0, #24
 926 001a 85F804E0 		strb	lr, [r5, #4]
 927              	.LVL117:
 412:.\Transfer.c  **** 	data_to_send[_cnt++]=BYTE2(_temp);
 928              		.loc 1 412 0
 929 001e C0F3074E 		ubfx	lr, r0, #16, #8
 930 0022 85F805E0 		strb	lr, [r5, #5]
 931              	.LVL118:
 413:.\Transfer.c  ****     data_to_send[_cnt++]=BYTE1(_temp);
 932              		.loc 1 413 0
 933 0026 C0F3072E 		ubfx	lr, r0, #8, #8
 934 002a 85F806E0 		strb	lr, [r5, #6]
 935              	.LVL119:
 414:.\Transfer.c  **** 	data_to_send[_cnt++]=BYTE0(_temp);
 936              		.loc 1 414 0
 937 002e E871     		strb	r0, [r5, #7]
 938              	.LVL120:
 415:.\Transfer.c  **** 	_temp = roll;
 416:.\Transfer.c  **** 	data_to_send[_cnt++]=BYTE3(_temp);
 939              		.loc 1 416 0
 940 0030 080E     		lsrs	r0, r1, #24
 941              	.LVL121:
 942 0032 2872     		strb	r0, [r5, #8]
 943              	.LVL122:
 417:.\Transfer.c  **** 	data_to_send[_cnt++]=BYTE2(_temp);
 944              		.loc 1 417 0
 945 0034 C1F30740 		ubfx	r0, r1, #16, #8
 946 0038 6872     		strb	r0, [r5, #9]
 947              	.LVL123:
 418:.\Transfer.c  ****     data_to_send[_cnt++]=BYTE1(_temp);
 948              		.loc 1 418 0
 949 003a C1F30720 		ubfx	r0, r1, #8, #8
 950 003e A872     		strb	r0, [r5, #10]
 951              	.LVL124:
 419:.\Transfer.c  **** 	data_to_send[_cnt++]=BYTE0(_temp);
 952              		.loc 1 419 0
 953 0040 E972     		strb	r1, [r5, #11]
 954              	.LVL125:
 420:.\Transfer.c  ****     _temp = yaw;
 421:.\Transfer.c  **** 	data_to_send[_cnt++]=BYTE3(_temp);
 955              		.loc 1 421 0
 956 0042 110E     		lsrs	r1, r2, #24
 957              	.LVL126:
 958 0044 2973     		strb	r1, [r5, #12]
 959              	.LVL127:
 422:.\Transfer.c  **** 	data_to_send[_cnt++]=BYTE2(_temp);
 960              		.loc 1 422 0
 961 0046 C2F30741 		ubfx	r1, r2, #16, #8
ARM GAS  C:\Users\PANXIA~1\AppData\Local\Temp\cc1T2PPa.s 			page 26


 962 004a 6973     		strb	r1, [r5, #13]
 963              	.LVL128:
 423:.\Transfer.c  ****     data_to_send[_cnt++]=BYTE1(_temp);
 964              		.loc 1 423 0
 965 004c C2F30721 		ubfx	r1, r2, #8, #8
 966 0050 A973     		strb	r1, [r5, #14]
 967              	.LVL129:
 424:.\Transfer.c  **** 	data_to_send[_cnt++]=BYTE0(_temp);
 968              		.loc 1 424 0
 969 0052 EA73     		strb	r2, [r5, #15]
 970              	.LVL130:
 425:.\Transfer.c  **** 	
 426:.\Transfer.c  ****         _temp = a_x;
 427:.\Transfer.c  **** 	data_to_send[_cnt++]=BYTE3(_temp);
 971              		.loc 1 427 0
 972 0054 1A0E     		lsrs	r2, r3, #24
 973              	.LVL131:
 974 0056 2A74     		strb	r2, [r5, #16]
 975              	.LVL132:
 428:.\Transfer.c  **** 	data_to_send[_cnt++]=BYTE2(_temp);
 976              		.loc 1 428 0
 977 0058 C3F30742 		ubfx	r2, r3, #16, #8
 978 005c 6A74     		strb	r2, [r5, #17]
 979              	.LVL133:
 429:.\Transfer.c  ****     data_to_send[_cnt++]=BYTE1(_temp);
 980              		.loc 1 429 0
 981 005e C3F30722 		ubfx	r2, r3, #8, #8
 982 0062 AA74     		strb	r2, [r5, #18]
 983              	.LVL134:
 430:.\Transfer.c  **** 	data_to_send[_cnt++]=BYTE0(_temp);
 984              		.loc 1 430 0
 985 0064 EB74     		strb	r3, [r5, #19]
 986              	.LVL135:
 431:.\Transfer.c  ****         _temp = a_y;
 432:.\Transfer.c  **** 	data_to_send[_cnt++]=BYTE3(_temp);
 987              		.loc 1 432 0
 988 0066 3B0E     		lsrs	r3, r7, #24
 989              	.LVL136:
 990 0068 2B75     		strb	r3, [r5, #20]
 991              	.LVL137:
 433:.\Transfer.c  **** 	data_to_send[_cnt++]=BYTE2(_temp);
 992              		.loc 1 433 0
 993 006a C7F30743 		ubfx	r3, r7, #16, #8
 994 006e 6B75     		strb	r3, [r5, #21]
 995              	.LVL138:
 434:.\Transfer.c  ****     data_to_send[_cnt++]=BYTE1(_temp);
 996              		.loc 1 434 0
 997 0070 C7F30723 		ubfx	r3, r7, #8, #8
 998 0074 AB75     		strb	r3, [r5, #22]
 999              	.LVL139:
 435:.\Transfer.c  **** 	data_to_send[_cnt++]=BYTE0(_temp);
 1000              		.loc 1 435 0
 1001 0076 EF75     		strb	r7, [r5, #23]
 436:.\Transfer.c  ****         _temp = a_z;
 1002              		.loc 1 436 0
 1003 0078 0196     		str	r6, [sp, #4]
 1004              	.LVL140:
ARM GAS  C:\Users\PANXIA~1\AppData\Local\Temp\cc1T2PPa.s 			page 27


 437:.\Transfer.c  **** 	data_to_send[_cnt++]=BYTE3(_temp);
 1005              		.loc 1 437 0
 1006 007a 330E     		lsrs	r3, r6, #24
 1007 007c 2B76     		strb	r3, [r5, #24]
 1008              	.LVL141:
 438:.\Transfer.c  **** 	data_to_send[_cnt++]=BYTE2(_temp);
 1009              		.loc 1 438 0
 1010 007e C6F30743 		ubfx	r3, r6, #16, #8
 1011 0082 6B76     		strb	r3, [r5, #25]
 1012              	.LVL142:
 439:.\Transfer.c  ****     data_to_send[_cnt++]=BYTE1(_temp);
 1013              		.loc 1 439 0
 1014 0084 C6F30723 		ubfx	r3, r6, #8, #8
 1015 0088 AB76     		strb	r3, [r5, #26]
 1016              	.LVL143:
 440:.\Transfer.c  **** 	data_to_send[_cnt++]=BYTE0(_temp);
 1017              		.loc 1 440 0
 1018 008a EE76     		strb	r6, [r5, #27]
 441:.\Transfer.c  **** 	
 442:.\Transfer.c  **** 	data_to_send[3] = _cnt-4;
 1019              		.loc 1 442 0
 1020 008c 1823     		movs	r3, #24
 1021 008e EB70     		strb	r3, [r5, #3]
 1022              	.LVL144:
 443:.\Transfer.c  **** 	
 444:.\Transfer.c  **** 	uint8 sum = 0;
 445:.\Transfer.c  ****     uint8 i=0;
 446:.\Transfer.c  **** 	for( i=0;i<_cnt;i++)
 1023              		.loc 1 446 0
 1024 0090 2346     		mov	r3, r4
 444:.\Transfer.c  ****     uint8 i=0;
 1025              		.loc 1 444 0
 1026 0092 2246     		mov	r2, r4
 1027              		.loc 1 446 0
 1028 0094 05E0     		b	.L65
 1029              	.LVL145:
 1030              	.L66:
 447:.\Transfer.c  **** 		sum += data_to_send[i];
 1031              		.loc 1 447 0 discriminator 3
 1032 0096 0749     		ldr	r1, .L68
 1033 0098 C95C     		ldrb	r1, [r1, r3]	@ zero_extendqisi2
 1034 009a 0A44     		add	r2, r2, r1
 1035              	.LVL146:
 1036 009c D2B2     		uxtb	r2, r2
 1037              	.LVL147:
 446:.\Transfer.c  **** 		sum += data_to_send[i];
 1038              		.loc 1 446 0 discriminator 3
 1039 009e 0133     		adds	r3, r3, #1
 1040              	.LVL148:
 1041 00a0 DBB2     		uxtb	r3, r3
 1042              	.LVL149:
 1043              	.L65:
 446:.\Transfer.c  **** 		sum += data_to_send[i];
 1044              		.loc 1 446 0 is_stmt 0 discriminator 1
 1045 00a2 1B2B     		cmp	r3, #27
 1046 00a4 F7D9     		bls	.L66
 1047              	.LVL150:
ARM GAS  C:\Users\PANXIA~1\AppData\Local\Temp\cc1T2PPa.s 			page 28


 448:.\Transfer.c  **** 	data_to_send[_cnt++] = sum;
 1048              		.loc 1 448 0 is_stmt 1
 1049 00a6 0348     		ldr	r0, .L68
 1050 00a8 0277     		strb	r2, [r0, #28]
 449:.\Transfer.c  **** 	
 450:.\Transfer.c  **** 	DT_Send_Data(data_to_send, _cnt);
 1051              		.loc 1 450 0
 1052 00aa 1D21     		movs	r1, #29
 1053 00ac FFF7FEFF 		bl	DT_Send_Data
 1054              	.LVL151:
 451:.\Transfer.c  **** }
 1055              		.loc 1 451 0
 1056 00b0 03B0     		add	sp, sp, #12
 1057              		.cfi_def_cfa_offset 20
 1058              		@ sp needed
 1059 00b2 F0BD     		pop	{r4, r5, r6, r7, pc}
 1060              	.LVL152:
 1061              	.L69:
 1062              		.align	2
 1063              	.L68:
 1064 00b4 00000000 		.word	data_to_send
 1065              		.cfi_endproc
 1066              	.LFE70:
 1067              		.size	DT_Send_Senser, .-DT_Send_Senser
 1068              		.section	.text.DT_Send_Distance,"ax",%progbits
 1069              		.align	2
 1070              		.global	DT_Send_Distance
 1071              		.thumb
 1072              		.thumb_func
 1073              		.type	DT_Send_Distance, %function
 1074              	DT_Send_Distance:
 1075              	.LFB71:
 452:.\Transfer.c  **** void DT_Send_Distance(uint16 front_distance,uint16 back_distance)
 453:.\Transfer.c  **** {
 1076              		.loc 1 453 0
 1077              		.cfi_startproc
 1078              		@ args = 0, pretend = 0, frame = 8
 1079              		@ frame_needed = 0, uses_anonymous_args = 0
 1080              	.LVL153:
 1081 0000 10B5     		push	{r4, lr}
 1082              		.cfi_def_cfa_offset 8
 1083              		.cfi_offset 4, -8
 1084              		.cfi_offset 14, -4
 1085 0002 82B0     		sub	sp, sp, #8
 1086              		.cfi_def_cfa_offset 16
 1087 0004 ADF80600 		strh	r0, [sp, #6]	@ movhi
 1088 0008 ADF80410 		strh	r1, [sp, #4]	@ movhi
 1089              	.LVL154:
 454:.\Transfer.c  **** 	uint8 _cnt=0;
 455:.\Transfer.c  **** 	
 456:.\Transfer.c  **** 	data_to_send[_cnt++]=0xAA;
 1090              		.loc 1 456 0
 1091 000c 0F4B     		ldr	r3, .L74
 1092 000e AA22     		movs	r2, #170
 1093 0010 1A70     		strb	r2, [r3]
 1094              	.LVL155:
 457:.\Transfer.c  **** 	data_to_send[_cnt++]=0xAA;
ARM GAS  C:\Users\PANXIA~1\AppData\Local\Temp\cc1T2PPa.s 			page 29


 1095              		.loc 1 457 0
 1096 0012 5A70     		strb	r2, [r3, #1]
 1097              	.LVL156:
 458:.\Transfer.c  **** 	data_to_send[_cnt++]=0x03;
 1098              		.loc 1 458 0
 1099 0014 0322     		movs	r2, #3
 1100 0016 9A70     		strb	r2, [r3, #2]
 1101              	.LVL157:
 459:.\Transfer.c  **** 	data_to_send[_cnt++]=0;
 1102              		.loc 1 459 0
 1103 0018 0022     		movs	r2, #0
 1104              	.LVL158:
 460:.\Transfer.c  **** 	data_to_send[_cnt++]=BYTE1(front_distance);
 1105              		.loc 1 460 0
 1106 001a 040A     		lsrs	r4, r0, #8
 1107 001c 1C71     		strb	r4, [r3, #4]
 1108              	.LVL159:
 461:.\Transfer.c  **** 	data_to_send[_cnt++]=BYTE0(front_distance);
 1109              		.loc 1 461 0
 1110 001e 5871     		strb	r0, [r3, #5]
 1111              	.LVL160:
 462:.\Transfer.c  ****     
 463:.\Transfer.c  **** 	data_to_send[_cnt++]=BYTE1(back_distance);
 1112              		.loc 1 463 0
 1113 0020 080A     		lsrs	r0, r1, #8
 1114              	.LVL161:
 1115 0022 9871     		strb	r0, [r3, #6]
 1116              	.LVL162:
 464:.\Transfer.c  **** 	data_to_send[_cnt++]=BYTE0(back_distance);
 1117              		.loc 1 464 0
 1118 0024 D971     		strb	r1, [r3, #7]
 465:.\Transfer.c  **** 
 466:.\Transfer.c  **** 	data_to_send[3] = _cnt-4;
 1119              		.loc 1 466 0
 1120 0026 0421     		movs	r1, #4
 1121              	.LVL163:
 1122 0028 D970     		strb	r1, [r3, #3]
 1123              	.LVL164:
 467:.\Transfer.c  **** 	
 468:.\Transfer.c  **** 	uint8 sum = 0;
 469:.\Transfer.c  ****     uint8 i=0;
 470:.\Transfer.c  **** 	for( i=0;i<_cnt;i++)
 1124              		.loc 1 470 0
 1125 002a 1346     		mov	r3, r2
 1126 002c 05E0     		b	.L71
 1127              	.LVL165:
 1128              	.L72:
 471:.\Transfer.c  **** 		sum += data_to_send[i];
 1129              		.loc 1 471 0 discriminator 3
 1130 002e 0749     		ldr	r1, .L74
 1131 0030 C95C     		ldrb	r1, [r1, r3]	@ zero_extendqisi2
 1132 0032 0A44     		add	r2, r2, r1
 1133              	.LVL166:
 1134 0034 D2B2     		uxtb	r2, r2
 1135              	.LVL167:
 470:.\Transfer.c  **** 		sum += data_to_send[i];
 1136              		.loc 1 470 0 discriminator 3
ARM GAS  C:\Users\PANXIA~1\AppData\Local\Temp\cc1T2PPa.s 			page 30


 1137 0036 0133     		adds	r3, r3, #1
 1138              	.LVL168:
 1139 0038 DBB2     		uxtb	r3, r3
 1140              	.LVL169:
 1141              	.L71:
 470:.\Transfer.c  **** 		sum += data_to_send[i];
 1142              		.loc 1 470 0 is_stmt 0 discriminator 1
 1143 003a 072B     		cmp	r3, #7
 1144 003c F7D9     		bls	.L72
 1145              	.LVL170:
 472:.\Transfer.c  **** 	
 473:.\Transfer.c  **** 	data_to_send[_cnt++]=sum;
 1146              		.loc 1 473 0 is_stmt 1
 1147 003e 0348     		ldr	r0, .L74
 1148 0040 0272     		strb	r2, [r0, #8]
 474:.\Transfer.c  **** 	
 475:.\Transfer.c  **** 	DT_Send_Data(data_to_send, _cnt);
 1149              		.loc 1 475 0
 1150 0042 0921     		movs	r1, #9
 1151 0044 FFF7FEFF 		bl	DT_Send_Data
 1152              	.LVL171:
 476:.\Transfer.c  **** }
 1153              		.loc 1 476 0
 1154 0048 02B0     		add	sp, sp, #8
 1155              		.cfi_def_cfa_offset 8
 1156              		@ sp needed
 1157 004a 10BD     		pop	{r4, pc}
 1158              	.LVL172:
 1159              	.L75:
 1160              		.align	2
 1161              	.L74:
 1162 004c 00000000 		.word	data_to_send
 1163              		.cfi_endproc
 1164              	.LFE71:
 1165              		.size	DT_Send_Distance, .-DT_Send_Distance
 1166              		.section	.text.DT_Send_Power,"ax",%progbits
 1167              		.align	2
 1168              		.global	DT_Send_Power
 1169              		.thumb
 1170              		.thumb_func
 1171              		.type	DT_Send_Power, %function
 1172              	DT_Send_Power:
 1173              	.LFB72:
 477:.\Transfer.c  **** void DT_Send_Power(uint16 cap ,uint16 A_V, uint16 current, uint16 BatteryTemp )
 478:.\Transfer.c  **** {
 1174              		.loc 1 478 0
 1175              		.cfi_startproc
 1176              		@ args = 0, pretend = 0, frame = 8
 1177              		@ frame_needed = 0, uses_anonymous_args = 0
 1178              	.LVL173:
 1179 0000 70B5     		push	{r4, r5, r6, lr}
 1180              		.cfi_def_cfa_offset 16
 1181              		.cfi_offset 4, -16
 1182              		.cfi_offset 5, -12
 1183              		.cfi_offset 6, -8
 1184              		.cfi_offset 14, -4
 1185 0002 82B0     		sub	sp, sp, #8
ARM GAS  C:\Users\PANXIA~1\AppData\Local\Temp\cc1T2PPa.s 			page 31


 1186              		.cfi_def_cfa_offset 24
 1187              	.LVL174:
 479:.\Transfer.c  **** 	uint8 _cnt=0;
 480:.\Transfer.c  **** 	uint16 temp;
 481:.\Transfer.c  **** 	
 482:.\Transfer.c  **** 	data_to_send[_cnt++]=0xAA;
 1188              		.loc 1 482 0
 1189 0004 144D     		ldr	r5, .L80
 1190 0006 AA24     		movs	r4, #170
 1191 0008 2C70     		strb	r4, [r5]
 1192              	.LVL175:
 483:.\Transfer.c  **** 	data_to_send[_cnt++]=0xAA;
 1193              		.loc 1 483 0
 1194 000a 6C70     		strb	r4, [r5, #1]
 1195              	.LVL176:
 484:.\Transfer.c  **** 	data_to_send[_cnt++]=0x05;
 1196              		.loc 1 484 0
 1197 000c 0524     		movs	r4, #5
 1198 000e AC70     		strb	r4, [r5, #2]
 1199              	.LVL177:
 485:.\Transfer.c  **** 	data_to_send[_cnt++]=0;
 1200              		.loc 1 485 0
 1201 0010 0024     		movs	r4, #0
 1202              	.LVL178:
 486:.\Transfer.c  **** 	
 487:.\Transfer.c  **** 	temp = cap;
 488:.\Transfer.c  **** 	data_to_send[_cnt++]=BYTE1(temp);
 1203              		.loc 1 488 0
 1204 0012 060A     		lsrs	r6, r0, #8
 1205 0014 2E71     		strb	r6, [r5, #4]
 1206              	.LVL179:
 489:.\Transfer.c  **** 	data_to_send[_cnt++]=BYTE0(temp);
 1207              		.loc 1 489 0
 1208 0016 6871     		strb	r0, [r5, #5]
 1209              	.LVL180:
 490:.\Transfer.c  **** 	temp = A_V;
 491:.\Transfer.c  **** 	data_to_send[_cnt++]=BYTE1(temp);
 1210              		.loc 1 491 0
 1211 0018 080A     		lsrs	r0, r1, #8
 1212              	.LVL181:
 1213 001a A871     		strb	r0, [r5, #6]
 1214              	.LVL182:
 492:.\Transfer.c  **** 	data_to_send[_cnt++]=BYTE0(temp);
 1215              		.loc 1 492 0
 1216 001c E971     		strb	r1, [r5, #7]
 1217              	.LVL183:
 493:.\Transfer.c  **** 	
 494:.\Transfer.c  ****     temp = current;
 495:.\Transfer.c  **** 	data_to_send[_cnt++]=BYTE1(temp);
 1218              		.loc 1 495 0
 1219 001e 110A     		lsrs	r1, r2, #8
 1220              	.LVL184:
 1221 0020 2972     		strb	r1, [r5, #8]
 1222              	.LVL185:
 496:.\Transfer.c  **** 	data_to_send[_cnt++]=BYTE0(temp);
 1223              		.loc 1 496 0
 1224 0022 6A72     		strb	r2, [r5, #9]
ARM GAS  C:\Users\PANXIA~1\AppData\Local\Temp\cc1T2PPa.s 			page 32


 497:.\Transfer.c  ****     
 498:.\Transfer.c  ****     temp = BatteryTemp;
 1225              		.loc 1 498 0
 1226 0024 ADF80630 		strh	r3, [sp, #6]	@ movhi
 1227              	.LVL186:
 499:.\Transfer.c  **** 	data_to_send[_cnt++]=BYTE1(temp);
 1228              		.loc 1 499 0
 1229 0028 1A0A     		lsrs	r2, r3, #8
 1230              	.LVL187:
 1231 002a AA72     		strb	r2, [r5, #10]
 1232              	.LVL188:
 500:.\Transfer.c  **** 	data_to_send[_cnt++]=BYTE0(temp);
 1233              		.loc 1 500 0
 1234 002c EB72     		strb	r3, [r5, #11]
 501:.\Transfer.c  ****     
 502:.\Transfer.c  **** 	data_to_send[3] = _cnt-4;
 1235              		.loc 1 502 0
 1236 002e 0823     		movs	r3, #8
 1237              	.LVL189:
 1238 0030 EB70     		strb	r3, [r5, #3]
 1239              	.LVL190:
 503:.\Transfer.c  **** 	
 504:.\Transfer.c  **** 	uint8 sum = 0;
 505:.\Transfer.c  ****     uint8 i=0;
 506:.\Transfer.c  **** 	for( i=0;i<_cnt;i++)
 1240              		.loc 1 506 0
 1241 0032 2346     		mov	r3, r4
 504:.\Transfer.c  ****     uint8 i=0;
 1242              		.loc 1 504 0
 1243 0034 2246     		mov	r2, r4
 1244              		.loc 1 506 0
 1245 0036 05E0     		b	.L77
 1246              	.LVL191:
 1247              	.L78:
 507:.\Transfer.c  **** 		sum += data_to_send[i];
 1248              		.loc 1 507 0 discriminator 3
 1249 0038 0749     		ldr	r1, .L80
 1250 003a C95C     		ldrb	r1, [r1, r3]	@ zero_extendqisi2
 1251 003c 0A44     		add	r2, r2, r1
 1252              	.LVL192:
 1253 003e D2B2     		uxtb	r2, r2
 1254              	.LVL193:
 506:.\Transfer.c  **** 		sum += data_to_send[i];
 1255              		.loc 1 506 0 discriminator 3
 1256 0040 0133     		adds	r3, r3, #1
 1257              	.LVL194:
 1258 0042 DBB2     		uxtb	r3, r3
 1259              	.LVL195:
 1260              	.L77:
 506:.\Transfer.c  **** 		sum += data_to_send[i];
 1261              		.loc 1 506 0 is_stmt 0 discriminator 1
 1262 0044 0B2B     		cmp	r3, #11
 1263 0046 F7D9     		bls	.L78
 1264              	.LVL196:
 508:.\Transfer.c  **** 	
 509:.\Transfer.c  **** 	data_to_send[_cnt++]=sum;  
 1265              		.loc 1 509 0 is_stmt 1
ARM GAS  C:\Users\PANXIA~1\AppData\Local\Temp\cc1T2PPa.s 			page 33


 1266 0048 0348     		ldr	r0, .L80
 1267 004a 0273     		strb	r2, [r0, #12]
 510:.\Transfer.c  **** 	DT_Send_Data(data_to_send, _cnt);
 1268              		.loc 1 510 0
 1269 004c 0D21     		movs	r1, #13
 1270 004e FFF7FEFF 		bl	DT_Send_Data
 1271              	.LVL197:
 511:.\Transfer.c  ****     
 512:.\Transfer.c  **** }
 1272              		.loc 1 512 0
 1273 0052 02B0     		add	sp, sp, #8
 1274              		.cfi_def_cfa_offset 16
 1275              		@ sp needed
 1276 0054 70BD     		pop	{r4, r5, r6, pc}
 1277              	.L81:
 1278 0056 00BF     		.align	2
 1279              	.L80:
 1280 0058 00000000 		.word	data_to_send
 1281              		.cfi_endproc
 1282              	.LFE72:
 1283              		.size	DT_Send_Power, .-DT_Send_Power
 1284              		.global	__aeabi_i2d
 1285              		.global	__aeabi_dmul
 1286              		.global	__aeabi_d2f
 1287              		.global	__aeabi_fmul
 1288              		.global	__aeabi_f2iz
 1289              		.section	.text.DT_Data_Exchange,"ax",%progbits
 1290              		.align	2
 1291              		.global	DT_Data_Exchange
 1292              		.thumb
 1293              		.thumb_func
 1294              		.type	DT_Data_Exchange, %function
 1295              	DT_Data_Exchange:
 1296              	.LFB63:
  16:.\Transfer.c  ****     static float temp_pitch;
 1297              		.loc 1 16 0
 1298              		.cfi_startproc
 1299              		@ args = 0, pretend = 0, frame = 0
 1300              		@ frame_needed = 0, uses_anonymous_args = 0
 1301 0000 2DE9F047 		push	{r4, r5, r6, r7, r8, r9, r10, lr}
 1302              		.cfi_def_cfa_offset 32
 1303              		.cfi_offset 4, -32
 1304              		.cfi_offset 5, -28
 1305              		.cfi_offset 6, -24
 1306              		.cfi_offset 7, -20
 1307              		.cfi_offset 8, -16
 1308              		.cfi_offset 9, -12
 1309              		.cfi_offset 10, -8
 1310              		.cfi_offset 14, -4
 1311 0004 82B0     		sub	sp, sp, #8
 1312              		.cfi_def_cfa_offset 40
  28:.\Transfer.c  **** 		f.send_senser = 1;	
 1313              		.loc 1 28 0
 1314 0006 7C4B     		ldr	r3, .L95
 1315 0008 93F83820 		ldrb	r2, [r3, #56]	@ zero_extendqisi2
 1316 000c 7B4B     		ldr	r3, .L95+4
 1317 000e A3FB0213 		umull	r1, r3, r3, r2
ARM GAS  C:\Users\PANXIA~1\AppData\Local\Temp\cc1T2PPa.s 			page 34


 1318 0012 9B08     		lsrs	r3, r3, #2
 1319 0014 03EB8303 		add	r3, r3, r3, lsl #2
 1320 0018 D31A     		subs	r3, r2, r3
 1321 001a DBB2     		uxtb	r3, r3
 1322 001c 042B     		cmp	r3, #4
 1323 001e 02D1     		bne	.L83
  29:.\Transfer.c  **** 	
 1324              		.loc 1 29 0
 1325 0020 0121     		movs	r1, #1
 1326 0022 774B     		ldr	r3, .L95+8
 1327 0024 9970     		strb	r1, [r3, #2]
 1328              	.L83:
  31:.\Transfer.c  **** 		f.send_status = 1;	
 1329              		.loc 1 31 0
 1330 0026 774B     		ldr	r3, .L95+12
 1331 0028 A3FB0213 		umull	r1, r3, r3, r2
 1332 002c DB08     		lsrs	r3, r3, #3
 1333 002e 03EB8301 		add	r1, r3, r3, lsl #2
 1334 0032 03EB4103 		add	r3, r3, r1, lsl #1
 1335 0036 D31A     		subs	r3, r2, r3
 1336 0038 DBB2     		uxtb	r3, r3
 1337 003a 0A2B     		cmp	r3, #10
 1338 003c 02D1     		bne	.L84
  32:.\Transfer.c  **** 	
 1339              		.loc 1 32 0
 1340 003e 0121     		movs	r1, #1
 1341 0040 6F4B     		ldr	r3, .L95+8
 1342 0042 5970     		strb	r1, [r3, #1]
 1343              	.L84:
  34:.\Transfer.c  **** 		f.send_distance = 1;	
 1344              		.loc 1 34 0
 1345 0044 704B     		ldr	r3, .L95+16
 1346 0046 A3FB0213 		umull	r1, r3, r3, r2
 1347 004a 9B08     		lsrs	r3, r3, #2
 1348 004c 03EB4301 		add	r1, r3, r3, lsl #1
 1349 0050 03EB8103 		add	r3, r3, r1, lsl #2
 1350 0054 D31A     		subs	r3, r2, r3
 1351 0056 DBB2     		uxtb	r3, r3
 1352 0058 0C2B     		cmp	r3, #12
 1353 005a 02D1     		bne	.L85
  35:.\Transfer.c  **** 	
 1354              		.loc 1 35 0
 1355 005c 0121     		movs	r1, #1
 1356 005e 684B     		ldr	r3, .L95+8
 1357 0060 5972     		strb	r1, [r3, #9]
 1358              	.L85:
  37:.\Transfer.c  **** 		f.send_motopwm = 1;	
 1359              		.loc 1 37 0
 1360 0062 664B     		ldr	r3, .L95+4
 1361 0064 A3FB0213 		umull	r1, r3, r3, r2
 1362 0068 1B09     		lsrs	r3, r3, #4
 1363 006a 03EB8303 		add	r3, r3, r3, lsl #2
 1364 006e 9B00     		lsls	r3, r3, #2
 1365 0070 D31A     		subs	r3, r2, r3
 1366 0072 DBB2     		uxtb	r3, r3
 1367 0074 132B     		cmp	r3, #19
 1368 0076 02D1     		bne	.L86
ARM GAS  C:\Users\PANXIA~1\AppData\Local\Temp\cc1T2PPa.s 			page 35


  38:.\Transfer.c  ****     
 1369              		.loc 1 38 0
 1370 0078 0121     		movs	r1, #1
 1371 007a 614B     		ldr	r3, .L95+8
 1372 007c D972     		strb	r1, [r3, #11]
 1373              	.L86:
  40:.\Transfer.c  **** 		f.send_power = 1;		
 1374              		.loc 1 40 0
 1375 007e 02F00703 		and	r3, r2, #7
 1376 0082 072B     		cmp	r3, #7
 1377 0084 02D1     		bne	.L87
  41:.\Transfer.c  ****     
 1378              		.loc 1 41 0
 1379 0086 0121     		movs	r1, #1
 1380 0088 5D4B     		ldr	r3, .L95+8
 1381 008a 1973     		strb	r1, [r3, #12]
 1382              	.L87:
  43:.\Transfer.c  **** /////////////////////////////////////////////////////////////////////////////////////
 1383              		.loc 1 43 0
 1384 008c 0132     		adds	r2, r2, #1
 1385 008e 5A4B     		ldr	r3, .L95
 1386 0090 83F83820 		strb	r2, [r3, #56]
  45:.\Transfer.c  **** 	{
 1387              		.loc 1 45 0
 1388 0094 5A4B     		ldr	r3, .L95+8
 1389 0096 1B78     		ldrb	r3, [r3]	@ zero_extendqisi2
 1390 0098 BBB1     		cbz	r3, .L88
  48:.\Transfer.c  ****         if(f.send_version == 50)
 1391              		.loc 1 48 0
 1392 009a 0133     		adds	r3, r3, #1
 1393 009c DBB2     		uxtb	r3, r3
 1394 009e 584A     		ldr	r2, .L95+8
 1395 00a0 1370     		strb	r3, [r2]
  49:.\Transfer.c  ****         {
 1396              		.loc 1 49 0
 1397 00a2 322B     		cmp	r3, #50
 1398 00a4 02D1     		bne	.L89
  51:.\Transfer.c  ****         }
 1399              		.loc 1 51 0
 1400 00a6 0022     		movs	r2, #0
 1401 00a8 554B     		ldr	r3, .L95+8
 1402 00aa 1A70     		strb	r2, [r3]
 1403              	.L89:
  53:.\Transfer.c  **** 	}
 1404              		.loc 1 53 0
 1405 00ac 574C     		ldr	r4, .L95+20
 1406 00ae B4F84C00 		ldrh	r0, [r4, #76]
 1407 00b2 B4F84E10 		ldrh	r1, [r4, #78]
 1408 00b6 B4F84020 		ldrh	r2, [r4, #64]
 1409 00ba B4F84230 		ldrh	r3, [r4, #66]
 1410 00be B4F84440 		ldrh	r4, [r4, #68]
 1411 00c2 0094     		str	r4, [sp]
 1412 00c4 FFF7FEFF 		bl	DT_Send_SystemInfo
 1413              	.LVL198:
 1414 00c8 93E0     		b	.L82
 1415              	.L88:
  56:.\Transfer.c  **** 	{
ARM GAS  C:\Users\PANXIA~1\AppData\Local\Temp\cc1T2PPa.s 			page 36


 1416              		.loc 1 56 0
 1417 00ca 4D4B     		ldr	r3, .L95+8
 1418 00cc 5B78     		ldrb	r3, [r3, #1]	@ zero_extendqisi2
 1419 00ce 83B1     		cbz	r3, .L91
  58:.\Transfer.c  ****     	DT_Send_Status(0,g_Car.set_dir,g_Car.set_car_speed/10,P_V,g_Car.Xkm);
 1420              		.loc 1 58 0
 1421 00d0 0020     		movs	r0, #0
 1422 00d2 4B4B     		ldr	r3, .L95+8
 1423 00d4 5870     		strb	r0, [r3, #1]
  59:.\Transfer.c  **** 	}	
 1424              		.loc 1 59 0
 1425 00d6 4D4C     		ldr	r4, .L95+20
 1426 00d8 E388     		ldrh	r3, [r4, #6]
 1427 00da A178     		ldrb	r1, [r4, #2]	@ zero_extendqisi2
 1428 00dc 474A     		ldr	r2, .L95+4
 1429 00de A2FB0332 		umull	r3, r2, r2, r3
 1430 00e2 4B4B     		ldr	r3, .L95+24
 1431 00e4 1B88     		ldrh	r3, [r3]
 1432 00e6 A46A     		ldr	r4, [r4, #40]
 1433 00e8 0094     		str	r4, [sp]
 1434 00ea D208     		lsrs	r2, r2, #3
 1435 00ec FFF7FEFF 		bl	DT_Send_Status
 1436              	.LVL199:
 1437 00f0 7FE0     		b	.L82
 1438              	.L91:
  62:.\Transfer.c  **** 	{
 1439              		.loc 1 62 0
 1440 00f2 434B     		ldr	r3, .L95+8
 1441 00f4 9B78     		ldrb	r3, [r3, #2]	@ zero_extendqisi2
 1442 00f6 002B     		cmp	r3, #0
 1443 00f8 5ED0     		beq	.L92
  64:.\Transfer.c  ****         temp_pitch =  (S_IMU.pitch/32768.0*180);
 1444              		.loc 1 64 0
 1445 00fa 0026     		movs	r6, #0
 1446 00fc 404B     		ldr	r3, .L95+8
 1447 00fe 9E70     		strb	r6, [r3, #2]
  65:.\Transfer.c  ****         tmep_roll =   (S_IMU.roll/32768.0*180);
 1448              		.loc 1 65 0
 1449 0100 444D     		ldr	r5, .L95+28
 1450 0102 B5F90C00 		ldrsh	r0, [r5, #12]
 1451 0106 FFF7FEFF 		bl	__aeabi_i2d
 1452              	.LVL200:
 1453 010a 0022     		movs	r2, #0
 1454 010c 4FF07C53 		mov	r3, #1056964608
 1455 0110 FFF7FEFF 		bl	__aeabi_dmul
 1456              	.LVL201:
 1457 0114 0022     		movs	r2, #0
 1458 0116 404B     		ldr	r3, .L95+32
 1459 0118 FFF7FEFF 		bl	__aeabi_dmul
 1460              	.LVL202:
 1461 011c FFF7FEFF 		bl	__aeabi_d2f
 1462              	.LVL203:
 1463 0120 8046     		mov	r8, r0
 1464 0122 354C     		ldr	r4, .L95
 1465 0124 E063     		str	r0, [r4, #60]	@ float
  66:.\Transfer.c  ****         temp_yaw   =  (S_IMU.yaw/32768.0*180);
 1466              		.loc 1 66 0
ARM GAS  C:\Users\PANXIA~1\AppData\Local\Temp\cc1T2PPa.s 			page 37


 1467 0126 B5F90E00 		ldrsh	r0, [r5, #14]
 1468 012a FFF7FEFF 		bl	__aeabi_i2d
 1469              	.LVL204:
 1470 012e 0022     		movs	r2, #0
 1471 0130 4FF07C53 		mov	r3, #1056964608
 1472 0134 FFF7FEFF 		bl	__aeabi_dmul
 1473              	.LVL205:
 1474 0138 0022     		movs	r2, #0
 1475 013a 374B     		ldr	r3, .L95+32
 1476 013c FFF7FEFF 		bl	__aeabi_dmul
 1477              	.LVL206:
 1478 0140 FFF7FEFF 		bl	__aeabi_d2f
 1479              	.LVL207:
 1480 0144 0746     		mov	r7, r0
 1481 0146 2064     		str	r0, [r4, #64]	@ float
  67:.\Transfer.c  ****       
 1482              		.loc 1 67 0
 1483 0148 B5F91000 		ldrsh	r0, [r5, #16]
 1484 014c FFF7FEFF 		bl	__aeabi_i2d
 1485              	.LVL208:
 1486 0150 0022     		movs	r2, #0
 1487 0152 4FF07C53 		mov	r3, #1056964608
 1488 0156 FFF7FEFF 		bl	__aeabi_dmul
 1489              	.LVL209:
 1490 015a 0022     		movs	r2, #0
 1491 015c 2E4B     		ldr	r3, .L95+32
 1492 015e FFF7FEFF 		bl	__aeabi_dmul
 1493              	.LVL210:
 1494 0162 FFF7FEFF 		bl	__aeabi_d2f
 1495              	.LVL211:
 1496 0166 0546     		mov	r5, r0
 1497 0168 6064     		str	r0, [r4, #68]	@ float
  69:.\Transfer.c  **** 	}	
 1498              		.loc 1 69 0
 1499 016a 4046     		mov	r0, r8
 1500 016c 2B49     		ldr	r1, .L95+36
 1501 016e FFF7FEFF 		bl	__aeabi_fmul
 1502              	.LVL212:
 1503 0172 8146     		mov	r9, r0
 1504 0174 3846     		mov	r0, r7
 1505 0176 2949     		ldr	r1, .L95+36
 1506 0178 FFF7FEFF 		bl	__aeabi_fmul
 1507              	.LVL213:
 1508 017c 8246     		mov	r10, r0
 1509 017e 2846     		mov	r0, r5
 1510 0180 2649     		ldr	r1, .L95+36
 1511 0182 FFF7FEFF 		bl	__aeabi_fmul
 1512              	.LVL214:
 1513 0186 8046     		mov	r8, r0
 1514 0188 204B     		ldr	r3, .L95+20
 1515 018a DC8D     		ldrh	r4, [r3, #46]
 1516 018c 93F83070 		ldrb	r7, [r3, #48]	@ zero_extendqisi2
 1517 0190 4846     		mov	r0, r9
 1518 0192 FFF7FEFF 		bl	__aeabi_f2iz
 1519              	.LVL215:
 1520 0196 8146     		mov	r9, r0
 1521 0198 5046     		mov	r0, r10
ARM GAS  C:\Users\PANXIA~1\AppData\Local\Temp\cc1T2PPa.s 			page 38


 1522 019a FFF7FEFF 		bl	__aeabi_f2iz
 1523              	.LVL216:
 1524 019e 0546     		mov	r5, r0
 1525 01a0 4046     		mov	r0, r8
 1526 01a2 FFF7FEFF 		bl	__aeabi_f2iz
 1527              	.LVL217:
 1528 01a6 0246     		mov	r2, r0
 1529 01a8 0097     		str	r7, [sp]
 1530 01aa 0196     		str	r6, [sp, #4]
 1531 01ac 4846     		mov	r0, r9
 1532 01ae 2946     		mov	r1, r5
 1533 01b0 2346     		mov	r3, r4
 1534 01b2 FFF7FEFF 		bl	DT_Send_Senser
 1535              	.LVL218:
 1536 01b6 1CE0     		b	.L82
 1537              	.L92:
  74:.\Transfer.c  **** 	{
 1538              		.loc 1 74 0
 1539 01b8 114B     		ldr	r3, .L95+8
 1540 01ba 5B7A     		ldrb	r3, [r3, #9]	@ zero_extendqisi2
 1541 01bc 43B1     		cbz	r3, .L93
  76:.\Transfer.c  **** 	   DT_Send_Distance(g_Car.distance_front,g_Car.distance_back);
 1542              		.loc 1 76 0
 1543 01be 0022     		movs	r2, #0
 1544 01c0 0F4B     		ldr	r3, .L95+8
 1545 01c2 5A72     		strb	r2, [r3, #9]
  77:.\Transfer.c  ****          
 1546              		.loc 1 77 0
 1547 01c4 114B     		ldr	r3, .L95+20
 1548 01c6 588C     		ldrh	r0, [r3, #34]
 1549 01c8 998C     		ldrh	r1, [r3, #36]
 1550 01ca FFF7FEFF 		bl	DT_Send_Distance
 1551              	.LVL219:
 1552 01ce 10E0     		b	.L82
 1553              	.L93:
  80:.\Transfer.c  **** 	{
 1554              		.loc 1 80 0
 1555 01d0 0B4B     		ldr	r3, .L95+8
 1556 01d2 1B7B     		ldrb	r3, [r3, #12]	@ zero_extendqisi2
 1557 01d4 6BB1     		cbz	r3, .L82
  82:.\Transfer.c  ****         DT_Send_Power(g_Car.cap,g_Car.A_V,g_Car.current,g_Car.batteryTemp);
 1558              		.loc 1 82 0
 1559 01d6 0022     		movs	r2, #0
 1560 01d8 094B     		ldr	r3, .L95+8
 1561 01da 1A73     		strb	r2, [r3, #12]
  83:.\Transfer.c  ****         
 1562              		.loc 1 83 0
 1563 01dc 0B4B     		ldr	r3, .L95+20
 1564 01de B3F85C00 		ldrh	r0, [r3, #92]
 1565 01e2 B3F85610 		ldrh	r1, [r3, #86]
 1566 01e6 B3F85A20 		ldrh	r2, [r3, #90]
 1567 01ea B3F85830 		ldrh	r3, [r3, #88]
 1568 01ee FFF7FEFF 		bl	DT_Send_Power
 1569              	.LVL220:
 1570              	.L82:
  89:.\Transfer.c  **** 
 1571              		.loc 1 89 0
ARM GAS  C:\Users\PANXIA~1\AppData\Local\Temp\cc1T2PPa.s 			page 39


 1572 01f2 02B0     		add	sp, sp, #8
 1573              		.cfi_def_cfa_offset 32
 1574              		@ sp needed
 1575 01f4 BDE8F087 		pop	{r4, r5, r6, r7, r8, r9, r10, pc}
 1576              	.L96:
 1577              		.align	2
 1578              	.L95:
 1579 01f8 00000000 		.word	.LANCHOR0
 1580 01fc CDCCCCCC 		.word	-858993459
 1581 0200 00000000 		.word	f
 1582 0204 A38B2EBA 		.word	-1171354717
 1583 0208 4FECC44E 		.word	1321528399
 1584 020c 00000000 		.word	g_Car
 1585 0210 00000000 		.word	P_V
 1586 0214 00000000 		.word	S_IMU
 1587 0218 00806640 		.word	1080459264
 1588 021c 00007A44 		.word	1148846080
 1589              		.cfi_endproc
 1590              	.LFE63:
 1591              		.size	DT_Data_Exchange, .-DT_Data_Exchange
 1592              		.section	.text.DT_Send_MotoPWM,"ax",%progbits
 1593              		.align	2
 1594              		.global	DT_Send_MotoPWM
 1595              		.thumb
 1596              		.thumb_func
 1597              		.type	DT_Send_MotoPWM, %function
 1598              	DT_Send_MotoPWM:
 1599              	.LFB73:
 513:.\Transfer.c  **** void DT_Send_MotoPWM(uint16 m_1,uint16 m_2,uint16 m_3,uint16 m_4,uint16 m_5,uint16 m_6,uint16 m_7,u
 514:.\Transfer.c  **** {
 1600              		.loc 1 514 0
 1601              		.cfi_startproc
 1602              		@ args = 16, pretend = 0, frame = 8
 1603              		@ frame_needed = 0, uses_anonymous_args = 0
 1604              	.LVL221:
 1605 0000 70B5     		push	{r4, r5, r6, lr}
 1606              		.cfi_def_cfa_offset 16
 1607              		.cfi_offset 4, -16
 1608              		.cfi_offset 5, -12
 1609              		.cfi_offset 6, -8
 1610              		.cfi_offset 14, -4
 1611 0002 82B0     		sub	sp, sp, #8
 1612              		.cfi_def_cfa_offset 24
 1613 0004 ADF80600 		strh	r0, [sp, #6]	@ movhi
 1614 0008 ADF80410 		strh	r1, [sp, #4]	@ movhi
 1615 000c ADF80220 		strh	r2, [sp, #2]	@ movhi
 1616 0010 ADF80030 		strh	r3, [sp]	@ movhi
 1617              	.LVL222:
 515:.\Transfer.c  **** 	uint8 _cnt=0;
 516:.\Transfer.c  **** 	
 517:.\Transfer.c  **** 	data_to_send[_cnt++]=0xAA;
 1618              		.loc 1 517 0
 1619 0014 1F4D     		ldr	r5, .L101
 1620 0016 AA24     		movs	r4, #170
 1621 0018 2C70     		strb	r4, [r5]
 1622              	.LVL223:
 518:.\Transfer.c  **** 	data_to_send[_cnt++]=0xAA;
ARM GAS  C:\Users\PANXIA~1\AppData\Local\Temp\cc1T2PPa.s 			page 40


 1623              		.loc 1 518 0
 1624 001a 6C70     		strb	r4, [r5, #1]
 1625              	.LVL224:
 519:.\Transfer.c  **** 	data_to_send[_cnt++]=0x06;
 1626              		.loc 1 519 0
 1627 001c 0624     		movs	r4, #6
 1628 001e AC70     		strb	r4, [r5, #2]
 1629              	.LVL225:
 520:.\Transfer.c  **** 	data_to_send[_cnt++]=0;
 1630              		.loc 1 520 0
 1631 0020 0024     		movs	r4, #0
 1632              	.LVL226:
 521:.\Transfer.c  **** 	
 522:.\Transfer.c  **** 	data_to_send[_cnt++]=BYTE1(m_1);
 1633              		.loc 1 522 0
 1634 0022 060A     		lsrs	r6, r0, #8
 1635 0024 2E71     		strb	r6, [r5, #4]
 1636              	.LVL227:
 523:.\Transfer.c  **** 	data_to_send[_cnt++]=BYTE0(m_1);
 1637              		.loc 1 523 0
 1638 0026 6871     		strb	r0, [r5, #5]
 1639              	.LVL228:
 524:.\Transfer.c  **** 	data_to_send[_cnt++]=BYTE1(m_2);
 1640              		.loc 1 524 0
 1641 0028 080A     		lsrs	r0, r1, #8
 1642              	.LVL229:
 1643 002a A871     		strb	r0, [r5, #6]
 1644              	.LVL230:
 525:.\Transfer.c  **** 	data_to_send[_cnt++]=BYTE0(m_2);
 1645              		.loc 1 525 0
 1646 002c E971     		strb	r1, [r5, #7]
 1647              	.LVL231:
 526:.\Transfer.c  **** 	data_to_send[_cnt++]=BYTE1(m_3);
 1648              		.loc 1 526 0
 1649 002e 110A     		lsrs	r1, r2, #8
 1650              	.LVL232:
 1651 0030 2972     		strb	r1, [r5, #8]
 1652              	.LVL233:
 527:.\Transfer.c  **** 	data_to_send[_cnt++]=BYTE0(m_3);
 1653              		.loc 1 527 0
 1654 0032 6A72     		strb	r2, [r5, #9]
 1655              	.LVL234:
 528:.\Transfer.c  **** 	data_to_send[_cnt++]=BYTE1(m_4);
 1656              		.loc 1 528 0
 1657 0034 1A0A     		lsrs	r2, r3, #8
 1658              	.LVL235:
 1659 0036 AA72     		strb	r2, [r5, #10]
 1660              	.LVL236:
 529:.\Transfer.c  **** 	data_to_send[_cnt++]=BYTE0(m_4);
 1661              		.loc 1 529 0
 1662 0038 EB72     		strb	r3, [r5, #11]
 1663              	.LVL237:
 530:.\Transfer.c  **** 	data_to_send[_cnt++]=BYTE1(m_5);
 1664              		.loc 1 530 0
 1665 003a 9DF81930 		ldrb	r3, [sp, #25]	@ zero_extendqisi2
 1666              	.LVL238:
 1667 003e 2B73     		strb	r3, [r5, #12]
ARM GAS  C:\Users\PANXIA~1\AppData\Local\Temp\cc1T2PPa.s 			page 41


 1668              	.LVL239:
 531:.\Transfer.c  **** 	data_to_send[_cnt++]=BYTE0(m_5);
 1669              		.loc 1 531 0
 1670 0040 9DF81830 		ldrb	r3, [sp, #24]	@ zero_extendqisi2
 1671 0044 6B73     		strb	r3, [r5, #13]
 1672              	.LVL240:
 532:.\Transfer.c  **** 	data_to_send[_cnt++]=BYTE1(m_6);
 1673              		.loc 1 532 0
 1674 0046 9DF81D30 		ldrb	r3, [sp, #29]	@ zero_extendqisi2
 1675 004a AB73     		strb	r3, [r5, #14]
 1676              	.LVL241:
 533:.\Transfer.c  **** 	data_to_send[_cnt++]=BYTE0(m_6);
 1677              		.loc 1 533 0
 1678 004c 9DF81C30 		ldrb	r3, [sp, #28]	@ zero_extendqisi2
 1679 0050 EB73     		strb	r3, [r5, #15]
 1680              	.LVL242:
 534:.\Transfer.c  **** 	data_to_send[_cnt++]=BYTE1(m_7);
 1681              		.loc 1 534 0
 1682 0052 9DF82130 		ldrb	r3, [sp, #33]	@ zero_extendqisi2
 1683 0056 2B74     		strb	r3, [r5, #16]
 1684              	.LVL243:
 535:.\Transfer.c  **** 	data_to_send[_cnt++]=BYTE0(m_7);
 1685              		.loc 1 535 0
 1686 0058 9DF82030 		ldrb	r3, [sp, #32]	@ zero_extendqisi2
 1687 005c 6B74     		strb	r3, [r5, #17]
 1688              	.LVL244:
 536:.\Transfer.c  **** 	data_to_send[_cnt++]=BYTE1(m_8);
 1689              		.loc 1 536 0
 1690 005e 9DF82530 		ldrb	r3, [sp, #37]	@ zero_extendqisi2
 1691 0062 AB74     		strb	r3, [r5, #18]
 1692              	.LVL245:
 537:.\Transfer.c  **** 	data_to_send[_cnt++]=BYTE0(m_8);
 1693              		.loc 1 537 0
 1694 0064 9DF82430 		ldrb	r3, [sp, #36]	@ zero_extendqisi2
 1695 0068 EB74     		strb	r3, [r5, #19]
 538:.\Transfer.c  **** 	
 539:.\Transfer.c  **** 	data_to_send[3] = _cnt-4;
 1696              		.loc 1 539 0
 1697 006a 1023     		movs	r3, #16
 1698 006c EB70     		strb	r3, [r5, #3]
 1699              	.LVL246:
 540:.\Transfer.c  **** 	
 541:.\Transfer.c  **** 	uint8 sum = 0;
 542:.\Transfer.c  ****     uint8 i=0;
 543:.\Transfer.c  **** 	for(i=0;i<_cnt;i++)
 1700              		.loc 1 543 0
 1701 006e 2346     		mov	r3, r4
 541:.\Transfer.c  ****     uint8 i=0;
 1702              		.loc 1 541 0
 1703 0070 2246     		mov	r2, r4
 1704              		.loc 1 543 0
 1705 0072 05E0     		b	.L98
 1706              	.LVL247:
 1707              	.L99:
 544:.\Transfer.c  **** 		sum += data_to_send[i];
 1708              		.loc 1 544 0 discriminator 3
 1709 0074 0749     		ldr	r1, .L101
ARM GAS  C:\Users\PANXIA~1\AppData\Local\Temp\cc1T2PPa.s 			page 42


 1710 0076 C95C     		ldrb	r1, [r1, r3]	@ zero_extendqisi2
 1711 0078 0A44     		add	r2, r2, r1
 1712              	.LVL248:
 1713 007a D2B2     		uxtb	r2, r2
 1714              	.LVL249:
 543:.\Transfer.c  **** 		sum += data_to_send[i];
 1715              		.loc 1 543 0 discriminator 3
 1716 007c 0133     		adds	r3, r3, #1
 1717              	.LVL250:
 1718 007e DBB2     		uxtb	r3, r3
 1719              	.LVL251:
 1720              	.L98:
 543:.\Transfer.c  **** 		sum += data_to_send[i];
 1721              		.loc 1 543 0 is_stmt 0 discriminator 1
 1722 0080 132B     		cmp	r3, #19
 1723 0082 F7D9     		bls	.L99
 1724              	.LVL252:
 545:.\Transfer.c  **** 	
 546:.\Transfer.c  **** 	data_to_send[_cnt++]=sum;
 1725              		.loc 1 546 0 is_stmt 1
 1726 0084 0348     		ldr	r0, .L101
 1727 0086 0275     		strb	r2, [r0, #20]
 547:.\Transfer.c  **** 	
 548:.\Transfer.c  **** 	DT_Send_Data(data_to_send, _cnt);
 1728              		.loc 1 548 0
 1729 0088 1521     		movs	r1, #21
 1730 008a FFF7FEFF 		bl	DT_Send_Data
 1731              	.LVL253:
 549:.\Transfer.c  **** }
 1732              		.loc 1 549 0
 1733 008e 02B0     		add	sp, sp, #8
 1734              		.cfi_def_cfa_offset 16
 1735              	.LVL254:
 1736              		@ sp needed
 1737 0090 70BD     		pop	{r4, r5, r6, pc}
 1738              	.LVL255:
 1739              	.L102:
 1740 0092 00BF     		.align	2
 1741              	.L101:
 1742 0094 00000000 		.word	data_to_send
 1743              		.cfi_endproc
 1744              	.LFE73:
 1745              		.size	DT_Send_MotoPWM, .-DT_Send_MotoPWM
 1746              		.section	.text.DT_Send_PID,"ax",%progbits
 1747              		.align	2
 1748              		.global	DT_Send_PID
 1749              		.thumb
 1750              		.thumb_func
 1751              		.type	DT_Send_PID, %function
 1752              	DT_Send_PID:
 1753              	.LFB74:
 550:.\Transfer.c  **** void DT_Send_PID(uint8 group,float p1_p,float p1_i,float p1_d,float p2_p,float p2_i,float p2_d,floa
 551:.\Transfer.c  **** {
 1754              		.loc 1 551 0
 1755              		.cfi_startproc
 1756              		@ args = 24, pretend = 0, frame = 8
 1757              		@ frame_needed = 0, uses_anonymous_args = 0
ARM GAS  C:\Users\PANXIA~1\AppData\Local\Temp\cc1T2PPa.s 			page 43


 1758              	.LVL256:
 1759 0000 F0B5     		push	{r4, r5, r6, r7, lr}
 1760              		.cfi_def_cfa_offset 20
 1761              		.cfi_offset 4, -20
 1762              		.cfi_offset 5, -16
 1763              		.cfi_offset 6, -12
 1764              		.cfi_offset 7, -8
 1765              		.cfi_offset 14, -4
 1766 0002 83B0     		sub	sp, sp, #12
 1767              		.cfi_def_cfa_offset 32
 1768 0004 1746     		mov	r7, r2
 1769 0006 1E46     		mov	r6, r3
 1770              	.LVL257:
 552:.\Transfer.c  **** 	uint8 _cnt=0;
 553:.\Transfer.c  **** 	int16 _temp;
 554:.\Transfer.c  **** 	
 555:.\Transfer.c  **** 	data_to_send[_cnt++]=0xAA;
 1771              		.loc 1 555 0
 1772 0008 3B4D     		ldr	r5, .L107
 1773 000a AA23     		movs	r3, #170
 1774              	.LVL258:
 1775 000c 2B70     		strb	r3, [r5]
 1776              	.LVL259:
 556:.\Transfer.c  **** 	data_to_send[_cnt++]=0xAA;
 1777              		.loc 1 556 0
 1778 000e 6B70     		strb	r3, [r5, #1]
 1779              	.LVL260:
 557:.\Transfer.c  **** 	data_to_send[_cnt++]=0x10+group-1;
 1780              		.loc 1 557 0
 1781 0010 0F30     		adds	r0, r0, #15
 1782              	.LVL261:
 1783 0012 A870     		strb	r0, [r5, #2]
 1784              	.LVL262:
 558:.\Transfer.c  **** 	data_to_send[_cnt++]=0;
 1785              		.loc 1 558 0
 1786 0014 0024     		movs	r4, #0
 559:.\Transfer.c  **** 	
 560:.\Transfer.c  **** 	
 561:.\Transfer.c  **** 	_temp = p1_p * 1000;
 1787              		.loc 1 561 0
 1788 0016 0846     		mov	r0, r1
 1789 0018 3849     		ldr	r1, .L107+4
 1790              	.LVL263:
 1791 001a FFF7FEFF 		bl	__aeabi_fmul
 1792              	.LVL264:
 1793 001e FFF7FEFF 		bl	__aeabi_f2iz
 1794              	.LVL265:
 562:.\Transfer.c  **** 	data_to_send[_cnt++]=BYTE1(_temp);
 1795              		.loc 1 562 0
 1796 0022 C0F30723 		ubfx	r3, r0, #8, #8
 1797 0026 2B71     		strb	r3, [r5, #4]
 1798              	.LVL266:
 563:.\Transfer.c  **** 	data_to_send[_cnt++]=BYTE0(_temp);
 1799              		.loc 1 563 0
 1800 0028 6871     		strb	r0, [r5, #5]
 564:.\Transfer.c  **** 	_temp = p1_i  * 1000;
 1801              		.loc 1 564 0
ARM GAS  C:\Users\PANXIA~1\AppData\Local\Temp\cc1T2PPa.s 			page 44


 1802 002a 3846     		mov	r0, r7
 1803 002c 3349     		ldr	r1, .L107+4
 1804 002e FFF7FEFF 		bl	__aeabi_fmul
 1805              	.LVL267:
 1806 0032 FFF7FEFF 		bl	__aeabi_f2iz
 1807              	.LVL268:
 565:.\Transfer.c  **** 	data_to_send[_cnt++]=BYTE1(_temp);
 1808              		.loc 1 565 0
 1809 0036 C0F30723 		ubfx	r3, r0, #8, #8
 1810 003a AB71     		strb	r3, [r5, #6]
 1811              	.LVL269:
 566:.\Transfer.c  **** 	data_to_send[_cnt++]=BYTE0(_temp);
 1812              		.loc 1 566 0
 1813 003c E871     		strb	r0, [r5, #7]
 567:.\Transfer.c  **** 	_temp = p1_d  * 1000;
 1814              		.loc 1 567 0
 1815 003e 3046     		mov	r0, r6
 1816 0040 2E49     		ldr	r1, .L107+4
 1817 0042 FFF7FEFF 		bl	__aeabi_fmul
 1818              	.LVL270:
 1819 0046 FFF7FEFF 		bl	__aeabi_f2iz
 1820              	.LVL271:
 568:.\Transfer.c  **** 	data_to_send[_cnt++]=BYTE1(_temp);
 1821              		.loc 1 568 0
 1822 004a C0F30723 		ubfx	r3, r0, #8, #8
 1823 004e 2B72     		strb	r3, [r5, #8]
 1824              	.LVL272:
 569:.\Transfer.c  **** 	data_to_send[_cnt++]=BYTE0(_temp);
 1825              		.loc 1 569 0
 1826 0050 6872     		strb	r0, [r5, #9]
 570:.\Transfer.c  **** 	_temp = p2_p  * 1000;
 1827              		.loc 1 570 0
 1828 0052 0898     		ldr	r0, [sp, #32]	@ float
 1829 0054 2949     		ldr	r1, .L107+4
 1830 0056 FFF7FEFF 		bl	__aeabi_fmul
 1831              	.LVL273:
 1832 005a FFF7FEFF 		bl	__aeabi_f2iz
 1833              	.LVL274:
 571:.\Transfer.c  **** 	data_to_send[_cnt++]=BYTE1(_temp);
 1834              		.loc 1 571 0
 1835 005e C0F30723 		ubfx	r3, r0, #8, #8
 1836 0062 AB72     		strb	r3, [r5, #10]
 1837              	.LVL275:
 572:.\Transfer.c  **** 	data_to_send[_cnt++]=BYTE0(_temp);
 1838              		.loc 1 572 0
 1839 0064 E872     		strb	r0, [r5, #11]
 573:.\Transfer.c  **** 	_temp = p2_i  * 1000;
 1840              		.loc 1 573 0
 1841 0066 0998     		ldr	r0, [sp, #36]	@ float
 1842 0068 2449     		ldr	r1, .L107+4
 1843 006a FFF7FEFF 		bl	__aeabi_fmul
 1844              	.LVL276:
 1845 006e FFF7FEFF 		bl	__aeabi_f2iz
 1846              	.LVL277:
 574:.\Transfer.c  **** 	data_to_send[_cnt++]=BYTE1(_temp);
 1847              		.loc 1 574 0
 1848 0072 C0F30723 		ubfx	r3, r0, #8, #8
ARM GAS  C:\Users\PANXIA~1\AppData\Local\Temp\cc1T2PPa.s 			page 45


 1849 0076 2B73     		strb	r3, [r5, #12]
 1850              	.LVL278:
 575:.\Transfer.c  **** 	data_to_send[_cnt++]=BYTE0(_temp);
 1851              		.loc 1 575 0
 1852 0078 6873     		strb	r0, [r5, #13]
 576:.\Transfer.c  **** 	_temp = p2_d * 1000;
 1853              		.loc 1 576 0
 1854 007a 0A98     		ldr	r0, [sp, #40]	@ float
 1855 007c 1F49     		ldr	r1, .L107+4
 1856 007e FFF7FEFF 		bl	__aeabi_fmul
 1857              	.LVL279:
 1858 0082 FFF7FEFF 		bl	__aeabi_f2iz
 1859              	.LVL280:
 577:.\Transfer.c  **** 	data_to_send[_cnt++]=BYTE1(_temp);
 1860              		.loc 1 577 0
 1861 0086 C0F30723 		ubfx	r3, r0, #8, #8
 1862 008a AB73     		strb	r3, [r5, #14]
 1863              	.LVL281:
 578:.\Transfer.c  **** 	data_to_send[_cnt++]=BYTE0(_temp);
 1864              		.loc 1 578 0
 1865 008c E873     		strb	r0, [r5, #15]
 579:.\Transfer.c  **** 	_temp = p3_p  * 1000;
 1866              		.loc 1 579 0
 1867 008e 0B98     		ldr	r0, [sp, #44]	@ float
 1868 0090 1A49     		ldr	r1, .L107+4
 1869 0092 FFF7FEFF 		bl	__aeabi_fmul
 1870              	.LVL282:
 1871 0096 FFF7FEFF 		bl	__aeabi_f2iz
 1872              	.LVL283:
 580:.\Transfer.c  **** 	data_to_send[_cnt++]=BYTE1(_temp);
 1873              		.loc 1 580 0
 1874 009a C0F30723 		ubfx	r3, r0, #8, #8
 1875 009e 2B74     		strb	r3, [r5, #16]
 1876              	.LVL284:
 581:.\Transfer.c  **** 	data_to_send[_cnt++]=BYTE0(_temp);
 1877              		.loc 1 581 0
 1878 00a0 6874     		strb	r0, [r5, #17]
 582:.\Transfer.c  **** 	_temp = p3_i  * 1000;
 1879              		.loc 1 582 0
 1880 00a2 0C98     		ldr	r0, [sp, #48]	@ float
 1881 00a4 1549     		ldr	r1, .L107+4
 1882 00a6 FFF7FEFF 		bl	__aeabi_fmul
 1883              	.LVL285:
 1884 00aa FFF7FEFF 		bl	__aeabi_f2iz
 1885              	.LVL286:
 583:.\Transfer.c  **** 	data_to_send[_cnt++]=BYTE1(_temp);
 1886              		.loc 1 583 0
 1887 00ae C0F30723 		ubfx	r3, r0, #8, #8
 1888 00b2 AB74     		strb	r3, [r5, #18]
 1889              	.LVL287:
 584:.\Transfer.c  **** 	data_to_send[_cnt++]=BYTE0(_temp);
 1890              		.loc 1 584 0
 1891 00b4 E874     		strb	r0, [r5, #19]
 585:.\Transfer.c  **** 	_temp = p3_d * 1000;
 1892              		.loc 1 585 0
 1893 00b6 0D98     		ldr	r0, [sp, #52]	@ float
 1894 00b8 1049     		ldr	r1, .L107+4
ARM GAS  C:\Users\PANXIA~1\AppData\Local\Temp\cc1T2PPa.s 			page 46


 1895 00ba FFF7FEFF 		bl	__aeabi_fmul
 1896              	.LVL288:
 1897 00be FFF7FEFF 		bl	__aeabi_f2iz
 1898              	.LVL289:
 1899 00c2 ADF80600 		strh	r0, [sp, #6]	@ movhi
 1900              	.LVL290:
 586:.\Transfer.c  **** 	data_to_send[_cnt++]=BYTE1(_temp);
 1901              		.loc 1 586 0
 1902 00c6 C0F30723 		ubfx	r3, r0, #8, #8
 1903 00ca 2B75     		strb	r3, [r5, #20]
 1904              	.LVL291:
 587:.\Transfer.c  **** 	data_to_send[_cnt++]=BYTE0(_temp);
 1905              		.loc 1 587 0
 1906 00cc 6875     		strb	r0, [r5, #21]
 588:.\Transfer.c  **** 	
 589:.\Transfer.c  **** 	data_to_send[3] = _cnt-4;
 1907              		.loc 1 589 0
 1908 00ce 1223     		movs	r3, #18
 1909 00d0 EB70     		strb	r3, [r5, #3]
 1910              	.LVL292:
 590:.\Transfer.c  **** 	
 591:.\Transfer.c  **** 	uint8 sum = 0;
 592:.\Transfer.c  ****     uint8 i=0;
 593:.\Transfer.c  **** 	for( i=0;i<_cnt;i++)
 1911              		.loc 1 593 0
 1912 00d2 2346     		mov	r3, r4
 591:.\Transfer.c  ****     uint8 i=0;
 1913              		.loc 1 591 0
 1914 00d4 2246     		mov	r2, r4
 1915              		.loc 1 593 0
 1916 00d6 05E0     		b	.L104
 1917              	.LVL293:
 1918              	.L105:
 594:.\Transfer.c  **** 		sum += data_to_send[i];
 1919              		.loc 1 594 0 discriminator 3
 1920 00d8 0749     		ldr	r1, .L107
 1921 00da C95C     		ldrb	r1, [r1, r3]	@ zero_extendqisi2
 1922 00dc 0A44     		add	r2, r2, r1
 1923              	.LVL294:
 1924 00de D2B2     		uxtb	r2, r2
 1925              	.LVL295:
 593:.\Transfer.c  **** 		sum += data_to_send[i];
 1926              		.loc 1 593 0 discriminator 3
 1927 00e0 0133     		adds	r3, r3, #1
 1928              	.LVL296:
 1929 00e2 DBB2     		uxtb	r3, r3
 1930              	.LVL297:
 1931              	.L104:
 593:.\Transfer.c  **** 		sum += data_to_send[i];
 1932              		.loc 1 593 0 is_stmt 0 discriminator 1
 1933 00e4 152B     		cmp	r3, #21
 1934 00e6 F7D9     		bls	.L105
 1935              	.LVL298:
 595:.\Transfer.c  **** 	
 596:.\Transfer.c  **** 	data_to_send[_cnt++]=sum;
 1936              		.loc 1 596 0 is_stmt 1
 1937 00e8 0348     		ldr	r0, .L107
ARM GAS  C:\Users\PANXIA~1\AppData\Local\Temp\cc1T2PPa.s 			page 47


 1938 00ea 8275     		strb	r2, [r0, #22]
 597:.\Transfer.c  **** 
 598:.\Transfer.c  **** 	DT_Send_Data(data_to_send, _cnt);
 1939              		.loc 1 598 0
 1940 00ec 1721     		movs	r1, #23
 1941 00ee FFF7FEFF 		bl	DT_Send_Data
 1942              	.LVL299:
 599:.\Transfer.c  **** }
 1943              		.loc 1 599 0
 1944 00f2 03B0     		add	sp, sp, #12
 1945              		.cfi_def_cfa_offset 20
 1946              		@ sp needed
 1947 00f4 F0BD     		pop	{r4, r5, r6, r7, pc}
 1948              	.LVL300:
 1949              	.L108:
 1950 00f6 00BF     		.align	2
 1951              	.L107:
 1952 00f8 00000000 		.word	data_to_send
 1953 00fc 00007A44 		.word	1148846080
 1954              		.cfi_endproc
 1955              	.LFE74:
 1956              		.size	DT_Send_PID, .-DT_Send_PID
 1957              		.section	.text.DT_Send_Lidar_normal,"ax",%progbits
 1958              		.align	2
 1959              		.global	DT_Send_Lidar_normal
 1960              		.thumb
 1961              		.thumb_func
 1962              		.type	DT_Send_Lidar_normal, %function
 1963              	DT_Send_Lidar_normal:
 1964              	.LFB75:
 600:.\Transfer.c  **** void DT_Send_Lidar_normal(uint8 * temp_nodebuf)
 601:.\Transfer.c  **** {
 1965              		.loc 1 601 0
 1966              		.cfi_startproc
 1967              		@ args = 0, pretend = 0, frame = 0
 1968              		@ frame_needed = 0, uses_anonymous_args = 0
 1969              	.LVL301:
 1970 0000 08B5     		push	{r3, lr}
 1971              		.cfi_def_cfa_offset 8
 1972              		.cfi_offset 3, -8
 1973              		.cfi_offset 14, -4
 1974              	.LVL302:
 602:.\Transfer.c  **** 	uint8 _cnt=0;
 603:.\Transfer.c  **** 	int16 _temp;
 604:.\Transfer.c  **** 	
 605:.\Transfer.c  **** 	data_to_send[_cnt++]=0xAA;
 1975              		.loc 1 605 0
 1976 0002 264B     		ldr	r3, .L113
 1977 0004 AA22     		movs	r2, #170
 1978 0006 1A70     		strb	r2, [r3]
 1979              	.LVL303:
 606:.\Transfer.c  **** 	data_to_send[_cnt++]=0xAA;
 1980              		.loc 1 606 0
 1981 0008 5A70     		strb	r2, [r3, #1]
 1982              	.LVL304:
 607:.\Transfer.c  **** 	data_to_send[_cnt++]=0x04;
 1983              		.loc 1 607 0
ARM GAS  C:\Users\PANXIA~1\AppData\Local\Temp\cc1T2PPa.s 			page 48


 1984 000a 0422     		movs	r2, #4
 1985 000c 9A70     		strb	r2, [r3, #2]
 1986              	.LVL305:
 608:.\Transfer.c  **** 	data_to_send[_cnt++]=0;
 1987              		.loc 1 608 0
 1988 000e 0022     		movs	r2, #0
 1989 0010 DA70     		strb	r2, [r3, #3]
 1990              	.LVL306:
 609:.\Transfer.c  **** 	
 610:.\Transfer.c  **** 	data_to_send[_cnt++]=temp_nodebuf[0];
 1991              		.loc 1 610 0
 1992 0012 0178     		ldrb	r1, [r0]	@ zero_extendqisi2
 1993 0014 1971     		strb	r1, [r3, #4]
 1994              	.LVL307:
 611:.\Transfer.c  ****     data_to_send[_cnt++]=temp_nodebuf[2];
 1995              		.loc 1 611 0
 1996 0016 8178     		ldrb	r1, [r0, #2]	@ zero_extendqisi2
 1997 0018 5971     		strb	r1, [r3, #5]
 1998              	.LVL308:
 612:.\Transfer.c  ****     data_to_send[_cnt++]=temp_nodebuf[1];
 1999              		.loc 1 612 0
 2000 001a 4178     		ldrb	r1, [r0, #1]	@ zero_extendqisi2
 2001 001c 9971     		strb	r1, [r3, #6]
 2002              	.LVL309:
 613:.\Transfer.c  ****     data_to_send[_cnt++]=temp_nodebuf[4];
 2003              		.loc 1 613 0
 2004 001e 0179     		ldrb	r1, [r0, #4]	@ zero_extendqisi2
 2005 0020 D971     		strb	r1, [r3, #7]
 2006              	.LVL310:
 614:.\Transfer.c  ****     data_to_send[_cnt++]=temp_nodebuf[3];
 2007              		.loc 1 614 0
 2008 0022 C178     		ldrb	r1, [r0, #3]	@ zero_extendqisi2
 2009 0024 1972     		strb	r1, [r3, #8]
 2010              	.LVL311:
 615:.\Transfer.c  ****     
 616:.\Transfer.c  ****     data_to_send[_cnt++]=temp_nodebuf[5];
 2011              		.loc 1 616 0
 2012 0026 4179     		ldrb	r1, [r0, #5]	@ zero_extendqisi2
 2013 0028 5972     		strb	r1, [r3, #9]
 2014              	.LVL312:
 617:.\Transfer.c  ****     data_to_send[_cnt++]=temp_nodebuf[7];
 2015              		.loc 1 617 0
 2016 002a C179     		ldrb	r1, [r0, #7]	@ zero_extendqisi2
 2017 002c 9972     		strb	r1, [r3, #10]
 2018              	.LVL313:
 618:.\Transfer.c  ****     data_to_send[_cnt++]=temp_nodebuf[6];
 2019              		.loc 1 618 0
 2020 002e 8179     		ldrb	r1, [r0, #6]	@ zero_extendqisi2
 2021 0030 D972     		strb	r1, [r3, #11]
 2022              	.LVL314:
 619:.\Transfer.c  ****     data_to_send[_cnt++]=temp_nodebuf[9];
 2023              		.loc 1 619 0
 2024 0032 417A     		ldrb	r1, [r0, #9]	@ zero_extendqisi2
 2025 0034 1973     		strb	r1, [r3, #12]
 2026              	.LVL315:
 620:.\Transfer.c  ****     data_to_send[_cnt++]=temp_nodebuf[8];
 2027              		.loc 1 620 0
ARM GAS  C:\Users\PANXIA~1\AppData\Local\Temp\cc1T2PPa.s 			page 49


 2028 0036 017A     		ldrb	r1, [r0, #8]	@ zero_extendqisi2
 2029 0038 5973     		strb	r1, [r3, #13]
 2030              	.LVL316:
 621:.\Transfer.c  ****     
 622:.\Transfer.c  ****     data_to_send[_cnt++]=temp_nodebuf[10];
 2031              		.loc 1 622 0
 2032 003a 817A     		ldrb	r1, [r0, #10]	@ zero_extendqisi2
 2033 003c 9973     		strb	r1, [r3, #14]
 2034              	.LVL317:
 623:.\Transfer.c  ****     data_to_send[_cnt++]=temp_nodebuf[12];
 2035              		.loc 1 623 0
 2036 003e 017B     		ldrb	r1, [r0, #12]	@ zero_extendqisi2
 2037 0040 D973     		strb	r1, [r3, #15]
 2038              	.LVL318:
 624:.\Transfer.c  ****     data_to_send[_cnt++]=temp_nodebuf[11];
 2039              		.loc 1 624 0
 2040 0042 C17A     		ldrb	r1, [r0, #11]	@ zero_extendqisi2
 2041 0044 1974     		strb	r1, [r3, #16]
 2042              	.LVL319:
 625:.\Transfer.c  ****     data_to_send[_cnt++]=temp_nodebuf[14];
 2043              		.loc 1 625 0
 2044 0046 817B     		ldrb	r1, [r0, #14]	@ zero_extendqisi2
 2045 0048 5974     		strb	r1, [r3, #17]
 2046              	.LVL320:
 626:.\Transfer.c  ****     data_to_send[_cnt++]=temp_nodebuf[13];
 2047              		.loc 1 626 0
 2048 004a 417B     		ldrb	r1, [r0, #13]	@ zero_extendqisi2
 2049 004c 9974     		strb	r1, [r3, #18]
 2050              	.LVL321:
 627:.\Transfer.c  ****     
 628:.\Transfer.c  ****     data_to_send[_cnt++]=temp_nodebuf[15];
 2051              		.loc 1 628 0
 2052 004e C17B     		ldrb	r1, [r0, #15]	@ zero_extendqisi2
 2053 0050 D974     		strb	r1, [r3, #19]
 2054              	.LVL322:
 629:.\Transfer.c  ****     data_to_send[_cnt++]=temp_nodebuf[17];
 2055              		.loc 1 629 0
 2056 0052 417C     		ldrb	r1, [r0, #17]	@ zero_extendqisi2
 2057 0054 1975     		strb	r1, [r3, #20]
 2058              	.LVL323:
 630:.\Transfer.c  ****     data_to_send[_cnt++]=temp_nodebuf[16];
 2059              		.loc 1 630 0
 2060 0056 017C     		ldrb	r1, [r0, #16]	@ zero_extendqisi2
 2061 0058 5975     		strb	r1, [r3, #21]
 2062              	.LVL324:
 631:.\Transfer.c  ****     data_to_send[_cnt++]=temp_nodebuf[19];
 2063              		.loc 1 631 0
 2064 005a C17C     		ldrb	r1, [r0, #19]	@ zero_extendqisi2
 2065 005c 9975     		strb	r1, [r3, #22]
 2066              	.LVL325:
 632:.\Transfer.c  ****     data_to_send[_cnt++]=temp_nodebuf[18];
 2067              		.loc 1 632 0
 2068 005e 817C     		ldrb	r1, [r0, #18]	@ zero_extendqisi2
 2069 0060 D975     		strb	r1, [r3, #23]
 2070              	.LVL326:
 633:.\Transfer.c  ****     
 634:.\Transfer.c  ****     data_to_send[_cnt++]=temp_nodebuf[20];
ARM GAS  C:\Users\PANXIA~1\AppData\Local\Temp\cc1T2PPa.s 			page 50


 2071              		.loc 1 634 0
 2072 0062 017D     		ldrb	r1, [r0, #20]	@ zero_extendqisi2
 2073 0064 1976     		strb	r1, [r3, #24]
 2074              	.LVL327:
 635:.\Transfer.c  ****     data_to_send[_cnt++]=temp_nodebuf[22];
 2075              		.loc 1 635 0
 2076 0066 817D     		ldrb	r1, [r0, #22]	@ zero_extendqisi2
 2077 0068 5976     		strb	r1, [r3, #25]
 2078              	.LVL328:
 636:.\Transfer.c  ****     data_to_send[_cnt++]=temp_nodebuf[21];
 2079              		.loc 1 636 0
 2080 006a 417D     		ldrb	r1, [r0, #21]	@ zero_extendqisi2
 2081 006c 9976     		strb	r1, [r3, #26]
 2082              	.LVL329:
 637:.\Transfer.c  ****     data_to_send[_cnt++]=temp_nodebuf[24];
 2083              		.loc 1 637 0
 2084 006e 017E     		ldrb	r1, [r0, #24]	@ zero_extendqisi2
 2085 0070 D976     		strb	r1, [r3, #27]
 2086              	.LVL330:
 638:.\Transfer.c  ****     data_to_send[_cnt++]=temp_nodebuf[23];
 2087              		.loc 1 638 0
 2088 0072 C17D     		ldrb	r1, [r0, #23]	@ zero_extendqisi2
 2089 0074 1977     		strb	r1, [r3, #28]
 639:.\Transfer.c  ****     
 640:.\Transfer.c  ****     
 641:.\Transfer.c  **** 
 642:.\Transfer.c  **** 	data_to_send[3] = _cnt-4;
 2090              		.loc 1 642 0
 2091 0076 1921     		movs	r1, #25
 2092 0078 D970     		strb	r1, [r3, #3]
 2093              	.LVL331:
 643:.\Transfer.c  **** 	
 644:.\Transfer.c  **** 	uint8 sum = 0;
 645:.\Transfer.c  ****     uint8 i=0;
 646:.\Transfer.c  **** 	for( i=0;i<_cnt;i++)
 2094              		.loc 1 646 0
 2095 007a 1346     		mov	r3, r2
 2096 007c 05E0     		b	.L110
 2097              	.LVL332:
 2098              	.L111:
 647:.\Transfer.c  **** 		sum += data_to_send[i];
 2099              		.loc 1 647 0 discriminator 3
 2100 007e 0749     		ldr	r1, .L113
 2101 0080 C95C     		ldrb	r1, [r1, r3]	@ zero_extendqisi2
 2102 0082 0A44     		add	r2, r2, r1
 2103              	.LVL333:
 2104 0084 D2B2     		uxtb	r2, r2
 2105              	.LVL334:
 646:.\Transfer.c  **** 		sum += data_to_send[i];
 2106              		.loc 1 646 0 discriminator 3
 2107 0086 0133     		adds	r3, r3, #1
 2108              	.LVL335:
 2109 0088 DBB2     		uxtb	r3, r3
 2110              	.LVL336:
 2111              	.L110:
 646:.\Transfer.c  **** 		sum += data_to_send[i];
 2112              		.loc 1 646 0 is_stmt 0 discriminator 1
ARM GAS  C:\Users\PANXIA~1\AppData\Local\Temp\cc1T2PPa.s 			page 51


 2113 008a 1C2B     		cmp	r3, #28
 2114 008c F7D9     		bls	.L111
 2115              	.LVL337:
 648:.\Transfer.c  **** 	
 649:.\Transfer.c  **** 	data_to_send[_cnt++]=sum;
 2116              		.loc 1 649 0 is_stmt 1
 2117 008e 0348     		ldr	r0, .L113
 2118              	.LVL338:
 2119 0090 4277     		strb	r2, [r0, #29]
 650:.\Transfer.c  **** 
 651:.\Transfer.c  **** 	DT_Send_Data(data_to_send, _cnt);
 2120              		.loc 1 651 0
 2121 0092 1E21     		movs	r1, #30
 2122 0094 FFF7FEFF 		bl	DT_Send_Data
 2123              	.LVL339:
 2124 0098 08BD     		pop	{r3, pc}
 2125              	.L114:
 2126 009a 00BF     		.align	2
 2127              	.L113:
 2128 009c 00000000 		.word	data_to_send
 2129              		.cfi_endproc
 2130              	.LFE75:
 2131              		.size	DT_Send_Lidar_normal, .-DT_Send_Lidar_normal
 2132              		.section	.text.DT_Send_Lidar,"ax",%progbits
 2133              		.align	2
 2134              		.global	DT_Send_Lidar
 2135              		.thumb
 2136              		.thumb_func
 2137              		.type	DT_Send_Lidar, %function
 2138              	DT_Send_Lidar:
 2139              	.LFB76:
 652:.\Transfer.c  **** }
 653:.\Transfer.c  **** void DT_Send_Lidar(uint8 * temp_nodebuf)
 654:.\Transfer.c  **** {
 2140              		.loc 1 654 0
 2141              		.cfi_startproc
 2142              		@ args = 0, pretend = 0, frame = 0
 2143              		@ frame_needed = 0, uses_anonymous_args = 0
 2144              	.LVL340:
 2145 0000 08B5     		push	{r3, lr}
 2146              		.cfi_def_cfa_offset 8
 2147              		.cfi_offset 3, -8
 2148              		.cfi_offset 14, -4
 2149              	.LVL341:
 655:.\Transfer.c  **** 	uint8 _cnt=0;
 656:.\Transfer.c  **** 	int16 _temp;
 657:.\Transfer.c  **** 	
 658:.\Transfer.c  **** 	temp_nodebuf[0]=0xAA;
 2150              		.loc 1 658 0
 2151 0002 AA23     		movs	r3, #170
 2152 0004 0370     		strb	r3, [r0]
 659:.\Transfer.c  **** 	temp_nodebuf[1]=0xAA;
 2153              		.loc 1 659 0
 2154 0006 4370     		strb	r3, [r0, #1]
 660:.\Transfer.c  **** 	temp_nodebuf[2]=0x04;
 2155              		.loc 1 660 0
 2156 0008 0423     		movs	r3, #4
ARM GAS  C:\Users\PANXIA~1\AppData\Local\Temp\cc1T2PPa.s 			page 52


 2157 000a 8370     		strb	r3, [r0, #2]
 661:.\Transfer.c  **** 	temp_nodebuf[3]=0;
 2158              		.loc 1 661 0
 2159 000c 0022     		movs	r2, #0
 2160 000e C270     		strb	r2, [r0, #3]
 2161              	.LVL342:
 662:.\Transfer.c  ****     
 663:.\Transfer.c  ****  
 664:.\Transfer.c  **** 	
 665:.\Transfer.c  **** 	uint8 sum = 0;
 666:.\Transfer.c  ****     uint8 i=0;
 667:.\Transfer.c  **** 	for( i=0;i<85;i++)
 2162              		.loc 1 667 0
 2163 0010 1346     		mov	r3, r2
 2164 0012 04E0     		b	.L116
 2165              	.LVL343:
 2166              	.L117:
 668:.\Transfer.c  **** 		sum += temp_nodebuf[i];
 2167              		.loc 1 668 0 discriminator 3
 2168 0014 C15C     		ldrb	r1, [r0, r3]	@ zero_extendqisi2
 2169 0016 0A44     		add	r2, r2, r1
 2170              	.LVL344:
 2171 0018 D2B2     		uxtb	r2, r2
 2172              	.LVL345:
 667:.\Transfer.c  **** 		sum += temp_nodebuf[i];
 2173              		.loc 1 667 0 discriminator 3
 2174 001a 0133     		adds	r3, r3, #1
 2175              	.LVL346:
 2176 001c DBB2     		uxtb	r3, r3
 2177              	.LVL347:
 2178              	.L116:
 667:.\Transfer.c  **** 		sum += temp_nodebuf[i];
 2179              		.loc 1 667 0 is_stmt 0 discriminator 1
 2180 001e 542B     		cmp	r3, #84
 2181 0020 F8D9     		bls	.L117
 669:.\Transfer.c  **** 	
 670:.\Transfer.c  **** 	temp_nodebuf[86]=sum;
 2182              		.loc 1 670 0 is_stmt 1
 2183 0022 80F85620 		strb	r2, [r0, #86]
 671:.\Transfer.c  **** 
 672:.\Transfer.c  **** 	DT_Send_Data(temp_nodebuf, 87);
 2184              		.loc 1 672 0
 2185 0026 5721     		movs	r1, #87
 2186 0028 FFF7FEFF 		bl	DT_Send_Data
 2187              	.LVL348:
 2188 002c 08BD     		pop	{r3, pc}
 2189              		.cfi_endproc
 2190              	.LFE76:
 2191              		.size	DT_Send_Lidar, .-DT_Send_Lidar
 2192              		.comm	data_to_send,50,4
 2193              		.comm	f,13,4
 2194              		.comm	P_V,2,2
 2195              		.comm	D_V,2,2
 2196              		.comm	C_V,2,2
 2197              		.comm	S_IMU,20,4
 2198              		.comm	g_Car,96,4
 2199 002e 00BF     		.bss
ARM GAS  C:\Users\PANXIA~1\AppData\Local\Temp\cc1T2PPa.s 			page 53


 2200              		.align	2
 2201              		.set	.LANCHOR0,. + 0
 2202              		.type	state.6960, %object
 2203              		.size	state.6960, 1
 2204              	state.6960:
 2205 0000 00       		.space	1
 2206 0001 000000   		.space	3
 2207              		.type	RxBuffer.6957, %object
 2208              		.size	RxBuffer.6957, 50
 2209              	RxBuffer.6957:
 2210 0004 00000000 		.space	50
 2210      00000000 
 2210      00000000 
 2210      00000000 
 2210      00000000 
 2211              		.type	_data_len.6958, %object
 2212              		.size	_data_len.6958, 1
 2213              	_data_len.6958:
 2214 0036 00       		.space	1
 2215              		.type	_data_cnt.6959, %object
 2216              		.size	_data_cnt.6959, 1
 2217              	_data_cnt.6959:
 2218 0037 00       		.space	1
 2219              		.type	cnt.6935, %object
 2220              		.size	cnt.6935, 1
 2221              	cnt.6935:
 2222 0038 00       		.space	1
 2223 0039 000000   		.space	3
 2224              		.type	temp_pitch.6932, %object
 2225              		.size	temp_pitch.6932, 4
 2226              	temp_pitch.6932:
 2227 003c 00000000 		.space	4
 2228              		.type	tmep_roll.6933, %object
 2229              		.size	tmep_roll.6933, 4
 2230              	tmep_roll.6933:
 2231 0040 00000000 		.space	4
 2232              		.type	temp_yaw.6934, %object
 2233              		.size	temp_yaw.6934, 4
 2234              	temp_yaw.6934:
 2235 0044 00000000 		.space	4
 2236              		.text
 2237              	.Letext0:
 2238              		.file 2 "d:\\program files (x86)\\cypress\\psoc creator\\3.3\\psoc creator\\import\\gnu\\arm\\4.9.
 2239              		.file 3 "d:\\program files (x86)\\cypress\\psoc creator\\3.3\\psoc creator\\import\\gnu\\arm\\4.9.
 2240              		.file 4 "Generated_Source\\PSoC5/cytypes.h"
 2241              		.file 5 ".\\car.h"
 2242              		.file 6 ".\\Transfer.h"
 2243              		.file 7 "Generated_Source\\PSoC5/core_cm3.h"
 2244              		.file 8 ".\\battery.h"
 2245              		.file 9 "Generated_Source\\PSoC5/UART_net.h"
 2246              		.file 10 "Generated_Source\\PSoC5/PWM_LED_1.h"
 2247              		.file 11 "Generated_Source\\PSoC5/PWM_LED_2.h"
 2248              		.file 12 "Generated_Source\\PSoC5/PWM_LED_3.h"
 2249              		.file 13 "Generated_Source\\PSoC5/PWM_LED_4.h"
 2250              		.file 14 "Generated_Source\\PSoC5/CHANGE_PWR.h"
 2251              		.section	.debug_info,"",%progbits
 2252              	.Ldebug_info0:
ARM GAS  C:\Users\PANXIA~1\AppData\Local\Temp\cc1T2PPa.s 			page 54


 2253 0000 FF0F0000 		.4byte	0xfff
 2254 0004 0400     		.2byte	0x4
 2255 0006 00000000 		.4byte	.Ldebug_abbrev0
 2256 000a 04       		.byte	0x4
 2257 000b 01       		.uleb128 0x1
 2258 000c 57060000 		.4byte	.LASF166
 2259 0010 01       		.byte	0x1
 2260 0011 AF010000 		.4byte	.LASF167
 2261 0015 CE000000 		.4byte	.LASF168
 2262 0019 00000000 		.4byte	.Ldebug_ranges0+0
 2263 001d 00000000 		.4byte	0
 2264 0021 00000000 		.4byte	.Ldebug_line0
 2265 0025 02       		.uleb128 0x2
 2266 0026 04       		.byte	0x4
 2267 0027 04       		.byte	0x4
 2268 0028 73010000 		.4byte	.LASF0
 2269 002c 02       		.uleb128 0x2
 2270 002d 01       		.byte	0x1
 2271 002e 06       		.byte	0x6
 2272 002f C0070000 		.4byte	.LASF1
 2273 0033 02       		.uleb128 0x2
 2274 0034 01       		.byte	0x1
 2275 0035 08       		.byte	0x8
 2276 0036 49060000 		.4byte	.LASF2
 2277 003a 02       		.uleb128 0x2
 2278 003b 02       		.byte	0x2
 2279 003c 05       		.byte	0x5
 2280 003d 0A050000 		.4byte	.LASF3
 2281 0041 02       		.uleb128 0x2
 2282 0042 02       		.byte	0x2
 2283 0043 07       		.byte	0x7
 2284 0044 D2070000 		.4byte	.LASF4
 2285 0048 03       		.uleb128 0x3
 2286 0049 99000000 		.4byte	.LASF10
 2287 004d 02       		.byte	0x2
 2288 004e 3F       		.byte	0x3f
 2289 004f 53000000 		.4byte	0x53
 2290 0053 02       		.uleb128 0x2
 2291 0054 04       		.byte	0x4
 2292 0055 05       		.byte	0x5
 2293 0056 14050000 		.4byte	.LASF5
 2294 005a 02       		.uleb128 0x2
 2295 005b 04       		.byte	0x4
 2296 005c 07       		.byte	0x7
 2297 005d C7050000 		.4byte	.LASF6
 2298 0061 02       		.uleb128 0x2
 2299 0062 08       		.byte	0x8
 2300 0063 05       		.byte	0x5
 2301 0064 CA030000 		.4byte	.LASF7
 2302 0068 02       		.uleb128 0x2
 2303 0069 08       		.byte	0x8
 2304 006a 07       		.byte	0x7
 2305 006b 98010000 		.4byte	.LASF8
 2306 006f 04       		.uleb128 0x4
 2307 0070 04       		.byte	0x4
 2308 0071 05       		.byte	0x5
 2309 0072 696E7400 		.ascii	"int\000"
ARM GAS  C:\Users\PANXIA~1\AppData\Local\Temp\cc1T2PPa.s 			page 55


 2310 0076 02       		.uleb128 0x2
 2311 0077 04       		.byte	0x4
 2312 0078 07       		.byte	0x7
 2313 0079 71000000 		.4byte	.LASF9
 2314 007d 03       		.uleb128 0x3
 2315 007e 29060000 		.4byte	.LASF11
 2316 0082 03       		.byte	0x3
 2317 0083 2C       		.byte	0x2c
 2318 0084 48000000 		.4byte	0x48
 2319 0088 03       		.uleb128 0x3
 2320 0089 14080000 		.4byte	.LASF12
 2321 008d 04       		.byte	0x4
 2322 008e C2       		.byte	0xc2
 2323 008f 33000000 		.4byte	0x33
 2324 0093 03       		.uleb128 0x3
 2325 0094 46030000 		.4byte	.LASF13
 2326 0098 04       		.byte	0x4
 2327 0099 C3       		.byte	0xc3
 2328 009a 41000000 		.4byte	0x41
 2329 009e 03       		.uleb128 0x3
 2330 009f 1E040000 		.4byte	.LASF14
 2331 00a3 04       		.byte	0x4
 2332 00a4 C4       		.byte	0xc4
 2333 00a5 5A000000 		.4byte	0x5a
 2334 00a9 03       		.uleb128 0x3
 2335 00aa A3000000 		.4byte	.LASF15
 2336 00ae 04       		.byte	0x4
 2337 00af C6       		.byte	0xc6
 2338 00b0 3A000000 		.4byte	0x3a
 2339 00b4 03       		.uleb128 0x3
 2340 00b5 79010000 		.4byte	.LASF16
 2341 00b9 04       		.byte	0x4
 2342 00ba C7       		.byte	0xc7
 2343 00bb 53000000 		.4byte	0x53
 2344 00bf 02       		.uleb128 0x2
 2345 00c0 08       		.byte	0x8
 2346 00c1 04       		.byte	0x4
 2347 00c2 1A080000 		.4byte	.LASF17
 2348 00c6 02       		.uleb128 0x2
 2349 00c7 01       		.byte	0x1
 2350 00c8 08       		.byte	0x8
 2351 00c9 26030000 		.4byte	.LASF18
 2352 00cd 02       		.uleb128 0x2
 2353 00ce 04       		.byte	0x4
 2354 00cf 07       		.byte	0x7
 2355 00d0 B1050000 		.4byte	.LASF19
 2356 00d4 05       		.uleb128 0x5
 2357 00d5 30020000 		.4byte	.LASF29
 2358 00d9 01       		.byte	0x1
 2359 00da 05       		.byte	0x5
 2360 00db 0F       		.byte	0xf
 2361 00dc 1C010000 		.4byte	0x11c
 2362 00e0 06       		.uleb128 0x6
 2363 00e1 555000   		.ascii	"UP\000"
 2364 00e4 00       		.sleb128 0
 2365 00e5 07       		.uleb128 0x7
 2366 00e6 E5070000 		.4byte	.LASF20
ARM GAS  C:\Users\PANXIA~1\AppData\Local\Temp\cc1T2PPa.s 			page 56


 2367 00ea 01       		.sleb128 1
 2368 00eb 07       		.uleb128 0x7
 2369 00ec 76030000 		.4byte	.LASF21
 2370 00f0 02       		.sleb128 2
 2371 00f1 07       		.uleb128 0x7
 2372 00f2 7B030000 		.4byte	.LASF22
 2373 00f6 03       		.sleb128 3
 2374 00f7 07       		.uleb128 0x7
 2375 00f8 0C010000 		.4byte	.LASF23
 2376 00fc 04       		.sleb128 4
 2377 00fd 07       		.uleb128 0x7
 2378 00fe 00000000 		.4byte	.LASF24
 2379 0102 05       		.sleb128 5
 2380 0103 07       		.uleb128 0x7
 2381 0104 54050000 		.4byte	.LASF25
 2382 0108 06       		.sleb128 6
 2383 0109 07       		.uleb128 0x7
 2384 010a 7F010000 		.4byte	.LASF26
 2385 010e 07       		.sleb128 7
 2386 010f 07       		.uleb128 0x7
 2387 0110 17000000 		.4byte	.LASF27
 2388 0114 08       		.sleb128 8
 2389 0115 07       		.uleb128 0x7
 2390 0116 3F070000 		.4byte	.LASF28
 2391 011a 09       		.sleb128 9
 2392 011b 00       		.byte	0
 2393 011c 05       		.uleb128 0x5
 2394 011d 61040000 		.4byte	.LASF30
 2395 0121 01       		.byte	0x1
 2396 0122 05       		.byte	0x5
 2397 0123 14       		.byte	0x14
 2398 0124 3B010000 		.4byte	0x13b
 2399 0128 07       		.uleb128 0x7
 2400 0129 47010000 		.4byte	.LASF31
 2401 012d 00       		.sleb128 0
 2402 012e 07       		.uleb128 0x7
 2403 012f AB020000 		.4byte	.LASF32
 2404 0133 01       		.sleb128 1
 2405 0134 07       		.uleb128 0x7
 2406 0135 89030000 		.4byte	.LASF33
 2407 0139 02       		.sleb128 2
 2408 013a 00       		.byte	0
 2409 013b 08       		.uleb128 0x8
 2410 013c 04       		.byte	0x4
 2411 013d 05       		.byte	0x5
 2412 013e 16       		.byte	0x16
 2413 013f 5C010000 		.4byte	0x15c
 2414 0143 09       		.uleb128 0x9
 2415 0144 70776D00 		.ascii	"pwm\000"
 2416 0148 05       		.byte	0x5
 2417 0149 18       		.byte	0x18
 2418 014a 93000000 		.4byte	0x93
 2419 014e 00       		.byte	0
 2420 014f 09       		.uleb128 0x9
 2421 0150 64697200 		.ascii	"dir\000"
 2422 0154 05       		.byte	0x5
 2423 0155 19       		.byte	0x19
ARM GAS  C:\Users\PANXIA~1\AppData\Local\Temp\cc1T2PPa.s 			page 57


 2424 0156 1C010000 		.4byte	0x11c
 2425 015a 02       		.byte	0x2
 2426 015b 00       		.byte	0
 2427 015c 03       		.uleb128 0x3
 2428 015d 81030000 		.4byte	.LASF34
 2429 0161 05       		.byte	0x5
 2430 0162 1A       		.byte	0x1a
 2431 0163 3B010000 		.4byte	0x13b
 2432 0167 08       		.uleb128 0x8
 2433 0168 14       		.byte	0x14
 2434 0169 05       		.byte	0x5
 2435 016a 1B       		.byte	0x1b
 2436 016b D0010000 		.4byte	0x1d0
 2437 016f 0A       		.uleb128 0xa
 2438 0170 63030000 		.4byte	.LASF35
 2439 0174 05       		.byte	0x5
 2440 0175 1D       		.byte	0x1d
 2441 0176 9E000000 		.4byte	0x9e
 2442 017a 00       		.byte	0
 2443 017b 0A       		.uleb128 0xa
 2444 017c B5040000 		.4byte	.LASF36
 2445 0180 05       		.byte	0x5
 2446 0181 1E       		.byte	0x1e
 2447 0182 93000000 		.4byte	0x93
 2448 0186 04       		.byte	0x4
 2449 0187 0A       		.uleb128 0xa
 2450 0188 1D070000 		.4byte	.LASF37
 2451 018c 05       		.byte	0x5
 2452 018d 1F       		.byte	0x1f
 2453 018e 93000000 		.4byte	0x93
 2454 0192 06       		.byte	0x6
 2455 0193 0A       		.uleb128 0xa
 2456 0194 7E000000 		.4byte	.LASF38
 2457 0198 05       		.byte	0x5
 2458 0199 20       		.byte	0x20
 2459 019a 93000000 		.4byte	0x93
 2460 019e 08       		.byte	0x8
 2461 019f 0A       		.uleb128 0xa
 2462 01a0 AE030000 		.4byte	.LASF39
 2463 01a4 05       		.byte	0x5
 2464 01a5 21       		.byte	0x21
 2465 01a6 93000000 		.4byte	0x93
 2466 01aa 0A       		.byte	0xa
 2467 01ab 0A       		.uleb128 0xa
 2468 01ac CE020000 		.4byte	.LASF40
 2469 01b0 05       		.byte	0x5
 2470 01b1 22       		.byte	0x22
 2471 01b2 9E000000 		.4byte	0x9e
 2472 01b6 0C       		.byte	0xc
 2473 01b7 0A       		.uleb128 0xa
 2474 01b8 64000000 		.4byte	.LASF41
 2475 01bc 05       		.byte	0x5
 2476 01bd 23       		.byte	0x23
 2477 01be 93000000 		.4byte	0x93
 2478 01c2 10       		.byte	0x10
 2479 01c3 0A       		.uleb128 0xa
 2480 01c4 C8010000 		.4byte	.LASF42
ARM GAS  C:\Users\PANXIA~1\AppData\Local\Temp\cc1T2PPa.s 			page 58


 2481 01c8 05       		.byte	0x5
 2482 01c9 24       		.byte	0x24
 2483 01ca 93000000 		.4byte	0x93
 2484 01ce 12       		.byte	0x12
 2485 01cf 00       		.byte	0
 2486 01d0 03       		.uleb128 0x3
 2487 01d1 BA050000 		.4byte	.LASF43
 2488 01d5 05       		.byte	0x5
 2489 01d6 25       		.byte	0x25
 2490 01d7 67010000 		.4byte	0x167
 2491 01db 08       		.uleb128 0x8
 2492 01dc 60       		.byte	0x60
 2493 01dd 05       		.byte	0x5
 2494 01de 26       		.byte	0x26
 2495 01df 70030000 		.4byte	0x370
 2496 01e3 0A       		.uleb128 0xa
 2497 01e4 A0050000 		.4byte	.LASF44
 2498 01e8 05       		.byte	0x5
 2499 01e9 28       		.byte	0x28
 2500 01ea 88000000 		.4byte	0x88
 2501 01ee 00       		.byte	0
 2502 01ef 0A       		.uleb128 0xa
 2503 01f0 DD020000 		.4byte	.LASF45
 2504 01f4 05       		.byte	0x5
 2505 01f5 29       		.byte	0x29
 2506 01f6 88000000 		.4byte	0x88
 2507 01fa 01       		.byte	0x1
 2508 01fb 0A       		.uleb128 0xa
 2509 01fc A9050000 		.4byte	.LASF46
 2510 0200 05       		.byte	0x5
 2511 0201 2A       		.byte	0x2a
 2512 0202 D4000000 		.4byte	0xd4
 2513 0206 02       		.byte	0x2
 2514 0207 0A       		.uleb128 0xa
 2515 0208 BC010000 		.4byte	.LASF47
 2516 020c 05       		.byte	0x5
 2517 020d 2B       		.byte	0x2b
 2518 020e D4000000 		.4byte	0xd4
 2519 0212 03       		.byte	0x3
 2520 0213 0A       		.uleb128 0xa
 2521 0214 3F010000 		.4byte	.LASF48
 2522 0218 05       		.byte	0x5
 2523 0219 2C       		.byte	0x2c
 2524 021a D4000000 		.4byte	0xd4
 2525 021e 04       		.byte	0x4
 2526 021f 0A       		.uleb128 0xa
 2527 0220 EF030000 		.4byte	.LASF49
 2528 0224 05       		.byte	0x5
 2529 0225 2D       		.byte	0x2d
 2530 0226 D4000000 		.4byte	0xd4
 2531 022a 05       		.byte	0x5
 2532 022b 0A       		.uleb128 0xa
 2533 022c 09000000 		.4byte	.LASF50
 2534 0230 05       		.byte	0x5
 2535 0231 2E       		.byte	0x2e
 2536 0232 93000000 		.4byte	0x93
 2537 0236 06       		.byte	0x6
ARM GAS  C:\Users\PANXIA~1\AppData\Local\Temp\cc1T2PPa.s 			page 59


 2538 0237 0A       		.uleb128 0xa
 2539 0238 D5010000 		.4byte	.LASF51
 2540 023c 05       		.byte	0x5
 2541 023d 2F       		.byte	0x2f
 2542 023e 5C010000 		.4byte	0x15c
 2543 0242 08       		.byte	0x8
 2544 0243 0A       		.uleb128 0xa
 2545 0244 82070000 		.4byte	.LASF52
 2546 0248 05       		.byte	0x5
 2547 0249 30       		.byte	0x30
 2548 024a 5C010000 		.4byte	0x15c
 2549 024e 0C       		.byte	0xc
 2550 024f 0A       		.uleb128 0xa
 2551 0250 A3040000 		.4byte	.LASF53
 2552 0254 05       		.byte	0x5
 2553 0255 31       		.byte	0x31
 2554 0256 5C010000 		.4byte	0x15c
 2555 025a 10       		.byte	0x10
 2556 025b 0A       		.uleb128 0xa
 2557 025c 83020000 		.4byte	.LASF54
 2558 0260 05       		.byte	0x5
 2559 0261 32       		.byte	0x32
 2560 0262 5C010000 		.4byte	0x15c
 2561 0266 14       		.byte	0x14
 2562 0267 0A       		.uleb128 0xa
 2563 0268 94070000 		.4byte	.LASF55
 2564 026c 05       		.byte	0x5
 2565 026d 33       		.byte	0x33
 2566 026e 93000000 		.4byte	0x93
 2567 0272 18       		.byte	0x18
 2568 0273 0A       		.uleb128 0xa
 2569 0274 44000000 		.4byte	.LASF56
 2570 0278 05       		.byte	0x5
 2571 0279 34       		.byte	0x34
 2572 027a 93000000 		.4byte	0x93
 2573 027e 1A       		.byte	0x1a
 2574 027f 0A       		.uleb128 0xa
 2575 0280 AA070000 		.4byte	.LASF57
 2576 0284 05       		.byte	0x5
 2577 0285 35       		.byte	0x35
 2578 0286 93000000 		.4byte	0x93
 2579 028a 1C       		.byte	0x1c
 2580 028b 0A       		.uleb128 0xa
 2581 028c E5060000 		.4byte	.LASF58
 2582 0290 05       		.byte	0x5
 2583 0291 36       		.byte	0x36
 2584 0292 93000000 		.4byte	0x93
 2585 0296 1E       		.byte	0x1e
 2586 0297 0A       		.uleb128 0xa
 2587 0298 C5020000 		.4byte	.LASF59
 2588 029c 05       		.byte	0x5
 2589 029d 37       		.byte	0x37
 2590 029e 88000000 		.4byte	0x88
 2591 02a2 20       		.byte	0x20
 2592 02a3 0A       		.uleb128 0xa
 2593 02a4 D8040000 		.4byte	.LASF60
 2594 02a8 05       		.byte	0x5
ARM GAS  C:\Users\PANXIA~1\AppData\Local\Temp\cc1T2PPa.s 			page 60


 2595 02a9 38       		.byte	0x38
 2596 02aa 93000000 		.4byte	0x93
 2597 02ae 22       		.byte	0x22
 2598 02af 0A       		.uleb128 0xa
 2599 02b0 0D060000 		.4byte	.LASF61
 2600 02b4 05       		.byte	0x5
 2601 02b5 39       		.byte	0x39
 2602 02b6 93000000 		.4byte	0x93
 2603 02ba 24       		.byte	0x24
 2604 02bb 0A       		.uleb128 0xa
 2605 02bc 8D040000 		.4byte	.LASF62
 2606 02c0 05       		.byte	0x5
 2607 02c1 3A       		.byte	0x3a
 2608 02c2 88000000 		.4byte	0x88
 2609 02c6 26       		.byte	0x26
 2610 02c7 09       		.uleb128 0x9
 2611 02c8 586B6D00 		.ascii	"Xkm\000"
 2612 02cc 05       		.byte	0x5
 2613 02cd 3B       		.byte	0x3b
 2614 02ce B4000000 		.4byte	0xb4
 2615 02d2 28       		.byte	0x28
 2616 02d3 0A       		.uleb128 0xa
 2617 02d4 35070000 		.4byte	.LASF63
 2618 02d8 05       		.byte	0x5
 2619 02d9 3C       		.byte	0x3c
 2620 02da 88000000 		.4byte	0x88
 2621 02de 2C       		.byte	0x2c
 2622 02df 0A       		.uleb128 0xa
 2623 02e0 4C020000 		.4byte	.LASF64
 2624 02e4 05       		.byte	0x5
 2625 02e5 3D       		.byte	0x3d
 2626 02e6 93000000 		.4byte	0x93
 2627 02ea 2E       		.byte	0x2e
 2628 02eb 0A       		.uleb128 0xa
 2629 02ec D9050000 		.4byte	.LASF65
 2630 02f0 05       		.byte	0x5
 2631 02f1 3E       		.byte	0x3e
 2632 02f2 88000000 		.4byte	0x88
 2633 02f6 30       		.byte	0x30
 2634 02f7 0A       		.uleb128 0xa
 2635 02f8 5E010000 		.4byte	.LASF66
 2636 02fc 05       		.byte	0x5
 2637 02fd 3F       		.byte	0x3f
 2638 02fe 9E000000 		.4byte	0x9e
 2639 0302 34       		.byte	0x34
 2640 0303 0A       		.uleb128 0xa
 2641 0304 BC030000 		.4byte	.LASF67
 2642 0308 05       		.byte	0x5
 2643 0309 40       		.byte	0x40
 2644 030a 88000000 		.4byte	0x88
 2645 030e 38       		.byte	0x38
 2646 030f 0A       		.uleb128 0xa
 2647 0310 31060000 		.4byte	.LASF68
 2648 0314 05       		.byte	0x5
 2649 0315 41       		.byte	0x41
 2650 0316 D0010000 		.4byte	0x1d0
 2651 031a 3C       		.byte	0x3c
ARM GAS  C:\Users\PANXIA~1\AppData\Local\Temp\cc1T2PPa.s 			page 61


 2652 031b 0A       		.uleb128 0xa
 2653 031c 58070000 		.4byte	.LASF69
 2654 0320 05       		.byte	0x5
 2655 0321 42       		.byte	0x42
 2656 0322 88000000 		.4byte	0x88
 2657 0326 50       		.byte	0x50
 2658 0327 0A       		.uleb128 0xa
 2659 0328 11030000 		.4byte	.LASF70
 2660 032c 05       		.byte	0x5
 2661 032d 43       		.byte	0x43
 2662 032e 93000000 		.4byte	0x93
 2663 0332 52       		.byte	0x52
 2664 0333 0A       		.uleb128 0xa
 2665 0334 1D050000 		.4byte	.LASF71
 2666 0338 05       		.byte	0x5
 2667 0339 44       		.byte	0x44
 2668 033a 88000000 		.4byte	0x88
 2669 033e 54       		.byte	0x54
 2670 033f 09       		.uleb128 0x9
 2671 0340 415F5600 		.ascii	"A_V\000"
 2672 0344 05       		.byte	0x5
 2673 0345 45       		.byte	0x45
 2674 0346 A9000000 		.4byte	0xa9
 2675 034a 56       		.byte	0x56
 2676 034b 0A       		.uleb128 0xa
 2677 034c 67010000 		.4byte	.LASF72
 2678 0350 05       		.byte	0x5
 2679 0351 46       		.byte	0x46
 2680 0352 A9000000 		.4byte	0xa9
 2681 0356 58       		.byte	0x58
 2682 0357 0A       		.uleb128 0xa
 2683 0358 FF070000 		.4byte	.LASF73
 2684 035c 05       		.byte	0x5
 2685 035d 47       		.byte	0x47
 2686 035e A9000000 		.4byte	0xa9
 2687 0362 5A       		.byte	0x5a
 2688 0363 09       		.uleb128 0x9
 2689 0364 63617000 		.ascii	"cap\000"
 2690 0368 05       		.byte	0x5
 2691 0369 48       		.byte	0x48
 2692 036a A9000000 		.4byte	0xa9
 2693 036e 5C       		.byte	0x5c
 2694 036f 00       		.byte	0
 2695 0370 03       		.uleb128 0x3
 2696 0371 8D050000 		.4byte	.LASF74
 2697 0375 05       		.byte	0x5
 2698 0376 49       		.byte	0x49
 2699 0377 DB010000 		.4byte	0x1db
 2700 037b 08       		.uleb128 0x8
 2701 037c 0D       		.byte	0xd
 2702 037d 06       		.byte	0x6
 2703 037e 07       		.byte	0x7
 2704 037f 20040000 		.4byte	0x420
 2705 0383 0A       		.uleb128 0xa
 2706 0384 F8020000 		.4byte	.LASF75
 2707 0388 06       		.byte	0x6
 2708 0389 09       		.byte	0x9
ARM GAS  C:\Users\PANXIA~1\AppData\Local\Temp\cc1T2PPa.s 			page 62


 2709 038a 88000000 		.4byte	0x88
 2710 038e 00       		.byte	0
 2711 038f 0A       		.uleb128 0xa
 2712 0390 FE040000 		.4byte	.LASF76
 2713 0394 06       		.byte	0x6
 2714 0395 0A       		.byte	0xa
 2715 0396 88000000 		.4byte	0x88
 2716 039a 01       		.byte	0x1
 2717 039b 0A       		.uleb128 0xa
 2718 039c 24050000 		.4byte	.LASF77
 2719 03a0 06       		.byte	0x6
 2720 03a1 0B       		.byte	0xb
 2721 03a2 88000000 		.4byte	0x88
 2722 03a6 02       		.byte	0x2
 2723 03a7 0A       		.uleb128 0xa
 2724 03a8 12020000 		.4byte	.LASF78
 2725 03ac 06       		.byte	0x6
 2726 03ad 0C       		.byte	0xc
 2727 03ae 88000000 		.4byte	0x88
 2728 03b2 03       		.byte	0x3
 2729 03b3 0A       		.uleb128 0xa
 2730 03b4 1C020000 		.4byte	.LASF79
 2731 03b8 06       		.byte	0x6
 2732 03b9 0D       		.byte	0xd
 2733 03ba 88000000 		.4byte	0x88
 2734 03be 04       		.byte	0x4
 2735 03bf 0A       		.uleb128 0xa
 2736 03c0 26020000 		.4byte	.LASF80
 2737 03c4 06       		.byte	0x6
 2738 03c5 0E       		.byte	0xe
 2739 03c6 88000000 		.4byte	0x88
 2740 03ca 05       		.byte	0x5
 2741 03cb 0A       		.uleb128 0xa
 2742 03cc 48070000 		.4byte	.LASF81
 2743 03d0 06       		.byte	0x6
 2744 03d1 0F       		.byte	0xf
 2745 03d2 88000000 		.4byte	0x88
 2746 03d6 06       		.byte	0x6
 2747 03d7 0A       		.uleb128 0xa
 2748 03d8 38020000 		.4byte	.LASF82
 2749 03dc 06       		.byte	0x6
 2750 03dd 10       		.byte	0x10
 2751 03de 88000000 		.4byte	0x88
 2752 03e2 07       		.byte	0x7
 2753 03e3 0A       		.uleb128 0xa
 2754 03e4 42020000 		.4byte	.LASF83
 2755 03e8 06       		.byte	0x6
 2756 03e9 11       		.byte	0x11
 2757 03ea 88000000 		.4byte	0x88
 2758 03ee 08       		.byte	0x8
 2759 03ef 0A       		.uleb128 0xa
 2760 03f0 1B060000 		.4byte	.LASF84
 2761 03f4 06       		.byte	0x6
 2762 03f5 12       		.byte	0x12
 2763 03f6 88000000 		.4byte	0x88
 2764 03fa 09       		.byte	0x9
 2765 03fb 0A       		.uleb128 0xa
ARM GAS  C:\Users\PANXIA~1\AppData\Local\Temp\cc1T2PPa.s 			page 63


 2766 03fc 12040000 		.4byte	.LASF85
 2767 0400 06       		.byte	0x6
 2768 0401 13       		.byte	0x13
 2769 0402 88000000 		.4byte	0x88
 2770 0406 0A       		.byte	0xa
 2771 0407 0A       		.uleb128 0xa
 2772 0408 32010000 		.4byte	.LASF86
 2773 040c 06       		.byte	0x6
 2774 040d 14       		.byte	0x14
 2775 040e 88000000 		.4byte	0x88
 2776 0412 0B       		.byte	0xb
 2777 0413 0A       		.uleb128 0xa
 2778 0414 82040000 		.4byte	.LASF87
 2779 0418 06       		.byte	0x6
 2780 0419 15       		.byte	0x15
 2781 041a 88000000 		.4byte	0x88
 2782 041e 0C       		.byte	0xc
 2783 041f 00       		.byte	0
 2784 0420 03       		.uleb128 0x3
 2785 0421 02010000 		.4byte	.LASF88
 2786 0425 06       		.byte	0x6
 2787 0426 17       		.byte	0x17
 2788 0427 7B030000 		.4byte	0x37b
 2789 042b 08       		.uleb128 0x8
 2790 042c 14       		.byte	0x14
 2791 042d 06       		.byte	0x6
 2792 042e 18       		.byte	0x18
 2793 042f AA040000 		.4byte	0x4aa
 2794 0433 0A       		.uleb128 0xa
 2795 0434 66070000 		.4byte	.LASF89
 2796 0438 06       		.byte	0x6
 2797 0439 1A       		.byte	0x1a
 2798 043a A9000000 		.4byte	0xa9
 2799 043e 00       		.byte	0
 2800 043f 0A       		.uleb128 0xa
 2801 0440 6C070000 		.4byte	.LASF90
 2802 0444 06       		.byte	0x6
 2803 0445 1B       		.byte	0x1b
 2804 0446 A9000000 		.4byte	0xa9
 2805 044a 02       		.byte	0x2
 2806 044b 0A       		.uleb128 0xa
 2807 044c 72070000 		.4byte	.LASF91
 2808 0450 06       		.byte	0x6
 2809 0451 1C       		.byte	0x1c
 2810 0452 A9000000 		.4byte	0xa9
 2811 0456 04       		.byte	0x4
 2812 0457 0A       		.uleb128 0xa
 2813 0458 34030000 		.4byte	.LASF92
 2814 045c 06       		.byte	0x6
 2815 045d 1D       		.byte	0x1d
 2816 045e A9000000 		.4byte	0xa9
 2817 0462 06       		.byte	0x6
 2818 0463 0A       		.uleb128 0xa
 2819 0464 3A030000 		.4byte	.LASF93
 2820 0468 06       		.byte	0x6
 2821 0469 1E       		.byte	0x1e
 2822 046a A9000000 		.4byte	0xa9
ARM GAS  C:\Users\PANXIA~1\AppData\Local\Temp\cc1T2PPa.s 			page 64


 2823 046e 08       		.byte	0x8
 2824 046f 0A       		.uleb128 0xa
 2825 0470 40030000 		.4byte	.LASF94
 2826 0474 06       		.byte	0x6
 2827 0475 1F       		.byte	0x1f
 2828 0476 A9000000 		.4byte	0xa9
 2829 047a 0A       		.byte	0xa
 2830 047b 0A       		.uleb128 0xa
 2831 047c A9000000 		.4byte	.LASF95
 2832 0480 06       		.byte	0x6
 2833 0481 20       		.byte	0x20
 2834 0482 A9000000 		.4byte	0xa9
 2835 0486 0C       		.byte	0xc
 2836 0487 0A       		.uleb128 0xa
 2837 0488 6A030000 		.4byte	.LASF96
 2838 048c 06       		.byte	0x6
 2839 048d 21       		.byte	0x21
 2840 048e A9000000 		.4byte	0xa9
 2841 0492 0E       		.byte	0xe
 2842 0493 09       		.uleb128 0x9
 2843 0494 79617700 		.ascii	"yaw\000"
 2844 0498 06       		.byte	0x6
 2845 0499 22       		.byte	0x22
 2846 049a A9000000 		.4byte	0xa9
 2847 049e 10       		.byte	0x10
 2848 049f 09       		.uleb128 0x9
 2849 04a0 5400     		.ascii	"T\000"
 2850 04a2 06       		.byte	0x6
 2851 04a3 24       		.byte	0x24
 2852 04a4 A9000000 		.4byte	0xa9
 2853 04a8 12       		.byte	0x12
 2854 04a9 00       		.byte	0
 2855 04aa 0B       		.uleb128 0xb
 2856 04ab 494D5500 		.ascii	"IMU\000"
 2857 04af 06       		.byte	0x6
 2858 04b0 25       		.byte	0x25
 2859 04b1 2B040000 		.4byte	0x42b
 2860 04b5 0C       		.uleb128 0xc
 2861 04b6 93050000 		.4byte	.LASF101
 2862 04ba 01       		.byte	0x1
 2863 04bb 5D       		.byte	0x5d
 2864 04bc 00000000 		.4byte	.LFB64
 2865 04c0 08000000 		.4byte	.LFE64-.LFB64
 2866 04c4 01       		.uleb128 0x1
 2867 04c5 9C       		.byte	0x9c
 2868 04c6 FA040000 		.4byte	0x4fa
 2869 04ca 0D       		.uleb128 0xd
 2870 04cb 2A070000 		.4byte	.LASF97
 2871 04cf 01       		.byte	0x1
 2872 04d0 5D       		.byte	0x5d
 2873 04d1 FA040000 		.4byte	0x4fa
 2874 04d5 00000000 		.4byte	.LLST0
 2875 04d9 0D       		.uleb128 0xd
 2876 04da 30050000 		.4byte	.LASF98
 2877 04de 01       		.byte	0x1
 2878 04df 5D       		.byte	0x5d
 2879 04e0 88000000 		.4byte	0x88
ARM GAS  C:\Users\PANXIA~1\AppData\Local\Temp\cc1T2PPa.s 			page 65


 2880 04e4 21000000 		.4byte	.LLST1
 2881 04e8 0E       		.uleb128 0xe
 2882 04e9 06000000 		.4byte	.LVL1
 2883 04ed 460F0000 		.4byte	0xf46
 2884 04f1 0F       		.uleb128 0xf
 2885 04f2 01       		.uleb128 0x1
 2886 04f3 50       		.byte	0x50
 2887 04f4 03       		.uleb128 0x3
 2888 04f5 F3       		.byte	0xf3
 2889 04f6 01       		.uleb128 0x1
 2890 04f7 50       		.byte	0x50
 2891 04f8 00       		.byte	0
 2892 04f9 00       		.byte	0
 2893 04fa 10       		.uleb128 0x10
 2894 04fb 04       		.byte	0x4
 2895 04fc 88000000 		.4byte	0x88
 2896 0500 11       		.uleb128 0x11
 2897 0501 04020000 		.4byte	.LASF169
 2898 0505 01       		.byte	0x1
 2899 0506 62       		.byte	0x62
 2900 0507 00000000 		.4byte	.LFB65
 2901 050b 3C000000 		.4byte	.LFE65-.LFB65
 2902 050f 01       		.uleb128 0x1
 2903 0510 9C       		.byte	0x9c
 2904 0511 68050000 		.4byte	0x568
 2905 0515 0D       		.uleb128 0xd
 2906 0516 94000000 		.4byte	.LASF99
 2907 051a 01       		.byte	0x1
 2908 051b 62       		.byte	0x62
 2909 051c 88000000 		.4byte	0x88
 2910 0520 42000000 		.4byte	.LLST2
 2911 0524 0D       		.uleb128 0xd
 2912 0525 E3020000 		.4byte	.LASF100
 2913 0529 01       		.byte	0x1
 2914 052a 62       		.byte	0x62
 2915 052b 88000000 		.4byte	0x88
 2916 052f 72000000 		.4byte	.LLST3
 2917 0533 12       		.uleb128 0x12
 2918 0534 73756D00 		.ascii	"sum\000"
 2919 0538 01       		.byte	0x1
 2920 0539 6C       		.byte	0x6c
 2921 053a 88000000 		.4byte	0x88
 2922 053e A2000000 		.4byte	.LLST4
 2923 0542 12       		.uleb128 0x12
 2924 0543 6900     		.ascii	"i\000"
 2925 0545 01       		.byte	0x1
 2926 0546 6D       		.byte	0x6d
 2927 0547 88000000 		.4byte	0x88
 2928 054b CC000000 		.4byte	.LLST5
 2929 054f 0E       		.uleb128 0xe
 2930 0550 36000000 		.4byte	.LVL10
 2931 0554 B5040000 		.4byte	0x4b5
 2932 0558 0F       		.uleb128 0xf
 2933 0559 01       		.uleb128 0x1
 2934 055a 51       		.byte	0x51
 2935 055b 01       		.uleb128 0x1
 2936 055c 37       		.byte	0x37
ARM GAS  C:\Users\PANXIA~1\AppData\Local\Temp\cc1T2PPa.s 			page 66


 2937 055d 0F       		.uleb128 0xf
 2938 055e 01       		.uleb128 0x1
 2939 055f 50       		.byte	0x50
 2940 0560 05       		.uleb128 0x5
 2941 0561 03       		.byte	0x3
 2942 0562 00000000 		.4byte	data_to_send
 2943 0566 00       		.byte	0
 2944 0567 00       		.byte	0
 2945 0568 0C       		.uleb128 0xc
 2946 0569 68050000 		.4byte	.LASF102
 2947 056d 01       		.byte	0x1
 2948 056e A4       		.byte	0xa4
 2949 056f 00000000 		.4byte	.LFB67
 2950 0573 0C020000 		.4byte	.LFE67-.LFB67
 2951 0577 01       		.uleb128 0x1
 2952 0578 9C       		.byte	0x9c
 2953 0579 E8060000 		.4byte	0x6e8
 2954 057d 0D       		.uleb128 0xd
 2955 057e 4B050000 		.4byte	.LASF103
 2956 0582 01       		.byte	0x1
 2957 0583 A4       		.byte	0xa4
 2958 0584 FA040000 		.4byte	0x4fa
 2959 0588 F6000000 		.4byte	.LLST6
 2960 058c 13       		.uleb128 0x13
 2961 058d 6E756D00 		.ascii	"num\000"
 2962 0591 01       		.byte	0x1
 2963 0592 A4       		.byte	0xa4
 2964 0593 88000000 		.4byte	0x88
 2965 0597 22010000 		.4byte	.LLST7
 2966 059b 12       		.uleb128 0x12
 2967 059c 73756D00 		.ascii	"sum\000"
 2968 05a0 01       		.byte	0x1
 2969 05a1 A6       		.byte	0xa6
 2970 05a2 88000000 		.4byte	0x88
 2971 05a6 43010000 		.4byte	.LLST8
 2972 05aa 14       		.uleb128 0x14
 2973 05ab 37050000 		.4byte	.LASF104
 2974 05af 01       		.byte	0x1
 2975 05b0 A7       		.byte	0xa7
 2976 05b1 88000000 		.4byte	0x88
 2977 05b5 62010000 		.4byte	.LLST9
 2978 05b9 14       		.uleb128 0x14
 2979 05ba 14010000 		.4byte	.LASF105
 2980 05be 01       		.byte	0x1
 2981 05bf A8       		.byte	0xa8
 2982 05c0 93000000 		.4byte	0x93
 2983 05c4 A2010000 		.4byte	.LLST10
 2984 05c8 12       		.uleb128 0x12
 2985 05c9 6900     		.ascii	"i\000"
 2986 05cb 01       		.byte	0x1
 2987 05cc A9       		.byte	0xa9
 2988 05cd 88000000 		.4byte	0x88
 2989 05d1 C1010000 		.4byte	.LLST11
 2990 05d5 15       		.uleb128 0x15
 2991 05d6 9A000000 		.4byte	.LVL19
 2992 05da 620F0000 		.4byte	0xf62
 2993 05de 16       		.uleb128 0x16
ARM GAS  C:\Users\PANXIA~1\AppData\Local\Temp\cc1T2PPa.s 			page 67


 2994 05df A0000000 		.4byte	.LVL20
 2995 05e3 6D0F0000 		.4byte	0xf6d
 2996 05e7 F1050000 		.4byte	0x5f1
 2997 05eb 0F       		.uleb128 0xf
 2998 05ec 01       		.uleb128 0x1
 2999 05ed 50       		.byte	0x50
 3000 05ee 01       		.uleb128 0x1
 3001 05ef 30       		.byte	0x30
 3002 05f0 00       		.byte	0
 3003 05f1 15       		.uleb128 0x15
 3004 05f2 B8000000 		.4byte	.LVL23
 3005 05f6 620F0000 		.4byte	0xf62
 3006 05fa 15       		.uleb128 0x15
 3007 05fb CA000000 		.4byte	.LVL24
 3008 05ff 6D0F0000 		.4byte	0xf6d
 3009 0603 15       		.uleb128 0x15
 3010 0604 DC000000 		.4byte	.LVL28
 3011 0608 620F0000 		.4byte	0xf62
 3012 060c 15       		.uleb128 0x15
 3013 060d EE000000 		.4byte	.LVL29
 3014 0611 7E0F0000 		.4byte	0xf7e
 3015 0615 15       		.uleb128 0x15
 3016 0616 00010000 		.4byte	.LVL33
 3017 061a 620F0000 		.4byte	0xf62
 3018 061e 15       		.uleb128 0x15
 3019 061f 12010000 		.4byte	.LVL34
 3020 0623 8F0F0000 		.4byte	0xf8f
 3021 0627 15       		.uleb128 0x15
 3022 0628 24010000 		.4byte	.LVL38
 3023 062c 620F0000 		.4byte	0xf62
 3024 0630 15       		.uleb128 0x15
 3025 0631 36010000 		.4byte	.LVL39
 3026 0635 A00F0000 		.4byte	0xfa0
 3027 0639 16       		.uleb128 0x16
 3028 063a 54010000 		.4byte	.LVL40
 3029 063e B10F0000 		.4byte	0xfb1
 3030 0642 4C060000 		.4byte	0x64c
 3031 0646 0F       		.uleb128 0xf
 3032 0647 01       		.uleb128 0x1
 3033 0648 50       		.byte	0x50
 3034 0649 01       		.uleb128 0x1
 3035 064a 31       		.byte	0x31
 3036 064b 00       		.byte	0
 3037 064c 16       		.uleb128 0x16
 3038 064d 5C010000 		.4byte	.LVL41
 3039 0651 B10F0000 		.4byte	0xfb1
 3040 0655 5F060000 		.4byte	0x65f
 3041 0659 0F       		.uleb128 0xf
 3042 065a 01       		.uleb128 0x1
 3043 065b 50       		.byte	0x50
 3044 065c 01       		.uleb128 0x1
 3045 065d 30       		.byte	0x30
 3046 065e 00       		.byte	0
 3047 065f 16       		.uleb128 0x16
 3048 0660 80010000 		.4byte	.LVL43
 3049 0664 C20F0000 		.4byte	0xfc2
 3050 0668 73060000 		.4byte	0x673
ARM GAS  C:\Users\PANXIA~1\AppData\Local\Temp\cc1T2PPa.s 			page 68


 3051 066c 0F       		.uleb128 0xf
 3052 066d 01       		.uleb128 0x1
 3053 066e 50       		.byte	0x50
 3054 066f 02       		.uleb128 0x2
 3055 0670 76       		.byte	0x76
 3056 0671 00       		.sleb128 0
 3057 0672 00       		.byte	0
 3058 0673 16       		.uleb128 0x16
 3059 0674 86010000 		.4byte	.LVL44
 3060 0678 D30F0000 		.4byte	0xfd3
 3061 067c 87060000 		.4byte	0x687
 3062 0680 0F       		.uleb128 0xf
 3063 0681 01       		.uleb128 0x1
 3064 0682 50       		.byte	0x50
 3065 0683 02       		.uleb128 0x2
 3066 0684 76       		.byte	0x76
 3067 0685 00       		.sleb128 0
 3068 0686 00       		.byte	0
 3069 0687 16       		.uleb128 0x16
 3070 0688 8C010000 		.4byte	.LVL45
 3071 068c E40F0000 		.4byte	0xfe4
 3072 0690 9B060000 		.4byte	0x69b
 3073 0694 0F       		.uleb128 0xf
 3074 0695 01       		.uleb128 0x1
 3075 0696 50       		.byte	0x50
 3076 0697 02       		.uleb128 0x2
 3077 0698 76       		.byte	0x76
 3078 0699 00       		.sleb128 0
 3079 069a 00       		.byte	0
 3080 069b 16       		.uleb128 0x16
 3081 069c 92010000 		.4byte	.LVL46
 3082 06a0 F50F0000 		.4byte	0xff5
 3083 06a4 AF060000 		.4byte	0x6af
 3084 06a8 0F       		.uleb128 0xf
 3085 06a9 01       		.uleb128 0x1
 3086 06aa 50       		.byte	0x50
 3087 06ab 02       		.uleb128 0x2
 3088 06ac 76       		.byte	0x76
 3089 06ad 00       		.sleb128 0
 3090 06ae 00       		.byte	0
 3091 06af 16       		.uleb128 0x16
 3092 06b0 E6010000 		.4byte	.LVL47
 3093 06b4 00050000 		.4byte	0x500
 3094 06b8 C3060000 		.4byte	0x6c3
 3095 06bc 0F       		.uleb128 0xf
 3096 06bd 01       		.uleb128 0x1
 3097 06be 51       		.byte	0x51
 3098 06bf 02       		.uleb128 0x2
 3099 06c0 74       		.byte	0x74
 3100 06c1 00       		.sleb128 0
 3101 06c2 00       		.byte	0
 3102 06c3 16       		.uleb128 0x16
 3103 06c4 F2010000 		.4byte	.LVL48
 3104 06c8 00050000 		.4byte	0x500
 3105 06cc D7060000 		.4byte	0x6d7
 3106 06d0 0F       		.uleb128 0xf
 3107 06d1 01       		.uleb128 0x1
ARM GAS  C:\Users\PANXIA~1\AppData\Local\Temp\cc1T2PPa.s 			page 69


 3108 06d2 51       		.byte	0x51
 3109 06d3 02       		.uleb128 0x2
 3110 06d4 74       		.byte	0x74
 3111 06d5 00       		.sleb128 0
 3112 06d6 00       		.byte	0
 3113 06d7 0E       		.uleb128 0xe
 3114 06d8 FE010000 		.4byte	.LVL49
 3115 06dc 00050000 		.4byte	0x500
 3116 06e0 0F       		.uleb128 0xf
 3117 06e1 01       		.uleb128 0x1
 3118 06e2 51       		.byte	0x51
 3119 06e3 02       		.uleb128 0x2
 3120 06e4 74       		.byte	0x74
 3121 06e5 00       		.sleb128 0
 3122 06e6 00       		.byte	0
 3123 06e7 00       		.byte	0
 3124 06e8 0C       		.uleb128 0xc
 3125 06e9 25040000 		.4byte	.LASF106
 3126 06ed 01       		.byte	0x1
 3127 06ee 75       		.byte	0x75
 3128 06ef 00000000 		.4byte	.LFB66
 3129 06f3 AC000000 		.4byte	.LFE66-.LFB66
 3130 06f7 01       		.uleb128 0x1
 3131 06f8 9C       		.byte	0x9c
 3132 06f9 64070000 		.4byte	0x764
 3133 06fd 0D       		.uleb128 0xd
 3134 06fe 4D030000 		.4byte	.LASF107
 3135 0702 01       		.byte	0x1
 3136 0703 75       		.byte	0x75
 3137 0704 88000000 		.4byte	0x88
 3138 0708 EB010000 		.4byte	.LLST12
 3139 070c 17       		.uleb128 0x17
 3140 070d 2B030000 		.4byte	.LASF108
 3141 0711 01       		.byte	0x1
 3142 0712 77       		.byte	0x77
 3143 0713 64070000 		.4byte	0x764
 3144 0717 05       		.uleb128 0x5
 3145 0718 03       		.byte	0x3
 3146 0719 04000000 		.4byte	RxBuffer.6957
 3147 071d 17       		.uleb128 0x17
 3148 071e A4030000 		.4byte	.LASF109
 3149 0722 01       		.byte	0x1
 3150 0723 78       		.byte	0x78
 3151 0724 88000000 		.4byte	0x88
 3152 0728 05       		.uleb128 0x5
 3153 0729 03       		.byte	0x3
 3154 072a 36000000 		.4byte	_data_len.6958
 3155 072e 17       		.uleb128 0x17
 3156 072f D8030000 		.4byte	.LASF110
 3157 0733 01       		.byte	0x1
 3158 0734 78       		.byte	0x78
 3159 0735 88000000 		.4byte	0x88
 3160 0739 05       		.uleb128 0x5
 3161 073a 03       		.byte	0x3
 3162 073b 37000000 		.4byte	_data_cnt.6959
 3163 073f 17       		.uleb128 0x17
 3164 0740 52070000 		.4byte	.LASF111
ARM GAS  C:\Users\PANXIA~1\AppData\Local\Temp\cc1T2PPa.s 			page 70


 3165 0744 01       		.byte	0x1
 3166 0745 79       		.byte	0x79
 3167 0746 88000000 		.4byte	0x88
 3168 074a 05       		.uleb128 0x5
 3169 074b 03       		.byte	0x3
 3170 074c 00000000 		.4byte	state.6960
 3171 0750 0E       		.uleb128 0xe
 3172 0751 9E000000 		.4byte	.LVL53
 3173 0755 68050000 		.4byte	0x568
 3174 0759 0F       		.uleb128 0xf
 3175 075a 01       		.uleb128 0x1
 3176 075b 50       		.byte	0x50
 3177 075c 05       		.uleb128 0x5
 3178 075d 03       		.byte	0x3
 3179 075e 04000000 		.4byte	.LANCHOR0+4
 3180 0762 00       		.byte	0
 3181 0763 00       		.byte	0
 3182 0764 18       		.uleb128 0x18
 3183 0765 88000000 		.4byte	0x88
 3184 0769 74070000 		.4byte	0x774
 3185 076d 19       		.uleb128 0x19
 3186 076e CD000000 		.4byte	0xcd
 3187 0772 31       		.byte	0x31
 3188 0773 00       		.byte	0
 3189 0774 1A       		.uleb128 0x1a
 3190 0775 35080000 		.4byte	.LASF112
 3191 0779 01       		.byte	0x1
 3192 077a 4B01     		.2byte	0x14b
 3193 077c 00000000 		.4byte	.LFB68
 3194 0780 70000000 		.4byte	.LFE68-.LFB68
 3195 0784 01       		.uleb128 0x1
 3196 0785 9C       		.byte	0x9c
 3197 0786 1E080000 		.4byte	0x81e
 3198 078a 1B       		.uleb128 0x1b
 3199 078b 64000000 		.4byte	.LASF41
 3200 078f 01       		.byte	0x1
 3201 0790 4B01     		.2byte	0x14b
 3202 0792 93000000 		.4byte	0x93
 3203 0796 23020000 		.4byte	.LLST13
 3204 079a 1B       		.uleb128 0x1b
 3205 079b C8010000 		.4byte	.LASF42
 3206 079f 01       		.byte	0x1
 3207 07a0 4B01     		.2byte	0x14b
 3208 07a2 93000000 		.4byte	0x93
 3209 07a6 4E020000 		.4byte	.LLST14
 3210 07aa 1B       		.uleb128 0x1b
 3211 07ab 74020000 		.4byte	.LASF113
 3212 07af 01       		.byte	0x1
 3213 07b0 4B01     		.2byte	0x14b
 3214 07b2 93000000 		.4byte	0x93
 3215 07b6 79020000 		.4byte	.LLST15
 3216 07ba 1B       		.uleb128 0x1b
 3217 07bb 1D070000 		.4byte	.LASF37
 3218 07bf 01       		.byte	0x1
 3219 07c0 4B01     		.2byte	0x14b
 3220 07c2 93000000 		.4byte	0x93
 3221 07c6 A4020000 		.4byte	.LLST16
ARM GAS  C:\Users\PANXIA~1\AppData\Local\Temp\cc1T2PPa.s 			page 71


 3222 07ca 1B       		.uleb128 0x1b
 3223 07cb 7E000000 		.4byte	.LASF38
 3224 07cf 01       		.byte	0x1
 3225 07d0 4B01     		.2byte	0x14b
 3226 07d2 93000000 		.4byte	0x93
 3227 07d6 DB020000 		.4byte	.LLST17
 3228 07da 1C       		.uleb128 0x1c
 3229 07db 30080000 		.4byte	.LASF114
 3230 07df 01       		.byte	0x1
 3231 07e0 4D01     		.2byte	0x14d
 3232 07e2 88000000 		.4byte	0x88
 3233 07e6 FB020000 		.4byte	.LLST18
 3234 07ea 1D       		.uleb128 0x1d
 3235 07eb 73756D00 		.ascii	"sum\000"
 3236 07ef 01       		.byte	0x1
 3237 07f0 6001     		.2byte	0x160
 3238 07f2 88000000 		.4byte	0x88
 3239 07f6 AB030000 		.4byte	.LLST19
 3240 07fa 1D       		.uleb128 0x1d
 3241 07fb 6900     		.ascii	"i\000"
 3242 07fd 01       		.byte	0x1
 3243 07fe 6101     		.2byte	0x161
 3244 0800 88000000 		.4byte	0x88
 3245 0804 D5030000 		.4byte	.LLST20
 3246 0808 0E       		.uleb128 0xe
 3247 0809 68000000 		.4byte	.LVL80
 3248 080d B5040000 		.4byte	0x4b5
 3249 0811 0F       		.uleb128 0xf
 3250 0812 01       		.uleb128 0x1
 3251 0813 51       		.byte	0x51
 3252 0814 01       		.uleb128 0x1
 3253 0815 3F       		.byte	0x3f
 3254 0816 0F       		.uleb128 0xf
 3255 0817 01       		.uleb128 0x1
 3256 0818 50       		.byte	0x50
 3257 0819 02       		.uleb128 0x2
 3258 081a 75       		.byte	0x75
 3259 081b 00       		.sleb128 0
 3260 081c 00       		.byte	0
 3261 081d 00       		.byte	0
 3262 081e 1A       		.uleb128 0x1a
 3263 081f EA070000 		.4byte	.LASF115
 3264 0823 01       		.byte	0x1
 3265 0824 6801     		.2byte	0x168
 3266 0826 00000000 		.4byte	.LFB69
 3267 082a 68000000 		.4byte	.LFE69-.LFB69
 3268 082e 01       		.uleb128 0x1
 3269 082f 9C       		.byte	0x9c
 3270 0830 F6080000 		.4byte	0x8f6
 3271 0834 1B       		.uleb128 0x1b
 3272 0835 5E020000 		.4byte	.LASF116
 3273 0839 01       		.byte	0x1
 3274 083a 6801     		.2byte	0x168
 3275 083c 88000000 		.4byte	0x88
 3276 0840 FF030000 		.4byte	.LLST21
 3277 0844 1B       		.uleb128 0x1b
 3278 0845 BD000000 		.4byte	.LASF117
ARM GAS  C:\Users\PANXIA~1\AppData\Local\Temp\cc1T2PPa.s 			page 72


 3279 0849 01       		.byte	0x1
 3280 084a 6801     		.2byte	0x168
 3281 084c D4000000 		.4byte	0xd4
 3282 0850 2F040000 		.4byte	.LLST22
 3283 0854 1B       		.uleb128 0x1b
 3284 0855 5A000000 		.4byte	.LASF118
 3285 0859 01       		.byte	0x1
 3286 085a 6801     		.2byte	0x168
 3287 085c 93000000 		.4byte	0x93
 3288 0860 5F040000 		.4byte	.LLST23
 3289 0864 1B       		.uleb128 0x1b
 3290 0865 CF040000 		.4byte	.LASF119
 3291 0869 01       		.byte	0x1
 3292 086a 6801     		.2byte	0x168
 3293 086c 93000000 		.4byte	0x93
 3294 0870 80040000 		.4byte	.LLST24
 3295 0874 1E       		.uleb128 0x1e
 3296 0875 586B6D00 		.ascii	"Xkm\000"
 3297 0879 01       		.byte	0x1
 3298 087a 6801     		.2byte	0x168
 3299 087c B4000000 		.4byte	0xb4
 3300 0880 AD040000 		.4byte	.LLST25
 3301 0884 1C       		.uleb128 0x1c
 3302 0885 30080000 		.4byte	.LASF114
 3303 0889 01       		.byte	0x1
 3304 088a 6A01     		.2byte	0x16a
 3305 088c 88000000 		.4byte	0x88
 3306 0890 CD040000 		.4byte	.LLST26
 3307 0894 1C       		.uleb128 0x1c
 3308 0895 8E000000 		.4byte	.LASF120
 3309 0899 01       		.byte	0x1
 3310 089a 6B01     		.2byte	0x16b
 3311 089c 88000000 		.4byte	0x88
 3312 08a0 89050000 		.4byte	.LLST27
 3313 08a4 1F       		.uleb128 0x1f
 3314 08a5 6F030000 		.4byte	.LASF121
 3315 08a9 01       		.byte	0x1
 3316 08aa 6C01     		.2byte	0x16c
 3317 08ac 93000000 		.4byte	0x93
 3318 08b0 02       		.uleb128 0x2
 3319 08b1 91       		.byte	0x91
 3320 08b2 6E       		.sleb128 -18
 3321 08b3 1F       		.uleb128 0x1f
 3322 08b4 E6010000 		.4byte	.LASF122
 3323 08b8 01       		.byte	0x1
 3324 08b9 6D01     		.2byte	0x16d
 3325 08bb B4000000 		.4byte	0xb4
 3326 08bf 02       		.uleb128 0x2
 3327 08c0 91       		.byte	0x91
 3328 08c1 68       		.sleb128 -24
 3329 08c2 1D       		.uleb128 0x1d
 3330 08c3 73756D00 		.ascii	"sum\000"
 3331 08c7 01       		.byte	0x1
 3332 08c8 8801     		.2byte	0x188
 3333 08ca 88000000 		.4byte	0x88
 3334 08ce C4050000 		.4byte	.LLST28
 3335 08d2 1D       		.uleb128 0x1d
ARM GAS  C:\Users\PANXIA~1\AppData\Local\Temp\cc1T2PPa.s 			page 73


 3336 08d3 6900     		.ascii	"i\000"
 3337 08d5 01       		.byte	0x1
 3338 08d6 8901     		.2byte	0x189
 3339 08d8 88000000 		.4byte	0x88
 3340 08dc EE050000 		.4byte	.LLST29
 3341 08e0 0E       		.uleb128 0xe
 3342 08e1 60000000 		.4byte	.LVL109
 3343 08e5 B5040000 		.4byte	0x4b5
 3344 08e9 0F       		.uleb128 0xf
 3345 08ea 01       		.uleb128 0x1
 3346 08eb 51       		.byte	0x51
 3347 08ec 01       		.uleb128 0x1
 3348 08ed 3F       		.byte	0x3f
 3349 08ee 0F       		.uleb128 0xf
 3350 08ef 01       		.uleb128 0x1
 3351 08f0 50       		.byte	0x50
 3352 08f1 02       		.uleb128 0x2
 3353 08f2 75       		.byte	0x75
 3354 08f3 00       		.sleb128 0
 3355 08f4 00       		.byte	0
 3356 08f5 00       		.byte	0
 3357 08f6 1A       		.uleb128 0x1a
 3358 08f7 4F010000 		.4byte	.LASF123
 3359 08fb 01       		.byte	0x1
 3360 08fc 9001     		.2byte	0x190
 3361 08fe 00000000 		.4byte	.LFB70
 3362 0902 B8000000 		.4byte	.LFE70-.LFB70
 3363 0906 01       		.uleb128 0x1
 3364 0907 9C       		.byte	0x9c
 3365 0908 BF090000 		.4byte	0x9bf
 3366 090c 1B       		.uleb128 0x1b
 3367 090d A9000000 		.4byte	.LASF95
 3368 0911 01       		.byte	0x1
 3369 0912 9001     		.2byte	0x190
 3370 0914 B4000000 		.4byte	0xb4
 3371 0918 18060000 		.4byte	.LLST30
 3372 091c 1B       		.uleb128 0x1b
 3373 091d 6A030000 		.4byte	.LASF96
 3374 0921 01       		.byte	0x1
 3375 0922 9001     		.2byte	0x190
 3376 0924 B4000000 		.4byte	0xb4
 3377 0928 39060000 		.4byte	.LLST31
 3378 092c 1E       		.uleb128 0x1e
 3379 092d 79617700 		.ascii	"yaw\000"
 3380 0931 01       		.byte	0x1
 3381 0932 9001     		.2byte	0x190
 3382 0934 B4000000 		.4byte	0xb4
 3383 0938 5A060000 		.4byte	.LLST32
 3384 093c 1E       		.uleb128 0x1e
 3385 093d 615F7800 		.ascii	"a_x\000"
 3386 0941 01       		.byte	0x1
 3387 0942 9001     		.2byte	0x190
 3388 0944 B4000000 		.4byte	0xb4
 3389 0948 7B060000 		.4byte	.LLST33
 3390 094c 1E       		.uleb128 0x1e
 3391 094d 615F7900 		.ascii	"a_y\000"
 3392 0951 01       		.byte	0x1
ARM GAS  C:\Users\PANXIA~1\AppData\Local\Temp\cc1T2PPa.s 			page 74


 3393 0952 9001     		.2byte	0x190
 3394 0954 B4000000 		.4byte	0xb4
 3395 0958 9C060000 		.4byte	.LLST34
 3396 095c 1E       		.uleb128 0x1e
 3397 095d 615F7A00 		.ascii	"a_z\000"
 3398 0961 01       		.byte	0x1
 3399 0962 9001     		.2byte	0x190
 3400 0964 B4000000 		.4byte	0xb4
 3401 0968 BC060000 		.4byte	.LLST35
 3402 096c 1C       		.uleb128 0x1c
 3403 096d 30080000 		.4byte	.LASF114
 3404 0971 01       		.byte	0x1
 3405 0972 9201     		.2byte	0x192
 3406 0974 88000000 		.4byte	0x88
 3407 0978 DC060000 		.4byte	.LLST36
 3408 097c 1F       		.uleb128 0x1f
 3409 097d 8E000000 		.4byte	.LASF120
 3410 0981 01       		.byte	0x1
 3411 0982 9301     		.2byte	0x193
 3412 0984 B4000000 		.4byte	0xb4
 3413 0988 02       		.uleb128 0x2
 3414 0989 91       		.byte	0x91
 3415 098a 64       		.sleb128 -28
 3416 098b 1D       		.uleb128 0x1d
 3417 098c 73756D00 		.ascii	"sum\000"
 3418 0990 01       		.byte	0x1
 3419 0991 BC01     		.2byte	0x1bc
 3420 0993 88000000 		.4byte	0x88
 3421 0997 40080000 		.4byte	.LLST37
 3422 099b 1D       		.uleb128 0x1d
 3423 099c 6900     		.ascii	"i\000"
 3424 099e 01       		.byte	0x1
 3425 099f BD01     		.2byte	0x1bd
 3426 09a1 88000000 		.4byte	0x88
 3427 09a5 6A080000 		.4byte	.LLST38
 3428 09a9 0E       		.uleb128 0xe
 3429 09aa B0000000 		.4byte	.LVL151
 3430 09ae B5040000 		.4byte	0x4b5
 3431 09b2 0F       		.uleb128 0xf
 3432 09b3 01       		.uleb128 0x1
 3433 09b4 51       		.byte	0x51
 3434 09b5 01       		.uleb128 0x1
 3435 09b6 4D       		.byte	0x4d
 3436 09b7 0F       		.uleb128 0xf
 3437 09b8 01       		.uleb128 0x1
 3438 09b9 50       		.byte	0x50
 3439 09ba 02       		.uleb128 0x2
 3440 09bb 75       		.byte	0x75
 3441 09bc 00       		.sleb128 0
 3442 09bd 00       		.byte	0
 3443 09be 00       		.byte	0
 3444 09bf 1A       		.uleb128 0x1a
 3445 09c0 52030000 		.4byte	.LASF124
 3446 09c4 01       		.byte	0x1
 3447 09c5 C401     		.2byte	0x1c4
 3448 09c7 00000000 		.4byte	.LFB71
 3449 09cb 50000000 		.4byte	.LFE71-.LFB71
ARM GAS  C:\Users\PANXIA~1\AppData\Local\Temp\cc1T2PPa.s 			page 75


 3450 09cf 01       		.uleb128 0x1
 3451 09d0 9C       		.byte	0x9c
 3452 09d1 3C0A0000 		.4byte	0xa3c
 3453 09d5 1B       		.uleb128 0x1b
 3454 09d6 3C050000 		.4byte	.LASF125
 3455 09da 01       		.byte	0x1
 3456 09db C401     		.2byte	0x1c4
 3457 09dd 93000000 		.4byte	0x93
 3458 09e1 94080000 		.4byte	.LLST39
 3459 09e5 1B       		.uleb128 0x1b
 3460 09e6 3D040000 		.4byte	.LASF126
 3461 09ea 01       		.byte	0x1
 3462 09eb C401     		.2byte	0x1c4
 3463 09ed 93000000 		.4byte	0x93
 3464 09f1 BF080000 		.4byte	.LLST40
 3465 09f5 1C       		.uleb128 0x1c
 3466 09f6 30080000 		.4byte	.LASF114
 3467 09fa 01       		.byte	0x1
 3468 09fb C601     		.2byte	0x1c6
 3469 09fd 88000000 		.4byte	0x88
 3470 0a01 EA080000 		.4byte	.LLST41
 3471 0a05 1D       		.uleb128 0x1d
 3472 0a06 73756D00 		.ascii	"sum\000"
 3473 0a0a 01       		.byte	0x1
 3474 0a0b D401     		.2byte	0x1d4
 3475 0a0d 88000000 		.4byte	0x88
 3476 0a11 5E090000 		.4byte	.LLST42
 3477 0a15 1D       		.uleb128 0x1d
 3478 0a16 6900     		.ascii	"i\000"
 3479 0a18 01       		.byte	0x1
 3480 0a19 D501     		.2byte	0x1d5
 3481 0a1b 88000000 		.4byte	0x88
 3482 0a1f 88090000 		.4byte	.LLST43
 3483 0a23 0E       		.uleb128 0xe
 3484 0a24 48000000 		.4byte	.LVL171
 3485 0a28 B5040000 		.4byte	0x4b5
 3486 0a2c 0F       		.uleb128 0xf
 3487 0a2d 01       		.uleb128 0x1
 3488 0a2e 51       		.byte	0x51
 3489 0a2f 01       		.uleb128 0x1
 3490 0a30 39       		.byte	0x39
 3491 0a31 0F       		.uleb128 0xf
 3492 0a32 01       		.uleb128 0x1
 3493 0a33 50       		.byte	0x50
 3494 0a34 05       		.uleb128 0x5
 3495 0a35 03       		.byte	0x3
 3496 0a36 00000000 		.4byte	data_to_send
 3497 0a3a 00       		.byte	0
 3498 0a3b 00       		.byte	0
 3499 0a3c 1A       		.uleb128 0x1a
 3500 0a3d AF000000 		.4byte	.LASF127
 3501 0a41 01       		.byte	0x1
 3502 0a42 DD01     		.2byte	0x1dd
 3503 0a44 00000000 		.4byte	.LFB72
 3504 0a48 5C000000 		.4byte	.LFE72-.LFB72
 3505 0a4c 01       		.uleb128 0x1
 3506 0a4d 9C       		.byte	0x9c
ARM GAS  C:\Users\PANXIA~1\AppData\Local\Temp\cc1T2PPa.s 			page 76


 3507 0a4e E50A0000 		.4byte	0xae5
 3508 0a52 1E       		.uleb128 0x1e
 3509 0a53 63617000 		.ascii	"cap\000"
 3510 0a57 01       		.byte	0x1
 3511 0a58 DD01     		.2byte	0x1dd
 3512 0a5a 93000000 		.4byte	0x93
 3513 0a5e B2090000 		.4byte	.LLST44
 3514 0a62 1E       		.uleb128 0x1e
 3515 0a63 415F5600 		.ascii	"A_V\000"
 3516 0a67 01       		.byte	0x1
 3517 0a68 DD01     		.2byte	0x1dd
 3518 0a6a 93000000 		.4byte	0x93
 3519 0a6e D3090000 		.4byte	.LLST45
 3520 0a72 1B       		.uleb128 0x1b
 3521 0a73 FF070000 		.4byte	.LASF73
 3522 0a77 01       		.byte	0x1
 3523 0a78 DD01     		.2byte	0x1dd
 3524 0a7a 93000000 		.4byte	0x93
 3525 0a7e F4090000 		.4byte	.LLST46
 3526 0a82 1B       		.uleb128 0x1b
 3527 0a83 05030000 		.4byte	.LASF128
 3528 0a87 01       		.byte	0x1
 3529 0a88 DD01     		.2byte	0x1dd
 3530 0a8a 93000000 		.4byte	0x93
 3531 0a8e 150A0000 		.4byte	.LLST47
 3532 0a92 1C       		.uleb128 0x1c
 3533 0a93 30080000 		.4byte	.LASF114
 3534 0a97 01       		.byte	0x1
 3535 0a98 DF01     		.2byte	0x1df
 3536 0a9a 88000000 		.4byte	0x88
 3537 0a9e 420A0000 		.4byte	.LLST48
 3538 0aa2 1F       		.uleb128 0x1f
 3539 0aa3 37050000 		.4byte	.LASF104
 3540 0aa7 01       		.byte	0x1
 3541 0aa8 E001     		.2byte	0x1e0
 3542 0aaa 93000000 		.4byte	0x93
 3543 0aae 02       		.uleb128 0x2
 3544 0aaf 91       		.byte	0x91
 3545 0ab0 6E       		.sleb128 -18
 3546 0ab1 1D       		.uleb128 0x1d
 3547 0ab2 73756D00 		.ascii	"sum\000"
 3548 0ab6 01       		.byte	0x1
 3549 0ab7 F801     		.2byte	0x1f8
 3550 0ab9 88000000 		.4byte	0x88
 3551 0abd E60A0000 		.4byte	.LLST49
 3552 0ac1 1D       		.uleb128 0x1d
 3553 0ac2 6900     		.ascii	"i\000"
 3554 0ac4 01       		.byte	0x1
 3555 0ac5 F901     		.2byte	0x1f9
 3556 0ac7 88000000 		.4byte	0x88
 3557 0acb 100B0000 		.4byte	.LLST50
 3558 0acf 0E       		.uleb128 0xe
 3559 0ad0 52000000 		.4byte	.LVL197
 3560 0ad4 B5040000 		.4byte	0x4b5
 3561 0ad8 0F       		.uleb128 0xf
 3562 0ad9 01       		.uleb128 0x1
 3563 0ada 51       		.byte	0x51
ARM GAS  C:\Users\PANXIA~1\AppData\Local\Temp\cc1T2PPa.s 			page 77


 3564 0adb 01       		.uleb128 0x1
 3565 0adc 3D       		.byte	0x3d
 3566 0add 0F       		.uleb128 0xf
 3567 0ade 01       		.uleb128 0x1
 3568 0adf 50       		.byte	0x50
 3569 0ae0 02       		.uleb128 0x2
 3570 0ae1 75       		.byte	0x75
 3571 0ae2 00       		.sleb128 0
 3572 0ae3 00       		.byte	0
 3573 0ae4 00       		.byte	0
 3574 0ae5 20       		.uleb128 0x20
 3575 0ae6 B4020000 		.4byte	.LASF129
 3576 0aea 01       		.byte	0x1
 3577 0aeb 0F       		.byte	0xf
 3578 0aec 00000000 		.4byte	.LFB63
 3579 0af0 20020000 		.4byte	.LFE63-.LFB63
 3580 0af4 01       		.uleb128 0x1
 3581 0af5 9C       		.byte	0x9c
 3582 0af6 EA0B0000 		.4byte	0xbea
 3583 0afa 17       		.uleb128 0x17
 3584 0afb 12070000 		.4byte	.LASF130
 3585 0aff 01       		.byte	0x1
 3586 0b00 11       		.byte	0x11
 3587 0b01 25000000 		.4byte	0x25
 3588 0b05 05       		.uleb128 0x5
 3589 0b06 03       		.byte	0x3
 3590 0b07 3C000000 		.4byte	temp_pitch.6932
 3591 0b0b 17       		.uleb128 0x17
 3592 0b0c 78070000 		.4byte	.LASF131
 3593 0b10 01       		.byte	0x1
 3594 0b11 12       		.byte	0x12
 3595 0b12 25000000 		.4byte	0x25
 3596 0b16 05       		.uleb128 0x5
 3597 0b17 03       		.byte	0x3
 3598 0b18 40000000 		.4byte	tmep_roll.6933
 3599 0b1c 17       		.uleb128 0x17
 3600 0b1d C5000000 		.4byte	.LASF132
 3601 0b21 01       		.byte	0x1
 3602 0b22 13       		.byte	0x13
 3603 0b23 25000000 		.4byte	0x25
 3604 0b27 05       		.uleb128 0x5
 3605 0b28 03       		.byte	0x3
 3606 0b29 44000000 		.4byte	temp_yaw.6934
 3607 0b2d 21       		.uleb128 0x21
 3608 0b2e 636E7400 		.ascii	"cnt\000"
 3609 0b32 01       		.byte	0x1
 3610 0b33 15       		.byte	0x15
 3611 0b34 88000000 		.4byte	0x88
 3612 0b38 05       		.uleb128 0x5
 3613 0b39 03       		.byte	0x3
 3614 0b3a 38000000 		.4byte	cnt.6935
 3615 0b3e 22       		.uleb128 0x22
 3616 0b3f ED020000 		.4byte	.LASF133
 3617 0b43 01       		.byte	0x1
 3618 0b44 16       		.byte	0x16
 3619 0b45 EA0B0000 		.4byte	0xbea
 3620 0b49 05       		.byte	0x5
ARM GAS  C:\Users\PANXIA~1\AppData\Local\Temp\cc1T2PPa.s 			page 78


 3621 0b4a 22       		.uleb128 0x22
 3622 0b4b FB060000 		.4byte	.LASF134
 3623 0b4f 01       		.byte	0x1
 3624 0b50 17       		.byte	0x17
 3625 0b51 EA0B0000 		.4byte	0xbea
 3626 0b55 0B       		.byte	0xb
 3627 0b56 22       		.uleb128 0x22
 3628 0b57 07080000 		.4byte	.LASF135
 3629 0b5b 01       		.byte	0x1
 3630 0b5c 18       		.byte	0x18
 3631 0b5d EA0B0000 		.4byte	0xbea
 3632 0b61 0D       		.byte	0xd
 3633 0b62 22       		.uleb128 0x22
 3634 0b63 7C050000 		.4byte	.LASF136
 3635 0b67 01       		.byte	0x1
 3636 0b68 19       		.byte	0x19
 3637 0b69 EA0B0000 		.4byte	0xbea
 3638 0b6d 14       		.byte	0x14
 3639 0b6e 22       		.uleb128 0x22
 3640 0b6f C5040000 		.4byte	.LASF137
 3641 0b73 01       		.byte	0x1
 3642 0b74 1A       		.byte	0x1a
 3643 0b75 EA0B0000 		.4byte	0xbea
 3644 0b79 08       		.byte	0x8
 3645 0b7a 16       		.uleb128 0x16
 3646 0b7b C8000000 		.4byte	.LVL198
 3647 0b7f 74070000 		.4byte	0x774
 3648 0b83 8F0B0000 		.4byte	0xb8f
 3649 0b87 0F       		.uleb128 0xf
 3650 0b88 02       		.uleb128 0x2
 3651 0b89 7D       		.byte	0x7d
 3652 0b8a 00       		.sleb128 0
 3653 0b8b 02       		.uleb128 0x2
 3654 0b8c 74       		.byte	0x74
 3655 0b8d 00       		.sleb128 0
 3656 0b8e 00       		.byte	0
 3657 0b8f 16       		.uleb128 0x16
 3658 0b90 F0000000 		.4byte	.LVL199
 3659 0b94 1E080000 		.4byte	0x81e
 3660 0b98 A90B0000 		.4byte	0xba9
 3661 0b9c 0F       		.uleb128 0xf
 3662 0b9d 01       		.uleb128 0x1
 3663 0b9e 50       		.byte	0x50
 3664 0b9f 01       		.uleb128 0x1
 3665 0ba0 30       		.byte	0x30
 3666 0ba1 0F       		.uleb128 0xf
 3667 0ba2 02       		.uleb128 0x2
 3668 0ba3 7D       		.byte	0x7d
 3669 0ba4 00       		.sleb128 0
 3670 0ba5 02       		.uleb128 0x2
 3671 0ba6 74       		.byte	0x74
 3672 0ba7 00       		.sleb128 0
 3673 0ba8 00       		.byte	0
 3674 0ba9 16       		.uleb128 0x16
 3675 0baa B6010000 		.4byte	.LVL218
 3676 0bae F6080000 		.4byte	0x8f6
 3677 0bb2 D70B0000 		.4byte	0xbd7
ARM GAS  C:\Users\PANXIA~1\AppData\Local\Temp\cc1T2PPa.s 			page 79


 3678 0bb6 0F       		.uleb128 0xf
 3679 0bb7 01       		.uleb128 0x1
 3680 0bb8 53       		.byte	0x53
 3681 0bb9 02       		.uleb128 0x2
 3682 0bba 74       		.byte	0x74
 3683 0bbb 00       		.sleb128 0
 3684 0bbc 0F       		.uleb128 0xf
 3685 0bbd 01       		.uleb128 0x1
 3686 0bbe 51       		.byte	0x51
 3687 0bbf 02       		.uleb128 0x2
 3688 0bc0 75       		.byte	0x75
 3689 0bc1 00       		.sleb128 0
 3690 0bc2 0F       		.uleb128 0xf
 3691 0bc3 01       		.uleb128 0x1
 3692 0bc4 50       		.byte	0x50
 3693 0bc5 02       		.uleb128 0x2
 3694 0bc6 79       		.byte	0x79
 3695 0bc7 00       		.sleb128 0
 3696 0bc8 0F       		.uleb128 0xf
 3697 0bc9 02       		.uleb128 0x2
 3698 0bca 7D       		.byte	0x7d
 3699 0bcb 04       		.sleb128 4
 3700 0bcc 02       		.uleb128 0x2
 3701 0bcd 76       		.byte	0x76
 3702 0bce 00       		.sleb128 0
 3703 0bcf 0F       		.uleb128 0xf
 3704 0bd0 02       		.uleb128 0x2
 3705 0bd1 7D       		.byte	0x7d
 3706 0bd2 00       		.sleb128 0
 3707 0bd3 02       		.uleb128 0x2
 3708 0bd4 77       		.byte	0x77
 3709 0bd5 00       		.sleb128 0
 3710 0bd6 00       		.byte	0
 3711 0bd7 15       		.uleb128 0x15
 3712 0bd8 CE010000 		.4byte	.LVL219
 3713 0bdc BF090000 		.4byte	0x9bf
 3714 0be0 15       		.uleb128 0x15
 3715 0be1 F2010000 		.4byte	.LVL220
 3716 0be5 3C0A0000 		.4byte	0xa3c
 3717 0be9 00       		.byte	0
 3718 0bea 23       		.uleb128 0x23
 3719 0beb 88000000 		.4byte	0x88
 3720 0bef 1A       		.uleb128 0x1a
 3721 0bf0 94030000 		.4byte	.LASF138
 3722 0bf4 01       		.byte	0x1
 3723 0bf5 0102     		.2byte	0x201
 3724 0bf7 00000000 		.4byte	.LFB73
 3725 0bfb 98000000 		.4byte	.LFE73-.LFB73
 3726 0bff 01       		.uleb128 0x1
 3727 0c00 9C       		.byte	0x9c
 3728 0c01 C90C0000 		.4byte	0xcc9
 3729 0c05 1E       		.uleb128 0x1e
 3730 0c06 6D5F3100 		.ascii	"m_1\000"
 3731 0c0a 01       		.byte	0x1
 3732 0c0b 0102     		.2byte	0x201
 3733 0c0d 93000000 		.4byte	0x93
 3734 0c11 3A0B0000 		.4byte	.LLST51
ARM GAS  C:\Users\PANXIA~1\AppData\Local\Temp\cc1T2PPa.s 			page 80


 3735 0c15 1E       		.uleb128 0x1e
 3736 0c16 6D5F3200 		.ascii	"m_2\000"
 3737 0c1a 01       		.byte	0x1
 3738 0c1b 0102     		.2byte	0x201
 3739 0c1d 93000000 		.4byte	0x93
 3740 0c21 650B0000 		.4byte	.LLST52
 3741 0c25 1E       		.uleb128 0x1e
 3742 0c26 6D5F3300 		.ascii	"m_3\000"
 3743 0c2a 01       		.byte	0x1
 3744 0c2b 0102     		.2byte	0x201
 3745 0c2d 93000000 		.4byte	0x93
 3746 0c31 900B0000 		.4byte	.LLST53
 3747 0c35 1E       		.uleb128 0x1e
 3748 0c36 6D5F3400 		.ascii	"m_4\000"
 3749 0c3a 01       		.byte	0x1
 3750 0c3b 0102     		.2byte	0x201
 3751 0c3d 93000000 		.4byte	0x93
 3752 0c41 BB0B0000 		.4byte	.LLST54
 3753 0c45 1E       		.uleb128 0x1e
 3754 0c46 6D5F3500 		.ascii	"m_5\000"
 3755 0c4a 01       		.byte	0x1
 3756 0c4b 0102     		.2byte	0x201
 3757 0c4d 93000000 		.4byte	0x93
 3758 0c51 F20B0000 		.4byte	.LLST55
 3759 0c55 1E       		.uleb128 0x1e
 3760 0c56 6D5F3600 		.ascii	"m_6\000"
 3761 0c5a 01       		.byte	0x1
 3762 0c5b 0102     		.2byte	0x201
 3763 0c5d 93000000 		.4byte	0x93
 3764 0c61 120C0000 		.4byte	.LLST56
 3765 0c65 1E       		.uleb128 0x1e
 3766 0c66 6D5F3700 		.ascii	"m_7\000"
 3767 0c6a 01       		.byte	0x1
 3768 0c6b 0102     		.2byte	0x201
 3769 0c6d 93000000 		.4byte	0x93
 3770 0c71 320C0000 		.4byte	.LLST57
 3771 0c75 1E       		.uleb128 0x1e
 3772 0c76 6D5F3800 		.ascii	"m_8\000"
 3773 0c7a 01       		.byte	0x1
 3774 0c7b 0102     		.2byte	0x201
 3775 0c7d 93000000 		.4byte	0x93
 3776 0c81 520C0000 		.4byte	.LLST58
 3777 0c85 1C       		.uleb128 0x1c
 3778 0c86 30080000 		.4byte	.LASF114
 3779 0c8a 01       		.byte	0x1
 3780 0c8b 0302     		.2byte	0x203
 3781 0c8d 88000000 		.4byte	0x88
 3782 0c91 720C0000 		.4byte	.LLST59
 3783 0c95 1D       		.uleb128 0x1d
 3784 0c96 73756D00 		.ascii	"sum\000"
 3785 0c9a 01       		.byte	0x1
 3786 0c9b 1D02     		.2byte	0x21d
 3787 0c9d 88000000 		.4byte	0x88
 3788 0ca1 760D0000 		.4byte	.LLST60
 3789 0ca5 1D       		.uleb128 0x1d
 3790 0ca6 6900     		.ascii	"i\000"
 3791 0ca8 01       		.byte	0x1
ARM GAS  C:\Users\PANXIA~1\AppData\Local\Temp\cc1T2PPa.s 			page 81


 3792 0ca9 1E02     		.2byte	0x21e
 3793 0cab 88000000 		.4byte	0x88
 3794 0caf A00D0000 		.4byte	.LLST61
 3795 0cb3 0E       		.uleb128 0xe
 3796 0cb4 8E000000 		.4byte	.LVL253
 3797 0cb8 B5040000 		.4byte	0x4b5
 3798 0cbc 0F       		.uleb128 0xf
 3799 0cbd 01       		.uleb128 0x1
 3800 0cbe 51       		.byte	0x51
 3801 0cbf 01       		.uleb128 0x1
 3802 0cc0 45       		.byte	0x45
 3803 0cc1 0F       		.uleb128 0xf
 3804 0cc2 01       		.uleb128 0x1
 3805 0cc3 50       		.byte	0x50
 3806 0cc4 02       		.uleb128 0x2
 3807 0cc5 75       		.byte	0x75
 3808 0cc6 00       		.sleb128 0
 3809 0cc7 00       		.byte	0
 3810 0cc8 00       		.byte	0
 3811 0cc9 24       		.uleb128 0x24
 3812 0cca 06070000 		.4byte	.LASF139
 3813 0cce 01       		.byte	0x1
 3814 0ccf 2602     		.2byte	0x226
 3815 0cd1 00000000 		.4byte	.LFB74
 3816 0cd5 00010000 		.4byte	.LFE74-.LFB74
 3817 0cd9 01       		.uleb128 0x1
 3818 0cda 9C       		.byte	0x9c
 3819 0cdb D20D0000 		.4byte	0xdd2
 3820 0cdf 1B       		.uleb128 0x1b
 3821 0ce0 E7040000 		.4byte	.LASF140
 3822 0ce4 01       		.byte	0x1
 3823 0ce5 2602     		.2byte	0x226
 3824 0ce7 88000000 		.4byte	0x88
 3825 0ceb CA0D0000 		.4byte	.LLST62
 3826 0cef 1B       		.uleb128 0x1b
 3827 0cf0 2B080000 		.4byte	.LASF141
 3828 0cf4 01       		.byte	0x1
 3829 0cf5 2602     		.2byte	0x226
 3830 0cf7 25000000 		.4byte	0x25
 3831 0cfb EB0D0000 		.4byte	.LLST63
 3832 0cff 1B       		.uleb128 0x1b
 3833 0d00 26080000 		.4byte	.LASF142
 3834 0d04 01       		.byte	0x1
 3835 0d05 2602     		.2byte	0x226
 3836 0d07 25000000 		.4byte	0x25
 3837 0d0b 190E0000 		.4byte	.LLST64
 3838 0d0f 1B       		.uleb128 0x1b
 3839 0d10 21080000 		.4byte	.LASF143
 3840 0d14 01       		.byte	0x1
 3841 0d15 2602     		.2byte	0x226
 3842 0d17 25000000 		.4byte	0x25
 3843 0d1b 470E0000 		.4byte	.LLST65
 3844 0d1f 1B       		.uleb128 0x1b
 3845 0d20 7E020000 		.4byte	.LASF144
 3846 0d24 01       		.byte	0x1
 3847 0d25 2602     		.2byte	0x226
 3848 0d27 25000000 		.4byte	0x25
ARM GAS  C:\Users\PANXIA~1\AppData\Local\Temp\cc1T2PPa.s 			page 82


 3849 0d2b 750E0000 		.4byte	.LLST66
 3850 0d2f 1B       		.uleb128 0x1b
 3851 0d30 59020000 		.4byte	.LASF145
 3852 0d34 01       		.byte	0x1
 3853 0d35 2602     		.2byte	0x226
 3854 0d37 25000000 		.4byte	0x25
 3855 0d3b 950E0000 		.4byte	.LLST67
 3856 0d3f 1B       		.uleb128 0x1b
 3857 0d40 54020000 		.4byte	.LASF146
 3858 0d44 01       		.byte	0x1
 3859 0d45 2602     		.2byte	0x226
 3860 0d47 25000000 		.4byte	0x25
 3861 0d4b B50E0000 		.4byte	.LLST68
 3862 0d4f 1B       		.uleb128 0x1b
 3863 0d50 88050000 		.4byte	.LASF147
 3864 0d54 01       		.byte	0x1
 3865 0d55 2602     		.2byte	0x226
 3866 0d57 25000000 		.4byte	0x25
 3867 0d5b D50E0000 		.4byte	.LLST69
 3868 0d5f 1B       		.uleb128 0x1b
 3869 0d60 63050000 		.4byte	.LASF148
 3870 0d64 01       		.byte	0x1
 3871 0d65 2602     		.2byte	0x226
 3872 0d67 25000000 		.4byte	0x25
 3873 0d6b F50E0000 		.4byte	.LLST70
 3874 0d6f 1B       		.uleb128 0x1b
 3875 0d70 5E050000 		.4byte	.LASF149
 3876 0d74 01       		.byte	0x1
 3877 0d75 2602     		.2byte	0x226
 3878 0d77 25000000 		.4byte	0x25
 3879 0d7b 150F0000 		.4byte	.LLST71
 3880 0d7f 1C       		.uleb128 0x1c
 3881 0d80 30080000 		.4byte	.LASF114
 3882 0d84 01       		.byte	0x1
 3883 0d85 2802     		.2byte	0x228
 3884 0d87 88000000 		.4byte	0x88
 3885 0d8b 350F0000 		.4byte	.LLST72
 3886 0d8f 1F       		.uleb128 0x1f
 3887 0d90 8E000000 		.4byte	.LASF120
 3888 0d94 01       		.byte	0x1
 3889 0d95 2902     		.2byte	0x229
 3890 0d97 A9000000 		.4byte	0xa9
 3891 0d9b 02       		.uleb128 0x2
 3892 0d9c 91       		.byte	0x91
 3893 0d9d 66       		.sleb128 -26
 3894 0d9e 1D       		.uleb128 0x1d
 3895 0d9f 73756D00 		.ascii	"sum\000"
 3896 0da3 01       		.byte	0x1
 3897 0da4 4F02     		.2byte	0x24f
 3898 0da6 88000000 		.4byte	0x88
 3899 0daa 51100000 		.4byte	.LLST73
 3900 0dae 1D       		.uleb128 0x1d
 3901 0daf 6900     		.ascii	"i\000"
 3902 0db1 01       		.byte	0x1
 3903 0db2 5002     		.2byte	0x250
 3904 0db4 88000000 		.4byte	0x88
 3905 0db8 7B100000 		.4byte	.LLST74
ARM GAS  C:\Users\PANXIA~1\AppData\Local\Temp\cc1T2PPa.s 			page 83


 3906 0dbc 0E       		.uleb128 0xe
 3907 0dbd F2000000 		.4byte	.LVL299
 3908 0dc1 B5040000 		.4byte	0x4b5
 3909 0dc5 0F       		.uleb128 0xf
 3910 0dc6 01       		.uleb128 0x1
 3911 0dc7 51       		.byte	0x51
 3912 0dc8 01       		.uleb128 0x1
 3913 0dc9 47       		.byte	0x47
 3914 0dca 0F       		.uleb128 0xf
 3915 0dcb 01       		.uleb128 0x1
 3916 0dcc 50       		.byte	0x50
 3917 0dcd 02       		.uleb128 0x2
 3918 0dce 75       		.byte	0x75
 3919 0dcf 00       		.sleb128 0
 3920 0dd0 00       		.byte	0
 3921 0dd1 00       		.byte	0
 3922 0dd2 1A       		.uleb128 0x1a
 3923 0dd3 F8050000 		.4byte	.LASF150
 3924 0dd7 01       		.byte	0x1
 3925 0dd8 5802     		.2byte	0x258
 3926 0dda 00000000 		.4byte	.LFB75
 3927 0dde A0000000 		.4byte	.LFE75-.LFB75
 3928 0de2 01       		.uleb128 0x1
 3929 0de3 9C       		.byte	0x9c
 3930 0de4 4B0E0000 		.4byte	0xe4b
 3931 0de8 1B       		.uleb128 0x1b
 3932 0de9 E2030000 		.4byte	.LASF151
 3933 0ded 01       		.byte	0x1
 3934 0dee 5802     		.2byte	0x258
 3935 0df0 FA040000 		.4byte	0x4fa
 3936 0df4 A5100000 		.4byte	.LLST75
 3937 0df8 1C       		.uleb128 0x1c
 3938 0df9 30080000 		.4byte	.LASF114
 3939 0dfd 01       		.byte	0x1
 3940 0dfe 5A02     		.2byte	0x25a
 3941 0e00 88000000 		.4byte	0x88
 3942 0e04 C6100000 		.4byte	.LLST76
 3943 0e08 25       		.uleb128 0x25
 3944 0e09 8E000000 		.4byte	.LASF120
 3945 0e0d 01       		.byte	0x1
 3946 0e0e 5B02     		.2byte	0x25b
 3947 0e10 A9000000 		.4byte	0xa9
 3948 0e14 1D       		.uleb128 0x1d
 3949 0e15 73756D00 		.ascii	"sum\000"
 3950 0e19 01       		.byte	0x1
 3951 0e1a 8402     		.2byte	0x284
 3952 0e1c 88000000 		.4byte	0x88
 3953 0e20 36120000 		.4byte	.LLST77
 3954 0e24 1D       		.uleb128 0x1d
 3955 0e25 6900     		.ascii	"i\000"
 3956 0e27 01       		.byte	0x1
 3957 0e28 8502     		.2byte	0x285
 3958 0e2a 88000000 		.4byte	0x88
 3959 0e2e 60120000 		.4byte	.LLST78
 3960 0e32 0E       		.uleb128 0xe
 3961 0e33 98000000 		.4byte	.LVL339
 3962 0e37 B5040000 		.4byte	0x4b5
ARM GAS  C:\Users\PANXIA~1\AppData\Local\Temp\cc1T2PPa.s 			page 84


 3963 0e3b 0F       		.uleb128 0xf
 3964 0e3c 01       		.uleb128 0x1
 3965 0e3d 51       		.byte	0x51
 3966 0e3e 01       		.uleb128 0x1
 3967 0e3f 4E       		.byte	0x4e
 3968 0e40 0F       		.uleb128 0xf
 3969 0e41 01       		.uleb128 0x1
 3970 0e42 50       		.byte	0x50
 3971 0e43 05       		.uleb128 0x5
 3972 0e44 03       		.byte	0x3
 3973 0e45 00000000 		.4byte	data_to_send
 3974 0e49 00       		.byte	0
 3975 0e4a 00       		.byte	0
 3976 0e4b 1A       		.uleb128 0x1a
 3977 0e4c 8A010000 		.4byte	.LASF152
 3978 0e50 01       		.byte	0x1
 3979 0e51 8D02     		.2byte	0x28d
 3980 0e53 00000000 		.4byte	.LFB76
 3981 0e57 2E000000 		.4byte	.LFE76-.LFB76
 3982 0e5b 01       		.uleb128 0x1
 3983 0e5c 9C       		.byte	0x9c
 3984 0e5d C00E0000 		.4byte	0xec0
 3985 0e61 1B       		.uleb128 0x1b
 3986 0e62 E2030000 		.4byte	.LASF151
 3987 0e66 01       		.byte	0x1
 3988 0e67 8D02     		.2byte	0x28d
 3989 0e69 FA040000 		.4byte	0x4fa
 3990 0e6d 8A120000 		.4byte	.LLST79
 3991 0e71 26       		.uleb128 0x26
 3992 0e72 30080000 		.4byte	.LASF114
 3993 0e76 01       		.byte	0x1
 3994 0e77 8F02     		.2byte	0x28f
 3995 0e79 88000000 		.4byte	0x88
 3996 0e7d 00       		.byte	0
 3997 0e7e 25       		.uleb128 0x25
 3998 0e7f 8E000000 		.4byte	.LASF120
 3999 0e83 01       		.byte	0x1
 4000 0e84 9002     		.2byte	0x290
 4001 0e86 A9000000 		.4byte	0xa9
 4002 0e8a 1D       		.uleb128 0x1d
 4003 0e8b 73756D00 		.ascii	"sum\000"
 4004 0e8f 01       		.byte	0x1
 4005 0e90 9902     		.2byte	0x299
 4006 0e92 88000000 		.4byte	0x88
 4007 0e96 AB120000 		.4byte	.LLST80
 4008 0e9a 1D       		.uleb128 0x1d
 4009 0e9b 6900     		.ascii	"i\000"
 4010 0e9d 01       		.byte	0x1
 4011 0e9e 9A02     		.2byte	0x29a
 4012 0ea0 88000000 		.4byte	0x88
 4013 0ea4 D5120000 		.4byte	.LLST81
 4014 0ea8 0E       		.uleb128 0xe
 4015 0ea9 2C000000 		.4byte	.LVL348
 4016 0ead B5040000 		.4byte	0x4b5
 4017 0eb1 0F       		.uleb128 0xf
 4018 0eb2 01       		.uleb128 0x1
 4019 0eb3 51       		.byte	0x51
ARM GAS  C:\Users\PANXIA~1\AppData\Local\Temp\cc1T2PPa.s 			page 85


 4020 0eb4 02       		.uleb128 0x2
 4021 0eb5 08       		.byte	0x8
 4022 0eb6 57       		.byte	0x57
 4023 0eb7 0F       		.uleb128 0xf
 4024 0eb8 01       		.uleb128 0x1
 4025 0eb9 50       		.byte	0x50
 4026 0eba 03       		.uleb128 0x3
 4027 0ebb F3       		.byte	0xf3
 4028 0ebc 01       		.uleb128 0x1
 4029 0ebd 50       		.byte	0x50
 4030 0ebe 00       		.byte	0
 4031 0ebf 00       		.byte	0
 4032 0ec0 27       		.uleb128 0x27
 4033 0ec1 67020000 		.4byte	.LASF153
 4034 0ec5 07       		.byte	0x7
 4035 0ec6 2A06     		.2byte	0x62a
 4036 0ec8 CC0E0000 		.4byte	0xecc
 4037 0ecc 28       		.uleb128 0x28
 4038 0ecd 7D000000 		.4byte	0x7d
 4039 0ed1 29       		.uleb128 0x29
 4040 0ed2 CC070000 		.4byte	.LASF154
 4041 0ed6 05       		.byte	0x5
 4042 0ed7 4C       		.byte	0x4c
 4043 0ed8 70030000 		.4byte	0x370
 4044 0edc 05       		.uleb128 0x5
 4045 0edd 03       		.byte	0x3
 4046 0ede 00000000 		.4byte	g_Car
 4047 0ee2 29       		.uleb128 0x29
 4048 0ee3 F9070000 		.4byte	.LASF155
 4049 0ee7 06       		.byte	0x6
 4050 0ee8 26       		.byte	0x26
 4051 0ee9 AA040000 		.4byte	0x4aa
 4052 0eed 05       		.uleb128 0x5
 4053 0eee 03       		.byte	0x3
 4054 0eef 00000000 		.4byte	S_IMU
 4055 0ef3 2A       		.uleb128 0x2a
 4056 0ef4 6600     		.ascii	"f\000"
 4057 0ef6 01       		.byte	0x1
 4058 0ef7 0B       		.byte	0xb
 4059 0ef8 20040000 		.4byte	0x420
 4060 0efc 05       		.uleb128 0x5
 4061 0efd 03       		.byte	0x3
 4062 0efe 00000000 		.4byte	f
 4063 0f02 2A       		.uleb128 0x2a
 4064 0f03 435F5600 		.ascii	"C_V\000"
 4065 0f07 08       		.byte	0x8
 4066 0f08 16       		.byte	0x16
 4067 0f09 A9000000 		.4byte	0xa9
 4068 0f0d 05       		.uleb128 0x5
 4069 0f0e 03       		.byte	0x3
 4070 0f0f 00000000 		.4byte	C_V
 4071 0f13 2A       		.uleb128 0x2a
 4072 0f14 445F5600 		.ascii	"D_V\000"
 4073 0f18 08       		.byte	0x8
 4074 0f19 17       		.byte	0x17
 4075 0f1a A9000000 		.4byte	0xa9
 4076 0f1e 05       		.uleb128 0x5
ARM GAS  C:\Users\PANXIA~1\AppData\Local\Temp\cc1T2PPa.s 			page 86


 4077 0f1f 03       		.byte	0x3
 4078 0f20 00000000 		.4byte	D_V
 4079 0f24 2A       		.uleb128 0x2a
 4080 0f25 505F5600 		.ascii	"P_V\000"
 4081 0f29 08       		.byte	0x8
 4082 0f2a 18       		.byte	0x18
 4083 0f2b A9000000 		.4byte	0xa9
 4084 0f2f 05       		.uleb128 0x5
 4085 0f30 03       		.byte	0x3
 4086 0f31 00000000 		.4byte	P_V
 4087 0f35 29       		.uleb128 0x29
 4088 0f36 3C060000 		.4byte	.LASF156
 4089 0f3a 01       		.byte	0x1
 4090 0f3b 0C       		.byte	0xc
 4091 0f3c 64070000 		.4byte	0x764
 4092 0f40 05       		.uleb128 0x5
 4093 0f41 03       		.byte	0x3
 4094 0f42 00000000 		.4byte	data_to_send
 4095 0f46 2B       		.uleb128 0x2b
 4096 0f47 1C000000 		.4byte	.LASF157
 4097 0f4b 09       		.byte	0x9
 4098 0f4c 8C       		.byte	0x8c
 4099 0f4d 5C0F0000 		.4byte	0xf5c
 4100 0f51 2C       		.uleb128 0x2c
 4101 0f52 5C0F0000 		.4byte	0xf5c
 4102 0f56 2C       		.uleb128 0x2c
 4103 0f57 88000000 		.4byte	0x88
 4104 0f5b 00       		.byte	0
 4105 0f5c 10       		.uleb128 0x10
 4106 0f5d 04       		.byte	0x4
 4107 0f5e EA0B0000 		.4byte	0xbea
 4108 0f62 2D       		.uleb128 0x2d
 4109 0f63 96020000 		.4byte	.LASF170
 4110 0f67 0A       		.byte	0xa
 4111 0f68 C0       		.byte	0xc0
 4112 0f69 93000000 		.4byte	0x93
 4113 0f6d 2B       		.uleb128 0x2b
 4114 0f6e 1B010000 		.4byte	.LASF158
 4115 0f72 0A       		.byte	0xa
 4116 0f73 C3       		.byte	0xc3
 4117 0f74 7E0F0000 		.4byte	0xf7e
 4118 0f78 2C       		.uleb128 0x2c
 4119 0f79 93000000 		.4byte	0x93
 4120 0f7d 00       		.byte	0
 4121 0f7e 2B       		.uleb128 0x2b
 4122 0f7f ED010000 		.4byte	.LASF159
 4123 0f83 0B       		.byte	0xb
 4124 0f84 C3       		.byte	0xc3
 4125 0f85 8F0F0000 		.4byte	0xf8f
 4126 0f89 2C       		.uleb128 0x2c
 4127 0f8a 93000000 		.4byte	0x93
 4128 0f8e 00       		.byte	0
 4129 0f8f 2B       		.uleb128 0x2b
 4130 0f90 6B040000 		.4byte	.LASF160
 4131 0f94 0C       		.byte	0xc
 4132 0f95 C3       		.byte	0xc3
 4133 0f96 A00F0000 		.4byte	0xfa0
ARM GAS  C:\Users\PANXIA~1\AppData\Local\Temp\cc1T2PPa.s 			page 87


 4134 0f9a 2C       		.uleb128 0x2c
 4135 0f9b 93000000 		.4byte	0x93
 4136 0f9f 00       		.byte	0
 4137 0fa0 2B       		.uleb128 0x2b
 4138 0fa1 E1050000 		.4byte	.LASF161
 4139 0fa5 0D       		.byte	0xd
 4140 0fa6 C3       		.byte	0xc3
 4141 0fa7 B10F0000 		.4byte	0xfb1
 4142 0fab 2C       		.uleb128 0x2c
 4143 0fac 93000000 		.4byte	0x93
 4144 0fb0 00       		.byte	0
 4145 0fb1 2B       		.uleb128 0x2b
 4146 0fb2 ED040000 		.4byte	.LASF162
 4147 0fb6 0E       		.byte	0xe
 4148 0fb7 28       		.byte	0x28
 4149 0fb8 C20F0000 		.4byte	0xfc2
 4150 0fbc 2C       		.uleb128 0x2c
 4151 0fbd 88000000 		.4byte	0x88
 4152 0fc1 00       		.byte	0
 4153 0fc2 2B       		.uleb128 0x2b
 4154 0fc3 4B040000 		.4byte	.LASF163
 4155 0fc7 0A       		.byte	0xa
 4156 0fc8 BE       		.byte	0xbe
 4157 0fc9 D30F0000 		.4byte	0xfd3
 4158 0fcd 2C       		.uleb128 0x2c
 4159 0fce 93000000 		.4byte	0x93
 4160 0fd2 00       		.byte	0
 4161 0fd3 2B       		.uleb128 0x2b
 4162 0fd4 48080000 		.4byte	.LASF164
 4163 0fd8 0B       		.byte	0xb
 4164 0fd9 BE       		.byte	0xbe
 4165 0fda E40F0000 		.4byte	0xfe4
 4166 0fde 2C       		.uleb128 0x2c
 4167 0fdf 93000000 		.4byte	0x93
 4168 0fe3 00       		.byte	0
 4169 0fe4 2B       		.uleb128 0x2b
 4170 0fe5 FC030000 		.4byte	.LASF165
 4171 0fe9 0C       		.byte	0xc
 4172 0fea BE       		.byte	0xbe
 4173 0feb F50F0000 		.4byte	0xff5
 4174 0fef 2C       		.uleb128 0x2c
 4175 0ff0 93000000 		.4byte	0x93
 4176 0ff4 00       		.byte	0
 4177 0ff5 2E       		.uleb128 0x2e
 4178 0ff6 2E000000 		.4byte	.LASF171
 4179 0ffa 0D       		.byte	0xd
 4180 0ffb BE       		.byte	0xbe
 4181 0ffc 2C       		.uleb128 0x2c
 4182 0ffd 93000000 		.4byte	0x93
 4183 1001 00       		.byte	0
 4184 1002 00       		.byte	0
 4185              		.section	.debug_abbrev,"",%progbits
 4186              	.Ldebug_abbrev0:
 4187 0000 01       		.uleb128 0x1
 4188 0001 11       		.uleb128 0x11
 4189 0002 01       		.byte	0x1
 4190 0003 25       		.uleb128 0x25
ARM GAS  C:\Users\PANXIA~1\AppData\Local\Temp\cc1T2PPa.s 			page 88


 4191 0004 0E       		.uleb128 0xe
 4192 0005 13       		.uleb128 0x13
 4193 0006 0B       		.uleb128 0xb
 4194 0007 03       		.uleb128 0x3
 4195 0008 0E       		.uleb128 0xe
 4196 0009 1B       		.uleb128 0x1b
 4197 000a 0E       		.uleb128 0xe
 4198 000b 55       		.uleb128 0x55
 4199 000c 17       		.uleb128 0x17
 4200 000d 11       		.uleb128 0x11
 4201 000e 01       		.uleb128 0x1
 4202 000f 10       		.uleb128 0x10
 4203 0010 17       		.uleb128 0x17
 4204 0011 00       		.byte	0
 4205 0012 00       		.byte	0
 4206 0013 02       		.uleb128 0x2
 4207 0014 24       		.uleb128 0x24
 4208 0015 00       		.byte	0
 4209 0016 0B       		.uleb128 0xb
 4210 0017 0B       		.uleb128 0xb
 4211 0018 3E       		.uleb128 0x3e
 4212 0019 0B       		.uleb128 0xb
 4213 001a 03       		.uleb128 0x3
 4214 001b 0E       		.uleb128 0xe
 4215 001c 00       		.byte	0
 4216 001d 00       		.byte	0
 4217 001e 03       		.uleb128 0x3
 4218 001f 16       		.uleb128 0x16
 4219 0020 00       		.byte	0
 4220 0021 03       		.uleb128 0x3
 4221 0022 0E       		.uleb128 0xe
 4222 0023 3A       		.uleb128 0x3a
 4223 0024 0B       		.uleb128 0xb
 4224 0025 3B       		.uleb128 0x3b
 4225 0026 0B       		.uleb128 0xb
 4226 0027 49       		.uleb128 0x49
 4227 0028 13       		.uleb128 0x13
 4228 0029 00       		.byte	0
 4229 002a 00       		.byte	0
 4230 002b 04       		.uleb128 0x4
 4231 002c 24       		.uleb128 0x24
 4232 002d 00       		.byte	0
 4233 002e 0B       		.uleb128 0xb
 4234 002f 0B       		.uleb128 0xb
 4235 0030 3E       		.uleb128 0x3e
 4236 0031 0B       		.uleb128 0xb
 4237 0032 03       		.uleb128 0x3
 4238 0033 08       		.uleb128 0x8
 4239 0034 00       		.byte	0
 4240 0035 00       		.byte	0
 4241 0036 05       		.uleb128 0x5
 4242 0037 04       		.uleb128 0x4
 4243 0038 01       		.byte	0x1
 4244 0039 03       		.uleb128 0x3
 4245 003a 0E       		.uleb128 0xe
 4246 003b 0B       		.uleb128 0xb
 4247 003c 0B       		.uleb128 0xb
ARM GAS  C:\Users\PANXIA~1\AppData\Local\Temp\cc1T2PPa.s 			page 89


 4248 003d 3A       		.uleb128 0x3a
 4249 003e 0B       		.uleb128 0xb
 4250 003f 3B       		.uleb128 0x3b
 4251 0040 0B       		.uleb128 0xb
 4252 0041 01       		.uleb128 0x1
 4253 0042 13       		.uleb128 0x13
 4254 0043 00       		.byte	0
 4255 0044 00       		.byte	0
 4256 0045 06       		.uleb128 0x6
 4257 0046 28       		.uleb128 0x28
 4258 0047 00       		.byte	0
 4259 0048 03       		.uleb128 0x3
 4260 0049 08       		.uleb128 0x8
 4261 004a 1C       		.uleb128 0x1c
 4262 004b 0D       		.uleb128 0xd
 4263 004c 00       		.byte	0
 4264 004d 00       		.byte	0
 4265 004e 07       		.uleb128 0x7
 4266 004f 28       		.uleb128 0x28
 4267 0050 00       		.byte	0
 4268 0051 03       		.uleb128 0x3
 4269 0052 0E       		.uleb128 0xe
 4270 0053 1C       		.uleb128 0x1c
 4271 0054 0D       		.uleb128 0xd
 4272 0055 00       		.byte	0
 4273 0056 00       		.byte	0
 4274 0057 08       		.uleb128 0x8
 4275 0058 13       		.uleb128 0x13
 4276 0059 01       		.byte	0x1
 4277 005a 0B       		.uleb128 0xb
 4278 005b 0B       		.uleb128 0xb
 4279 005c 3A       		.uleb128 0x3a
 4280 005d 0B       		.uleb128 0xb
 4281 005e 3B       		.uleb128 0x3b
 4282 005f 0B       		.uleb128 0xb
 4283 0060 01       		.uleb128 0x1
 4284 0061 13       		.uleb128 0x13
 4285 0062 00       		.byte	0
 4286 0063 00       		.byte	0
 4287 0064 09       		.uleb128 0x9
 4288 0065 0D       		.uleb128 0xd
 4289 0066 00       		.byte	0
 4290 0067 03       		.uleb128 0x3
 4291 0068 08       		.uleb128 0x8
 4292 0069 3A       		.uleb128 0x3a
 4293 006a 0B       		.uleb128 0xb
 4294 006b 3B       		.uleb128 0x3b
 4295 006c 0B       		.uleb128 0xb
 4296 006d 49       		.uleb128 0x49
 4297 006e 13       		.uleb128 0x13
 4298 006f 38       		.uleb128 0x38
 4299 0070 0B       		.uleb128 0xb
 4300 0071 00       		.byte	0
 4301 0072 00       		.byte	0
 4302 0073 0A       		.uleb128 0xa
 4303 0074 0D       		.uleb128 0xd
 4304 0075 00       		.byte	0
ARM GAS  C:\Users\PANXIA~1\AppData\Local\Temp\cc1T2PPa.s 			page 90


 4305 0076 03       		.uleb128 0x3
 4306 0077 0E       		.uleb128 0xe
 4307 0078 3A       		.uleb128 0x3a
 4308 0079 0B       		.uleb128 0xb
 4309 007a 3B       		.uleb128 0x3b
 4310 007b 0B       		.uleb128 0xb
 4311 007c 49       		.uleb128 0x49
 4312 007d 13       		.uleb128 0x13
 4313 007e 38       		.uleb128 0x38
 4314 007f 0B       		.uleb128 0xb
 4315 0080 00       		.byte	0
 4316 0081 00       		.byte	0
 4317 0082 0B       		.uleb128 0xb
 4318 0083 16       		.uleb128 0x16
 4319 0084 00       		.byte	0
 4320 0085 03       		.uleb128 0x3
 4321 0086 08       		.uleb128 0x8
 4322 0087 3A       		.uleb128 0x3a
 4323 0088 0B       		.uleb128 0xb
 4324 0089 3B       		.uleb128 0x3b
 4325 008a 0B       		.uleb128 0xb
 4326 008b 49       		.uleb128 0x49
 4327 008c 13       		.uleb128 0x13
 4328 008d 00       		.byte	0
 4329 008e 00       		.byte	0
 4330 008f 0C       		.uleb128 0xc
 4331 0090 2E       		.uleb128 0x2e
 4332 0091 01       		.byte	0x1
 4333 0092 3F       		.uleb128 0x3f
 4334 0093 19       		.uleb128 0x19
 4335 0094 03       		.uleb128 0x3
 4336 0095 0E       		.uleb128 0xe
 4337 0096 3A       		.uleb128 0x3a
 4338 0097 0B       		.uleb128 0xb
 4339 0098 3B       		.uleb128 0x3b
 4340 0099 0B       		.uleb128 0xb
 4341 009a 27       		.uleb128 0x27
 4342 009b 19       		.uleb128 0x19
 4343 009c 11       		.uleb128 0x11
 4344 009d 01       		.uleb128 0x1
 4345 009e 12       		.uleb128 0x12
 4346 009f 06       		.uleb128 0x6
 4347 00a0 40       		.uleb128 0x40
 4348 00a1 18       		.uleb128 0x18
 4349 00a2 9742     		.uleb128 0x2117
 4350 00a4 19       		.uleb128 0x19
 4351 00a5 01       		.uleb128 0x1
 4352 00a6 13       		.uleb128 0x13
 4353 00a7 00       		.byte	0
 4354 00a8 00       		.byte	0
 4355 00a9 0D       		.uleb128 0xd
 4356 00aa 05       		.uleb128 0x5
 4357 00ab 00       		.byte	0
 4358 00ac 03       		.uleb128 0x3
 4359 00ad 0E       		.uleb128 0xe
 4360 00ae 3A       		.uleb128 0x3a
 4361 00af 0B       		.uleb128 0xb
ARM GAS  C:\Users\PANXIA~1\AppData\Local\Temp\cc1T2PPa.s 			page 91


 4362 00b0 3B       		.uleb128 0x3b
 4363 00b1 0B       		.uleb128 0xb
 4364 00b2 49       		.uleb128 0x49
 4365 00b3 13       		.uleb128 0x13
 4366 00b4 02       		.uleb128 0x2
 4367 00b5 17       		.uleb128 0x17
 4368 00b6 00       		.byte	0
 4369 00b7 00       		.byte	0
 4370 00b8 0E       		.uleb128 0xe
 4371 00b9 898201   		.uleb128 0x4109
 4372 00bc 01       		.byte	0x1
 4373 00bd 11       		.uleb128 0x11
 4374 00be 01       		.uleb128 0x1
 4375 00bf 31       		.uleb128 0x31
 4376 00c0 13       		.uleb128 0x13
 4377 00c1 00       		.byte	0
 4378 00c2 00       		.byte	0
 4379 00c3 0F       		.uleb128 0xf
 4380 00c4 8A8201   		.uleb128 0x410a
 4381 00c7 00       		.byte	0
 4382 00c8 02       		.uleb128 0x2
 4383 00c9 18       		.uleb128 0x18
 4384 00ca 9142     		.uleb128 0x2111
 4385 00cc 18       		.uleb128 0x18
 4386 00cd 00       		.byte	0
 4387 00ce 00       		.byte	0
 4388 00cf 10       		.uleb128 0x10
 4389 00d0 0F       		.uleb128 0xf
 4390 00d1 00       		.byte	0
 4391 00d2 0B       		.uleb128 0xb
 4392 00d3 0B       		.uleb128 0xb
 4393 00d4 49       		.uleb128 0x49
 4394 00d5 13       		.uleb128 0x13
 4395 00d6 00       		.byte	0
 4396 00d7 00       		.byte	0
 4397 00d8 11       		.uleb128 0x11
 4398 00d9 2E       		.uleb128 0x2e
 4399 00da 01       		.byte	0x1
 4400 00db 03       		.uleb128 0x3
 4401 00dc 0E       		.uleb128 0xe
 4402 00dd 3A       		.uleb128 0x3a
 4403 00de 0B       		.uleb128 0xb
 4404 00df 3B       		.uleb128 0x3b
 4405 00e0 0B       		.uleb128 0xb
 4406 00e1 27       		.uleb128 0x27
 4407 00e2 19       		.uleb128 0x19
 4408 00e3 11       		.uleb128 0x11
 4409 00e4 01       		.uleb128 0x1
 4410 00e5 12       		.uleb128 0x12
 4411 00e6 06       		.uleb128 0x6
 4412 00e7 40       		.uleb128 0x40
 4413 00e8 18       		.uleb128 0x18
 4414 00e9 9742     		.uleb128 0x2117
 4415 00eb 19       		.uleb128 0x19
 4416 00ec 01       		.uleb128 0x1
 4417 00ed 13       		.uleb128 0x13
 4418 00ee 00       		.byte	0
ARM GAS  C:\Users\PANXIA~1\AppData\Local\Temp\cc1T2PPa.s 			page 92


 4419 00ef 00       		.byte	0
 4420 00f0 12       		.uleb128 0x12
 4421 00f1 34       		.uleb128 0x34
 4422 00f2 00       		.byte	0
 4423 00f3 03       		.uleb128 0x3
 4424 00f4 08       		.uleb128 0x8
 4425 00f5 3A       		.uleb128 0x3a
 4426 00f6 0B       		.uleb128 0xb
 4427 00f7 3B       		.uleb128 0x3b
 4428 00f8 0B       		.uleb128 0xb
 4429 00f9 49       		.uleb128 0x49
 4430 00fa 13       		.uleb128 0x13
 4431 00fb 02       		.uleb128 0x2
 4432 00fc 17       		.uleb128 0x17
 4433 00fd 00       		.byte	0
 4434 00fe 00       		.byte	0
 4435 00ff 13       		.uleb128 0x13
 4436 0100 05       		.uleb128 0x5
 4437 0101 00       		.byte	0
 4438 0102 03       		.uleb128 0x3
 4439 0103 08       		.uleb128 0x8
 4440 0104 3A       		.uleb128 0x3a
 4441 0105 0B       		.uleb128 0xb
 4442 0106 3B       		.uleb128 0x3b
 4443 0107 0B       		.uleb128 0xb
 4444 0108 49       		.uleb128 0x49
 4445 0109 13       		.uleb128 0x13
 4446 010a 02       		.uleb128 0x2
 4447 010b 17       		.uleb128 0x17
 4448 010c 00       		.byte	0
 4449 010d 00       		.byte	0
 4450 010e 14       		.uleb128 0x14
 4451 010f 34       		.uleb128 0x34
 4452 0110 00       		.byte	0
 4453 0111 03       		.uleb128 0x3
 4454 0112 0E       		.uleb128 0xe
 4455 0113 3A       		.uleb128 0x3a
 4456 0114 0B       		.uleb128 0xb
 4457 0115 3B       		.uleb128 0x3b
 4458 0116 0B       		.uleb128 0xb
 4459 0117 49       		.uleb128 0x49
 4460 0118 13       		.uleb128 0x13
 4461 0119 02       		.uleb128 0x2
 4462 011a 17       		.uleb128 0x17
 4463 011b 00       		.byte	0
 4464 011c 00       		.byte	0
 4465 011d 15       		.uleb128 0x15
 4466 011e 898201   		.uleb128 0x4109
 4467 0121 00       		.byte	0
 4468 0122 11       		.uleb128 0x11
 4469 0123 01       		.uleb128 0x1
 4470 0124 31       		.uleb128 0x31
 4471 0125 13       		.uleb128 0x13
 4472 0126 00       		.byte	0
 4473 0127 00       		.byte	0
 4474 0128 16       		.uleb128 0x16
 4475 0129 898201   		.uleb128 0x4109
ARM GAS  C:\Users\PANXIA~1\AppData\Local\Temp\cc1T2PPa.s 			page 93


 4476 012c 01       		.byte	0x1
 4477 012d 11       		.uleb128 0x11
 4478 012e 01       		.uleb128 0x1
 4479 012f 31       		.uleb128 0x31
 4480 0130 13       		.uleb128 0x13
 4481 0131 01       		.uleb128 0x1
 4482 0132 13       		.uleb128 0x13
 4483 0133 00       		.byte	0
 4484 0134 00       		.byte	0
 4485 0135 17       		.uleb128 0x17
 4486 0136 34       		.uleb128 0x34
 4487 0137 00       		.byte	0
 4488 0138 03       		.uleb128 0x3
 4489 0139 0E       		.uleb128 0xe
 4490 013a 3A       		.uleb128 0x3a
 4491 013b 0B       		.uleb128 0xb
 4492 013c 3B       		.uleb128 0x3b
 4493 013d 0B       		.uleb128 0xb
 4494 013e 49       		.uleb128 0x49
 4495 013f 13       		.uleb128 0x13
 4496 0140 02       		.uleb128 0x2
 4497 0141 18       		.uleb128 0x18
 4498 0142 00       		.byte	0
 4499 0143 00       		.byte	0
 4500 0144 18       		.uleb128 0x18
 4501 0145 01       		.uleb128 0x1
 4502 0146 01       		.byte	0x1
 4503 0147 49       		.uleb128 0x49
 4504 0148 13       		.uleb128 0x13
 4505 0149 01       		.uleb128 0x1
 4506 014a 13       		.uleb128 0x13
 4507 014b 00       		.byte	0
 4508 014c 00       		.byte	0
 4509 014d 19       		.uleb128 0x19
 4510 014e 21       		.uleb128 0x21
 4511 014f 00       		.byte	0
 4512 0150 49       		.uleb128 0x49
 4513 0151 13       		.uleb128 0x13
 4514 0152 2F       		.uleb128 0x2f
 4515 0153 0B       		.uleb128 0xb
 4516 0154 00       		.byte	0
 4517 0155 00       		.byte	0
 4518 0156 1A       		.uleb128 0x1a
 4519 0157 2E       		.uleb128 0x2e
 4520 0158 01       		.byte	0x1
 4521 0159 3F       		.uleb128 0x3f
 4522 015a 19       		.uleb128 0x19
 4523 015b 03       		.uleb128 0x3
 4524 015c 0E       		.uleb128 0xe
 4525 015d 3A       		.uleb128 0x3a
 4526 015e 0B       		.uleb128 0xb
 4527 015f 3B       		.uleb128 0x3b
 4528 0160 05       		.uleb128 0x5
 4529 0161 27       		.uleb128 0x27
 4530 0162 19       		.uleb128 0x19
 4531 0163 11       		.uleb128 0x11
 4532 0164 01       		.uleb128 0x1
ARM GAS  C:\Users\PANXIA~1\AppData\Local\Temp\cc1T2PPa.s 			page 94


 4533 0165 12       		.uleb128 0x12
 4534 0166 06       		.uleb128 0x6
 4535 0167 40       		.uleb128 0x40
 4536 0168 18       		.uleb128 0x18
 4537 0169 9742     		.uleb128 0x2117
 4538 016b 19       		.uleb128 0x19
 4539 016c 01       		.uleb128 0x1
 4540 016d 13       		.uleb128 0x13
 4541 016e 00       		.byte	0
 4542 016f 00       		.byte	0
 4543 0170 1B       		.uleb128 0x1b
 4544 0171 05       		.uleb128 0x5
 4545 0172 00       		.byte	0
 4546 0173 03       		.uleb128 0x3
 4547 0174 0E       		.uleb128 0xe
 4548 0175 3A       		.uleb128 0x3a
 4549 0176 0B       		.uleb128 0xb
 4550 0177 3B       		.uleb128 0x3b
 4551 0178 05       		.uleb128 0x5
 4552 0179 49       		.uleb128 0x49
 4553 017a 13       		.uleb128 0x13
 4554 017b 02       		.uleb128 0x2
 4555 017c 17       		.uleb128 0x17
 4556 017d 00       		.byte	0
 4557 017e 00       		.byte	0
 4558 017f 1C       		.uleb128 0x1c
 4559 0180 34       		.uleb128 0x34
 4560 0181 00       		.byte	0
 4561 0182 03       		.uleb128 0x3
 4562 0183 0E       		.uleb128 0xe
 4563 0184 3A       		.uleb128 0x3a
 4564 0185 0B       		.uleb128 0xb
 4565 0186 3B       		.uleb128 0x3b
 4566 0187 05       		.uleb128 0x5
 4567 0188 49       		.uleb128 0x49
 4568 0189 13       		.uleb128 0x13
 4569 018a 02       		.uleb128 0x2
 4570 018b 17       		.uleb128 0x17
 4571 018c 00       		.byte	0
 4572 018d 00       		.byte	0
 4573 018e 1D       		.uleb128 0x1d
 4574 018f 34       		.uleb128 0x34
 4575 0190 00       		.byte	0
 4576 0191 03       		.uleb128 0x3
 4577 0192 08       		.uleb128 0x8
 4578 0193 3A       		.uleb128 0x3a
 4579 0194 0B       		.uleb128 0xb
 4580 0195 3B       		.uleb128 0x3b
 4581 0196 05       		.uleb128 0x5
 4582 0197 49       		.uleb128 0x49
 4583 0198 13       		.uleb128 0x13
 4584 0199 02       		.uleb128 0x2
 4585 019a 17       		.uleb128 0x17
 4586 019b 00       		.byte	0
 4587 019c 00       		.byte	0
 4588 019d 1E       		.uleb128 0x1e
 4589 019e 05       		.uleb128 0x5
ARM GAS  C:\Users\PANXIA~1\AppData\Local\Temp\cc1T2PPa.s 			page 95


 4590 019f 00       		.byte	0
 4591 01a0 03       		.uleb128 0x3
 4592 01a1 08       		.uleb128 0x8
 4593 01a2 3A       		.uleb128 0x3a
 4594 01a3 0B       		.uleb128 0xb
 4595 01a4 3B       		.uleb128 0x3b
 4596 01a5 05       		.uleb128 0x5
 4597 01a6 49       		.uleb128 0x49
 4598 01a7 13       		.uleb128 0x13
 4599 01a8 02       		.uleb128 0x2
 4600 01a9 17       		.uleb128 0x17
 4601 01aa 00       		.byte	0
 4602 01ab 00       		.byte	0
 4603 01ac 1F       		.uleb128 0x1f
 4604 01ad 34       		.uleb128 0x34
 4605 01ae 00       		.byte	0
 4606 01af 03       		.uleb128 0x3
 4607 01b0 0E       		.uleb128 0xe
 4608 01b1 3A       		.uleb128 0x3a
 4609 01b2 0B       		.uleb128 0xb
 4610 01b3 3B       		.uleb128 0x3b
 4611 01b4 05       		.uleb128 0x5
 4612 01b5 49       		.uleb128 0x49
 4613 01b6 13       		.uleb128 0x13
 4614 01b7 02       		.uleb128 0x2
 4615 01b8 18       		.uleb128 0x18
 4616 01b9 00       		.byte	0
 4617 01ba 00       		.byte	0
 4618 01bb 20       		.uleb128 0x20
 4619 01bc 2E       		.uleb128 0x2e
 4620 01bd 01       		.byte	0x1
 4621 01be 3F       		.uleb128 0x3f
 4622 01bf 19       		.uleb128 0x19
 4623 01c0 03       		.uleb128 0x3
 4624 01c1 0E       		.uleb128 0xe
 4625 01c2 3A       		.uleb128 0x3a
 4626 01c3 0B       		.uleb128 0xb
 4627 01c4 3B       		.uleb128 0x3b
 4628 01c5 0B       		.uleb128 0xb
 4629 01c6 27       		.uleb128 0x27
 4630 01c7 19       		.uleb128 0x19
 4631 01c8 11       		.uleb128 0x11
 4632 01c9 01       		.uleb128 0x1
 4633 01ca 12       		.uleb128 0x12
 4634 01cb 06       		.uleb128 0x6
 4635 01cc 40       		.uleb128 0x40
 4636 01cd 18       		.uleb128 0x18
 4637 01ce 9642     		.uleb128 0x2116
 4638 01d0 19       		.uleb128 0x19
 4639 01d1 01       		.uleb128 0x1
 4640 01d2 13       		.uleb128 0x13
 4641 01d3 00       		.byte	0
 4642 01d4 00       		.byte	0
 4643 01d5 21       		.uleb128 0x21
 4644 01d6 34       		.uleb128 0x34
 4645 01d7 00       		.byte	0
 4646 01d8 03       		.uleb128 0x3
ARM GAS  C:\Users\PANXIA~1\AppData\Local\Temp\cc1T2PPa.s 			page 96


 4647 01d9 08       		.uleb128 0x8
 4648 01da 3A       		.uleb128 0x3a
 4649 01db 0B       		.uleb128 0xb
 4650 01dc 3B       		.uleb128 0x3b
 4651 01dd 0B       		.uleb128 0xb
 4652 01de 49       		.uleb128 0x49
 4653 01df 13       		.uleb128 0x13
 4654 01e0 02       		.uleb128 0x2
 4655 01e1 18       		.uleb128 0x18
 4656 01e2 00       		.byte	0
 4657 01e3 00       		.byte	0
 4658 01e4 22       		.uleb128 0x22
 4659 01e5 34       		.uleb128 0x34
 4660 01e6 00       		.byte	0
 4661 01e7 03       		.uleb128 0x3
 4662 01e8 0E       		.uleb128 0xe
 4663 01e9 3A       		.uleb128 0x3a
 4664 01ea 0B       		.uleb128 0xb
 4665 01eb 3B       		.uleb128 0x3b
 4666 01ec 0B       		.uleb128 0xb
 4667 01ed 49       		.uleb128 0x49
 4668 01ee 13       		.uleb128 0x13
 4669 01ef 1C       		.uleb128 0x1c
 4670 01f0 0B       		.uleb128 0xb
 4671 01f1 00       		.byte	0
 4672 01f2 00       		.byte	0
 4673 01f3 23       		.uleb128 0x23
 4674 01f4 26       		.uleb128 0x26
 4675 01f5 00       		.byte	0
 4676 01f6 49       		.uleb128 0x49
 4677 01f7 13       		.uleb128 0x13
 4678 01f8 00       		.byte	0
 4679 01f9 00       		.byte	0
 4680 01fa 24       		.uleb128 0x24
 4681 01fb 2E       		.uleb128 0x2e
 4682 01fc 01       		.byte	0x1
 4683 01fd 3F       		.uleb128 0x3f
 4684 01fe 19       		.uleb128 0x19
 4685 01ff 03       		.uleb128 0x3
 4686 0200 0E       		.uleb128 0xe
 4687 0201 3A       		.uleb128 0x3a
 4688 0202 0B       		.uleb128 0xb
 4689 0203 3B       		.uleb128 0x3b
 4690 0204 05       		.uleb128 0x5
 4691 0205 27       		.uleb128 0x27
 4692 0206 19       		.uleb128 0x19
 4693 0207 11       		.uleb128 0x11
 4694 0208 01       		.uleb128 0x1
 4695 0209 12       		.uleb128 0x12
 4696 020a 06       		.uleb128 0x6
 4697 020b 40       		.uleb128 0x40
 4698 020c 18       		.uleb128 0x18
 4699 020d 9642     		.uleb128 0x2116
 4700 020f 19       		.uleb128 0x19
 4701 0210 01       		.uleb128 0x1
 4702 0211 13       		.uleb128 0x13
 4703 0212 00       		.byte	0
ARM GAS  C:\Users\PANXIA~1\AppData\Local\Temp\cc1T2PPa.s 			page 97


 4704 0213 00       		.byte	0
 4705 0214 25       		.uleb128 0x25
 4706 0215 34       		.uleb128 0x34
 4707 0216 00       		.byte	0
 4708 0217 03       		.uleb128 0x3
 4709 0218 0E       		.uleb128 0xe
 4710 0219 3A       		.uleb128 0x3a
 4711 021a 0B       		.uleb128 0xb
 4712 021b 3B       		.uleb128 0x3b
 4713 021c 05       		.uleb128 0x5
 4714 021d 49       		.uleb128 0x49
 4715 021e 13       		.uleb128 0x13
 4716 021f 00       		.byte	0
 4717 0220 00       		.byte	0
 4718 0221 26       		.uleb128 0x26
 4719 0222 34       		.uleb128 0x34
 4720 0223 00       		.byte	0
 4721 0224 03       		.uleb128 0x3
 4722 0225 0E       		.uleb128 0xe
 4723 0226 3A       		.uleb128 0x3a
 4724 0227 0B       		.uleb128 0xb
 4725 0228 3B       		.uleb128 0x3b
 4726 0229 05       		.uleb128 0x5
 4727 022a 49       		.uleb128 0x49
 4728 022b 13       		.uleb128 0x13
 4729 022c 1C       		.uleb128 0x1c
 4730 022d 0B       		.uleb128 0xb
 4731 022e 00       		.byte	0
 4732 022f 00       		.byte	0
 4733 0230 27       		.uleb128 0x27
 4734 0231 34       		.uleb128 0x34
 4735 0232 00       		.byte	0
 4736 0233 03       		.uleb128 0x3
 4737 0234 0E       		.uleb128 0xe
 4738 0235 3A       		.uleb128 0x3a
 4739 0236 0B       		.uleb128 0xb
 4740 0237 3B       		.uleb128 0x3b
 4741 0238 05       		.uleb128 0x5
 4742 0239 49       		.uleb128 0x49
 4743 023a 13       		.uleb128 0x13
 4744 023b 3F       		.uleb128 0x3f
 4745 023c 19       		.uleb128 0x19
 4746 023d 3C       		.uleb128 0x3c
 4747 023e 19       		.uleb128 0x19
 4748 023f 00       		.byte	0
 4749 0240 00       		.byte	0
 4750 0241 28       		.uleb128 0x28
 4751 0242 35       		.uleb128 0x35
 4752 0243 00       		.byte	0
 4753 0244 49       		.uleb128 0x49
 4754 0245 13       		.uleb128 0x13
 4755 0246 00       		.byte	0
 4756 0247 00       		.byte	0
 4757 0248 29       		.uleb128 0x29
 4758 0249 34       		.uleb128 0x34
 4759 024a 00       		.byte	0
 4760 024b 03       		.uleb128 0x3
ARM GAS  C:\Users\PANXIA~1\AppData\Local\Temp\cc1T2PPa.s 			page 98


 4761 024c 0E       		.uleb128 0xe
 4762 024d 3A       		.uleb128 0x3a
 4763 024e 0B       		.uleb128 0xb
 4764 024f 3B       		.uleb128 0x3b
 4765 0250 0B       		.uleb128 0xb
 4766 0251 49       		.uleb128 0x49
 4767 0252 13       		.uleb128 0x13
 4768 0253 3F       		.uleb128 0x3f
 4769 0254 19       		.uleb128 0x19
 4770 0255 02       		.uleb128 0x2
 4771 0256 18       		.uleb128 0x18
 4772 0257 00       		.byte	0
 4773 0258 00       		.byte	0
 4774 0259 2A       		.uleb128 0x2a
 4775 025a 34       		.uleb128 0x34
 4776 025b 00       		.byte	0
 4777 025c 03       		.uleb128 0x3
 4778 025d 08       		.uleb128 0x8
 4779 025e 3A       		.uleb128 0x3a
 4780 025f 0B       		.uleb128 0xb
 4781 0260 3B       		.uleb128 0x3b
 4782 0261 0B       		.uleb128 0xb
 4783 0262 49       		.uleb128 0x49
 4784 0263 13       		.uleb128 0x13
 4785 0264 3F       		.uleb128 0x3f
 4786 0265 19       		.uleb128 0x19
 4787 0266 02       		.uleb128 0x2
 4788 0267 18       		.uleb128 0x18
 4789 0268 00       		.byte	0
 4790 0269 00       		.byte	0
 4791 026a 2B       		.uleb128 0x2b
 4792 026b 2E       		.uleb128 0x2e
 4793 026c 01       		.byte	0x1
 4794 026d 3F       		.uleb128 0x3f
 4795 026e 19       		.uleb128 0x19
 4796 026f 03       		.uleb128 0x3
 4797 0270 0E       		.uleb128 0xe
 4798 0271 3A       		.uleb128 0x3a
 4799 0272 0B       		.uleb128 0xb
 4800 0273 3B       		.uleb128 0x3b
 4801 0274 0B       		.uleb128 0xb
 4802 0275 27       		.uleb128 0x27
 4803 0276 19       		.uleb128 0x19
 4804 0277 3C       		.uleb128 0x3c
 4805 0278 19       		.uleb128 0x19
 4806 0279 01       		.uleb128 0x1
 4807 027a 13       		.uleb128 0x13
 4808 027b 00       		.byte	0
 4809 027c 00       		.byte	0
 4810 027d 2C       		.uleb128 0x2c
 4811 027e 05       		.uleb128 0x5
 4812 027f 00       		.byte	0
 4813 0280 49       		.uleb128 0x49
 4814 0281 13       		.uleb128 0x13
 4815 0282 00       		.byte	0
 4816 0283 00       		.byte	0
 4817 0284 2D       		.uleb128 0x2d
ARM GAS  C:\Users\PANXIA~1\AppData\Local\Temp\cc1T2PPa.s 			page 99


 4818 0285 2E       		.uleb128 0x2e
 4819 0286 00       		.byte	0
 4820 0287 3F       		.uleb128 0x3f
 4821 0288 19       		.uleb128 0x19
 4822 0289 03       		.uleb128 0x3
 4823 028a 0E       		.uleb128 0xe
 4824 028b 3A       		.uleb128 0x3a
 4825 028c 0B       		.uleb128 0xb
 4826 028d 3B       		.uleb128 0x3b
 4827 028e 0B       		.uleb128 0xb
 4828 028f 27       		.uleb128 0x27
 4829 0290 19       		.uleb128 0x19
 4830 0291 49       		.uleb128 0x49
 4831 0292 13       		.uleb128 0x13
 4832 0293 3C       		.uleb128 0x3c
 4833 0294 19       		.uleb128 0x19
 4834 0295 00       		.byte	0
 4835 0296 00       		.byte	0
 4836 0297 2E       		.uleb128 0x2e
 4837 0298 2E       		.uleb128 0x2e
 4838 0299 01       		.byte	0x1
 4839 029a 3F       		.uleb128 0x3f
 4840 029b 19       		.uleb128 0x19
 4841 029c 03       		.uleb128 0x3
 4842 029d 0E       		.uleb128 0xe
 4843 029e 3A       		.uleb128 0x3a
 4844 029f 0B       		.uleb128 0xb
 4845 02a0 3B       		.uleb128 0x3b
 4846 02a1 0B       		.uleb128 0xb
 4847 02a2 27       		.uleb128 0x27
 4848 02a3 19       		.uleb128 0x19
 4849 02a4 3C       		.uleb128 0x3c
 4850 02a5 19       		.uleb128 0x19
 4851 02a6 00       		.byte	0
 4852 02a7 00       		.byte	0
 4853 02a8 00       		.byte	0
 4854              		.section	.debug_loc,"",%progbits
 4855              	.Ldebug_loc0:
 4856              	.LLST0:
 4857 0000 00000000 		.4byte	.LVL0
 4858 0004 05000000 		.4byte	.LVL1-1
 4859 0008 0100     		.2byte	0x1
 4860 000a 50       		.byte	0x50
 4861 000b 05000000 		.4byte	.LVL1-1
 4862 000f 08000000 		.4byte	.LFE64
 4863 0013 0400     		.2byte	0x4
 4864 0015 F3       		.byte	0xf3
 4865 0016 01       		.uleb128 0x1
 4866 0017 50       		.byte	0x50
 4867 0018 9F       		.byte	0x9f
 4868 0019 00000000 		.4byte	0
 4869 001d 00000000 		.4byte	0
 4870              	.LLST1:
 4871 0021 00000000 		.4byte	.LVL0
 4872 0025 05000000 		.4byte	.LVL1-1
 4873 0029 0100     		.2byte	0x1
 4874 002b 51       		.byte	0x51
ARM GAS  C:\Users\PANXIA~1\AppData\Local\Temp\cc1T2PPa.s 			page 100


 4875 002c 05000000 		.4byte	.LVL1-1
 4876 0030 08000000 		.4byte	.LFE64
 4877 0034 0400     		.2byte	0x4
 4878 0036 F3       		.byte	0xf3
 4879 0037 01       		.uleb128 0x1
 4880 0038 51       		.byte	0x51
 4881 0039 9F       		.byte	0x9f
 4882 003a 00000000 		.4byte	0
 4883 003e 00000000 		.4byte	0
 4884              	.LLST2:
 4885 0042 00000000 		.4byte	.LVL2
 4886 0046 2E000000 		.4byte	.LVL9
 4887 004a 0100     		.2byte	0x1
 4888 004c 50       		.byte	0x50
 4889 004d 2E000000 		.4byte	.LVL9
 4890 0051 35000000 		.4byte	.LVL10-1
 4891 0055 0500     		.2byte	0x5
 4892 0057 03       		.byte	0x3
 4893 0058 04000000 		.4byte	data_to_send+4
 4894 005c 35000000 		.4byte	.LVL10-1
 4895 0060 3C000000 		.4byte	.LFE65
 4896 0064 0400     		.2byte	0x4
 4897 0066 F3       		.byte	0xf3
 4898 0067 01       		.uleb128 0x1
 4899 0068 50       		.byte	0x50
 4900 0069 9F       		.byte	0x9f
 4901 006a 00000000 		.4byte	0
 4902 006e 00000000 		.4byte	0
 4903              	.LLST3:
 4904 0072 00000000 		.4byte	.LVL2
 4905 0076 1C000000 		.4byte	.LVL4
 4906 007a 0100     		.2byte	0x1
 4907 007c 51       		.byte	0x51
 4908 007d 1C000000 		.4byte	.LVL4
 4909 0081 35000000 		.4byte	.LVL10-1
 4910 0085 0500     		.2byte	0x5
 4911 0087 03       		.byte	0x3
 4912 0088 05000000 		.4byte	data_to_send+5
 4913 008c 35000000 		.4byte	.LVL10-1
 4914 0090 3C000000 		.4byte	.LFE65
 4915 0094 0400     		.2byte	0x4
 4916 0096 F3       		.byte	0xf3
 4917 0097 01       		.uleb128 0x1
 4918 0098 51       		.byte	0x51
 4919 0099 9F       		.byte	0x9f
 4920 009a 00000000 		.4byte	0
 4921 009e 00000000 		.4byte	0
 4922              	.LLST4:
 4923 00a2 16000000 		.4byte	.LVL3
 4924 00a6 1C000000 		.4byte	.LVL4
 4925 00aa 0200     		.2byte	0x2
 4926 00ac 30       		.byte	0x30
 4927 00ad 9F       		.byte	0x9f
 4928 00ae 1C000000 		.4byte	.LVL4
 4929 00b2 22000000 		.4byte	.LVL5
 4930 00b6 0100     		.2byte	0x1
 4931 00b8 52       		.byte	0x52
ARM GAS  C:\Users\PANXIA~1\AppData\Local\Temp\cc1T2PPa.s 			page 101


 4932 00b9 24000000 		.4byte	.LVL6
 4933 00bd 35000000 		.4byte	.LVL10-1
 4934 00c1 0100     		.2byte	0x1
 4935 00c3 52       		.byte	0x52
 4936 00c4 00000000 		.4byte	0
 4937 00c8 00000000 		.4byte	0
 4938              	.LLST5:
 4939 00cc 16000000 		.4byte	.LVL3
 4940 00d0 1C000000 		.4byte	.LVL4
 4941 00d4 0200     		.2byte	0x2
 4942 00d6 30       		.byte	0x30
 4943 00d7 9F       		.byte	0x9f
 4944 00d8 1C000000 		.4byte	.LVL4
 4945 00dc 26000000 		.4byte	.LVL7
 4946 00e0 0100     		.2byte	0x1
 4947 00e2 53       		.byte	0x53
 4948 00e3 28000000 		.4byte	.LVL8
 4949 00e7 35000000 		.4byte	.LVL10-1
 4950 00eb 0100     		.2byte	0x1
 4951 00ed 53       		.byte	0x53
 4952 00ee 00000000 		.4byte	0
 4953 00f2 00000000 		.4byte	0
 4954              	.LLST6:
 4955 00f6 00000000 		.4byte	.LVL11
 4956 00fa 99000000 		.4byte	.LVL19-1
 4957 00fe 0100     		.2byte	0x1
 4958 0100 50       		.byte	0x50
 4959 0101 99000000 		.4byte	.LVL19-1
 4960 0105 FE010000 		.4byte	.LVL49
 4961 0109 0100     		.2byte	0x1
 4962 010b 55       		.byte	0x55
 4963 010c FE010000 		.4byte	.LVL49
 4964 0110 0C020000 		.4byte	.LFE67
 4965 0114 0400     		.2byte	0x4
 4966 0116 F3       		.byte	0xf3
 4967 0117 01       		.uleb128 0x1
 4968 0118 50       		.byte	0x50
 4969 0119 9F       		.byte	0x9f
 4970 011a 00000000 		.4byte	0
 4971 011e 00000000 		.4byte	0
 4972              	.LLST7:
 4973 0122 00000000 		.4byte	.LVL11
 4974 0126 3C000000 		.4byte	.LVL18
 4975 012a 0100     		.2byte	0x1
 4976 012c 51       		.byte	0x51
 4977 012d 3C000000 		.4byte	.LVL18
 4978 0131 0C020000 		.4byte	.LFE67
 4979 0135 0400     		.2byte	0x4
 4980 0137 F3       		.byte	0xf3
 4981 0138 01       		.uleb128 0x1
 4982 0139 51       		.byte	0x51
 4983 013a 9F       		.byte	0x9f
 4984 013b 00000000 		.4byte	0
 4985 013f 00000000 		.4byte	0
 4986              	.LLST8:
 4987 0143 02000000 		.4byte	.LVL12
 4988 0147 08000000 		.4byte	.LVL13
ARM GAS  C:\Users\PANXIA~1\AppData\Local\Temp\cc1T2PPa.s 			page 102


 4989 014b 0200     		.2byte	0x2
 4990 014d 30       		.byte	0x30
 4991 014e 9F       		.byte	0x9f
 4992 014f 08000000 		.4byte	.LVL13
 4993 0153 00020000 		.4byte	.LVL50
 4994 0157 0100     		.2byte	0x1
 4995 0159 54       		.byte	0x54
 4996 015a 00000000 		.4byte	0
 4997 015e 00000000 		.4byte	0
 4998              	.LLST9:
 4999 0162 02000000 		.4byte	.LVL12
 5000 0166 AE000000 		.4byte	.LVL21
 5001 016a 0200     		.2byte	0x2
 5002 016c 30       		.byte	0x30
 5003 016d 9F       		.byte	0x9f
 5004 016e AE000000 		.4byte	.LVL21
 5005 0172 CC000000 		.4byte	.LVL25
 5006 0176 0100     		.2byte	0x1
 5007 0178 56       		.byte	0x56
 5008 0179 D2000000 		.4byte	.LVL26
 5009 017d F0000000 		.4byte	.LVL30
 5010 0181 0100     		.2byte	0x1
 5011 0183 56       		.byte	0x56
 5012 0184 F6000000 		.4byte	.LVL31
 5013 0188 14010000 		.4byte	.LVL35
 5014 018c 0100     		.2byte	0x1
 5015 018e 56       		.byte	0x56
 5016 018f 1A010000 		.4byte	.LVL36
 5017 0193 36010000 		.4byte	.LVL39
 5018 0197 0100     		.2byte	0x1
 5019 0199 56       		.byte	0x56
 5020 019a 00000000 		.4byte	0
 5021 019e 00000000 		.4byte	0
 5022              	.LLST10:
 5023 01a2 02000000 		.4byte	.LVL12
 5024 01a6 6A010000 		.4byte	.LVL42
 5025 01aa 0200     		.2byte	0x2
 5026 01ac 30       		.byte	0x30
 5027 01ad 9F       		.byte	0x9f
 5028 01ae 6A010000 		.4byte	.LVL42
 5029 01b2 92010000 		.4byte	.LVL46
 5030 01b6 0100     		.2byte	0x1
 5031 01b8 56       		.byte	0x56
 5032 01b9 00000000 		.4byte	0
 5033 01bd 00000000 		.4byte	0
 5034              	.LLST11:
 5035 01c1 02000000 		.4byte	.LVL12
 5036 01c5 08000000 		.4byte	.LVL13
 5037 01c9 0200     		.2byte	0x2
 5038 01cb 30       		.byte	0x30
 5039 01cc 9F       		.byte	0x9f
 5040 01cd 08000000 		.4byte	.LVL13
 5041 01d1 10000000 		.4byte	.LVL15
 5042 01d5 0100     		.2byte	0x1
 5043 01d7 53       		.byte	0x53
 5044 01d8 12000000 		.4byte	.LVL16
 5045 01dc 1A000000 		.4byte	.LVL17
ARM GAS  C:\Users\PANXIA~1\AppData\Local\Temp\cc1T2PPa.s 			page 103


 5046 01e0 0100     		.2byte	0x1
 5047 01e2 53       		.byte	0x53
 5048 01e3 00000000 		.4byte	0
 5049 01e7 00000000 		.4byte	0
 5050              	.LLST12:
 5051 01eb 00000000 		.4byte	.LVL51
 5052 01ef 98000000 		.4byte	.LVL52
 5053 01f3 0100     		.2byte	0x1
 5054 01f5 50       		.byte	0x50
 5055 01f6 98000000 		.4byte	.LVL52
 5056 01fa 9D000000 		.4byte	.LVL53-1
 5057 01fe 0200     		.2byte	0x2
 5058 0200 72       		.byte	0x72
 5059 0201 08       		.sleb128 8
 5060 0202 9D000000 		.4byte	.LVL53-1
 5061 0206 A0000000 		.4byte	.LVL54
 5062 020a 0400     		.2byte	0x4
 5063 020c F3       		.byte	0xf3
 5064 020d 01       		.uleb128 0x1
 5065 020e 50       		.byte	0x50
 5066 020f 9F       		.byte	0x9f
 5067 0210 A0000000 		.4byte	.LVL54
 5068 0214 AC000000 		.4byte	.LFE66
 5069 0218 0100     		.2byte	0x1
 5070 021a 50       		.byte	0x50
 5071 021b 00000000 		.4byte	0
 5072 021f 00000000 		.4byte	0
 5073              	.LLST13:
 5074 0223 00000000 		.4byte	.LVL55
 5075 0227 28000000 		.4byte	.LVL62
 5076 022b 0100     		.2byte	0x1
 5077 022d 50       		.byte	0x50
 5078 022e 28000000 		.4byte	.LVL62
 5079 0232 6C000000 		.4byte	.LVL82
 5080 0236 0200     		.2byte	0x2
 5081 0238 91       		.byte	0x91
 5082 0239 6E       		.sleb128 -18
 5083 023a 6C000000 		.4byte	.LVL82
 5084 023e 70000000 		.4byte	.LFE68
 5085 0242 0200     		.2byte	0x2
 5086 0244 7D       		.byte	0x7d
 5087 0245 6E       		.sleb128 -18
 5088 0246 00000000 		.4byte	0
 5089 024a 00000000 		.4byte	0
 5090              	.LLST14:
 5091 024e 00000000 		.4byte	.LVL55
 5092 0252 2E000000 		.4byte	.LVL65
 5093 0256 0100     		.2byte	0x1
 5094 0258 51       		.byte	0x51
 5095 0259 2E000000 		.4byte	.LVL65
 5096 025d 6C000000 		.4byte	.LVL82
 5097 0261 0200     		.2byte	0x2
 5098 0263 91       		.byte	0x91
 5099 0264 6C       		.sleb128 -20
 5100 0265 6C000000 		.4byte	.LVL82
 5101 0269 70000000 		.4byte	.LFE68
 5102 026d 0200     		.2byte	0x2
ARM GAS  C:\Users\PANXIA~1\AppData\Local\Temp\cc1T2PPa.s 			page 104


 5103 026f 7D       		.byte	0x7d
 5104 0270 6C       		.sleb128 -20
 5105 0271 00000000 		.4byte	0
 5106 0275 00000000 		.4byte	0
 5107              	.LLST15:
 5108 0279 00000000 		.4byte	.LVL55
 5109 027d 34000000 		.4byte	.LVL68
 5110 0281 0100     		.2byte	0x1
 5111 0283 52       		.byte	0x52
 5112 0284 34000000 		.4byte	.LVL68
 5113 0288 6C000000 		.4byte	.LVL82
 5114 028c 0200     		.2byte	0x2
 5115 028e 91       		.byte	0x91
 5116 028f 6A       		.sleb128 -22
 5117 0290 6C000000 		.4byte	.LVL82
 5118 0294 70000000 		.4byte	.LFE68
 5119 0298 0200     		.2byte	0x2
 5120 029a 7D       		.byte	0x7d
 5121 029b 6A       		.sleb128 -22
 5122 029c 00000000 		.4byte	0
 5123 02a0 00000000 		.4byte	0
 5124              	.LLST16:
 5125 02a4 00000000 		.4byte	.LVL55
 5126 02a8 3C000000 		.4byte	.LVL71
 5127 02ac 0100     		.2byte	0x1
 5128 02ae 53       		.byte	0x53
 5129 02af 3C000000 		.4byte	.LVL71
 5130 02b3 6A000000 		.4byte	.LVL81
 5131 02b7 0200     		.2byte	0x2
 5132 02b9 7D       		.byte	0x7d
 5133 02ba 00       		.sleb128 0
 5134 02bb 6A000000 		.4byte	.LVL81
 5135 02bf 6C000000 		.4byte	.LVL82
 5136 02c3 0200     		.2byte	0x2
 5137 02c5 91       		.byte	0x91
 5138 02c6 68       		.sleb128 -24
 5139 02c7 6C000000 		.4byte	.LVL82
 5140 02cb 70000000 		.4byte	.LFE68
 5141 02cf 0200     		.2byte	0x2
 5142 02d1 7D       		.byte	0x7d
 5143 02d2 68       		.sleb128 -24
 5144 02d3 00000000 		.4byte	0
 5145 02d7 00000000 		.4byte	0
 5146              	.LLST17:
 5147 02db 00000000 		.4byte	.LVL55
 5148 02df 6C000000 		.4byte	.LVL82
 5149 02e3 0200     		.2byte	0x2
 5150 02e5 91       		.byte	0x91
 5151 02e6 00       		.sleb128 0
 5152 02e7 6C000000 		.4byte	.LVL82
 5153 02eb 70000000 		.4byte	.LFE68
 5154 02ef 0200     		.2byte	0x2
 5155 02f1 7D       		.byte	0x7d
 5156 02f2 00       		.sleb128 0
 5157 02f3 00000000 		.4byte	0
 5158 02f7 00000000 		.4byte	0
 5159              	.LLST18:
ARM GAS  C:\Users\PANXIA~1\AppData\Local\Temp\cc1T2PPa.s 			page 105


 5160 02fb 14000000 		.4byte	.LVL56
 5161 02ff 1A000000 		.4byte	.LVL57
 5162 0303 0200     		.2byte	0x2
 5163 0305 31       		.byte	0x31
 5164 0306 9F       		.byte	0x9f
 5165 0307 1A000000 		.4byte	.LVL57
 5166 030b 1C000000 		.4byte	.LVL58
 5167 030f 0200     		.2byte	0x2
 5168 0311 32       		.byte	0x32
 5169 0312 9F       		.byte	0x9f
 5170 0313 1C000000 		.4byte	.LVL58
 5171 0317 20000000 		.4byte	.LVL59
 5172 031b 0200     		.2byte	0x2
 5173 031d 33       		.byte	0x33
 5174 031e 9F       		.byte	0x9f
 5175 031f 20000000 		.4byte	.LVL59
 5176 0323 24000000 		.4byte	.LVL60
 5177 0327 0200     		.2byte	0x2
 5178 0329 35       		.byte	0x35
 5179 032a 9F       		.byte	0x9f
 5180 032b 24000000 		.4byte	.LVL60
 5181 032f 26000000 		.4byte	.LVL61
 5182 0333 0200     		.2byte	0x2
 5183 0335 36       		.byte	0x36
 5184 0336 9F       		.byte	0x9f
 5185 0337 26000000 		.4byte	.LVL61
 5186 033b 2A000000 		.4byte	.LVL63
 5187 033f 0200     		.2byte	0x2
 5188 0341 37       		.byte	0x37
 5189 0342 9F       		.byte	0x9f
 5190 0343 2A000000 		.4byte	.LVL63
 5191 0347 2C000000 		.4byte	.LVL64
 5192 034b 0200     		.2byte	0x2
 5193 034d 38       		.byte	0x38
 5194 034e 9F       		.byte	0x9f
 5195 034f 2C000000 		.4byte	.LVL64
 5196 0353 30000000 		.4byte	.LVL66
 5197 0357 0200     		.2byte	0x2
 5198 0359 39       		.byte	0x39
 5199 035a 9F       		.byte	0x9f
 5200 035b 30000000 		.4byte	.LVL66
 5201 035f 32000000 		.4byte	.LVL67
 5202 0363 0200     		.2byte	0x2
 5203 0365 3A       		.byte	0x3a
 5204 0366 9F       		.byte	0x9f
 5205 0367 32000000 		.4byte	.LVL67
 5206 036b 36000000 		.4byte	.LVL69
 5207 036f 0200     		.2byte	0x2
 5208 0371 3B       		.byte	0x3b
 5209 0372 9F       		.byte	0x9f
 5210 0373 36000000 		.4byte	.LVL69
 5211 0377 38000000 		.4byte	.LVL70
 5212 037b 0200     		.2byte	0x2
 5213 037d 3C       		.byte	0x3c
 5214 037e 9F       		.byte	0x9f
 5215 037f 38000000 		.4byte	.LVL70
 5216 0383 3E000000 		.4byte	.LVL72
ARM GAS  C:\Users\PANXIA~1\AppData\Local\Temp\cc1T2PPa.s 			page 106


 5217 0387 0200     		.2byte	0x2
 5218 0389 3D       		.byte	0x3d
 5219 038a 9F       		.byte	0x9f
 5220 038b 3E000000 		.4byte	.LVL72
 5221 038f 5E000000 		.4byte	.LVL79
 5222 0393 0200     		.2byte	0x2
 5223 0395 3E       		.byte	0x3e
 5224 0396 9F       		.byte	0x9f
 5225 0397 5E000000 		.4byte	.LVL79
 5226 039b 70000000 		.4byte	.LFE68
 5227 039f 0200     		.2byte	0x2
 5228 03a1 3F       		.byte	0x3f
 5229 03a2 9F       		.byte	0x9f
 5230 03a3 00000000 		.4byte	0
 5231 03a7 00000000 		.4byte	0
 5232              	.LLST19:
 5233 03ab 48000000 		.4byte	.LVL73
 5234 03af 4E000000 		.4byte	.LVL74
 5235 03b3 0200     		.2byte	0x2
 5236 03b5 30       		.byte	0x30
 5237 03b6 9F       		.byte	0x9f
 5238 03b7 4E000000 		.4byte	.LVL74
 5239 03bb 54000000 		.4byte	.LVL75
 5240 03bf 0100     		.2byte	0x1
 5241 03c1 52       		.byte	0x52
 5242 03c2 56000000 		.4byte	.LVL76
 5243 03c6 67000000 		.4byte	.LVL80-1
 5244 03ca 0100     		.2byte	0x1
 5245 03cc 52       		.byte	0x52
 5246 03cd 00000000 		.4byte	0
 5247 03d1 00000000 		.4byte	0
 5248              	.LLST20:
 5249 03d5 48000000 		.4byte	.LVL73
 5250 03d9 4E000000 		.4byte	.LVL74
 5251 03dd 0200     		.2byte	0x2
 5252 03df 30       		.byte	0x30
 5253 03e0 9F       		.byte	0x9f
 5254 03e1 4E000000 		.4byte	.LVL74
 5255 03e5 58000000 		.4byte	.LVL77
 5256 03e9 0100     		.2byte	0x1
 5257 03eb 53       		.byte	0x53
 5258 03ec 5A000000 		.4byte	.LVL78
 5259 03f0 67000000 		.4byte	.LVL80-1
 5260 03f4 0100     		.2byte	0x1
 5261 03f6 53       		.byte	0x53
 5262 03f7 00000000 		.4byte	0
 5263 03fb 00000000 		.4byte	0
 5264              	.LLST21:
 5265 03ff 00000000 		.4byte	.LVL83
 5266 0403 58000000 		.4byte	.LVL108
 5267 0407 0100     		.2byte	0x1
 5268 0409 50       		.byte	0x50
 5269 040a 58000000 		.4byte	.LVL108
 5270 040e 5F000000 		.4byte	.LVL109-1
 5271 0412 0500     		.2byte	0x5
 5272 0414 03       		.byte	0x3
 5273 0415 04000000 		.4byte	data_to_send+4
ARM GAS  C:\Users\PANXIA~1\AppData\Local\Temp\cc1T2PPa.s 			page 107


 5274 0419 5F000000 		.4byte	.LVL109-1
 5275 041d 68000000 		.4byte	.LFE69
 5276 0421 0400     		.2byte	0x4
 5277 0423 F3       		.byte	0xf3
 5278 0424 01       		.uleb128 0x1
 5279 0425 50       		.byte	0x50
 5280 0426 9F       		.byte	0x9f
 5281 0427 00000000 		.4byte	0
 5282 042b 00000000 		.4byte	0
 5283              	.LLST22:
 5284 042f 00000000 		.4byte	.LVL83
 5285 0433 1A000000 		.4byte	.LVL91
 5286 0437 0100     		.2byte	0x1
 5287 0439 51       		.byte	0x51
 5288 043a 1A000000 		.4byte	.LVL91
 5289 043e 5F000000 		.4byte	.LVL109-1
 5290 0442 0500     		.2byte	0x5
 5291 0444 03       		.byte	0x3
 5292 0445 05000000 		.4byte	data_to_send+5
 5293 0449 5F000000 		.4byte	.LVL109-1
 5294 044d 68000000 		.4byte	.LFE69
 5295 0451 0400     		.2byte	0x4
 5296 0453 F3       		.byte	0xf3
 5297 0454 01       		.uleb128 0x1
 5298 0455 51       		.byte	0x51
 5299 0456 9F       		.byte	0x9f
 5300 0457 00000000 		.4byte	0
 5301 045b 00000000 		.4byte	0
 5302              	.LLST23:
 5303 045f 00000000 		.4byte	.LVL83
 5304 0463 24000000 		.4byte	.LVL94
 5305 0467 0100     		.2byte	0x1
 5306 0469 52       		.byte	0x52
 5307 046a 24000000 		.4byte	.LVL94
 5308 046e 68000000 		.4byte	.LFE69
 5309 0472 0400     		.2byte	0x4
 5310 0474 F3       		.byte	0xf3
 5311 0475 01       		.uleb128 0x1
 5312 0476 52       		.byte	0x52
 5313 0477 9F       		.byte	0x9f
 5314 0478 00000000 		.4byte	0
 5315 047c 00000000 		.4byte	0
 5316              	.LLST24:
 5317 0480 00000000 		.4byte	.LVL83
 5318 0484 2C000000 		.4byte	.LVL97
 5319 0488 0100     		.2byte	0x1
 5320 048a 53       		.byte	0x53
 5321 048b 2C000000 		.4byte	.LVL97
 5322 048f 5F000000 		.4byte	.LVL109-1
 5323 0493 0200     		.2byte	0x2
 5324 0495 91       		.byte	0x91
 5325 0496 6E       		.sleb128 -18
 5326 0497 5F000000 		.4byte	.LVL109-1
 5327 049b 68000000 		.4byte	.LFE69
 5328 049f 0400     		.2byte	0x4
 5329 04a1 F3       		.byte	0xf3
 5330 04a2 01       		.uleb128 0x1
ARM GAS  C:\Users\PANXIA~1\AppData\Local\Temp\cc1T2PPa.s 			page 108


 5331 04a3 53       		.byte	0x53
 5332 04a4 9F       		.byte	0x9f
 5333 04a5 00000000 		.4byte	0
 5334 04a9 00000000 		.4byte	0
 5335              	.LLST25:
 5336 04ad 00000000 		.4byte	.LVL83
 5337 04b1 64000000 		.4byte	.LVL110
 5338 04b5 0200     		.2byte	0x2
 5339 04b7 91       		.byte	0x91
 5340 04b8 00       		.sleb128 0
 5341 04b9 64000000 		.4byte	.LVL110
 5342 04bd 68000000 		.4byte	.LFE69
 5343 04c1 0200     		.2byte	0x2
 5344 04c3 7D       		.byte	0x7d
 5345 04c4 00       		.sleb128 0
 5346 04c5 00000000 		.4byte	0
 5347 04c9 00000000 		.4byte	0
 5348              	.LLST26:
 5349 04cd 06000000 		.4byte	.LVL84
 5350 04d1 0C000000 		.4byte	.LVL85
 5351 04d5 0200     		.2byte	0x2
 5352 04d7 31       		.byte	0x31
 5353 04d8 9F       		.byte	0x9f
 5354 04d9 0C000000 		.4byte	.LVL85
 5355 04dd 0E000000 		.4byte	.LVL86
 5356 04e1 0200     		.2byte	0x2
 5357 04e3 32       		.byte	0x32
 5358 04e4 9F       		.byte	0x9f
 5359 04e5 0E000000 		.4byte	.LVL86
 5360 04e9 12000000 		.4byte	.LVL87
 5361 04ed 0200     		.2byte	0x2
 5362 04ef 33       		.byte	0x33
 5363 04f0 9F       		.byte	0x9f
 5364 04f1 12000000 		.4byte	.LVL87
 5365 04f5 14000000 		.4byte	.LVL88
 5366 04f9 0200     		.2byte	0x2
 5367 04fb 34       		.byte	0x34
 5368 04fc 9F       		.byte	0x9f
 5369 04fd 14000000 		.4byte	.LVL88
 5370 0501 16000000 		.4byte	.LVL89
 5371 0505 0200     		.2byte	0x2
 5372 0507 35       		.byte	0x35
 5373 0508 9F       		.byte	0x9f
 5374 0509 16000000 		.4byte	.LVL89
 5375 050d 18000000 		.4byte	.LVL90
 5376 0511 0200     		.2byte	0x2
 5377 0513 36       		.byte	0x36
 5378 0514 9F       		.byte	0x9f
 5379 0515 18000000 		.4byte	.LVL90
 5380 0519 1C000000 		.4byte	.LVL92
 5381 051d 0200     		.2byte	0x2
 5382 051f 37       		.byte	0x37
 5383 0520 9F       		.byte	0x9f
 5384 0521 1C000000 		.4byte	.LVL92
 5385 0525 22000000 		.4byte	.LVL93
 5386 0529 0200     		.2byte	0x2
 5387 052b 38       		.byte	0x38
ARM GAS  C:\Users\PANXIA~1\AppData\Local\Temp\cc1T2PPa.s 			page 109


 5388 052c 9F       		.byte	0x9f
 5389 052d 22000000 		.4byte	.LVL93
 5390 0531 26000000 		.4byte	.LVL95
 5391 0535 0200     		.2byte	0x2
 5392 0537 39       		.byte	0x39
 5393 0538 9F       		.byte	0x9f
 5394 0539 26000000 		.4byte	.LVL95
 5395 053d 2A000000 		.4byte	.LVL96
 5396 0541 0200     		.2byte	0x2
 5397 0543 3A       		.byte	0x3a
 5398 0544 9F       		.byte	0x9f
 5399 0545 2A000000 		.4byte	.LVL96
 5400 0549 2E000000 		.4byte	.LVL98
 5401 054d 0200     		.2byte	0x2
 5402 054f 3B       		.byte	0x3b
 5403 0550 9F       		.byte	0x9f
 5404 0551 2E000000 		.4byte	.LVL98
 5405 0555 34000000 		.4byte	.LVL99
 5406 0559 0200     		.2byte	0x2
 5407 055b 3C       		.byte	0x3c
 5408 055c 9F       		.byte	0x9f
 5409 055d 34000000 		.4byte	.LVL99
 5410 0561 3A000000 		.4byte	.LVL100
 5411 0565 0200     		.2byte	0x2
 5412 0567 3D       		.byte	0x3d
 5413 0568 9F       		.byte	0x9f
 5414 0569 3A000000 		.4byte	.LVL100
 5415 056d 56000000 		.4byte	.LVL107
 5416 0571 0200     		.2byte	0x2
 5417 0573 3E       		.byte	0x3e
 5418 0574 9F       		.byte	0x9f
 5419 0575 56000000 		.4byte	.LVL107
 5420 0579 68000000 		.4byte	.LFE69
 5421 057d 0200     		.2byte	0x2
 5422 057f 3F       		.byte	0x3f
 5423 0580 9F       		.byte	0x9f
 5424 0581 00000000 		.4byte	0
 5425 0585 00000000 		.4byte	0
 5426              	.LLST27:
 5427 0589 14000000 		.4byte	.LVL88
 5428 058d 16000000 		.4byte	.LVL89
 5429 0591 0100     		.2byte	0x1
 5430 0593 50       		.byte	0x50
 5431 0594 16000000 		.4byte	.LVL89
 5432 0598 1A000000 		.4byte	.LVL91
 5433 059c 0100     		.2byte	0x1
 5434 059e 51       		.byte	0x51
 5435 059f 1A000000 		.4byte	.LVL91
 5436 05a3 5F000000 		.4byte	.LVL109-1
 5437 05a7 0500     		.2byte	0x5
 5438 05a9 03       		.byte	0x3
 5439 05aa 05000000 		.4byte	data_to_send+5
 5440 05ae 5F000000 		.4byte	.LVL109-1
 5441 05b2 68000000 		.4byte	.LFE69
 5442 05b6 0400     		.2byte	0x4
 5443 05b8 F3       		.byte	0xf3
 5444 05b9 01       		.uleb128 0x1
ARM GAS  C:\Users\PANXIA~1\AppData\Local\Temp\cc1T2PPa.s 			page 110


 5445 05ba 51       		.byte	0x51
 5446 05bb 9F       		.byte	0x9f
 5447 05bc 00000000 		.4byte	0
 5448 05c0 00000000 		.4byte	0
 5449              	.LLST28:
 5450 05c4 40000000 		.4byte	.LVL101
 5451 05c8 46000000 		.4byte	.LVL102
 5452 05cc 0200     		.2byte	0x2
 5453 05ce 30       		.byte	0x30
 5454 05cf 9F       		.byte	0x9f
 5455 05d0 46000000 		.4byte	.LVL102
 5456 05d4 4C000000 		.4byte	.LVL103
 5457 05d8 0100     		.2byte	0x1
 5458 05da 52       		.byte	0x52
 5459 05db 4E000000 		.4byte	.LVL104
 5460 05df 5F000000 		.4byte	.LVL109-1
 5461 05e3 0100     		.2byte	0x1
 5462 05e5 52       		.byte	0x52
 5463 05e6 00000000 		.4byte	0
 5464 05ea 00000000 		.4byte	0
 5465              	.LLST29:
 5466 05ee 40000000 		.4byte	.LVL101
 5467 05f2 46000000 		.4byte	.LVL102
 5468 05f6 0200     		.2byte	0x2
 5469 05f8 30       		.byte	0x30
 5470 05f9 9F       		.byte	0x9f
 5471 05fa 46000000 		.4byte	.LVL102
 5472 05fe 50000000 		.4byte	.LVL105
 5473 0602 0100     		.2byte	0x1
 5474 0604 53       		.byte	0x53
 5475 0605 52000000 		.4byte	.LVL106
 5476 0609 5F000000 		.4byte	.LVL109-1
 5477 060d 0100     		.2byte	0x1
 5478 060f 53       		.byte	0x53
 5479 0610 00000000 		.4byte	0
 5480 0614 00000000 		.4byte	0
 5481              	.LLST30:
 5482 0618 00000000 		.4byte	.LVL111
 5483 061c 32000000 		.4byte	.LVL121
 5484 0620 0100     		.2byte	0x1
 5485 0622 50       		.byte	0x50
 5486 0623 32000000 		.4byte	.LVL121
 5487 0627 B8000000 		.4byte	.LFE70
 5488 062b 0400     		.2byte	0x4
 5489 062d F3       		.byte	0xf3
 5490 062e 01       		.uleb128 0x1
 5491 062f 50       		.byte	0x50
 5492 0630 9F       		.byte	0x9f
 5493 0631 00000000 		.4byte	0
 5494 0635 00000000 		.4byte	0
 5495              	.LLST31:
 5496 0639 00000000 		.4byte	.LVL111
 5497 063d 44000000 		.4byte	.LVL126
 5498 0641 0100     		.2byte	0x1
 5499 0643 51       		.byte	0x51
 5500 0644 44000000 		.4byte	.LVL126
 5501 0648 B8000000 		.4byte	.LFE70
ARM GAS  C:\Users\PANXIA~1\AppData\Local\Temp\cc1T2PPa.s 			page 111


 5502 064c 0400     		.2byte	0x4
 5503 064e F3       		.byte	0xf3
 5504 064f 01       		.uleb128 0x1
 5505 0650 51       		.byte	0x51
 5506 0651 9F       		.byte	0x9f
 5507 0652 00000000 		.4byte	0
 5508 0656 00000000 		.4byte	0
 5509              	.LLST32:
 5510 065a 00000000 		.4byte	.LVL111
 5511 065e 56000000 		.4byte	.LVL131
 5512 0662 0100     		.2byte	0x1
 5513 0664 52       		.byte	0x52
 5514 0665 56000000 		.4byte	.LVL131
 5515 0669 B8000000 		.4byte	.LFE70
 5516 066d 0400     		.2byte	0x4
 5517 066f F3       		.byte	0xf3
 5518 0670 01       		.uleb128 0x1
 5519 0671 52       		.byte	0x52
 5520 0672 9F       		.byte	0x9f
 5521 0673 00000000 		.4byte	0
 5522 0677 00000000 		.4byte	0
 5523              	.LLST33:
 5524 067b 00000000 		.4byte	.LVL111
 5525 067f 68000000 		.4byte	.LVL136
 5526 0683 0100     		.2byte	0x1
 5527 0685 53       		.byte	0x53
 5528 0686 68000000 		.4byte	.LVL136
 5529 068a B8000000 		.4byte	.LFE70
 5530 068e 0400     		.2byte	0x4
 5531 0690 F3       		.byte	0xf3
 5532 0691 01       		.uleb128 0x1
 5533 0692 53       		.byte	0x53
 5534 0693 9F       		.byte	0x9f
 5535 0694 00000000 		.4byte	0
 5536 0698 00000000 		.4byte	0
 5537              	.LLST34:
 5538 069c 00000000 		.4byte	.LVL111
 5539 06a0 B4000000 		.4byte	.LVL152
 5540 06a4 0200     		.2byte	0x2
 5541 06a6 91       		.byte	0x91
 5542 06a7 00       		.sleb128 0
 5543 06a8 B4000000 		.4byte	.LVL152
 5544 06ac B8000000 		.4byte	.LFE70
 5545 06b0 0200     		.2byte	0x2
 5546 06b2 7D       		.byte	0x7d
 5547 06b3 00       		.sleb128 0
 5548 06b4 00000000 		.4byte	0
 5549 06b8 00000000 		.4byte	0
 5550              	.LLST35:
 5551 06bc 00000000 		.4byte	.LVL111
 5552 06c0 B4000000 		.4byte	.LVL152
 5553 06c4 0200     		.2byte	0x2
 5554 06c6 91       		.byte	0x91
 5555 06c7 04       		.sleb128 4
 5556 06c8 B4000000 		.4byte	.LVL152
 5557 06cc B8000000 		.4byte	.LFE70
 5558 06d0 0200     		.2byte	0x2
ARM GAS  C:\Users\PANXIA~1\AppData\Local\Temp\cc1T2PPa.s 			page 112


 5559 06d2 7D       		.byte	0x7d
 5560 06d3 04       		.sleb128 4
 5561 06d4 00000000 		.4byte	0
 5562 06d8 00000000 		.4byte	0
 5563              	.LLST36:
 5564 06dc 08000000 		.4byte	.LVL112
 5565 06e0 0E000000 		.4byte	.LVL113
 5566 06e4 0200     		.2byte	0x2
 5567 06e6 31       		.byte	0x31
 5568 06e7 9F       		.byte	0x9f
 5569 06e8 0E000000 		.4byte	.LVL113
 5570 06ec 10000000 		.4byte	.LVL114
 5571 06f0 0200     		.2byte	0x2
 5572 06f2 32       		.byte	0x32
 5573 06f3 9F       		.byte	0x9f
 5574 06f4 10000000 		.4byte	.LVL114
 5575 06f8 14000000 		.4byte	.LVL115
 5576 06fc 0200     		.2byte	0x2
 5577 06fe 33       		.byte	0x33
 5578 06ff 9F       		.byte	0x9f
 5579 0700 14000000 		.4byte	.LVL115
 5580 0704 16000000 		.4byte	.LVL116
 5581 0708 0200     		.2byte	0x2
 5582 070a 34       		.byte	0x34
 5583 070b 9F       		.byte	0x9f
 5584 070c 16000000 		.4byte	.LVL116
 5585 0710 1E000000 		.4byte	.LVL117
 5586 0714 0200     		.2byte	0x2
 5587 0716 35       		.byte	0x35
 5588 0717 9F       		.byte	0x9f
 5589 0718 1E000000 		.4byte	.LVL117
 5590 071c 26000000 		.4byte	.LVL118
 5591 0720 0200     		.2byte	0x2
 5592 0722 36       		.byte	0x36
 5593 0723 9F       		.byte	0x9f
 5594 0724 26000000 		.4byte	.LVL118
 5595 0728 2E000000 		.4byte	.LVL119
 5596 072c 0200     		.2byte	0x2
 5597 072e 37       		.byte	0x37
 5598 072f 9F       		.byte	0x9f
 5599 0730 2E000000 		.4byte	.LVL119
 5600 0734 30000000 		.4byte	.LVL120
 5601 0738 0200     		.2byte	0x2
 5602 073a 38       		.byte	0x38
 5603 073b 9F       		.byte	0x9f
 5604 073c 30000000 		.4byte	.LVL120
 5605 0740 34000000 		.4byte	.LVL122
 5606 0744 0200     		.2byte	0x2
 5607 0746 39       		.byte	0x39
 5608 0747 9F       		.byte	0x9f
 5609 0748 34000000 		.4byte	.LVL122
 5610 074c 3A000000 		.4byte	.LVL123
 5611 0750 0200     		.2byte	0x2
 5612 0752 3A       		.byte	0x3a
 5613 0753 9F       		.byte	0x9f
 5614 0754 3A000000 		.4byte	.LVL123
 5615 0758 40000000 		.4byte	.LVL124
ARM GAS  C:\Users\PANXIA~1\AppData\Local\Temp\cc1T2PPa.s 			page 113


 5616 075c 0200     		.2byte	0x2
 5617 075e 3B       		.byte	0x3b
 5618 075f 9F       		.byte	0x9f
 5619 0760 40000000 		.4byte	.LVL124
 5620 0764 42000000 		.4byte	.LVL125
 5621 0768 0200     		.2byte	0x2
 5622 076a 3C       		.byte	0x3c
 5623 076b 9F       		.byte	0x9f
 5624 076c 42000000 		.4byte	.LVL125
 5625 0770 46000000 		.4byte	.LVL127
 5626 0774 0200     		.2byte	0x2
 5627 0776 3D       		.byte	0x3d
 5628 0777 9F       		.byte	0x9f
 5629 0778 46000000 		.4byte	.LVL127
 5630 077c 4C000000 		.4byte	.LVL128
 5631 0780 0200     		.2byte	0x2
 5632 0782 3E       		.byte	0x3e
 5633 0783 9F       		.byte	0x9f
 5634 0784 4C000000 		.4byte	.LVL128
 5635 0788 52000000 		.4byte	.LVL129
 5636 078c 0200     		.2byte	0x2
 5637 078e 3F       		.byte	0x3f
 5638 078f 9F       		.byte	0x9f
 5639 0790 52000000 		.4byte	.LVL129
 5640 0794 54000000 		.4byte	.LVL130
 5641 0798 0200     		.2byte	0x2
 5642 079a 40       		.byte	0x40
 5643 079b 9F       		.byte	0x9f
 5644 079c 54000000 		.4byte	.LVL130
 5645 07a0 58000000 		.4byte	.LVL132
 5646 07a4 0200     		.2byte	0x2
 5647 07a6 41       		.byte	0x41
 5648 07a7 9F       		.byte	0x9f
 5649 07a8 58000000 		.4byte	.LVL132
 5650 07ac 5E000000 		.4byte	.LVL133
 5651 07b0 0200     		.2byte	0x2
 5652 07b2 42       		.byte	0x42
 5653 07b3 9F       		.byte	0x9f
 5654 07b4 5E000000 		.4byte	.LVL133
 5655 07b8 64000000 		.4byte	.LVL134
 5656 07bc 0200     		.2byte	0x2
 5657 07be 43       		.byte	0x43
 5658 07bf 9F       		.byte	0x9f
 5659 07c0 64000000 		.4byte	.LVL134
 5660 07c4 66000000 		.4byte	.LVL135
 5661 07c8 0200     		.2byte	0x2
 5662 07ca 44       		.byte	0x44
 5663 07cb 9F       		.byte	0x9f
 5664 07cc 66000000 		.4byte	.LVL135
 5665 07d0 6A000000 		.4byte	.LVL137
 5666 07d4 0200     		.2byte	0x2
 5667 07d6 45       		.byte	0x45
 5668 07d7 9F       		.byte	0x9f
 5669 07d8 6A000000 		.4byte	.LVL137
 5670 07dc 70000000 		.4byte	.LVL138
 5671 07e0 0200     		.2byte	0x2
 5672 07e2 46       		.byte	0x46
ARM GAS  C:\Users\PANXIA~1\AppData\Local\Temp\cc1T2PPa.s 			page 114


 5673 07e3 9F       		.byte	0x9f
 5674 07e4 70000000 		.4byte	.LVL138
 5675 07e8 76000000 		.4byte	.LVL139
 5676 07ec 0200     		.2byte	0x2
 5677 07ee 47       		.byte	0x47
 5678 07ef 9F       		.byte	0x9f
 5679 07f0 76000000 		.4byte	.LVL139
 5680 07f4 7A000000 		.4byte	.LVL140
 5681 07f8 0200     		.2byte	0x2
 5682 07fa 48       		.byte	0x48
 5683 07fb 9F       		.byte	0x9f
 5684 07fc 7A000000 		.4byte	.LVL140
 5685 0800 7E000000 		.4byte	.LVL141
 5686 0804 0200     		.2byte	0x2
 5687 0806 49       		.byte	0x49
 5688 0807 9F       		.byte	0x9f
 5689 0808 7E000000 		.4byte	.LVL141
 5690 080c 84000000 		.4byte	.LVL142
 5691 0810 0200     		.2byte	0x2
 5692 0812 4A       		.byte	0x4a
 5693 0813 9F       		.byte	0x9f
 5694 0814 84000000 		.4byte	.LVL142
 5695 0818 8A000000 		.4byte	.LVL143
 5696 081c 0200     		.2byte	0x2
 5697 081e 4B       		.byte	0x4b
 5698 081f 9F       		.byte	0x9f
 5699 0820 8A000000 		.4byte	.LVL143
 5700 0824 A6000000 		.4byte	.LVL150
 5701 0828 0200     		.2byte	0x2
 5702 082a 4C       		.byte	0x4c
 5703 082b 9F       		.byte	0x9f
 5704 082c A6000000 		.4byte	.LVL150
 5705 0830 B8000000 		.4byte	.LFE70
 5706 0834 0200     		.2byte	0x2
 5707 0836 4D       		.byte	0x4d
 5708 0837 9F       		.byte	0x9f
 5709 0838 00000000 		.4byte	0
 5710 083c 00000000 		.4byte	0
 5711              	.LLST37:
 5712 0840 90000000 		.4byte	.LVL144
 5713 0844 96000000 		.4byte	.LVL145
 5714 0848 0200     		.2byte	0x2
 5715 084a 30       		.byte	0x30
 5716 084b 9F       		.byte	0x9f
 5717 084c 96000000 		.4byte	.LVL145
 5718 0850 9C000000 		.4byte	.LVL146
 5719 0854 0100     		.2byte	0x1
 5720 0856 52       		.byte	0x52
 5721 0857 9E000000 		.4byte	.LVL147
 5722 085b AF000000 		.4byte	.LVL151-1
 5723 085f 0100     		.2byte	0x1
 5724 0861 52       		.byte	0x52
 5725 0862 00000000 		.4byte	0
 5726 0866 00000000 		.4byte	0
 5727              	.LLST38:
 5728 086a 90000000 		.4byte	.LVL144
 5729 086e 96000000 		.4byte	.LVL145
ARM GAS  C:\Users\PANXIA~1\AppData\Local\Temp\cc1T2PPa.s 			page 115


 5730 0872 0200     		.2byte	0x2
 5731 0874 30       		.byte	0x30
 5732 0875 9F       		.byte	0x9f
 5733 0876 96000000 		.4byte	.LVL145
 5734 087a A0000000 		.4byte	.LVL148
 5735 087e 0100     		.2byte	0x1
 5736 0880 53       		.byte	0x53
 5737 0881 A2000000 		.4byte	.LVL149
 5738 0885 AF000000 		.4byte	.LVL151-1
 5739 0889 0100     		.2byte	0x1
 5740 088b 53       		.byte	0x53
 5741 088c 00000000 		.4byte	0
 5742 0890 00000000 		.4byte	0
 5743              	.LLST39:
 5744 0894 00000000 		.4byte	.LVL153
 5745 0898 22000000 		.4byte	.LVL161
 5746 089c 0100     		.2byte	0x1
 5747 089e 50       		.byte	0x50
 5748 089f 22000000 		.4byte	.LVL161
 5749 08a3 4C000000 		.4byte	.LVL172
 5750 08a7 0200     		.2byte	0x2
 5751 08a9 91       		.byte	0x91
 5752 08aa 76       		.sleb128 -10
 5753 08ab 4C000000 		.4byte	.LVL172
 5754 08af 50000000 		.4byte	.LFE71
 5755 08b3 0200     		.2byte	0x2
 5756 08b5 7D       		.byte	0x7d
 5757 08b6 76       		.sleb128 -10
 5758 08b7 00000000 		.4byte	0
 5759 08bb 00000000 		.4byte	0
 5760              	.LLST40:
 5761 08bf 00000000 		.4byte	.LVL153
 5762 08c3 28000000 		.4byte	.LVL163
 5763 08c7 0100     		.2byte	0x1
 5764 08c9 51       		.byte	0x51
 5765 08ca 28000000 		.4byte	.LVL163
 5766 08ce 4C000000 		.4byte	.LVL172
 5767 08d2 0200     		.2byte	0x2
 5768 08d4 91       		.byte	0x91
 5769 08d5 74       		.sleb128 -12
 5770 08d6 4C000000 		.4byte	.LVL172
 5771 08da 50000000 		.4byte	.LFE71
 5772 08de 0200     		.2byte	0x2
 5773 08e0 7D       		.byte	0x7d
 5774 08e1 74       		.sleb128 -12
 5775 08e2 00000000 		.4byte	0
 5776 08e6 00000000 		.4byte	0
 5777              	.LLST41:
 5778 08ea 0C000000 		.4byte	.LVL154
 5779 08ee 12000000 		.4byte	.LVL155
 5780 08f2 0200     		.2byte	0x2
 5781 08f4 31       		.byte	0x31
 5782 08f5 9F       		.byte	0x9f
 5783 08f6 12000000 		.4byte	.LVL155
 5784 08fa 14000000 		.4byte	.LVL156
 5785 08fe 0200     		.2byte	0x2
 5786 0900 32       		.byte	0x32
ARM GAS  C:\Users\PANXIA~1\AppData\Local\Temp\cc1T2PPa.s 			page 116


 5787 0901 9F       		.byte	0x9f
 5788 0902 14000000 		.4byte	.LVL156
 5789 0906 18000000 		.4byte	.LVL157
 5790 090a 0200     		.2byte	0x2
 5791 090c 33       		.byte	0x33
 5792 090d 9F       		.byte	0x9f
 5793 090e 18000000 		.4byte	.LVL157
 5794 0912 1A000000 		.4byte	.LVL158
 5795 0916 0200     		.2byte	0x2
 5796 0918 34       		.byte	0x34
 5797 0919 9F       		.byte	0x9f
 5798 091a 1A000000 		.4byte	.LVL158
 5799 091e 1E000000 		.4byte	.LVL159
 5800 0922 0200     		.2byte	0x2
 5801 0924 35       		.byte	0x35
 5802 0925 9F       		.byte	0x9f
 5803 0926 1E000000 		.4byte	.LVL159
 5804 092a 20000000 		.4byte	.LVL160
 5805 092e 0200     		.2byte	0x2
 5806 0930 36       		.byte	0x36
 5807 0931 9F       		.byte	0x9f
 5808 0932 20000000 		.4byte	.LVL160
 5809 0936 24000000 		.4byte	.LVL162
 5810 093a 0200     		.2byte	0x2
 5811 093c 37       		.byte	0x37
 5812 093d 9F       		.byte	0x9f
 5813 093e 24000000 		.4byte	.LVL162
 5814 0942 3E000000 		.4byte	.LVL170
 5815 0946 0200     		.2byte	0x2
 5816 0948 38       		.byte	0x38
 5817 0949 9F       		.byte	0x9f
 5818 094a 3E000000 		.4byte	.LVL170
 5819 094e 50000000 		.4byte	.LFE71
 5820 0952 0200     		.2byte	0x2
 5821 0954 39       		.byte	0x39
 5822 0955 9F       		.byte	0x9f
 5823 0956 00000000 		.4byte	0
 5824 095a 00000000 		.4byte	0
 5825              	.LLST42:
 5826 095e 2A000000 		.4byte	.LVL164
 5827 0962 2E000000 		.4byte	.LVL165
 5828 0966 0200     		.2byte	0x2
 5829 0968 30       		.byte	0x30
 5830 0969 9F       		.byte	0x9f
 5831 096a 2E000000 		.4byte	.LVL165
 5832 096e 34000000 		.4byte	.LVL166
 5833 0972 0100     		.2byte	0x1
 5834 0974 52       		.byte	0x52
 5835 0975 36000000 		.4byte	.LVL167
 5836 0979 47000000 		.4byte	.LVL171-1
 5837 097d 0100     		.2byte	0x1
 5838 097f 52       		.byte	0x52
 5839 0980 00000000 		.4byte	0
 5840 0984 00000000 		.4byte	0
 5841              	.LLST43:
 5842 0988 2A000000 		.4byte	.LVL164
 5843 098c 2E000000 		.4byte	.LVL165
ARM GAS  C:\Users\PANXIA~1\AppData\Local\Temp\cc1T2PPa.s 			page 117


 5844 0990 0200     		.2byte	0x2
 5845 0992 30       		.byte	0x30
 5846 0993 9F       		.byte	0x9f
 5847 0994 2E000000 		.4byte	.LVL165
 5848 0998 38000000 		.4byte	.LVL168
 5849 099c 0100     		.2byte	0x1
 5850 099e 53       		.byte	0x53
 5851 099f 3A000000 		.4byte	.LVL169
 5852 09a3 47000000 		.4byte	.LVL171-1
 5853 09a7 0100     		.2byte	0x1
 5854 09a9 53       		.byte	0x53
 5855 09aa 00000000 		.4byte	0
 5856 09ae 00000000 		.4byte	0
 5857              	.LLST44:
 5858 09b2 00000000 		.4byte	.LVL173
 5859 09b6 1A000000 		.4byte	.LVL181
 5860 09ba 0100     		.2byte	0x1
 5861 09bc 50       		.byte	0x50
 5862 09bd 1A000000 		.4byte	.LVL181
 5863 09c1 5C000000 		.4byte	.LFE72
 5864 09c5 0400     		.2byte	0x4
 5865 09c7 F3       		.byte	0xf3
 5866 09c8 01       		.uleb128 0x1
 5867 09c9 50       		.byte	0x50
 5868 09ca 9F       		.byte	0x9f
 5869 09cb 00000000 		.4byte	0
 5870 09cf 00000000 		.4byte	0
 5871              	.LLST45:
 5872 09d3 00000000 		.4byte	.LVL173
 5873 09d7 20000000 		.4byte	.LVL184
 5874 09db 0100     		.2byte	0x1
 5875 09dd 51       		.byte	0x51
 5876 09de 20000000 		.4byte	.LVL184
 5877 09e2 5C000000 		.4byte	.LFE72
 5878 09e6 0400     		.2byte	0x4
 5879 09e8 F3       		.byte	0xf3
 5880 09e9 01       		.uleb128 0x1
 5881 09ea 51       		.byte	0x51
 5882 09eb 9F       		.byte	0x9f
 5883 09ec 00000000 		.4byte	0
 5884 09f0 00000000 		.4byte	0
 5885              	.LLST46:
 5886 09f4 00000000 		.4byte	.LVL173
 5887 09f8 2A000000 		.4byte	.LVL187
 5888 09fc 0100     		.2byte	0x1
 5889 09fe 52       		.byte	0x52
 5890 09ff 2A000000 		.4byte	.LVL187
 5891 0a03 5C000000 		.4byte	.LFE72
 5892 0a07 0400     		.2byte	0x4
 5893 0a09 F3       		.byte	0xf3
 5894 0a0a 01       		.uleb128 0x1
 5895 0a0b 52       		.byte	0x52
 5896 0a0c 9F       		.byte	0x9f
 5897 0a0d 00000000 		.4byte	0
 5898 0a11 00000000 		.4byte	0
 5899              	.LLST47:
 5900 0a15 00000000 		.4byte	.LVL173
ARM GAS  C:\Users\PANXIA~1\AppData\Local\Temp\cc1T2PPa.s 			page 118


 5901 0a19 30000000 		.4byte	.LVL189
 5902 0a1d 0100     		.2byte	0x1
 5903 0a1f 53       		.byte	0x53
 5904 0a20 30000000 		.4byte	.LVL189
 5905 0a24 51000000 		.4byte	.LVL197-1
 5906 0a28 0200     		.2byte	0x2
 5907 0a2a 91       		.byte	0x91
 5908 0a2b 6E       		.sleb128 -18
 5909 0a2c 51000000 		.4byte	.LVL197-1
 5910 0a30 5C000000 		.4byte	.LFE72
 5911 0a34 0400     		.2byte	0x4
 5912 0a36 F3       		.byte	0xf3
 5913 0a37 01       		.uleb128 0x1
 5914 0a38 53       		.byte	0x53
 5915 0a39 9F       		.byte	0x9f
 5916 0a3a 00000000 		.4byte	0
 5917 0a3e 00000000 		.4byte	0
 5918              	.LLST48:
 5919 0a42 04000000 		.4byte	.LVL174
 5920 0a46 0A000000 		.4byte	.LVL175
 5921 0a4a 0200     		.2byte	0x2
 5922 0a4c 31       		.byte	0x31
 5923 0a4d 9F       		.byte	0x9f
 5924 0a4e 0A000000 		.4byte	.LVL175
 5925 0a52 0C000000 		.4byte	.LVL176
 5926 0a56 0200     		.2byte	0x2
 5927 0a58 32       		.byte	0x32
 5928 0a59 9F       		.byte	0x9f
 5929 0a5a 0C000000 		.4byte	.LVL176
 5930 0a5e 10000000 		.4byte	.LVL177
 5931 0a62 0200     		.2byte	0x2
 5932 0a64 33       		.byte	0x33
 5933 0a65 9F       		.byte	0x9f
 5934 0a66 10000000 		.4byte	.LVL177
 5935 0a6a 12000000 		.4byte	.LVL178
 5936 0a6e 0200     		.2byte	0x2
 5937 0a70 34       		.byte	0x34
 5938 0a71 9F       		.byte	0x9f
 5939 0a72 12000000 		.4byte	.LVL178
 5940 0a76 16000000 		.4byte	.LVL179
 5941 0a7a 0200     		.2byte	0x2
 5942 0a7c 35       		.byte	0x35
 5943 0a7d 9F       		.byte	0x9f
 5944 0a7e 16000000 		.4byte	.LVL179
 5945 0a82 18000000 		.4byte	.LVL180
 5946 0a86 0200     		.2byte	0x2
 5947 0a88 36       		.byte	0x36
 5948 0a89 9F       		.byte	0x9f
 5949 0a8a 18000000 		.4byte	.LVL180
 5950 0a8e 1C000000 		.4byte	.LVL182
 5951 0a92 0200     		.2byte	0x2
 5952 0a94 37       		.byte	0x37
 5953 0a95 9F       		.byte	0x9f
 5954 0a96 1C000000 		.4byte	.LVL182
 5955 0a9a 1E000000 		.4byte	.LVL183
 5956 0a9e 0200     		.2byte	0x2
 5957 0aa0 38       		.byte	0x38
ARM GAS  C:\Users\PANXIA~1\AppData\Local\Temp\cc1T2PPa.s 			page 119


 5958 0aa1 9F       		.byte	0x9f
 5959 0aa2 1E000000 		.4byte	.LVL183
 5960 0aa6 22000000 		.4byte	.LVL185
 5961 0aaa 0200     		.2byte	0x2
 5962 0aac 39       		.byte	0x39
 5963 0aad 9F       		.byte	0x9f
 5964 0aae 22000000 		.4byte	.LVL185
 5965 0ab2 28000000 		.4byte	.LVL186
 5966 0ab6 0200     		.2byte	0x2
 5967 0ab8 3A       		.byte	0x3a
 5968 0ab9 9F       		.byte	0x9f
 5969 0aba 28000000 		.4byte	.LVL186
 5970 0abe 2C000000 		.4byte	.LVL188
 5971 0ac2 0200     		.2byte	0x2
 5972 0ac4 3B       		.byte	0x3b
 5973 0ac5 9F       		.byte	0x9f
 5974 0ac6 2C000000 		.4byte	.LVL188
 5975 0aca 48000000 		.4byte	.LVL196
 5976 0ace 0200     		.2byte	0x2
 5977 0ad0 3C       		.byte	0x3c
 5978 0ad1 9F       		.byte	0x9f
 5979 0ad2 48000000 		.4byte	.LVL196
 5980 0ad6 5C000000 		.4byte	.LFE72
 5981 0ada 0200     		.2byte	0x2
 5982 0adc 3D       		.byte	0x3d
 5983 0add 9F       		.byte	0x9f
 5984 0ade 00000000 		.4byte	0
 5985 0ae2 00000000 		.4byte	0
 5986              	.LLST49:
 5987 0ae6 32000000 		.4byte	.LVL190
 5988 0aea 38000000 		.4byte	.LVL191
 5989 0aee 0200     		.2byte	0x2
 5990 0af0 30       		.byte	0x30
 5991 0af1 9F       		.byte	0x9f
 5992 0af2 38000000 		.4byte	.LVL191
 5993 0af6 3E000000 		.4byte	.LVL192
 5994 0afa 0100     		.2byte	0x1
 5995 0afc 52       		.byte	0x52
 5996 0afd 40000000 		.4byte	.LVL193
 5997 0b01 51000000 		.4byte	.LVL197-1
 5998 0b05 0100     		.2byte	0x1
 5999 0b07 52       		.byte	0x52
 6000 0b08 00000000 		.4byte	0
 6001 0b0c 00000000 		.4byte	0
 6002              	.LLST50:
 6003 0b10 32000000 		.4byte	.LVL190
 6004 0b14 38000000 		.4byte	.LVL191
 6005 0b18 0200     		.2byte	0x2
 6006 0b1a 30       		.byte	0x30
 6007 0b1b 9F       		.byte	0x9f
 6008 0b1c 38000000 		.4byte	.LVL191
 6009 0b20 42000000 		.4byte	.LVL194
 6010 0b24 0100     		.2byte	0x1
 6011 0b26 53       		.byte	0x53
 6012 0b27 44000000 		.4byte	.LVL195
 6013 0b2b 51000000 		.4byte	.LVL197-1
 6014 0b2f 0100     		.2byte	0x1
ARM GAS  C:\Users\PANXIA~1\AppData\Local\Temp\cc1T2PPa.s 			page 120


 6015 0b31 53       		.byte	0x53
 6016 0b32 00000000 		.4byte	0
 6017 0b36 00000000 		.4byte	0
 6018              	.LLST51:
 6019 0b3a 00000000 		.4byte	.LVL221
 6020 0b3e 2A000000 		.4byte	.LVL229
 6021 0b42 0100     		.2byte	0x1
 6022 0b44 50       		.byte	0x50
 6023 0b45 2A000000 		.4byte	.LVL229
 6024 0b49 92000000 		.4byte	.LVL255
 6025 0b4d 0200     		.2byte	0x2
 6026 0b4f 91       		.byte	0x91
 6027 0b50 6E       		.sleb128 -18
 6028 0b51 92000000 		.4byte	.LVL255
 6029 0b55 98000000 		.4byte	.LFE73
 6030 0b59 0200     		.2byte	0x2
 6031 0b5b 7D       		.byte	0x7d
 6032 0b5c 6E       		.sleb128 -18
 6033 0b5d 00000000 		.4byte	0
 6034 0b61 00000000 		.4byte	0
 6035              	.LLST52:
 6036 0b65 00000000 		.4byte	.LVL221
 6037 0b69 30000000 		.4byte	.LVL232
 6038 0b6d 0100     		.2byte	0x1
 6039 0b6f 51       		.byte	0x51
 6040 0b70 30000000 		.4byte	.LVL232
 6041 0b74 92000000 		.4byte	.LVL255
 6042 0b78 0200     		.2byte	0x2
 6043 0b7a 91       		.byte	0x91
 6044 0b7b 6C       		.sleb128 -20
 6045 0b7c 92000000 		.4byte	.LVL255
 6046 0b80 98000000 		.4byte	.LFE73
 6047 0b84 0200     		.2byte	0x2
 6048 0b86 7D       		.byte	0x7d
 6049 0b87 6C       		.sleb128 -20
 6050 0b88 00000000 		.4byte	0
 6051 0b8c 00000000 		.4byte	0
 6052              	.LLST53:
 6053 0b90 00000000 		.4byte	.LVL221
 6054 0b94 36000000 		.4byte	.LVL235
 6055 0b98 0100     		.2byte	0x1
 6056 0b9a 52       		.byte	0x52
 6057 0b9b 36000000 		.4byte	.LVL235
 6058 0b9f 92000000 		.4byte	.LVL255
 6059 0ba3 0200     		.2byte	0x2
 6060 0ba5 91       		.byte	0x91
 6061 0ba6 6A       		.sleb128 -22
 6062 0ba7 92000000 		.4byte	.LVL255
 6063 0bab 98000000 		.4byte	.LFE73
 6064 0baf 0200     		.2byte	0x2
 6065 0bb1 7D       		.byte	0x7d
 6066 0bb2 6A       		.sleb128 -22
 6067 0bb3 00000000 		.4byte	0
 6068 0bb7 00000000 		.4byte	0
 6069              	.LLST54:
 6070 0bbb 00000000 		.4byte	.LVL221
 6071 0bbf 3E000000 		.4byte	.LVL238
ARM GAS  C:\Users\PANXIA~1\AppData\Local\Temp\cc1T2PPa.s 			page 121


 6072 0bc3 0100     		.2byte	0x1
 6073 0bc5 53       		.byte	0x53
 6074 0bc6 3E000000 		.4byte	.LVL238
 6075 0bca 90000000 		.4byte	.LVL254
 6076 0bce 0200     		.2byte	0x2
 6077 0bd0 7D       		.byte	0x7d
 6078 0bd1 00       		.sleb128 0
 6079 0bd2 90000000 		.4byte	.LVL254
 6080 0bd6 92000000 		.4byte	.LVL255
 6081 0bda 0200     		.2byte	0x2
 6082 0bdc 91       		.byte	0x91
 6083 0bdd 68       		.sleb128 -24
 6084 0bde 92000000 		.4byte	.LVL255
 6085 0be2 98000000 		.4byte	.LFE73
 6086 0be6 0200     		.2byte	0x2
 6087 0be8 7D       		.byte	0x7d
 6088 0be9 68       		.sleb128 -24
 6089 0bea 00000000 		.4byte	0
 6090 0bee 00000000 		.4byte	0
 6091              	.LLST55:
 6092 0bf2 00000000 		.4byte	.LVL221
 6093 0bf6 92000000 		.4byte	.LVL255
 6094 0bfa 0200     		.2byte	0x2
 6095 0bfc 91       		.byte	0x91
 6096 0bfd 00       		.sleb128 0
 6097 0bfe 92000000 		.4byte	.LVL255
 6098 0c02 98000000 		.4byte	.LFE73
 6099 0c06 0200     		.2byte	0x2
 6100 0c08 7D       		.byte	0x7d
 6101 0c09 00       		.sleb128 0
 6102 0c0a 00000000 		.4byte	0
 6103 0c0e 00000000 		.4byte	0
 6104              	.LLST56:
 6105 0c12 00000000 		.4byte	.LVL221
 6106 0c16 92000000 		.4byte	.LVL255
 6107 0c1a 0200     		.2byte	0x2
 6108 0c1c 91       		.byte	0x91
 6109 0c1d 04       		.sleb128 4
 6110 0c1e 92000000 		.4byte	.LVL255
 6111 0c22 98000000 		.4byte	.LFE73
 6112 0c26 0200     		.2byte	0x2
 6113 0c28 7D       		.byte	0x7d
 6114 0c29 04       		.sleb128 4
 6115 0c2a 00000000 		.4byte	0
 6116 0c2e 00000000 		.4byte	0
 6117              	.LLST57:
 6118 0c32 00000000 		.4byte	.LVL221
 6119 0c36 92000000 		.4byte	.LVL255
 6120 0c3a 0200     		.2byte	0x2
 6121 0c3c 91       		.byte	0x91
 6122 0c3d 08       		.sleb128 8
 6123 0c3e 92000000 		.4byte	.LVL255
 6124 0c42 98000000 		.4byte	.LFE73
 6125 0c46 0200     		.2byte	0x2
 6126 0c48 7D       		.byte	0x7d
 6127 0c49 08       		.sleb128 8
 6128 0c4a 00000000 		.4byte	0
ARM GAS  C:\Users\PANXIA~1\AppData\Local\Temp\cc1T2PPa.s 			page 122


 6129 0c4e 00000000 		.4byte	0
 6130              	.LLST58:
 6131 0c52 00000000 		.4byte	.LVL221
 6132 0c56 92000000 		.4byte	.LVL255
 6133 0c5a 0200     		.2byte	0x2
 6134 0c5c 91       		.byte	0x91
 6135 0c5d 0C       		.sleb128 12
 6136 0c5e 92000000 		.4byte	.LVL255
 6137 0c62 98000000 		.4byte	.LFE73
 6138 0c66 0200     		.2byte	0x2
 6139 0c68 7D       		.byte	0x7d
 6140 0c69 0C       		.sleb128 12
 6141 0c6a 00000000 		.4byte	0
 6142 0c6e 00000000 		.4byte	0
 6143              	.LLST59:
 6144 0c72 14000000 		.4byte	.LVL222
 6145 0c76 1A000000 		.4byte	.LVL223
 6146 0c7a 0200     		.2byte	0x2
 6147 0c7c 31       		.byte	0x31
 6148 0c7d 9F       		.byte	0x9f
 6149 0c7e 1A000000 		.4byte	.LVL223
 6150 0c82 1C000000 		.4byte	.LVL224
 6151 0c86 0200     		.2byte	0x2
 6152 0c88 32       		.byte	0x32
 6153 0c89 9F       		.byte	0x9f
 6154 0c8a 1C000000 		.4byte	.LVL224
 6155 0c8e 20000000 		.4byte	.LVL225
 6156 0c92 0200     		.2byte	0x2
 6157 0c94 33       		.byte	0x33
 6158 0c95 9F       		.byte	0x9f
 6159 0c96 20000000 		.4byte	.LVL225
 6160 0c9a 22000000 		.4byte	.LVL226
 6161 0c9e 0200     		.2byte	0x2
 6162 0ca0 34       		.byte	0x34
 6163 0ca1 9F       		.byte	0x9f
 6164 0ca2 22000000 		.4byte	.LVL226
 6165 0ca6 26000000 		.4byte	.LVL227
 6166 0caa 0200     		.2byte	0x2
 6167 0cac 35       		.byte	0x35
 6168 0cad 9F       		.byte	0x9f
 6169 0cae 26000000 		.4byte	.LVL227
 6170 0cb2 28000000 		.4byte	.LVL228
 6171 0cb6 0200     		.2byte	0x2
 6172 0cb8 36       		.byte	0x36
 6173 0cb9 9F       		.byte	0x9f
 6174 0cba 28000000 		.4byte	.LVL228
 6175 0cbe 2C000000 		.4byte	.LVL230
 6176 0cc2 0200     		.2byte	0x2
 6177 0cc4 37       		.byte	0x37
 6178 0cc5 9F       		.byte	0x9f
 6179 0cc6 2C000000 		.4byte	.LVL230
 6180 0cca 2E000000 		.4byte	.LVL231
 6181 0cce 0200     		.2byte	0x2
 6182 0cd0 38       		.byte	0x38
 6183 0cd1 9F       		.byte	0x9f
 6184 0cd2 2E000000 		.4byte	.LVL231
 6185 0cd6 32000000 		.4byte	.LVL233
ARM GAS  C:\Users\PANXIA~1\AppData\Local\Temp\cc1T2PPa.s 			page 123


 6186 0cda 0200     		.2byte	0x2
 6187 0cdc 39       		.byte	0x39
 6188 0cdd 9F       		.byte	0x9f
 6189 0cde 32000000 		.4byte	.LVL233
 6190 0ce2 34000000 		.4byte	.LVL234
 6191 0ce6 0200     		.2byte	0x2
 6192 0ce8 3A       		.byte	0x3a
 6193 0ce9 9F       		.byte	0x9f
 6194 0cea 34000000 		.4byte	.LVL234
 6195 0cee 38000000 		.4byte	.LVL236
 6196 0cf2 0200     		.2byte	0x2
 6197 0cf4 3B       		.byte	0x3b
 6198 0cf5 9F       		.byte	0x9f
 6199 0cf6 38000000 		.4byte	.LVL236
 6200 0cfa 3A000000 		.4byte	.LVL237
 6201 0cfe 0200     		.2byte	0x2
 6202 0d00 3C       		.byte	0x3c
 6203 0d01 9F       		.byte	0x9f
 6204 0d02 3A000000 		.4byte	.LVL237
 6205 0d06 40000000 		.4byte	.LVL239
 6206 0d0a 0200     		.2byte	0x2
 6207 0d0c 3D       		.byte	0x3d
 6208 0d0d 9F       		.byte	0x9f
 6209 0d0e 40000000 		.4byte	.LVL239
 6210 0d12 46000000 		.4byte	.LVL240
 6211 0d16 0200     		.2byte	0x2
 6212 0d18 3E       		.byte	0x3e
 6213 0d19 9F       		.byte	0x9f
 6214 0d1a 46000000 		.4byte	.LVL240
 6215 0d1e 4C000000 		.4byte	.LVL241
 6216 0d22 0200     		.2byte	0x2
 6217 0d24 3F       		.byte	0x3f
 6218 0d25 9F       		.byte	0x9f
 6219 0d26 4C000000 		.4byte	.LVL241
 6220 0d2a 52000000 		.4byte	.LVL242
 6221 0d2e 0200     		.2byte	0x2
 6222 0d30 40       		.byte	0x40
 6223 0d31 9F       		.byte	0x9f
 6224 0d32 52000000 		.4byte	.LVL242
 6225 0d36 58000000 		.4byte	.LVL243
 6226 0d3a 0200     		.2byte	0x2
 6227 0d3c 41       		.byte	0x41
 6228 0d3d 9F       		.byte	0x9f
 6229 0d3e 58000000 		.4byte	.LVL243
 6230 0d42 5E000000 		.4byte	.LVL244
 6231 0d46 0200     		.2byte	0x2
 6232 0d48 42       		.byte	0x42
 6233 0d49 9F       		.byte	0x9f
 6234 0d4a 5E000000 		.4byte	.LVL244
 6235 0d4e 64000000 		.4byte	.LVL245
 6236 0d52 0200     		.2byte	0x2
 6237 0d54 43       		.byte	0x43
 6238 0d55 9F       		.byte	0x9f
 6239 0d56 64000000 		.4byte	.LVL245
 6240 0d5a 84000000 		.4byte	.LVL252
 6241 0d5e 0200     		.2byte	0x2
 6242 0d60 44       		.byte	0x44
ARM GAS  C:\Users\PANXIA~1\AppData\Local\Temp\cc1T2PPa.s 			page 124


 6243 0d61 9F       		.byte	0x9f
 6244 0d62 84000000 		.4byte	.LVL252
 6245 0d66 98000000 		.4byte	.LFE73
 6246 0d6a 0200     		.2byte	0x2
 6247 0d6c 45       		.byte	0x45
 6248 0d6d 9F       		.byte	0x9f
 6249 0d6e 00000000 		.4byte	0
 6250 0d72 00000000 		.4byte	0
 6251              	.LLST60:
 6252 0d76 6E000000 		.4byte	.LVL246
 6253 0d7a 74000000 		.4byte	.LVL247
 6254 0d7e 0200     		.2byte	0x2
 6255 0d80 30       		.byte	0x30
 6256 0d81 9F       		.byte	0x9f
 6257 0d82 74000000 		.4byte	.LVL247
 6258 0d86 7A000000 		.4byte	.LVL248
 6259 0d8a 0100     		.2byte	0x1
 6260 0d8c 52       		.byte	0x52
 6261 0d8d 7C000000 		.4byte	.LVL249
 6262 0d91 8D000000 		.4byte	.LVL253-1
 6263 0d95 0100     		.2byte	0x1
 6264 0d97 52       		.byte	0x52
 6265 0d98 00000000 		.4byte	0
 6266 0d9c 00000000 		.4byte	0
 6267              	.LLST61:
 6268 0da0 6E000000 		.4byte	.LVL246
 6269 0da4 74000000 		.4byte	.LVL247
 6270 0da8 0200     		.2byte	0x2
 6271 0daa 30       		.byte	0x30
 6272 0dab 9F       		.byte	0x9f
 6273 0dac 74000000 		.4byte	.LVL247
 6274 0db0 7E000000 		.4byte	.LVL250
 6275 0db4 0100     		.2byte	0x1
 6276 0db6 53       		.byte	0x53
 6277 0db7 80000000 		.4byte	.LVL251
 6278 0dbb 8D000000 		.4byte	.LVL253-1
 6279 0dbf 0100     		.2byte	0x1
 6280 0dc1 53       		.byte	0x53
 6281 0dc2 00000000 		.4byte	0
 6282 0dc6 00000000 		.4byte	0
 6283              	.LLST62:
 6284 0dca 00000000 		.4byte	.LVL256
 6285 0dce 12000000 		.4byte	.LVL261
 6286 0dd2 0100     		.2byte	0x1
 6287 0dd4 50       		.byte	0x50
 6288 0dd5 12000000 		.4byte	.LVL261
 6289 0dd9 00010000 		.4byte	.LFE74
 6290 0ddd 0400     		.2byte	0x4
 6291 0ddf F3       		.byte	0xf3
 6292 0de0 01       		.uleb128 0x1
 6293 0de1 50       		.byte	0x50
 6294 0de2 9F       		.byte	0x9f
 6295 0de3 00000000 		.4byte	0
 6296 0de7 00000000 		.4byte	0
 6297              	.LLST63:
 6298 0deb 00000000 		.4byte	.LVL256
 6299 0def 1A000000 		.4byte	.LVL263
ARM GAS  C:\Users\PANXIA~1\AppData\Local\Temp\cc1T2PPa.s 			page 125


 6300 0df3 0100     		.2byte	0x1
 6301 0df5 51       		.byte	0x51
 6302 0df6 1A000000 		.4byte	.LVL263
 6303 0dfa 1D000000 		.4byte	.LVL264-1
 6304 0dfe 0100     		.2byte	0x1
 6305 0e00 50       		.byte	0x50
 6306 0e01 1D000000 		.4byte	.LVL264-1
 6307 0e05 00010000 		.4byte	.LFE74
 6308 0e09 0600     		.2byte	0x6
 6309 0e0b F3       		.byte	0xf3
 6310 0e0c 03       		.uleb128 0x3
 6311 0e0d F5       		.byte	0xf5
 6312 0e0e 01       		.uleb128 0x1
 6313 0e0f 25       		.uleb128 0x25
 6314 0e10 9F       		.byte	0x9f
 6315 0e11 00000000 		.4byte	0
 6316 0e15 00000000 		.4byte	0
 6317              	.LLST64:
 6318 0e19 00000000 		.4byte	.LVL256
 6319 0e1d 1D000000 		.4byte	.LVL264-1
 6320 0e21 0100     		.2byte	0x1
 6321 0e23 52       		.byte	0x52
 6322 0e24 1D000000 		.4byte	.LVL264-1
 6323 0e28 F6000000 		.4byte	.LVL300
 6324 0e2c 0100     		.2byte	0x1
 6325 0e2e 57       		.byte	0x57
 6326 0e2f F6000000 		.4byte	.LVL300
 6327 0e33 00010000 		.4byte	.LFE74
 6328 0e37 0600     		.2byte	0x6
 6329 0e39 F3       		.byte	0xf3
 6330 0e3a 03       		.uleb128 0x3
 6331 0e3b F5       		.byte	0xf5
 6332 0e3c 02       		.uleb128 0x2
 6333 0e3d 25       		.uleb128 0x25
 6334 0e3e 9F       		.byte	0x9f
 6335 0e3f 00000000 		.4byte	0
 6336 0e43 00000000 		.4byte	0
 6337              	.LLST65:
 6338 0e47 00000000 		.4byte	.LVL256
 6339 0e4b 0C000000 		.4byte	.LVL258
 6340 0e4f 0100     		.2byte	0x1
 6341 0e51 53       		.byte	0x53
 6342 0e52 0C000000 		.4byte	.LVL258
 6343 0e56 F6000000 		.4byte	.LVL300
 6344 0e5a 0100     		.2byte	0x1
 6345 0e5c 56       		.byte	0x56
 6346 0e5d F6000000 		.4byte	.LVL300
 6347 0e61 00010000 		.4byte	.LFE74
 6348 0e65 0600     		.2byte	0x6
 6349 0e67 F3       		.byte	0xf3
 6350 0e68 03       		.uleb128 0x3
 6351 0e69 F5       		.byte	0xf5
 6352 0e6a 03       		.uleb128 0x3
 6353 0e6b 25       		.uleb128 0x25
 6354 0e6c 9F       		.byte	0x9f
 6355 0e6d 00000000 		.4byte	0
 6356 0e71 00000000 		.4byte	0
ARM GAS  C:\Users\PANXIA~1\AppData\Local\Temp\cc1T2PPa.s 			page 126


 6357              	.LLST66:
 6358 0e75 00000000 		.4byte	.LVL256
 6359 0e79 F6000000 		.4byte	.LVL300
 6360 0e7d 0200     		.2byte	0x2
 6361 0e7f 91       		.byte	0x91
 6362 0e80 00       		.sleb128 0
 6363 0e81 F6000000 		.4byte	.LVL300
 6364 0e85 00010000 		.4byte	.LFE74
 6365 0e89 0200     		.2byte	0x2
 6366 0e8b 7D       		.byte	0x7d
 6367 0e8c 00       		.sleb128 0
 6368 0e8d 00000000 		.4byte	0
 6369 0e91 00000000 		.4byte	0
 6370              	.LLST67:
 6371 0e95 00000000 		.4byte	.LVL256
 6372 0e99 F6000000 		.4byte	.LVL300
 6373 0e9d 0200     		.2byte	0x2
 6374 0e9f 91       		.byte	0x91
 6375 0ea0 04       		.sleb128 4
 6376 0ea1 F6000000 		.4byte	.LVL300
 6377 0ea5 00010000 		.4byte	.LFE74
 6378 0ea9 0200     		.2byte	0x2
 6379 0eab 7D       		.byte	0x7d
 6380 0eac 04       		.sleb128 4
 6381 0ead 00000000 		.4byte	0
 6382 0eb1 00000000 		.4byte	0
 6383              	.LLST68:
 6384 0eb5 00000000 		.4byte	.LVL256
 6385 0eb9 F6000000 		.4byte	.LVL300
 6386 0ebd 0200     		.2byte	0x2
 6387 0ebf 91       		.byte	0x91
 6388 0ec0 08       		.sleb128 8
 6389 0ec1 F6000000 		.4byte	.LVL300
 6390 0ec5 00010000 		.4byte	.LFE74
 6391 0ec9 0200     		.2byte	0x2
 6392 0ecb 7D       		.byte	0x7d
 6393 0ecc 08       		.sleb128 8
 6394 0ecd 00000000 		.4byte	0
 6395 0ed1 00000000 		.4byte	0
 6396              	.LLST69:
 6397 0ed5 00000000 		.4byte	.LVL256
 6398 0ed9 F6000000 		.4byte	.LVL300
 6399 0edd 0200     		.2byte	0x2
 6400 0edf 91       		.byte	0x91
 6401 0ee0 0C       		.sleb128 12
 6402 0ee1 F6000000 		.4byte	.LVL300
 6403 0ee5 00010000 		.4byte	.LFE74
 6404 0ee9 0200     		.2byte	0x2
 6405 0eeb 7D       		.byte	0x7d
 6406 0eec 0C       		.sleb128 12
 6407 0eed 00000000 		.4byte	0
 6408 0ef1 00000000 		.4byte	0
 6409              	.LLST70:
 6410 0ef5 00000000 		.4byte	.LVL256
 6411 0ef9 F6000000 		.4byte	.LVL300
 6412 0efd 0200     		.2byte	0x2
 6413 0eff 91       		.byte	0x91
ARM GAS  C:\Users\PANXIA~1\AppData\Local\Temp\cc1T2PPa.s 			page 127


 6414 0f00 10       		.sleb128 16
 6415 0f01 F6000000 		.4byte	.LVL300
 6416 0f05 00010000 		.4byte	.LFE74
 6417 0f09 0200     		.2byte	0x2
 6418 0f0b 7D       		.byte	0x7d
 6419 0f0c 10       		.sleb128 16
 6420 0f0d 00000000 		.4byte	0
 6421 0f11 00000000 		.4byte	0
 6422              	.LLST71:
 6423 0f15 00000000 		.4byte	.LVL256
 6424 0f19 F6000000 		.4byte	.LVL300
 6425 0f1d 0200     		.2byte	0x2
 6426 0f1f 91       		.byte	0x91
 6427 0f20 14       		.sleb128 20
 6428 0f21 F6000000 		.4byte	.LVL300
 6429 0f25 00010000 		.4byte	.LFE74
 6430 0f29 0200     		.2byte	0x2
 6431 0f2b 7D       		.byte	0x7d
 6432 0f2c 14       		.sleb128 20
 6433 0f2d 00000000 		.4byte	0
 6434 0f31 00000000 		.4byte	0
 6435              	.LLST72:
 6436 0f35 08000000 		.4byte	.LVL257
 6437 0f39 0E000000 		.4byte	.LVL259
 6438 0f3d 0200     		.2byte	0x2
 6439 0f3f 31       		.byte	0x31
 6440 0f40 9F       		.byte	0x9f
 6441 0f41 0E000000 		.4byte	.LVL259
 6442 0f45 10000000 		.4byte	.LVL260
 6443 0f49 0200     		.2byte	0x2
 6444 0f4b 32       		.byte	0x32
 6445 0f4c 9F       		.byte	0x9f
 6446 0f4d 10000000 		.4byte	.LVL260
 6447 0f51 14000000 		.4byte	.LVL262
 6448 0f55 0200     		.2byte	0x2
 6449 0f57 33       		.byte	0x33
 6450 0f58 9F       		.byte	0x9f
 6451 0f59 14000000 		.4byte	.LVL262
 6452 0f5d 22000000 		.4byte	.LVL265
 6453 0f61 0200     		.2byte	0x2
 6454 0f63 34       		.byte	0x34
 6455 0f64 9F       		.byte	0x9f
 6456 0f65 22000000 		.4byte	.LVL265
 6457 0f69 28000000 		.4byte	.LVL266
 6458 0f6d 0200     		.2byte	0x2
 6459 0f6f 35       		.byte	0x35
 6460 0f70 9F       		.byte	0x9f
 6461 0f71 28000000 		.4byte	.LVL266
 6462 0f75 36000000 		.4byte	.LVL268
 6463 0f79 0200     		.2byte	0x2
 6464 0f7b 36       		.byte	0x36
 6465 0f7c 9F       		.byte	0x9f
 6466 0f7d 36000000 		.4byte	.LVL268
 6467 0f81 3C000000 		.4byte	.LVL269
 6468 0f85 0200     		.2byte	0x2
 6469 0f87 37       		.byte	0x37
 6470 0f88 9F       		.byte	0x9f
ARM GAS  C:\Users\PANXIA~1\AppData\Local\Temp\cc1T2PPa.s 			page 128


 6471 0f89 3C000000 		.4byte	.LVL269
 6472 0f8d 4A000000 		.4byte	.LVL271
 6473 0f91 0200     		.2byte	0x2
 6474 0f93 38       		.byte	0x38
 6475 0f94 9F       		.byte	0x9f
 6476 0f95 4A000000 		.4byte	.LVL271
 6477 0f99 50000000 		.4byte	.LVL272
 6478 0f9d 0200     		.2byte	0x2
 6479 0f9f 39       		.byte	0x39
 6480 0fa0 9F       		.byte	0x9f
 6481 0fa1 50000000 		.4byte	.LVL272
 6482 0fa5 5E000000 		.4byte	.LVL274
 6483 0fa9 0200     		.2byte	0x2
 6484 0fab 3A       		.byte	0x3a
 6485 0fac 9F       		.byte	0x9f
 6486 0fad 5E000000 		.4byte	.LVL274
 6487 0fb1 64000000 		.4byte	.LVL275
 6488 0fb5 0200     		.2byte	0x2
 6489 0fb7 3B       		.byte	0x3b
 6490 0fb8 9F       		.byte	0x9f
 6491 0fb9 64000000 		.4byte	.LVL275
 6492 0fbd 72000000 		.4byte	.LVL277
 6493 0fc1 0200     		.2byte	0x2
 6494 0fc3 3C       		.byte	0x3c
 6495 0fc4 9F       		.byte	0x9f
 6496 0fc5 72000000 		.4byte	.LVL277
 6497 0fc9 78000000 		.4byte	.LVL278
 6498 0fcd 0200     		.2byte	0x2
 6499 0fcf 3D       		.byte	0x3d
 6500 0fd0 9F       		.byte	0x9f
 6501 0fd1 78000000 		.4byte	.LVL278
 6502 0fd5 86000000 		.4byte	.LVL280
 6503 0fd9 0200     		.2byte	0x2
 6504 0fdb 3E       		.byte	0x3e
 6505 0fdc 9F       		.byte	0x9f
 6506 0fdd 86000000 		.4byte	.LVL280
 6507 0fe1 8C000000 		.4byte	.LVL281
 6508 0fe5 0200     		.2byte	0x2
 6509 0fe7 3F       		.byte	0x3f
 6510 0fe8 9F       		.byte	0x9f
 6511 0fe9 8C000000 		.4byte	.LVL281
 6512 0fed 9A000000 		.4byte	.LVL283
 6513 0ff1 0200     		.2byte	0x2
 6514 0ff3 40       		.byte	0x40
 6515 0ff4 9F       		.byte	0x9f
 6516 0ff5 9A000000 		.4byte	.LVL283
 6517 0ff9 A0000000 		.4byte	.LVL284
 6518 0ffd 0200     		.2byte	0x2
 6519 0fff 41       		.byte	0x41
 6520 1000 9F       		.byte	0x9f
 6521 1001 A0000000 		.4byte	.LVL284
 6522 1005 AE000000 		.4byte	.LVL286
 6523 1009 0200     		.2byte	0x2
 6524 100b 42       		.byte	0x42
 6525 100c 9F       		.byte	0x9f
 6526 100d AE000000 		.4byte	.LVL286
 6527 1011 B4000000 		.4byte	.LVL287
ARM GAS  C:\Users\PANXIA~1\AppData\Local\Temp\cc1T2PPa.s 			page 129


 6528 1015 0200     		.2byte	0x2
 6529 1017 43       		.byte	0x43
 6530 1018 9F       		.byte	0x9f
 6531 1019 B4000000 		.4byte	.LVL287
 6532 101d C6000000 		.4byte	.LVL290
 6533 1021 0200     		.2byte	0x2
 6534 1023 44       		.byte	0x44
 6535 1024 9F       		.byte	0x9f
 6536 1025 C6000000 		.4byte	.LVL290
 6537 1029 CC000000 		.4byte	.LVL291
 6538 102d 0200     		.2byte	0x2
 6539 102f 45       		.byte	0x45
 6540 1030 9F       		.byte	0x9f
 6541 1031 CC000000 		.4byte	.LVL291
 6542 1035 E8000000 		.4byte	.LVL298
 6543 1039 0200     		.2byte	0x2
 6544 103b 46       		.byte	0x46
 6545 103c 9F       		.byte	0x9f
 6546 103d E8000000 		.4byte	.LVL298
 6547 1041 00010000 		.4byte	.LFE74
 6548 1045 0200     		.2byte	0x2
 6549 1047 47       		.byte	0x47
 6550 1048 9F       		.byte	0x9f
 6551 1049 00000000 		.4byte	0
 6552 104d 00000000 		.4byte	0
 6553              	.LLST73:
 6554 1051 D2000000 		.4byte	.LVL292
 6555 1055 D8000000 		.4byte	.LVL293
 6556 1059 0200     		.2byte	0x2
 6557 105b 30       		.byte	0x30
 6558 105c 9F       		.byte	0x9f
 6559 105d D8000000 		.4byte	.LVL293
 6560 1061 DE000000 		.4byte	.LVL294
 6561 1065 0100     		.2byte	0x1
 6562 1067 52       		.byte	0x52
 6563 1068 E0000000 		.4byte	.LVL295
 6564 106c F1000000 		.4byte	.LVL299-1
 6565 1070 0100     		.2byte	0x1
 6566 1072 52       		.byte	0x52
 6567 1073 00000000 		.4byte	0
 6568 1077 00000000 		.4byte	0
 6569              	.LLST74:
 6570 107b D2000000 		.4byte	.LVL292
 6571 107f D8000000 		.4byte	.LVL293
 6572 1083 0200     		.2byte	0x2
 6573 1085 30       		.byte	0x30
 6574 1086 9F       		.byte	0x9f
 6575 1087 D8000000 		.4byte	.LVL293
 6576 108b E2000000 		.4byte	.LVL296
 6577 108f 0100     		.2byte	0x1
 6578 1091 53       		.byte	0x53
 6579 1092 E4000000 		.4byte	.LVL297
 6580 1096 F1000000 		.4byte	.LVL299-1
 6581 109a 0100     		.2byte	0x1
 6582 109c 53       		.byte	0x53
 6583 109d 00000000 		.4byte	0
 6584 10a1 00000000 		.4byte	0
ARM GAS  C:\Users\PANXIA~1\AppData\Local\Temp\cc1T2PPa.s 			page 130


 6585              	.LLST75:
 6586 10a5 00000000 		.4byte	.LVL301
 6587 10a9 90000000 		.4byte	.LVL338
 6588 10ad 0100     		.2byte	0x1
 6589 10af 50       		.byte	0x50
 6590 10b0 90000000 		.4byte	.LVL338
 6591 10b4 A0000000 		.4byte	.LFE75
 6592 10b8 0400     		.2byte	0x4
 6593 10ba F3       		.byte	0xf3
 6594 10bb 01       		.uleb128 0x1
 6595 10bc 50       		.byte	0x50
 6596 10bd 9F       		.byte	0x9f
 6597 10be 00000000 		.4byte	0
 6598 10c2 00000000 		.4byte	0
 6599              	.LLST76:
 6600 10c6 02000000 		.4byte	.LVL302
 6601 10ca 08000000 		.4byte	.LVL303
 6602 10ce 0200     		.2byte	0x2
 6603 10d0 31       		.byte	0x31
 6604 10d1 9F       		.byte	0x9f
 6605 10d2 08000000 		.4byte	.LVL303
 6606 10d6 0A000000 		.4byte	.LVL304
 6607 10da 0200     		.2byte	0x2
 6608 10dc 32       		.byte	0x32
 6609 10dd 9F       		.byte	0x9f
 6610 10de 0A000000 		.4byte	.LVL304
 6611 10e2 0E000000 		.4byte	.LVL305
 6612 10e6 0200     		.2byte	0x2
 6613 10e8 33       		.byte	0x33
 6614 10e9 9F       		.byte	0x9f
 6615 10ea 0E000000 		.4byte	.LVL305
 6616 10ee 12000000 		.4byte	.LVL306
 6617 10f2 0200     		.2byte	0x2
 6618 10f4 34       		.byte	0x34
 6619 10f5 9F       		.byte	0x9f
 6620 10f6 12000000 		.4byte	.LVL306
 6621 10fa 16000000 		.4byte	.LVL307
 6622 10fe 0200     		.2byte	0x2
 6623 1100 35       		.byte	0x35
 6624 1101 9F       		.byte	0x9f
 6625 1102 16000000 		.4byte	.LVL307
 6626 1106 1A000000 		.4byte	.LVL308
 6627 110a 0200     		.2byte	0x2
 6628 110c 36       		.byte	0x36
 6629 110d 9F       		.byte	0x9f
 6630 110e 1A000000 		.4byte	.LVL308
 6631 1112 1E000000 		.4byte	.LVL309
 6632 1116 0200     		.2byte	0x2
 6633 1118 37       		.byte	0x37
 6634 1119 9F       		.byte	0x9f
 6635 111a 1E000000 		.4byte	.LVL309
 6636 111e 22000000 		.4byte	.LVL310
 6637 1122 0200     		.2byte	0x2
 6638 1124 38       		.byte	0x38
 6639 1125 9F       		.byte	0x9f
 6640 1126 22000000 		.4byte	.LVL310
 6641 112a 26000000 		.4byte	.LVL311
ARM GAS  C:\Users\PANXIA~1\AppData\Local\Temp\cc1T2PPa.s 			page 131


 6642 112e 0200     		.2byte	0x2
 6643 1130 39       		.byte	0x39
 6644 1131 9F       		.byte	0x9f
 6645 1132 26000000 		.4byte	.LVL311
 6646 1136 2A000000 		.4byte	.LVL312
 6647 113a 0200     		.2byte	0x2
 6648 113c 3A       		.byte	0x3a
 6649 113d 9F       		.byte	0x9f
 6650 113e 2A000000 		.4byte	.LVL312
 6651 1142 2E000000 		.4byte	.LVL313
 6652 1146 0200     		.2byte	0x2
 6653 1148 3B       		.byte	0x3b
 6654 1149 9F       		.byte	0x9f
 6655 114a 2E000000 		.4byte	.LVL313
 6656 114e 32000000 		.4byte	.LVL314
 6657 1152 0200     		.2byte	0x2
 6658 1154 3C       		.byte	0x3c
 6659 1155 9F       		.byte	0x9f
 6660 1156 32000000 		.4byte	.LVL314
 6661 115a 36000000 		.4byte	.LVL315
 6662 115e 0200     		.2byte	0x2
 6663 1160 3D       		.byte	0x3d
 6664 1161 9F       		.byte	0x9f
 6665 1162 36000000 		.4byte	.LVL315
 6666 1166 3A000000 		.4byte	.LVL316
 6667 116a 0200     		.2byte	0x2
 6668 116c 3E       		.byte	0x3e
 6669 116d 9F       		.byte	0x9f
 6670 116e 3A000000 		.4byte	.LVL316
 6671 1172 3E000000 		.4byte	.LVL317
 6672 1176 0200     		.2byte	0x2
 6673 1178 3F       		.byte	0x3f
 6674 1179 9F       		.byte	0x9f
 6675 117a 3E000000 		.4byte	.LVL317
 6676 117e 42000000 		.4byte	.LVL318
 6677 1182 0200     		.2byte	0x2
 6678 1184 40       		.byte	0x40
 6679 1185 9F       		.byte	0x9f
 6680 1186 42000000 		.4byte	.LVL318
 6681 118a 46000000 		.4byte	.LVL319
 6682 118e 0200     		.2byte	0x2
 6683 1190 41       		.byte	0x41
 6684 1191 9F       		.byte	0x9f
 6685 1192 46000000 		.4byte	.LVL319
 6686 1196 4A000000 		.4byte	.LVL320
 6687 119a 0200     		.2byte	0x2
 6688 119c 42       		.byte	0x42
 6689 119d 9F       		.byte	0x9f
 6690 119e 4A000000 		.4byte	.LVL320
 6691 11a2 4E000000 		.4byte	.LVL321
 6692 11a6 0200     		.2byte	0x2
 6693 11a8 43       		.byte	0x43
 6694 11a9 9F       		.byte	0x9f
 6695 11aa 4E000000 		.4byte	.LVL321
 6696 11ae 52000000 		.4byte	.LVL322
 6697 11b2 0200     		.2byte	0x2
 6698 11b4 44       		.byte	0x44
ARM GAS  C:\Users\PANXIA~1\AppData\Local\Temp\cc1T2PPa.s 			page 132


 6699 11b5 9F       		.byte	0x9f
 6700 11b6 52000000 		.4byte	.LVL322
 6701 11ba 56000000 		.4byte	.LVL323
 6702 11be 0200     		.2byte	0x2
 6703 11c0 45       		.byte	0x45
 6704 11c1 9F       		.byte	0x9f
 6705 11c2 56000000 		.4byte	.LVL323
 6706 11c6 5A000000 		.4byte	.LVL324
 6707 11ca 0200     		.2byte	0x2
 6708 11cc 46       		.byte	0x46
 6709 11cd 9F       		.byte	0x9f
 6710 11ce 5A000000 		.4byte	.LVL324
 6711 11d2 5E000000 		.4byte	.LVL325
 6712 11d6 0200     		.2byte	0x2
 6713 11d8 47       		.byte	0x47
 6714 11d9 9F       		.byte	0x9f
 6715 11da 5E000000 		.4byte	.LVL325
 6716 11de 62000000 		.4byte	.LVL326
 6717 11e2 0200     		.2byte	0x2
 6718 11e4 48       		.byte	0x48
 6719 11e5 9F       		.byte	0x9f
 6720 11e6 62000000 		.4byte	.LVL326
 6721 11ea 66000000 		.4byte	.LVL327
 6722 11ee 0200     		.2byte	0x2
 6723 11f0 49       		.byte	0x49
 6724 11f1 9F       		.byte	0x9f
 6725 11f2 66000000 		.4byte	.LVL327
 6726 11f6 6A000000 		.4byte	.LVL328
 6727 11fa 0200     		.2byte	0x2
 6728 11fc 4A       		.byte	0x4a
 6729 11fd 9F       		.byte	0x9f
 6730 11fe 6A000000 		.4byte	.LVL328
 6731 1202 6E000000 		.4byte	.LVL329
 6732 1206 0200     		.2byte	0x2
 6733 1208 4B       		.byte	0x4b
 6734 1209 9F       		.byte	0x9f
 6735 120a 6E000000 		.4byte	.LVL329
 6736 120e 72000000 		.4byte	.LVL330
 6737 1212 0200     		.2byte	0x2
 6738 1214 4C       		.byte	0x4c
 6739 1215 9F       		.byte	0x9f
 6740 1216 72000000 		.4byte	.LVL330
 6741 121a 8E000000 		.4byte	.LVL337
 6742 121e 0200     		.2byte	0x2
 6743 1220 4D       		.byte	0x4d
 6744 1221 9F       		.byte	0x9f
 6745 1222 8E000000 		.4byte	.LVL337
 6746 1226 A0000000 		.4byte	.LFE75
 6747 122a 0200     		.2byte	0x2
 6748 122c 4E       		.byte	0x4e
 6749 122d 9F       		.byte	0x9f
 6750 122e 00000000 		.4byte	0
 6751 1232 00000000 		.4byte	0
 6752              	.LLST77:
 6753 1236 7A000000 		.4byte	.LVL331
 6754 123a 7E000000 		.4byte	.LVL332
 6755 123e 0200     		.2byte	0x2
ARM GAS  C:\Users\PANXIA~1\AppData\Local\Temp\cc1T2PPa.s 			page 133


 6756 1240 30       		.byte	0x30
 6757 1241 9F       		.byte	0x9f
 6758 1242 7E000000 		.4byte	.LVL332
 6759 1246 84000000 		.4byte	.LVL333
 6760 124a 0100     		.2byte	0x1
 6761 124c 52       		.byte	0x52
 6762 124d 86000000 		.4byte	.LVL334
 6763 1251 97000000 		.4byte	.LVL339-1
 6764 1255 0100     		.2byte	0x1
 6765 1257 52       		.byte	0x52
 6766 1258 00000000 		.4byte	0
 6767 125c 00000000 		.4byte	0
 6768              	.LLST78:
 6769 1260 7A000000 		.4byte	.LVL331
 6770 1264 7E000000 		.4byte	.LVL332
 6771 1268 0200     		.2byte	0x2
 6772 126a 30       		.byte	0x30
 6773 126b 9F       		.byte	0x9f
 6774 126c 7E000000 		.4byte	.LVL332
 6775 1270 88000000 		.4byte	.LVL335
 6776 1274 0100     		.2byte	0x1
 6777 1276 53       		.byte	0x53
 6778 1277 8A000000 		.4byte	.LVL336
 6779 127b 97000000 		.4byte	.LVL339-1
 6780 127f 0100     		.2byte	0x1
 6781 1281 53       		.byte	0x53
 6782 1282 00000000 		.4byte	0
 6783 1286 00000000 		.4byte	0
 6784              	.LLST79:
 6785 128a 00000000 		.4byte	.LVL340
 6786 128e 2B000000 		.4byte	.LVL348-1
 6787 1292 0100     		.2byte	0x1
 6788 1294 50       		.byte	0x50
 6789 1295 2B000000 		.4byte	.LVL348-1
 6790 1299 2E000000 		.4byte	.LFE76
 6791 129d 0400     		.2byte	0x4
 6792 129f F3       		.byte	0xf3
 6793 12a0 01       		.uleb128 0x1
 6794 12a1 50       		.byte	0x50
 6795 12a2 9F       		.byte	0x9f
 6796 12a3 00000000 		.4byte	0
 6797 12a7 00000000 		.4byte	0
 6798              	.LLST80:
 6799 12ab 10000000 		.4byte	.LVL342
 6800 12af 14000000 		.4byte	.LVL343
 6801 12b3 0200     		.2byte	0x2
 6802 12b5 30       		.byte	0x30
 6803 12b6 9F       		.byte	0x9f
 6804 12b7 14000000 		.4byte	.LVL343
 6805 12bb 18000000 		.4byte	.LVL344
 6806 12bf 0100     		.2byte	0x1
 6807 12c1 52       		.byte	0x52
 6808 12c2 1A000000 		.4byte	.LVL345
 6809 12c6 2B000000 		.4byte	.LVL348-1
 6810 12ca 0100     		.2byte	0x1
 6811 12cc 52       		.byte	0x52
 6812 12cd 00000000 		.4byte	0
ARM GAS  C:\Users\PANXIA~1\AppData\Local\Temp\cc1T2PPa.s 			page 134


 6813 12d1 00000000 		.4byte	0
 6814              	.LLST81:
 6815 12d5 10000000 		.4byte	.LVL342
 6816 12d9 14000000 		.4byte	.LVL343
 6817 12dd 0200     		.2byte	0x2
 6818 12df 30       		.byte	0x30
 6819 12e0 9F       		.byte	0x9f
 6820 12e1 14000000 		.4byte	.LVL343
 6821 12e5 1C000000 		.4byte	.LVL346
 6822 12e9 0100     		.2byte	0x1
 6823 12eb 53       		.byte	0x53
 6824 12ec 1E000000 		.4byte	.LVL347
 6825 12f0 2B000000 		.4byte	.LVL348-1
 6826 12f4 0100     		.2byte	0x1
 6827 12f6 53       		.byte	0x53
 6828 12f7 00000000 		.4byte	0
 6829 12fb 00000000 		.4byte	0
 6830              		.section	.debug_aranges,"",%progbits
 6831 0000 84000000 		.4byte	0x84
 6832 0004 0200     		.2byte	0x2
 6833 0006 00000000 		.4byte	.Ldebug_info0
 6834 000a 04       		.byte	0x4
 6835 000b 00       		.byte	0
 6836 000c 0000     		.2byte	0
 6837 000e 0000     		.2byte	0
 6838 0010 00000000 		.4byte	.LFB64
 6839 0014 08000000 		.4byte	.LFE64-.LFB64
 6840 0018 00000000 		.4byte	.LFB65
 6841 001c 3C000000 		.4byte	.LFE65-.LFB65
 6842 0020 00000000 		.4byte	.LFB67
 6843 0024 0C020000 		.4byte	.LFE67-.LFB67
 6844 0028 00000000 		.4byte	.LFB66
 6845 002c AC000000 		.4byte	.LFE66-.LFB66
 6846 0030 00000000 		.4byte	.LFB68
 6847 0034 70000000 		.4byte	.LFE68-.LFB68
 6848 0038 00000000 		.4byte	.LFB69
 6849 003c 68000000 		.4byte	.LFE69-.LFB69
 6850 0040 00000000 		.4byte	.LFB70
 6851 0044 B8000000 		.4byte	.LFE70-.LFB70
 6852 0048 00000000 		.4byte	.LFB71
 6853 004c 50000000 		.4byte	.LFE71-.LFB71
 6854 0050 00000000 		.4byte	.LFB72
 6855 0054 5C000000 		.4byte	.LFE72-.LFB72
 6856 0058 00000000 		.4byte	.LFB63
 6857 005c 20020000 		.4byte	.LFE63-.LFB63
 6858 0060 00000000 		.4byte	.LFB73
 6859 0064 98000000 		.4byte	.LFE73-.LFB73
 6860 0068 00000000 		.4byte	.LFB74
 6861 006c 00010000 		.4byte	.LFE74-.LFB74
 6862 0070 00000000 		.4byte	.LFB75
 6863 0074 A0000000 		.4byte	.LFE75-.LFB75
 6864 0078 00000000 		.4byte	.LFB76
 6865 007c 2E000000 		.4byte	.LFE76-.LFB76
 6866 0080 00000000 		.4byte	0
 6867 0084 00000000 		.4byte	0
 6868              		.section	.debug_ranges,"",%progbits
 6869              	.Ldebug_ranges0:
ARM GAS  C:\Users\PANXIA~1\AppData\Local\Temp\cc1T2PPa.s 			page 135


 6870 0000 00000000 		.4byte	.LFB64
 6871 0004 08000000 		.4byte	.LFE64
 6872 0008 00000000 		.4byte	.LFB65
 6873 000c 3C000000 		.4byte	.LFE65
 6874 0010 00000000 		.4byte	.LFB67
 6875 0014 0C020000 		.4byte	.LFE67
 6876 0018 00000000 		.4byte	.LFB66
 6877 001c AC000000 		.4byte	.LFE66
 6878 0020 00000000 		.4byte	.LFB68
 6879 0024 70000000 		.4byte	.LFE68
 6880 0028 00000000 		.4byte	.LFB69
 6881 002c 68000000 		.4byte	.LFE69
 6882 0030 00000000 		.4byte	.LFB70
 6883 0034 B8000000 		.4byte	.LFE70
 6884 0038 00000000 		.4byte	.LFB71
 6885 003c 50000000 		.4byte	.LFE71
 6886 0040 00000000 		.4byte	.LFB72
 6887 0044 5C000000 		.4byte	.LFE72
 6888 0048 00000000 		.4byte	.LFB63
 6889 004c 20020000 		.4byte	.LFE63
 6890 0050 00000000 		.4byte	.LFB73
 6891 0054 98000000 		.4byte	.LFE73
 6892 0058 00000000 		.4byte	.LFB74
 6893 005c 00010000 		.4byte	.LFE74
 6894 0060 00000000 		.4byte	.LFB75
 6895 0064 A0000000 		.4byte	.LFE75
 6896 0068 00000000 		.4byte	.LFB76
 6897 006c 2E000000 		.4byte	.LFE76
 6898 0070 00000000 		.4byte	0
 6899 0074 00000000 		.4byte	0
 6900              		.section	.debug_line,"",%progbits
 6901              	.Ldebug_line0:
 6902 0000 04050000 		.section	.debug_str,"MS",%progbits,1
 6902      0200D101 
 6902      00000201 
 6902      FB0E0D00 
 6902      01010101 
 6903              	.LASF24:
 6904 0000 55505F52 		.ascii	"UP_RIGHT\000"
 6904      49474854 
 6904      00
 6905              	.LASF50:
 6906 0009 7365745F 		.ascii	"set_car_speed\000"
 6906      6361725F 
 6906      73706565 
 6906      6400
 6907              	.LASF27:
 6908 0017 53544F50 		.ascii	"STOP\000"
 6908      00
 6909              	.LASF157:
 6910 001c 55415254 		.ascii	"UART_net_PutArray\000"
 6910      5F6E6574 
 6910      5F507574 
 6910      41727261 
 6910      7900
 6911              	.LASF171:
 6912 002e 50574D5F 		.ascii	"PWM_LED_4_WritePeriod\000"
ARM GAS  C:\Users\PANXIA~1\AppData\Local\Temp\cc1T2PPa.s 			page 136


 6912      4C45445F 
 6912      345F5772 
 6912      69746550 
 6912      6572696F 
 6913              	.LASF56:
 6914 0044 73746565 		.ascii	"steering_set_positon1\000"
 6914      72696E67 
 6914      5F736574 
 6914      5F706F73 
 6914      69746F6E 
 6915              	.LASF118:
 6916 005a 6361725F 		.ascii	"car_speed\000"
 6916      73706565 
 6916      6400
 6917              	.LASF41:
 6918 0064 68617264 		.ascii	"hardware_ver\000"
 6918      77617265 
 6918      5F766572 
 6918      00
 6919              	.LASF9:
 6920 0071 756E7369 		.ascii	"unsigned int\000"
 6920      676E6564 
 6920      20696E74 
 6920      00
 6921              	.LASF38:
 6922 007e 6361725F 		.ascii	"car_runing_time\000"
 6922      72756E69 
 6922      6E675F74 
 6922      696D6500 
 6923              	.LASF120:
 6924 008e 5F74656D 		.ascii	"_temp\000"
 6924      7000
 6925              	.LASF99:
 6926 0094 68656164 		.ascii	"head\000"
 6926      00
 6927              	.LASF10:
 6928 0099 5F5F696E 		.ascii	"__int32_t\000"
 6928      7433325F 
 6928      7400
 6929              	.LASF15:
 6930 00a3 696E7431 		.ascii	"int16\000"
 6930      3600
 6931              	.LASF95:
 6932 00a9 70697463 		.ascii	"pitch\000"
 6932      6800
 6933              	.LASF127:
 6934 00af 44545F53 		.ascii	"DT_Send_Power\000"
 6934      656E645F 
 6934      506F7765 
 6934      7200
 6935              	.LASF117:
 6936 00bd 6361725F 		.ascii	"car_dir\000"
 6936      64697200 
 6937              	.LASF132:
 6938 00c5 74656D70 		.ascii	"temp_yaw\000"
 6938      5F796177 
 6938      00
ARM GAS  C:\Users\PANXIA~1\AppData\Local\Temp\cc1T2PPa.s 			page 137


 6939              	.LASF168:
 6940 00ce 463A5C70 		.ascii	"F:\\project\\robot\\T1\\FW\\trunk\\robot_car_V5\\ca"
 6940      726F6A65 
 6940      63745C72 
 6940      6F626F74 
 6940      5C54315C 
 6941 00fa 722E6379 		.ascii	"r.cydsn\000"
 6941      64736E00 
 6942              	.LASF88:
 6943 0102 64745F66 		.ascii	"dt_flag_t\000"
 6943      6C61675F 
 6943      7400
 6944              	.LASF23:
 6945 010c 55505F4C 		.ascii	"UP_LEFT\000"
 6945      45465400 
 6946              	.LASF105:
 6947 0114 74656D70 		.ascii	"temp16\000"
 6947      313600
 6948              	.LASF158:
 6949 011b 50574D5F 		.ascii	"PWM_LED_1_WriteCompare\000"
 6949      4C45445F 
 6949      315F5772 
 6949      69746543 
 6949      6F6D7061 
 6950              	.LASF86:
 6951 0132 73656E64 		.ascii	"send_motopwm\000"
 6951      5F6D6F74 
 6951      6F70776D 
 6951      00
 6952              	.LASF48:
 6953 013f 7072655F 		.ascii	"pre_dir\000"
 6953      64697200 
 6954              	.LASF31:
 6955 0147 464F5257 		.ascii	"FORWARD\000"
 6955      41524400 
 6956              	.LASF123:
 6957 014f 44545F53 		.ascii	"DT_Send_Senser\000"
 6957      656E645F 
 6957      53656E73 
 6957      657200
 6958              	.LASF66:
 6959 015e 4D5F7265 		.ascii	"M_result\000"
 6959      73756C74 
 6959      00
 6960              	.LASF72:
 6961 0167 62617474 		.ascii	"batteryTemp\000"
 6961      65727954 
 6961      656D7000 
 6962              	.LASF0:
 6963 0173 666C6F61 		.ascii	"float\000"
 6963      7400
 6964              	.LASF16:
 6965 0179 696E7433 		.ascii	"int32\000"
 6965      3200
 6966              	.LASF26:
 6967 017f 444F574E 		.ascii	"DOWN_RIGHT\000"
 6967      5F524947 
ARM GAS  C:\Users\PANXIA~1\AppData\Local\Temp\cc1T2PPa.s 			page 138


 6967      485400
 6968              	.LASF152:
 6969 018a 44545F53 		.ascii	"DT_Send_Lidar\000"
 6969      656E645F 
 6969      4C696461 
 6969      7200
 6970              	.LASF8:
 6971 0198 6C6F6E67 		.ascii	"long long unsigned int\000"
 6971      206C6F6E 
 6971      6720756E 
 6971      7369676E 
 6971      65642069 
 6972              	.LASF167:
 6973 01af 2E5C5472 		.ascii	".\\Transfer.c\000"
 6973      616E7366 
 6973      65722E63 
 6973      00
 6974              	.LASF47:
 6975 01bc 7365745F 		.ascii	"set_ptz_dir\000"
 6975      70747A5F 
 6975      64697200 
 6976              	.LASF42:
 6977 01c8 736F6674 		.ascii	"software_ver\000"
 6977      77617265 
 6977      5F766572 
 6977      00
 6978              	.LASF51:
 6979 01d5 6C656674 		.ascii	"left_front_wheel\000"
 6979      5F66726F 
 6979      6E745F77 
 6979      6865656C 
 6979      00
 6980              	.LASF122:
 6981 01e6 5F74656D 		.ascii	"_temp2\000"
 6981      703200
 6982              	.LASF159:
 6983 01ed 50574D5F 		.ascii	"PWM_LED_2_WriteCompare\000"
 6983      4C45445F 
 6983      325F5772 
 6983      69746543 
 6983      6F6D7061 
 6984              	.LASF169:
 6985 0204 44545F53 		.ascii	"DT_Send_Check\000"
 6985      656E645F 
 6985      43686563 
 6985      6B00
 6986              	.LASF78:
 6987 0212 73656E64 		.ascii	"send_pid1\000"
 6987      5F706964 
 6987      3100
 6988              	.LASF79:
 6989 021c 73656E64 		.ascii	"send_pid2\000"
 6989      5F706964 
 6989      3200
 6990              	.LASF80:
 6991 0226 73656E64 		.ascii	"send_pid3\000"
 6991      5F706964 
ARM GAS  C:\Users\PANXIA~1\AppData\Local\Temp\cc1T2PPa.s 			page 139


 6991      3300
 6992              	.LASF29:
 6993 0230 4341525F 		.ascii	"CAR_DIR\000"
 6993      44495200 
 6994              	.LASF82:
 6995 0238 73656E64 		.ascii	"send_pid5\000"
 6995      5F706964 
 6995      3500
 6996              	.LASF83:
 6997 0242 73656E64 		.ascii	"send_pid6\000"
 6997      5F706964 
 6997      3600
 6998              	.LASF64:
 6999 024c 4D5F7661 		.ascii	"M_value\000"
 6999      6C756500 
 7000              	.LASF146:
 7001 0254 70325F64 		.ascii	"p2_d\000"
 7001      00
 7002              	.LASF145:
 7003 0259 70325F69 		.ascii	"p2_i\000"
 7003      00
 7004              	.LASF116:
 7005 025e 6361725F 		.ascii	"car_lock\000"
 7005      6C6F636B 
 7005      00
 7006              	.LASF153:
 7007 0267 49544D5F 		.ascii	"ITM_RxBuffer\000"
 7007      52784275 
 7007      66666572 
 7007      00
 7008              	.LASF113:
 7009 0274 72756E5F 		.ascii	"run_count\000"
 7009      636F756E 
 7009      7400
 7010              	.LASF144:
 7011 027e 70325F70 		.ascii	"p2_p\000"
 7011      00
 7012              	.LASF54:
 7013 0283 72696768 		.ascii	"right_behind_wheel\000"
 7013      745F6265 
 7013      68696E64 
 7013      5F776865 
 7013      656C00
 7014              	.LASF170:
 7015 0296 50574D5F 		.ascii	"PWM_LED_1_ReadPeriod\000"
 7015      4C45445F 
 7015      315F5265 
 7015      61645065 
 7015      72696F64 
 7016              	.LASF32:
 7017 02ab 52455645 		.ascii	"REVERSAL\000"
 7017      5253414C 
 7017      00
 7018              	.LASF129:
 7019 02b4 44545F44 		.ascii	"DT_Data_Exchange\000"
 7019      6174615F 
 7019      45786368 
ARM GAS  C:\Users\PANXIA~1\AppData\Local\Temp\cc1T2PPa.s 			page 140


 7019      616E6765 
 7019      00
 7020              	.LASF59:
 7021 02c5 68656172 		.ascii	"hearting\000"
 7021      74696E67 
 7021      00
 7022              	.LASF40:
 7023 02ce 746F746F 		.ascii	"totol_run_time\000"
 7023      6C5F7275 
 7023      6E5F7469 
 7023      6D6500
 7024              	.LASF45:
 7025 02dd 6572726F 		.ascii	"error\000"
 7025      7200
 7026              	.LASF100:
 7027 02e3 63686563 		.ascii	"check_sum\000"
 7027      6B5F7375 
 7027      6D00
 7028              	.LASF133:
 7029 02ed 73656E73 		.ascii	"senser_cnt\000"
 7029      65725F63 
 7029      6E7400
 7030              	.LASF75:
 7031 02f8 73656E64 		.ascii	"send_version\000"
 7031      5F766572 
 7031      73696F6E 
 7031      00
 7032              	.LASF128:
 7033 0305 42617474 		.ascii	"BatteryTemp\000"
 7033      65727954 
 7033      656D7000 
 7034              	.LASF70:
 7035 0311 73706565 		.ascii	"speed_control_preiod\000"
 7035      645F636F 
 7035      6E74726F 
 7035      6C5F7072 
 7035      65696F64 
 7036              	.LASF18:
 7037 0326 63686172 		.ascii	"char\000"
 7037      00
 7038              	.LASF108:
 7039 032b 52784275 		.ascii	"RxBuffer\000"
 7039      66666572 
 7039      00
 7040              	.LASF92:
 7041 0334 6779725F 		.ascii	"gyr_x\000"
 7041      7800
 7042              	.LASF93:
 7043 033a 6779725F 		.ascii	"gyr_y\000"
 7043      7900
 7044              	.LASF94:
 7045 0340 6779725F 		.ascii	"gyr_z\000"
 7045      7A00
 7046              	.LASF13:
 7047 0346 75696E74 		.ascii	"uint16\000"
 7047      313600
 7048              	.LASF107:
ARM GAS  C:\Users\PANXIA~1\AppData\Local\Temp\cc1T2PPa.s 			page 141


 7049 034d 64617461 		.ascii	"data\000"
 7049      00
 7050              	.LASF124:
 7051 0352 44545F53 		.ascii	"DT_Send_Distance\000"
 7051      656E645F 
 7051      44697374 
 7051      616E6365 
 7051      00
 7052              	.LASF35:
 7053 0363 4E554C4C 		.ascii	"NULL_S\000"
 7053      5F5300
 7054              	.LASF96:
 7055 036a 726F6C6C 		.ascii	"roll\000"
 7055      00
 7056              	.LASF121:
 7057 036f 5F74656D 		.ascii	"_temp1\000"
 7057      703100
 7058              	.LASF21:
 7059 0376 4C454654 		.ascii	"LEFT\000"
 7059      00
 7060              	.LASF22:
 7061 037b 52494748 		.ascii	"RIGHT\000"
 7061      5400
 7062              	.LASF34:
 7063 0381 535F5748 		.ascii	"S_WHEEL\000"
 7063      45454C00 
 7064              	.LASF33:
 7065 0389 57484545 		.ascii	"WHEEL_STOP\000"
 7065      4C5F5354 
 7065      4F5000
 7066              	.LASF138:
 7067 0394 44545F53 		.ascii	"DT_Send_MotoPWM\000"
 7067      656E645F 
 7067      4D6F746F 
 7067      50574D00 
 7068              	.LASF109:
 7069 03a4 5F646174 		.ascii	"_data_len\000"
 7069      615F6C65 
 7069      6E00
 7070              	.LASF39:
 7071 03ae 6C617374 		.ascii	"last_run_time\000"
 7071      5F72756E 
 7071      5F74696D 
 7071      6500
 7072              	.LASF67:
 7073 03bc 66616C6C 		.ascii	"fallback_mode\000"
 7073      6261636B 
 7073      5F6D6F64 
 7073      6500
 7074              	.LASF7:
 7075 03ca 6C6F6E67 		.ascii	"long long int\000"
 7075      206C6F6E 
 7075      6720696E 
 7075      7400
 7076              	.LASF110:
 7077 03d8 5F646174 		.ascii	"_data_cnt\000"
 7077      615F636E 
ARM GAS  C:\Users\PANXIA~1\AppData\Local\Temp\cc1T2PPa.s 			page 142


 7077      7400
 7078              	.LASF151:
 7079 03e2 74656D70 		.ascii	"temp_nodebuf\000"
 7079      5F6E6F64 
 7079      65627566 
 7079      00
 7080              	.LASF49:
 7081 03ef 7365745F 		.ascii	"set_push_dir\000"
 7081      70757368 
 7081      5F646972 
 7081      00
 7082              	.LASF165:
 7083 03fc 50574D5F 		.ascii	"PWM_LED_3_WritePeriod\000"
 7083      4C45445F 
 7083      335F5772 
 7083      69746550 
 7083      6572696F 
 7084              	.LASF85:
 7085 0412 73656E64 		.ascii	"send_offset\000"
 7085      5F6F6666 
 7085      73657400 
 7086              	.LASF14:
 7087 041e 75696E74 		.ascii	"uint32\000"
 7087      333200
 7088              	.LASF106:
 7089 0425 44545F44 		.ascii	"DT_Data_Receive_Prepare\000"
 7089      6174615F 
 7089      52656365 
 7089      6976655F 
 7089      50726570 
 7090              	.LASF126:
 7091 043d 6261636B 		.ascii	"back_distance\000"
 7091      5F646973 
 7091      74616E63 
 7091      6500
 7092              	.LASF163:
 7093 044b 50574D5F 		.ascii	"PWM_LED_1_WritePeriod\000"
 7093      4C45445F 
 7093      315F5772 
 7093      69746550 
 7093      6572696F 
 7094              	.LASF30:
 7095 0461 57484545 		.ascii	"WHEEL_DIR\000"
 7095      4C5F4449 
 7095      5200
 7096              	.LASF160:
 7097 046b 50574D5F 		.ascii	"PWM_LED_3_WriteCompare\000"
 7097      4C45445F 
 7097      335F5772 
 7097      69746543 
 7097      6F6D7061 
 7098              	.LASF87:
 7099 0482 73656E64 		.ascii	"send_power\000"
 7099      5F706F77 
 7099      657200
 7100              	.LASF62:
 7101 048d 6D656173 		.ascii	"measure_distance_flag\000"
ARM GAS  C:\Users\PANXIA~1\AppData\Local\Temp\cc1T2PPa.s 			page 143


 7101      7572655F 
 7101      64697374 
 7101      616E6365 
 7101      5F666C61 
 7102              	.LASF53:
 7103 04a3 72696768 		.ascii	"right_front_wheel\000"
 7103      745F6672 
 7103      6F6E745F 
 7103      77686565 
 7103      6C00
 7104              	.LASF36:
 7105 04b5 746F746F 		.ascii	"totol_run_count\000"
 7105      6C5F7275 
 7105      6E5F636F 
 7105      756E7400 
 7106              	.LASF137:
 7107 04c5 706F7765 		.ascii	"power_cnt\000"
 7107      725F636E 
 7107      7400
 7108              	.LASF119:
 7109 04cf 6361725F 		.ascii	"car_pull\000"
 7109      70756C6C 
 7109      00
 7110              	.LASF60:
 7111 04d8 64697374 		.ascii	"distance_front\000"
 7111      616E6365 
 7111      5F66726F 
 7111      6E7400
 7112              	.LASF140:
 7113 04e7 67726F75 		.ascii	"group\000"
 7113      7000
 7114              	.LASF162:
 7115 04ed 4348414E 		.ascii	"CHANGE_PWR_Write\000"
 7115      47455F50 
 7115      57525F57 
 7115      72697465 
 7115      00
 7116              	.LASF76:
 7117 04fe 73656E64 		.ascii	"send_status\000"
 7117      5F737461 
 7117      74757300 
 7118              	.LASF3:
 7119 050a 73686F72 		.ascii	"short int\000"
 7119      7420696E 
 7119      7400
 7120              	.LASF5:
 7121 0514 6C6F6E67 		.ascii	"long int\000"
 7121      20696E74 
 7121      00
 7122              	.LASF71:
 7123 051d 6C696865 		.ascii	"liheqi\000"
 7123      716900
 7124              	.LASF77:
 7125 0524 73656E64 		.ascii	"send_senser\000"
 7125      5F73656E 
 7125      73657200 
 7126              	.LASF98:
ARM GAS  C:\Users\PANXIA~1\AppData\Local\Temp\cc1T2PPa.s 			page 144


 7127 0530 6C656E67 		.ascii	"length\000"
 7127      746800
 7128              	.LASF104:
 7129 0537 74656D70 		.ascii	"temp\000"
 7129      00
 7130              	.LASF125:
 7131 053c 66726F6E 		.ascii	"front_distance\000"
 7131      745F6469 
 7131      7374616E 
 7131      636500
 7132              	.LASF103:
 7133 054b 64617461 		.ascii	"data_buf\000"
 7133      5F627566 
 7133      00
 7134              	.LASF25:
 7135 0554 444F574E 		.ascii	"DOWN_LEFT\000"
 7135      5F4C4546 
 7135      5400
 7136              	.LASF149:
 7137 055e 70335F64 		.ascii	"p3_d\000"
 7137      00
 7138              	.LASF148:
 7139 0563 70335F69 		.ascii	"p3_i\000"
 7139      00
 7140              	.LASF102:
 7141 0568 44545F44 		.ascii	"DT_Data_Receive_Anl\000"
 7141      6174615F 
 7141      52656365 
 7141      6976655F 
 7141      416E6C00 
 7142              	.LASF136:
 7143 057c 6D6F746F 		.ascii	"motopwm_cnt\000"
 7143      70776D5F 
 7143      636E7400 
 7144              	.LASF147:
 7145 0588 70335F70 		.ascii	"p3_p\000"
 7145      00
 7146              	.LASF74:
 7147 058d 535F4341 		.ascii	"S_CAR\000"
 7147      5200
 7148              	.LASF101:
 7149 0593 44545F53 		.ascii	"DT_Send_Data\000"
 7149      656E645F 
 7149      44617461 
 7149      00
 7150              	.LASF44:
 7151 05a0 4361725F 		.ascii	"Car_lock\000"
 7151      6C6F636B 
 7151      00
 7152              	.LASF46:
 7153 05a9 7365745F 		.ascii	"set_dir\000"
 7153      64697200 
 7154              	.LASF19:
 7155 05b1 73697A65 		.ascii	"sizetype\000"
 7155      74797065 
 7155      00
 7156              	.LASF43:
ARM GAS  C:\Users\PANXIA~1\AppData\Local\Temp\cc1T2PPa.s 			page 145


 7157 05ba 535F5359 		.ascii	"S_SYSTEMINFO\000"
 7157      5354454D 
 7157      494E464F 
 7157      00
 7158              	.LASF6:
 7159 05c7 6C6F6E67 		.ascii	"long unsigned int\000"
 7159      20756E73 
 7159      69676E65 
 7159      6420696E 
 7159      7400
 7160              	.LASF65:
 7161 05d9 4D5F7261 		.ascii	"M_radix\000"
 7161      64697800 
 7162              	.LASF161:
 7163 05e1 50574D5F 		.ascii	"PWM_LED_4_WriteCompare\000"
 7163      4C45445F 
 7163      345F5772 
 7163      69746543 
 7163      6F6D7061 
 7164              	.LASF150:
 7165 05f8 44545F53 		.ascii	"DT_Send_Lidar_normal\000"
 7165      656E645F 
 7165      4C696461 
 7165      725F6E6F 
 7165      726D616C 
 7166              	.LASF61:
 7167 060d 64697374 		.ascii	"distance_back\000"
 7167      616E6365 
 7167      5F626163 
 7167      6B00
 7168              	.LASF84:
 7169 061b 73656E64 		.ascii	"send_distance\000"
 7169      5F646973 
 7169      74616E63 
 7169      6500
 7170              	.LASF11:
 7171 0629 696E7433 		.ascii	"int32_t\000"
 7171      325F7400 
 7172              	.LASF68:
 7173 0631 73797374 		.ascii	"systeminfo\000"
 7173      656D696E 
 7173      666F00
 7174              	.LASF156:
 7175 063c 64617461 		.ascii	"data_to_send\000"
 7175      5F746F5F 
 7175      73656E64 
 7175      00
 7176              	.LASF2:
 7177 0649 756E7369 		.ascii	"unsigned char\000"
 7177      676E6564 
 7177      20636861 
 7177      7200
 7178              	.LASF166:
 7179 0657 474E5520 		.ascii	"GNU C 4.9.3 20150303 (release) [ARM/embedded-4_9-br"
 7179      4320342E 
 7179      392E3320 
 7179      32303135 
ARM GAS  C:\Users\PANXIA~1\AppData\Local\Temp\cc1T2PPa.s 			page 146


 7179      30333033 
 7180 068a 616E6368 		.ascii	"anch revision 221220] -mcpu=cortex-m3 -mthumb -g -O"
 7180      20726576 
 7180      6973696F 
 7180      6E203232 
 7180      31323230 
 7181 06bd 67202D66 		.ascii	"g -ffunction-sections -ffat-lto-objects\000"
 7181      66756E63 
 7181      74696F6E 
 7181      2D736563 
 7181      74696F6E 
 7182              	.LASF58:
 7183 06e5 73746565 		.ascii	"steering_set_positon2\000"
 7183      72696E67 
 7183      5F736574 
 7183      5F706F73 
 7183      69746F6E 
 7184              	.LASF134:
 7185 06fb 73746174 		.ascii	"status_cnt\000"
 7185      75735F63 
 7185      6E7400
 7186              	.LASF139:
 7187 0706 44545F53 		.ascii	"DT_Send_PID\000"
 7187      656E645F 
 7187      50494400 
 7188              	.LASF130:
 7189 0712 74656D70 		.ascii	"temp_pitch\000"
 7189      5F706974 
 7189      636800
 7190              	.LASF37:
 7191 071d 6375725F 		.ascii	"cur_run_time\000"
 7191      72756E5F 
 7191      74696D65 
 7191      00
 7192              	.LASF97:
 7193 072a 64617461 		.ascii	"dataToSend\000"
 7193      546F5365 
 7193      6E6400
 7194              	.LASF63:
 7195 0735 4D5F436F 		.ascii	"M_Command\000"
 7195      6D6D616E 
 7195      6400
 7196              	.LASF28:
 7197 073f 57414954 		.ascii	"WAIT_DIR\000"
 7197      5F444952 
 7197      00
 7198              	.LASF81:
 7199 0748 73656E64 		.ascii	"send_pid4\000"
 7199      5F706964 
 7199      3400
 7200              	.LASF111:
 7201 0752 73746174 		.ascii	"state\000"
 7201      6500
 7202              	.LASF69:
 7203 0758 73687574 		.ascii	"shutdown_flag\000"
 7203      646F776E 
 7203      5F666C61 
ARM GAS  C:\Users\PANXIA~1\AppData\Local\Temp\cc1T2PPa.s 			page 147


 7203      6700
 7204              	.LASF89:
 7205 0766 6163635F 		.ascii	"acc_x\000"
 7205      7800
 7206              	.LASF90:
 7207 076c 6163635F 		.ascii	"acc_y\000"
 7207      7900
 7208              	.LASF91:
 7209 0772 6163635F 		.ascii	"acc_z\000"
 7209      7A00
 7210              	.LASF131:
 7211 0778 746D6570 		.ascii	"tmep_roll\000"
 7211      5F726F6C 
 7211      6C00
 7212              	.LASF52:
 7213 0782 6C656674 		.ascii	"left_behind_wheel\000"
 7213      5F626568 
 7213      696E645F 
 7213      77686565 
 7213      6C00
 7214              	.LASF55:
 7215 0794 73746565 		.ascii	"steering_cur_positon1\000"
 7215      72696E67 
 7215      5F637572 
 7215      5F706F73 
 7215      69746F6E 
 7216              	.LASF57:
 7217 07aa 73746565 		.ascii	"steering_cur_positon2\000"
 7217      72696E67 
 7217      5F637572 
 7217      5F706F73 
 7217      69746F6E 
 7218              	.LASF1:
 7219 07c0 7369676E 		.ascii	"signed char\000"
 7219      65642063 
 7219      68617200 
 7220              	.LASF154:
 7221 07cc 675F4361 		.ascii	"g_Car\000"
 7221      7200
 7222              	.LASF4:
 7223 07d2 73686F72 		.ascii	"short unsigned int\000"
 7223      7420756E 
 7223      7369676E 
 7223      65642069 
 7223      6E7400
 7224              	.LASF20:
 7225 07e5 444F574E 		.ascii	"DOWN\000"
 7225      00
 7226              	.LASF115:
 7227 07ea 44545F53 		.ascii	"DT_Send_Status\000"
 7227      656E645F 
 7227      53746174 
 7227      757300
 7228              	.LASF155:
 7229 07f9 535F494D 		.ascii	"S_IMU\000"
 7229      5500
 7230              	.LASF73:
ARM GAS  C:\Users\PANXIA~1\AppData\Local\Temp\cc1T2PPa.s 			page 148


 7231 07ff 63757272 		.ascii	"current\000"
 7231      656E7400 
 7232              	.LASF135:
 7233 0807 64697374 		.ascii	"distance_cnt\000"
 7233      616E6365 
 7233      5F636E74 
 7233      00
 7234              	.LASF12:
 7235 0814 75696E74 		.ascii	"uint8\000"
 7235      3800
 7236              	.LASF17:
 7237 081a 646F7562 		.ascii	"double\000"
 7237      6C6500
 7238              	.LASF143:
 7239 0821 70315F64 		.ascii	"p1_d\000"
 7239      00
 7240              	.LASF142:
 7241 0826 70315F69 		.ascii	"p1_i\000"
 7241      00
 7242              	.LASF141:
 7243 082b 70315F70 		.ascii	"p1_p\000"
 7243      00
 7244              	.LASF114:
 7245 0830 5F636E74 		.ascii	"_cnt\000"
 7245      00
 7246              	.LASF112:
 7247 0835 44545F53 		.ascii	"DT_Send_SystemInfo\000"
 7247      656E645F 
 7247      53797374 
 7247      656D496E 
 7247      666F00
 7248              	.LASF164:
 7249 0848 50574D5F 		.ascii	"PWM_LED_2_WritePeriod\000"
 7249      4C45445F 
 7249      325F5772 
 7249      69746550 
 7249      6572696F 
 7250              		.ident	"GCC: (GNU Tools for ARM Embedded Processors) 4.9.3 20150303 (release) [ARM/embedded-4_9-br
