ARM GAS  C:\Users\pxc\AppData\Local\Temp\ccQr4tyd.s 			page 1


   1              		.syntax unified
   2              		.cpu cortex-m3
   3              		.fpu softvfp
   4              		.eabi_attribute 20, 1
   5              		.eabi_attribute 21, 1
   6              		.eabi_attribute 23, 3
   7              		.eabi_attribute 24, 1
   8              		.eabi_attribute 25, 1
   9              		.eabi_attribute 26, 1
  10              		.eabi_attribute 30, 1
  11              		.eabi_attribute 34, 1
  12              		.eabi_attribute 18, 4
  13              		.thumb
  14              		.file	"wave_distance.c"
  15              		.text
  16              	.Ltext0:
  17              		.cfi_sections	.debug_frame
  18              		.section	.text.K103_write,"ax",%progbits
  19              		.align	2
  20              		.global	K103_write
  21              		.thumb
  22              		.thumb_func
  23              		.type	K103_write, %function
  24              	K103_write:
  25              	.LFB63:
  26              		.file 1 ".\\wave_distance.c"
   1:.\wave_distance.c **** /* ========================================
   2:.\wave_distance.c ****  *
   3:.\wave_distance.c ****  * Copyright YOUR COMPANY, THE YEAR
   4:.\wave_distance.c ****  * All Rights Reserved
   5:.\wave_distance.c ****  * UNPUBLISHED, LICENSED SOFTWARE.
   6:.\wave_distance.c ****  *
   7:.\wave_distance.c ****  * CONFIDENTIAL AND PROPRIETARY INFORMATION
   8:.\wave_distance.c ****  * WHICH IS THE PROPERTY OF your company.
   9:.\wave_distance.c ****  *
  10:.\wave_distance.c ****  * ========================================
  11:.\wave_distance.c **** */
  12:.\wave_distance.c **** 
  13:.\wave_distance.c **** #include "wave.h"
  14:.\wave_distance.c **** #include "car.h"
  15:.\wave_distance.c **** uint16 distance;
  16:.\wave_distance.c **** static uint8 write_flag=0;
  17:.\wave_distance.c **** void K103_write(uint16 addr,uint8 reg,uint8 Command)
  18:.\wave_distance.c **** {
  27              		.loc 1 18 0
  28              		.cfi_startproc
  29              		@ args = 0, pretend = 0, frame = 0
  30              		@ frame_needed = 0, uses_anonymous_args = 0
  31              	.LVL0:
  32 0000 38B5     		push	{r3, r4, r5, lr}
  33              		.cfi_def_cfa_offset 16
  34              		.cfi_offset 3, -16
  35              		.cfi_offset 4, -12
  36              		.cfi_offset 5, -8
  37              		.cfi_offset 14, -4
  38 0002 0C46     		mov	r4, r1
  39 0004 1546     		mov	r5, r2
ARM GAS  C:\Users\pxc\AppData\Local\Temp\ccQr4tyd.s 			page 2


  40              	.LVL1:
  19:.\wave_distance.c ****     uint8 status = 0;
  20:.\wave_distance.c **** 	uint8 Addr = addr;
  21:.\wave_distance.c **** 
  22:.\wave_distance.c **** 	
  23:.\wave_distance.c ****     status = WAVE_MasterSendStart(Addr,0);
  41              		.loc 1 23 0
  42 0006 C0B2     		uxtb	r0, r0
  43              	.LVL2:
  44 0008 0021     		movs	r1, #0
  45              	.LVL3:
  46 000a FFF7FEFF 		bl	WAVE_MasterSendStart
  47              	.LVL4:
  24:.\wave_distance.c ****     if(!status)
  48              		.loc 1 24 0
  49 000e 30B9     		cbnz	r0, .L2
  25:.\wave_distance.c ****     {
  26:.\wave_distance.c ****       
  27:.\wave_distance.c ****             status = WAVE_MasterWriteByte(reg);//写输出端口
  50              		.loc 1 27 0
  51 0010 2046     		mov	r0, r4
  52              	.LVL5:
  53 0012 FFF7FEFF 		bl	WAVE_MasterWriteByte
  54              	.LVL6:
  28:.\wave_distance.c ****             if(!status)
  55              		.loc 1 28 0
  56 0016 10B9     		cbnz	r0, .L2
  29:.\wave_distance.c ****             {
  30:.\wave_distance.c ****               status = WAVE_MasterWriteByte(Command);//写输出端口
  57              		.loc 1 30 0
  58 0018 2846     		mov	r0, r5
  59              	.LVL7:
  60 001a FFF7FEFF 		bl	WAVE_MasterWriteByte
  61              	.LVL8:
  62              	.L2:
  31:.\wave_distance.c ****               if(!status)
  32:.\wave_distance.c ****               {
  33:.\wave_distance.c ****               
  34:.\wave_distance.c ****               }
  35:.\wave_distance.c ****             }
  36:.\wave_distance.c ****     }
  37:.\wave_distance.c ****     status = WAVE_MasterSendStop();
  63              		.loc 1 37 0
  64 001e FFF7FEFF 		bl	WAVE_MasterSendStop
  65              	.LVL9:
  66 0022 38BD     		pop	{r3, r4, r5, pc}
  67              		.cfi_endproc
  68              	.LFE63:
  69              		.size	K103_write, .-K103_write
  70              		.section	.text.K103_read,"ax",%progbits
  71              		.align	2
  72              		.global	K103_read
  73              		.thumb
  74              		.thumb_func
  75              		.type	K103_read, %function
  76              	K103_read:
  77              	.LFB64:
ARM GAS  C:\Users\pxc\AppData\Local\Temp\ccQr4tyd.s 			page 3


  38:.\wave_distance.c **** }
  39:.\wave_distance.c **** uint8 K103_read(uint16 addr,uint8 reg)
  40:.\wave_distance.c **** {
  78              		.loc 1 40 0
  79              		.cfi_startproc
  80              		@ args = 0, pretend = 0, frame = 0
  81              		@ frame_needed = 0, uses_anonymous_args = 0
  82              	.LVL10:
  83 0000 38B5     		push	{r3, r4, r5, lr}
  84              		.cfi_def_cfa_offset 16
  85              		.cfi_offset 3, -16
  86              		.cfi_offset 4, -12
  87              		.cfi_offset 5, -8
  88              		.cfi_offset 14, -4
  89 0002 0D46     		mov	r5, r1
  90              	.LVL11:
  41:.\wave_distance.c **** 
  42:.\wave_distance.c **** 	uint8 dat = 0,status = 0;
  43:.\wave_distance.c ****     
  44:.\wave_distance.c ****     status = WAVE_MasterSendStart(addr,0);
  91              		.loc 1 44 0
  92 0004 C4B2     		uxtb	r4, r0
  93 0006 2046     		mov	r0, r4
  94              	.LVL12:
  95 0008 0021     		movs	r1, #0
  96              	.LVL13:
  97 000a FFF7FEFF 		bl	WAVE_MasterSendStart
  98              	.LVL14:
  45:.\wave_distance.c ****     if(!status)
  99              		.loc 1 45 0
 100 000e 10B9     		cbnz	r0, .L5
  46:.\wave_distance.c ****     {
  47:.\wave_distance.c ****        
  48:.\wave_distance.c ****             status = WAVE_MasterWriteByte(reg);//写输出端口
 101              		.loc 1 48 0
 102 0010 2846     		mov	r0, r5
 103              	.LVL15:
 104 0012 FFF7FEFF 		bl	WAVE_MasterWriteByte
 105              	.LVL16:
 106              	.L5:
  49:.\wave_distance.c ****                if(status)
  50:.\wave_distance.c ****               {
  51:.\wave_distance.c ****                  
  52:.\wave_distance.c ****               }
  53:.\wave_distance.c ****     }
  54:.\wave_distance.c ****     status = WAVE_MasterSendRestart(addr,1);
 107              		.loc 1 54 0
 108 0016 2046     		mov	r0, r4
 109 0018 0121     		movs	r1, #1
 110 001a FFF7FEFF 		bl	WAVE_MasterSendRestart
 111              	.LVL17:
 112 001e 0546     		mov	r5, r0
 113              	.LVL18:
  55:.\wave_distance.c ****     CyDelayUs(10);
 114              		.loc 1 55 0
 115 0020 0A20     		movs	r0, #10
 116 0022 FFF7FEFF 		bl	CyDelayUs
ARM GAS  C:\Users\pxc\AppData\Local\Temp\ccQr4tyd.s 			page 4


 117              	.LVL19:
  56:.\wave_distance.c ****     if(!status)
 118              		.loc 1 56 0
 119 0026 2DB9     		cbnz	r5, .L8
  57:.\wave_distance.c ****     {
  58:.\wave_distance.c ****        dat = WAVE_MasterReadByte(0);//有ACK
 120              		.loc 1 58 0
 121 0028 0020     		movs	r0, #0
 122 002a FFF7FEFF 		bl	WAVE_MasterReadByte
 123              	.LVL20:
 124 002e 0446     		mov	r4, r0
 125              	.LVL21:
  59:.\wave_distance.c ****        if(status)
 126              		.loc 1 59 0
 127 0030 0DB1     		cbz	r5, .L6
 128 0032 04E0     		b	.L9
 129              	.LVL22:
 130              	.L8:
  42:.\wave_distance.c ****     
 131              		.loc 1 42 0
 132 0034 0024     		movs	r4, #0
 133              	.LVL23:
 134              	.L6:
  60:.\wave_distance.c ****         {
  61:.\wave_distance.c ****             return 0;
  62:.\wave_distance.c ****         }
  63:.\wave_distance.c ****     }
  64:.\wave_distance.c **** 	status = WAVE_MasterSendStop();
 135              		.loc 1 64 0
 136 0036 FFF7FEFF 		bl	WAVE_MasterSendStop
 137              	.LVL24:
  65:.\wave_distance.c **** 	return dat;
 138              		.loc 1 65 0
 139 003a 2046     		mov	r0, r4
 140 003c 38BD     		pop	{r3, r4, r5, pc}
 141              	.LVL25:
 142              	.L9:
  61:.\wave_distance.c ****         }
 143              		.loc 1 61 0
 144 003e 0020     		movs	r0, #0
  66:.\wave_distance.c **** 
  67:.\wave_distance.c **** }
 145              		.loc 1 67 0
 146 0040 38BD     		pop	{r3, r4, r5, pc}
 147              		.cfi_endproc
 148              	.LFE64:
 149              		.size	K103_read, .-K103_read
 150 0042 00BF     		.section	.text.K103_read_distance,"ax",%progbits
 151              		.align	2
 152              		.global	K103_read_distance
 153              		.thumb
 154              		.thumb_func
 155              		.type	K103_read_distance, %function
 156              	K103_read_distance:
 157              	.LFB65:
  68:.\wave_distance.c **** 
  69:.\wave_distance.c **** void K103_read_distance(void)
ARM GAS  C:\Users\pxc\AppData\Local\Temp\ccQr4tyd.s 			page 5


  70:.\wave_distance.c **** {
 158              		.loc 1 70 0
 159              		.cfi_startproc
 160              		@ args = 0, pretend = 0, frame = 0
 161              		@ frame_needed = 0, uses_anonymous_args = 0
 162 0000 38B5     		push	{r3, r4, r5, lr}
 163              		.cfi_def_cfa_offset 16
 164              		.cfi_offset 3, -16
 165              		.cfi_offset 4, -12
 166              		.cfi_offset 5, -8
 167              		.cfi_offset 14, -4
  71:.\wave_distance.c ****         if(write_flag == 0)
 168              		.loc 1 71 0
 169 0002 1A4B     		ldr	r3, .L15
 170 0004 1B78     		ldrb	r3, [r3]	@ zero_extendqisi2
 171 0006 6BB9     		cbnz	r3, .L12
  72:.\wave_distance.c ****         {
  73:.\wave_distance.c ****           K103_write(0x68,2,0xb4);
 172              		.loc 1 73 0
 173 0008 6820     		movs	r0, #104
 174 000a 0221     		movs	r1, #2
 175 000c B422     		movs	r2, #180
 176 000e FFF7FEFF 		bl	K103_write
 177              	.LVL26:
  74:.\wave_distance.c ****           K103_write(0xf4,2,0xb4);
 178              		.loc 1 74 0
 179 0012 F420     		movs	r0, #244
 180 0014 0221     		movs	r1, #2
 181 0016 B422     		movs	r2, #180
 182 0018 FFF7FEFF 		bl	K103_write
 183              	.LVL27:
  75:.\wave_distance.c ****           write_flag = 1;
 184              		.loc 1 75 0
 185 001c 0122     		movs	r2, #1
 186 001e 134B     		ldr	r3, .L15
 187 0020 1A70     		strb	r2, [r3]
 188 0022 38BD     		pop	{r3, r4, r5, pc}
 189              	.L12:
  76:.\wave_distance.c ****         }
  77:.\wave_distance.c ****         else
  78:.\wave_distance.c ****         {
  79:.\wave_distance.c ****          distance  = K103_read(0x68,2);
 190              		.loc 1 79 0
 191 0024 6820     		movs	r0, #104
 192 0026 0221     		movs	r1, #2
 193 0028 FFF7FEFF 		bl	K103_read
 194              	.LVL28:
 195 002c 104C     		ldr	r4, .L15+4
  80:.\wave_distance.c ****          distance <<= 8;
 196              		.loc 1 80 0
 197 002e 0002     		lsls	r0, r0, #8
 198 0030 2080     		strh	r0, [r4]	@ movhi
  81:.\wave_distance.c ****          distance += K103_read(0x68,3);
 199              		.loc 1 81 0
 200 0032 6820     		movs	r0, #104
 201 0034 0321     		movs	r1, #3
 202 0036 FFF7FEFF 		bl	K103_read
ARM GAS  C:\Users\pxc\AppData\Local\Temp\ccQr4tyd.s 			page 6


 203              	.LVL29:
 204 003a 2388     		ldrh	r3, [r4]
 205 003c 1844     		add	r0, r0, r3
 206 003e 80B2     		uxth	r0, r0
 207 0040 2080     		strh	r0, [r4]	@ movhi
  82:.\wave_distance.c ****          g_Car.distance_back = distance;
 208              		.loc 1 82 0
 209 0042 0C4D     		ldr	r5, .L15+8
 210 0044 A884     		strh	r0, [r5, #36]	@ movhi
  83:.\wave_distance.c ****          distance  =K103_read(0xf4,2);
 211              		.loc 1 83 0
 212 0046 F420     		movs	r0, #244
 213 0048 0221     		movs	r1, #2
 214 004a FFF7FEFF 		bl	K103_read
 215              	.LVL30:
  84:.\wave_distance.c ****          distance <<= 8;
 216              		.loc 1 84 0
 217 004e 0002     		lsls	r0, r0, #8
 218 0050 2080     		strh	r0, [r4]	@ movhi
  85:.\wave_distance.c ****          distance += K103_read(0xf4,3);
 219              		.loc 1 85 0
 220 0052 F420     		movs	r0, #244
 221 0054 0321     		movs	r1, #3
 222 0056 FFF7FEFF 		bl	K103_read
 223              	.LVL31:
 224 005a 2388     		ldrh	r3, [r4]
 225 005c 1844     		add	r0, r0, r3
 226 005e 80B2     		uxth	r0, r0
 227 0060 2080     		strh	r0, [r4]	@ movhi
  86:.\wave_distance.c ****          g_Car.distance_front = distance;
 228              		.loc 1 86 0
 229 0062 6884     		strh	r0, [r5, #34]	@ movhi
  87:.\wave_distance.c ****          write_flag = 0 ;
 230              		.loc 1 87 0
 231 0064 0022     		movs	r2, #0
 232 0066 014B     		ldr	r3, .L15
 233 0068 1A70     		strb	r2, [r3]
 234 006a 38BD     		pop	{r3, r4, r5, pc}
 235              	.L16:
 236              		.align	2
 237              	.L15:
 238 006c 00000000 		.word	.LANCHOR0
 239 0070 00000000 		.word	distance
 240 0074 00000000 		.word	g_Car
 241              		.cfi_endproc
 242              	.LFE65:
 243              		.size	K103_read_distance, .-K103_read_distance
 244              		.comm	distance,2,2
 245              		.comm	g_Car,64,4
 246              		.bss
 247              		.set	.LANCHOR0,. + 0
 248              		.type	write_flag, %object
 249              		.size	write_flag, 1
 250              	write_flag:
 251 0000 00       		.space	1
 252              		.text
 253              	.Letext0:
ARM GAS  C:\Users\pxc\AppData\Local\Temp\ccQr4tyd.s 			page 7


 254              		.file 2 "c:\\program files (x86)\\cypress\\psoc creator\\3.3\\psoc creator\\import\\gnu\\arm\\4.9.
 255              		.file 3 "c:\\program files (x86)\\cypress\\psoc creator\\3.3\\psoc creator\\import\\gnu\\arm\\4.9.
 256              		.file 4 "Generated_Source\\PSoC5/cytypes.h"
 257              		.file 5 ".\\car.h"
 258              		.file 6 "Generated_Source\\PSoC5/core_cm3.h"
 259              		.file 7 "Generated_Source\\PSoC5/wave.h"
 260              		.file 8 "Generated_Source\\PSoC5/CyLib.h"