ARM GAS  C:\Users\pxc\AppData\Local\Temp\ccuLgus9.s 			page 1


   1              		.syntax unified
   2              		.cpu cortex-m3
   3              		.fpu softvfp
   4              		.eabi_attribute 20, 1
   5              		.eabi_attribute 21, 1
   6              		.eabi_attribute 23, 3
   7              		.eabi_attribute 24, 1
   8              		.eabi_attribute 25, 1
   9              		.eabi_attribute 26, 1
  10              		.eabi_attribute 30, 6
  11              		.eabi_attribute 34, 1
  12              		.eabi_attribute 18, 4
  13              		.thumb
  14              		.file	"main.c"
  15              		.text
  16              	.Ltext0:
  17              		.cfi_sections	.debug_frame
  18              		.comm	InterruptCnt,4,4
  19              		.section	.text.InterruptHandler,"ax",%progbits
  20              		.align	2
  21              		.global	InterruptHandler
  22              		.thumb
  23              		.thumb_func
  24              		.type	InterruptHandler, %function
  25              	InterruptHandler:
  26              	.LFB63:
  27              		.file 1 ".\\main.c"
   1:.\main.c      **** /*******************************************************************************
   2:.\main.c      **** * File Name: main.c
   3:.\main.c      **** *
   4:.\main.c      **** * Version: 2.00
   5:.\main.c      **** *
   6:.\main.c      **** * Description:
   7:.\main.c      **** *  This is source code for the datasheet example of the TCPWM (Quadrature 
   8:.\main.c      **** *  Decoder mode) component.
   9:.\main.c      **** *
  10:.\main.c      **** ********************************************************************************
  11:.\main.c      **** * Copyright 2013-2014, Cypress Semiconductor Corporation. All rights reserved.
  12:.\main.c      **** * This software is owned by Cypress Semiconductor Corporation and is protected
  13:.\main.c      **** * by and subject to worldwide patent and copyright laws and treaties.
  14:.\main.c      **** * Therefore, you may use this software only as provided in the license agreement
  15:.\main.c      **** * accompanying the software package from which you obtained this software.
  16:.\main.c      **** * CYPRESS AND ITS SUPPLIERS MAKE NO WARRANTY OF ANY KIND, EXPRESS OR IMPLIED,
  17:.\main.c      **** * WITH REGARD TO THIS SOFTWARE, INCLUDING, BUT NOT LIMITED TO, NONINFRINGEMENT,
  18:.\main.c      **** * IMPLIED WARRANTIES OF MERCHANTABILITY AND FITNESS FOR A PARTICULAR PURPOSE.
  19:.\main.c      **** *******************************************************************************/
  20:.\main.c      **** 
  21:.\main.c      **** #include <project.h>
  22:.\main.c      **** 
  23:.\main.c      **** #define DELAY       (0x0u)
  24:.\main.c      **** #define UP          (0x1u)
  25:.\main.c      **** #define DOWN        (0x0u)
  26:.\main.c      **** #define CNT_PULSE   (0x8000u)
  27:.\main.c      **** 
  28:.\main.c      **** uint32 InterruptCnt;
  29:.\main.c      **** 
  30:.\main.c      **** 
ARM GAS  C:\Users\pxc\AppData\Local\Temp\ccuLgus9.s 			page 2


  31:.\main.c      **** /*******************************************************************************
  32:.\main.c      **** * Define Interrupt service routine and allocate an vector to the Interrupt
  33:.\main.c      **** ********************************************************************************/
  34:.\main.c      **** CY_ISR(InterruptHandler)
  35:.\main.c      **** {
  28              		.loc 1 35 0
  29              		.cfi_startproc
  30              		@ args = 0, pretend = 0, frame = 0
  31              		@ frame_needed = 1, uses_anonymous_args = 0
  32              		@ link register save eliminated.
  33 0000 80B4     		push	{r7}
  34              		.cfi_def_cfa_offset 4
  35              		.cfi_offset 7, -4
  36 0002 00AF     		add	r7, sp, #0
  37              		.cfi_def_cfa_register 7
  36:.\main.c      **** 	/* Clear Inerrupt */
  37:.\main.c      ****  //  	QuadDec_ClearInterrupt(QuadDec_INTR_MASK_CC_MATCH);
  38:.\main.c      ****     
  39:.\main.c      ****  //   LED_GREEN_Write(0u);
  40:.\main.c      ****   //  CyDelay(200u);
  41:.\main.c      ****  //   LED_GREEN_Write(1u);  
  42:.\main.c      **** }
  38              		.loc 1 42 0
  39 0004 BD46     		mov	sp, r7
  40              		.cfi_def_cfa_register 13
  41              		@ sp needed
  42 0006 5DF8047B 		ldr	r7, [sp], #4
  43              		.cfi_restore 7
  44              		.cfi_def_cfa_offset 0
  45 000a 7047     		bx	lr
  46              		.cfi_endproc
  47              	.LFE63:
  48              		.size	InterruptHandler, .-InterruptHandler
  49              		.section	.text.PhiAbGeneration,"ax",%progbits
  50              		.align	2
  51              		.thumb
  52              		.thumb_func
  53              		.type	PhiAbGeneration, %function
  54              	PhiAbGeneration:
  55              	.LFB64:
  43:.\main.c      **** 
  44:.\main.c      **** 
  45:.\main.c      **** /*******************************************************************************
  46:.\main.c      **** * Function Name: PhiAbGeneration
  47:.\main.c      **** ********************************************************************************
  48:.\main.c      **** *
  49:.\main.c      **** * Summary:
  50:.\main.c      **** *  Generates PhiA pulses
  51:.\main.c      **** *
  52:.\main.c      **** * Parameters direction: 
  53:.\main.c      **** *  count: count of pulses
  54:.\main.c      **** *
  55:.\main.c      **** * Return:
  56:.\main.c      **** *  None
  57:.\main.c      **** *
  58:.\main.c      **** *******************************************************************************/
  59:.\main.c      **** static void PhiAbGeneration(uint32 count)
ARM GAS  C:\Users\pxc\AppData\Local\Temp\ccuLgus9.s 			page 3


  60:.\main.c      **** {
  56              		.loc 1 60 0
  57              		.cfi_startproc
  58              		@ args = 0, pretend = 0, frame = 8
  59              		@ frame_needed = 1, uses_anonymous_args = 0
  60              		@ link register save eliminated.
  61 0000 80B4     		push	{r7}
  62              		.cfi_def_cfa_offset 4
  63              		.cfi_offset 7, -4
  64 0002 83B0     		sub	sp, sp, #12
  65              		.cfi_def_cfa_offset 16
  66 0004 00AF     		add	r7, sp, #0
  67              		.cfi_def_cfa_register 7
  68 0006 7860     		str	r0, [r7, #4]
  61:.\main.c      **** 	uint32 tmp;
  62:.\main.c      **** 	int temp;
  63:.\main.c      **** //	for(tmp=0; tmp < count; tmp++)
  64:.\main.c      **** //	{
  65:.\main.c      **** //            phiA_Out_Write (UP); 
  66:.\main.c      **** //			CyDelay(DELAY);
  67:.\main.c      **** //			phiA_Out_Write (DOWN); 
  68:.\main.c      **** //            CyDelay(DELAY);
  69:.\main.c      **** //	}
  70:.\main.c      **** }
  69              		.loc 1 70 0
  70 0008 0C37     		adds	r7, r7, #12
  71              		.cfi_def_cfa_offset 4
  72 000a BD46     		mov	sp, r7
  73              		.cfi_def_cfa_register 13
  74              		@ sp needed
  75 000c 5DF8047B 		ldr	r7, [sp], #4
  76              		.cfi_restore 7
  77              		.cfi_def_cfa_offset 0
  78 0010 7047     		bx	lr
  79              		.cfi_endproc
  80              	.LFE64:
  81              		.size	PhiAbGeneration, .-PhiAbGeneration
  82 0012 00BF     		.section	.text.main,"ax",%progbits
  83              		.align	2
  84              		.global	main
  85              		.thumb
  86              		.thumb_func
  87              		.type	main, %function
  88              	main:
  89              	.LFB65:
  71:.\main.c      **** 
  72:.\main.c      **** int main()
  73:.\main.c      **** {   
  90              		.loc 1 73 0
  91              		.cfi_startproc
  92              		@ args = 0, pretend = 0, frame = 0
  93              		@ frame_needed = 1, uses_anonymous_args = 0
  94              		@ link register save eliminated.
  95 0000 80B4     		push	{r7}
  96              		.cfi_def_cfa_offset 4
  97              		.cfi_offset 7, -4
  98 0002 00AF     		add	r7, sp, #0
ARM GAS  C:\Users\pxc\AppData\Local\Temp\ccuLgus9.s 			page 4


  99              		.cfi_def_cfa_register 7
  74:.\main.c      **** //    #if (CY_PSOC4_4000)
  75:.\main.c      **** //        CySysWdtDisable();
  76:.\main.c      **** //    #endif /* (CY_PSOC4_4000) */
  77:.\main.c      **** //     
  78:.\main.c      **** //    CyDelay(50u);
  79:.\main.c      **** //    
  80:.\main.c      **** //    /* Enable the global interrupt */
  81:.\main.c      **** //    CyGlobalIntEnable;
  82:.\main.c      **** //    
  83:.\main.c      **** //    /* Enable the Interrupt component connected to interrupt */
  84:.\main.c      **** //    CC_ISR_StartEx(InterruptHandler);
  85:.\main.c      **** //
  86:.\main.c      **** //	/* Start the components */
  87:.\main.c      **** //    QuadDec_Start();
  88:.\main.c      **** //
  89:.\main.c      **** //    /* Set index trigger */
  90:.\main.c      **** //    QuadDec_TriggerCommand(QuadDec_MASK, QuadDec_CMD_RELOAD);
  91:.\main.c      **** //    
  92:.\main.c      **** //    for(;;)
  93:.\main.c      **** //    {
  94:.\main.c      **** //        PhiAbGeneration(CNT_PULSE);
  95:.\main.c      **** //    }
  96:.\main.c      **** }
 100              		.loc 1 96 0
 101 0004 1846     		mov	r0, r3
 102 0006 BD46     		mov	sp, r7
 103              		.cfi_def_cfa_register 13
 104              		@ sp needed
 105 0008 5DF8047B 		ldr	r7, [sp], #4
 106              		.cfi_restore 7
 107              		.cfi_def_cfa_offset 0
 108 000c 7047     		bx	lr
 109              		.cfi_endproc
 110              	.LFE65:
 111              		.size	main, .-main
 112 000e 00BF     		.text
 113              	.Letext0:
 114              		.file 2 "c:\\program files (x86)\\cypress\\psoc creator\\3.3\\psoc creator\\import\\gnu\\arm\\4.9.
 115              		.file 3 "c:\\program files (x86)\\cypress\\psoc creator\\3.3\\psoc creator\\import\\gnu\\arm\\4.9.
 116              		.file 4 "Generated_Source\\PSoC5/cytypes.h"
 117              		.file 5 "Generated_Source\\PSoC5/core_cm3.h"