ARM GAS  C:\Users\pxc\AppData\Local\Temp\cc5yC5Lo.s 			page 1


   1              		.syntax unified
   2              		.cpu cortex-m3
   3              		.fpu softvfp
   4              		.eabi_attribute 20, 1
   5              		.eabi_attribute 21, 1
   6              		.eabi_attribute 23, 3
   7              		.eabi_attribute 24, 1
   8              		.eabi_attribute 25, 1
   9              		.eabi_attribute 26, 1
  10              		.eabi_attribute 30, 6
  11              		.eabi_attribute 34, 1
  12              		.eabi_attribute 18, 4
  13              		.thumb
  14              		.file	"QuadDec_1_Cnt8_PM.c"
  15              		.text
  16              	.Ltext0:
  17              		.cfi_sections	.debug_frame
  18              		.bss
  19              		.align	2
  20              	QuadDec_1_Cnt8_backup:
  21 0000 000000   		.space	3
  22 0003 00       		.section	.text.QuadDec_1_Cnt8_SaveConfig,"ax",%progbits
  23              		.align	2
  24              		.global	QuadDec_1_Cnt8_SaveConfig
  25              		.thumb
  26              		.thumb_func
  27              		.type	QuadDec_1_Cnt8_SaveConfig, %function
  28              	QuadDec_1_Cnt8_SaveConfig:
  29              	.LFB0:
  30              		.file 1 ".\\Generated_Source\\PSoC5\\QuadDec_1_Cnt8_PM.c"
   1:.\Generated_Source\PSoC5/QuadDec_1_Cnt8_PM.c **** /*******************************************************************************
   2:.\Generated_Source\PSoC5/QuadDec_1_Cnt8_PM.c **** * File Name: QuadDec_1_Cnt8_PM.c  
   3:.\Generated_Source\PSoC5/QuadDec_1_Cnt8_PM.c **** * Version 3.0
   4:.\Generated_Source\PSoC5/QuadDec_1_Cnt8_PM.c **** *
   5:.\Generated_Source\PSoC5/QuadDec_1_Cnt8_PM.c **** *  Description:
   6:.\Generated_Source\PSoC5/QuadDec_1_Cnt8_PM.c **** *    This file provides the power management source code to API for the
   7:.\Generated_Source\PSoC5/QuadDec_1_Cnt8_PM.c **** *    Counter.  
   8:.\Generated_Source\PSoC5/QuadDec_1_Cnt8_PM.c **** *
   9:.\Generated_Source\PSoC5/QuadDec_1_Cnt8_PM.c **** *   Note:
  10:.\Generated_Source\PSoC5/QuadDec_1_Cnt8_PM.c **** *     None
  11:.\Generated_Source\PSoC5/QuadDec_1_Cnt8_PM.c **** *
  12:.\Generated_Source\PSoC5/QuadDec_1_Cnt8_PM.c **** ********************************************************************************
  13:.\Generated_Source\PSoC5/QuadDec_1_Cnt8_PM.c **** * Copyright 2008-2012, Cypress Semiconductor Corporation.  All rights reserved.
  14:.\Generated_Source\PSoC5/QuadDec_1_Cnt8_PM.c **** * You may use this file only in accordance with the license, terms, conditions, 
  15:.\Generated_Source\PSoC5/QuadDec_1_Cnt8_PM.c **** * disclaimers, and limitations in the end user license agreement accompanying 
  16:.\Generated_Source\PSoC5/QuadDec_1_Cnt8_PM.c **** * the software package with which this file was provided.
  17:.\Generated_Source\PSoC5/QuadDec_1_Cnt8_PM.c **** *******************************************************************************/
  18:.\Generated_Source\PSoC5/QuadDec_1_Cnt8_PM.c **** 
  19:.\Generated_Source\PSoC5/QuadDec_1_Cnt8_PM.c **** #include "QuadDec_1_Cnt8.h"
  20:.\Generated_Source\PSoC5/QuadDec_1_Cnt8_PM.c **** 
  21:.\Generated_Source\PSoC5/QuadDec_1_Cnt8_PM.c **** static QuadDec_1_Cnt8_backupStruct QuadDec_1_Cnt8_backup;
  22:.\Generated_Source\PSoC5/QuadDec_1_Cnt8_PM.c **** 
  23:.\Generated_Source\PSoC5/QuadDec_1_Cnt8_PM.c **** 
  24:.\Generated_Source\PSoC5/QuadDec_1_Cnt8_PM.c **** /*******************************************************************************
  25:.\Generated_Source\PSoC5/QuadDec_1_Cnt8_PM.c **** * Function Name: QuadDec_1_Cnt8_SaveConfig
  26:.\Generated_Source\PSoC5/QuadDec_1_Cnt8_PM.c **** ********************************************************************************
  27:.\Generated_Source\PSoC5/QuadDec_1_Cnt8_PM.c **** * Summary:
ARM GAS  C:\Users\pxc\AppData\Local\Temp\cc5yC5Lo.s 			page 2


  28:.\Generated_Source\PSoC5/QuadDec_1_Cnt8_PM.c **** *     Save the current user configuration
  29:.\Generated_Source\PSoC5/QuadDec_1_Cnt8_PM.c **** *
  30:.\Generated_Source\PSoC5/QuadDec_1_Cnt8_PM.c **** * Parameters:  
  31:.\Generated_Source\PSoC5/QuadDec_1_Cnt8_PM.c **** *  void
  32:.\Generated_Source\PSoC5/QuadDec_1_Cnt8_PM.c **** *
  33:.\Generated_Source\PSoC5/QuadDec_1_Cnt8_PM.c **** * Return: 
  34:.\Generated_Source\PSoC5/QuadDec_1_Cnt8_PM.c **** *  void
  35:.\Generated_Source\PSoC5/QuadDec_1_Cnt8_PM.c **** *
  36:.\Generated_Source\PSoC5/QuadDec_1_Cnt8_PM.c **** * Global variables:
  37:.\Generated_Source\PSoC5/QuadDec_1_Cnt8_PM.c **** *  QuadDec_1_Cnt8_backup:  Variables of this global structure are modified to 
  38:.\Generated_Source\PSoC5/QuadDec_1_Cnt8_PM.c **** *  store the values of non retention configuration registers when Sleep() API is 
  39:.\Generated_Source\PSoC5/QuadDec_1_Cnt8_PM.c **** *  called.
  40:.\Generated_Source\PSoC5/QuadDec_1_Cnt8_PM.c **** *
  41:.\Generated_Source\PSoC5/QuadDec_1_Cnt8_PM.c **** *******************************************************************************/
  42:.\Generated_Source\PSoC5/QuadDec_1_Cnt8_PM.c **** void QuadDec_1_Cnt8_SaveConfig(void) 
  43:.\Generated_Source\PSoC5/QuadDec_1_Cnt8_PM.c **** {
  31              		.loc 1 43 0
  32              		.cfi_startproc
  33              		@ args = 0, pretend = 0, frame = 0
  34              		@ frame_needed = 1, uses_anonymous_args = 0
  35 0000 80B5     		push	{r7, lr}
  36              		.cfi_def_cfa_offset 8
  37              		.cfi_offset 7, -8
  38              		.cfi_offset 14, -4
  39 0002 00AF     		add	r7, sp, #0
  40              		.cfi_def_cfa_register 7
  44:.\Generated_Source\PSoC5/QuadDec_1_Cnt8_PM.c ****     #if (!QuadDec_1_Cnt8_UsingFixedFunction)
  45:.\Generated_Source\PSoC5/QuadDec_1_Cnt8_PM.c **** 
  46:.\Generated_Source\PSoC5/QuadDec_1_Cnt8_PM.c ****         QuadDec_1_Cnt8_backup.CounterUdb = QuadDec_1_Cnt8_ReadCounter();
  41              		.loc 1 46 0
  42 0004 FFF7FEFF 		bl	QuadDec_1_Cnt8_ReadCounter
  43 0008 0346     		mov	r3, r0
  44 000a 1A46     		mov	r2, r3
  45 000c 044B     		ldr	r3, .L2
  46 000e 5A70     		strb	r2, [r3, #1]
  47:.\Generated_Source\PSoC5/QuadDec_1_Cnt8_PM.c **** 
  48:.\Generated_Source\PSoC5/QuadDec_1_Cnt8_PM.c ****         #if(!QuadDec_1_Cnt8_ControlRegRemoved)
  49:.\Generated_Source\PSoC5/QuadDec_1_Cnt8_PM.c ****             QuadDec_1_Cnt8_backup.CounterControlRegister = QuadDec_1_Cnt8_ReadControlRegister();
  47              		.loc 1 49 0
  48 0010 FFF7FEFF 		bl	QuadDec_1_Cnt8_ReadControlRegister
  49 0014 0346     		mov	r3, r0
  50 0016 1A46     		mov	r2, r3
  51 0018 014B     		ldr	r3, .L2
  52 001a 9A70     		strb	r2, [r3, #2]
  50:.\Generated_Source\PSoC5/QuadDec_1_Cnt8_PM.c ****         #endif /* (!QuadDec_1_Cnt8_ControlRegRemoved) */
  51:.\Generated_Source\PSoC5/QuadDec_1_Cnt8_PM.c **** 
  52:.\Generated_Source\PSoC5/QuadDec_1_Cnt8_PM.c ****     #endif /* (!QuadDec_1_Cnt8_UsingFixedFunction) */
  53:.\Generated_Source\PSoC5/QuadDec_1_Cnt8_PM.c **** }
  53              		.loc 1 53 0
  54 001c 80BD     		pop	{r7, pc}
  55              	.L3:
  56 001e 00BF     		.align	2
  57              	.L2:
  58 0020 00000000 		.word	QuadDec_1_Cnt8_backup
  59              		.cfi_endproc
  60              	.LFE0:
  61              		.size	QuadDec_1_Cnt8_SaveConfig, .-QuadDec_1_Cnt8_SaveConfig
ARM GAS  C:\Users\pxc\AppData\Local\Temp\cc5yC5Lo.s 			page 3


  62              		.section	.text.QuadDec_1_Cnt8_RestoreConfig,"ax",%progbits
  63              		.align	2
  64              		.global	QuadDec_1_Cnt8_RestoreConfig
  65              		.thumb
  66              		.thumb_func
  67              		.type	QuadDec_1_Cnt8_RestoreConfig, %function
  68              	QuadDec_1_Cnt8_RestoreConfig:
  69              	.LFB1:
  54:.\Generated_Source\PSoC5/QuadDec_1_Cnt8_PM.c **** 
  55:.\Generated_Source\PSoC5/QuadDec_1_Cnt8_PM.c **** 
  56:.\Generated_Source\PSoC5/QuadDec_1_Cnt8_PM.c **** /*******************************************************************************
  57:.\Generated_Source\PSoC5/QuadDec_1_Cnt8_PM.c **** * Function Name: QuadDec_1_Cnt8_RestoreConfig
  58:.\Generated_Source\PSoC5/QuadDec_1_Cnt8_PM.c **** ********************************************************************************
  59:.\Generated_Source\PSoC5/QuadDec_1_Cnt8_PM.c **** *
  60:.\Generated_Source\PSoC5/QuadDec_1_Cnt8_PM.c **** * Summary:
  61:.\Generated_Source\PSoC5/QuadDec_1_Cnt8_PM.c **** *  Restores the current user configuration.
  62:.\Generated_Source\PSoC5/QuadDec_1_Cnt8_PM.c **** *
  63:.\Generated_Source\PSoC5/QuadDec_1_Cnt8_PM.c **** * Parameters:  
  64:.\Generated_Source\PSoC5/QuadDec_1_Cnt8_PM.c **** *  void
  65:.\Generated_Source\PSoC5/QuadDec_1_Cnt8_PM.c **** *
  66:.\Generated_Source\PSoC5/QuadDec_1_Cnt8_PM.c **** * Return: 
  67:.\Generated_Source\PSoC5/QuadDec_1_Cnt8_PM.c **** *  void
  68:.\Generated_Source\PSoC5/QuadDec_1_Cnt8_PM.c **** *
  69:.\Generated_Source\PSoC5/QuadDec_1_Cnt8_PM.c **** * Global variables:
  70:.\Generated_Source\PSoC5/QuadDec_1_Cnt8_PM.c **** *  QuadDec_1_Cnt8_backup:  Variables of this global structure are used to 
  71:.\Generated_Source\PSoC5/QuadDec_1_Cnt8_PM.c **** *  restore the values of non retention registers on wakeup from sleep mode.
  72:.\Generated_Source\PSoC5/QuadDec_1_Cnt8_PM.c **** *
  73:.\Generated_Source\PSoC5/QuadDec_1_Cnt8_PM.c **** *******************************************************************************/
  74:.\Generated_Source\PSoC5/QuadDec_1_Cnt8_PM.c **** void QuadDec_1_Cnt8_RestoreConfig(void) 
  75:.\Generated_Source\PSoC5/QuadDec_1_Cnt8_PM.c **** {      
  70              		.loc 1 75 0
  71              		.cfi_startproc
  72              		@ args = 0, pretend = 0, frame = 0
  73              		@ frame_needed = 1, uses_anonymous_args = 0
  74 0000 80B5     		push	{r7, lr}
  75              		.cfi_def_cfa_offset 8
  76              		.cfi_offset 7, -8
  77              		.cfi_offset 14, -4
  78 0002 00AF     		add	r7, sp, #0
  79              		.cfi_def_cfa_register 7
  76:.\Generated_Source\PSoC5/QuadDec_1_Cnt8_PM.c ****     #if (!QuadDec_1_Cnt8_UsingFixedFunction)
  77:.\Generated_Source\PSoC5/QuadDec_1_Cnt8_PM.c **** 
  78:.\Generated_Source\PSoC5/QuadDec_1_Cnt8_PM.c ****        QuadDec_1_Cnt8_WriteCounter(QuadDec_1_Cnt8_backup.CounterUdb);
  80              		.loc 1 78 0
  81 0004 054B     		ldr	r3, .L5
  82 0006 5B78     		ldrb	r3, [r3, #1]	@ zero_extendqisi2
  83 0008 1846     		mov	r0, r3
  84 000a FFF7FEFF 		bl	QuadDec_1_Cnt8_WriteCounter
  79:.\Generated_Source\PSoC5/QuadDec_1_Cnt8_PM.c **** 
  80:.\Generated_Source\PSoC5/QuadDec_1_Cnt8_PM.c ****         #if(!QuadDec_1_Cnt8_ControlRegRemoved)
  81:.\Generated_Source\PSoC5/QuadDec_1_Cnt8_PM.c ****             QuadDec_1_Cnt8_WriteControlRegister(QuadDec_1_Cnt8_backup.CounterControlRegister);
  85              		.loc 1 81 0
  86 000e 034B     		ldr	r3, .L5
  87 0010 9B78     		ldrb	r3, [r3, #2]	@ zero_extendqisi2
  88 0012 1846     		mov	r0, r3
  89 0014 FFF7FEFF 		bl	QuadDec_1_Cnt8_WriteControlRegister
  82:.\Generated_Source\PSoC5/QuadDec_1_Cnt8_PM.c ****         #endif /* (!QuadDec_1_Cnt8_ControlRegRemoved) */
ARM GAS  C:\Users\pxc\AppData\Local\Temp\cc5yC5Lo.s 			page 4


  83:.\Generated_Source\PSoC5/QuadDec_1_Cnt8_PM.c **** 
  84:.\Generated_Source\PSoC5/QuadDec_1_Cnt8_PM.c ****     #endif /* (!QuadDec_1_Cnt8_UsingFixedFunction) */
  85:.\Generated_Source\PSoC5/QuadDec_1_Cnt8_PM.c **** }
  90              		.loc 1 85 0
  91 0018 80BD     		pop	{r7, pc}
  92              	.L6:
  93 001a 00BF     		.align	2
  94              	.L5:
  95 001c 00000000 		.word	QuadDec_1_Cnt8_backup
  96              		.cfi_endproc
  97              	.LFE1:
  98              		.size	QuadDec_1_Cnt8_RestoreConfig, .-QuadDec_1_Cnt8_RestoreConfig
  99              		.section	.text.QuadDec_1_Cnt8_Sleep,"ax",%progbits
 100              		.align	2
 101              		.global	QuadDec_1_Cnt8_Sleep
 102              		.thumb
 103              		.thumb_func
 104              		.type	QuadDec_1_Cnt8_Sleep, %function
 105              	QuadDec_1_Cnt8_Sleep:
 106              	.LFB2:
  86:.\Generated_Source\PSoC5/QuadDec_1_Cnt8_PM.c **** 
  87:.\Generated_Source\PSoC5/QuadDec_1_Cnt8_PM.c **** 
  88:.\Generated_Source\PSoC5/QuadDec_1_Cnt8_PM.c **** /*******************************************************************************
  89:.\Generated_Source\PSoC5/QuadDec_1_Cnt8_PM.c **** * Function Name: QuadDec_1_Cnt8_Sleep
  90:.\Generated_Source\PSoC5/QuadDec_1_Cnt8_PM.c **** ********************************************************************************
  91:.\Generated_Source\PSoC5/QuadDec_1_Cnt8_PM.c **** * Summary:
  92:.\Generated_Source\PSoC5/QuadDec_1_Cnt8_PM.c **** *     Stop and Save the user configuration
  93:.\Generated_Source\PSoC5/QuadDec_1_Cnt8_PM.c **** *
  94:.\Generated_Source\PSoC5/QuadDec_1_Cnt8_PM.c **** * Parameters:  
  95:.\Generated_Source\PSoC5/QuadDec_1_Cnt8_PM.c **** *  void
  96:.\Generated_Source\PSoC5/QuadDec_1_Cnt8_PM.c **** *
  97:.\Generated_Source\PSoC5/QuadDec_1_Cnt8_PM.c **** * Return: 
  98:.\Generated_Source\PSoC5/QuadDec_1_Cnt8_PM.c **** *  void
  99:.\Generated_Source\PSoC5/QuadDec_1_Cnt8_PM.c **** *
 100:.\Generated_Source\PSoC5/QuadDec_1_Cnt8_PM.c **** * Global variables:
 101:.\Generated_Source\PSoC5/QuadDec_1_Cnt8_PM.c **** *  QuadDec_1_Cnt8_backup.enableState:  Is modified depending on the enable 
 102:.\Generated_Source\PSoC5/QuadDec_1_Cnt8_PM.c **** *  state of the block before entering sleep mode.
 103:.\Generated_Source\PSoC5/QuadDec_1_Cnt8_PM.c **** *
 104:.\Generated_Source\PSoC5/QuadDec_1_Cnt8_PM.c **** *******************************************************************************/
 105:.\Generated_Source\PSoC5/QuadDec_1_Cnt8_PM.c **** void QuadDec_1_Cnt8_Sleep(void) 
 106:.\Generated_Source\PSoC5/QuadDec_1_Cnt8_PM.c **** {
 107              		.loc 1 106 0
 108              		.cfi_startproc
 109              		@ args = 0, pretend = 0, frame = 0
 110              		@ frame_needed = 1, uses_anonymous_args = 0
 111 0000 80B5     		push	{r7, lr}
 112              		.cfi_def_cfa_offset 8
 113              		.cfi_offset 7, -8
 114              		.cfi_offset 14, -4
 115 0002 00AF     		add	r7, sp, #0
 116              		.cfi_def_cfa_register 7
 107:.\Generated_Source\PSoC5/QuadDec_1_Cnt8_PM.c ****     #if(!QuadDec_1_Cnt8_ControlRegRemoved)
 108:.\Generated_Source\PSoC5/QuadDec_1_Cnt8_PM.c ****         /* Save Counter's enable state */
 109:.\Generated_Source\PSoC5/QuadDec_1_Cnt8_PM.c ****         if(QuadDec_1_Cnt8_CTRL_ENABLE == (QuadDec_1_Cnt8_CONTROL & QuadDec_1_Cnt8_CTRL_ENABLE))
 117              		.loc 1 109 0
 118 0004 094B     		ldr	r3, .L10
 119 0006 1B78     		ldrb	r3, [r3]
ARM GAS  C:\Users\pxc\AppData\Local\Temp\cc5yC5Lo.s 			page 5


 120 0008 DBB2     		uxtb	r3, r3
 121 000a DBB2     		uxtb	r3, r3
 122 000c 5BB2     		sxtb	r3, r3
 123 000e 002B     		cmp	r3, #0
 124 0010 03DA     		bge	.L8
 110:.\Generated_Source\PSoC5/QuadDec_1_Cnt8_PM.c ****         {
 111:.\Generated_Source\PSoC5/QuadDec_1_Cnt8_PM.c ****             /* Counter is enabled */
 112:.\Generated_Source\PSoC5/QuadDec_1_Cnt8_PM.c ****             QuadDec_1_Cnt8_backup.CounterEnableState = 1u;
 125              		.loc 1 112 0
 126 0012 074B     		ldr	r3, .L10+4
 127 0014 0122     		movs	r2, #1
 128 0016 1A70     		strb	r2, [r3]
 129 0018 02E0     		b	.L9
 130              	.L8:
 113:.\Generated_Source\PSoC5/QuadDec_1_Cnt8_PM.c ****         }
 114:.\Generated_Source\PSoC5/QuadDec_1_Cnt8_PM.c ****         else
 115:.\Generated_Source\PSoC5/QuadDec_1_Cnt8_PM.c ****         {
 116:.\Generated_Source\PSoC5/QuadDec_1_Cnt8_PM.c ****             /* Counter is disabled */
 117:.\Generated_Source\PSoC5/QuadDec_1_Cnt8_PM.c ****             QuadDec_1_Cnt8_backup.CounterEnableState = 0u;
 131              		.loc 1 117 0
 132 001a 054B     		ldr	r3, .L10+4
 133 001c 0022     		movs	r2, #0
 134 001e 1A70     		strb	r2, [r3]
 135              	.L9:
 118:.\Generated_Source\PSoC5/QuadDec_1_Cnt8_PM.c ****         }
 119:.\Generated_Source\PSoC5/QuadDec_1_Cnt8_PM.c ****     #else
 120:.\Generated_Source\PSoC5/QuadDec_1_Cnt8_PM.c ****         QuadDec_1_Cnt8_backup.CounterEnableState = 1u;
 121:.\Generated_Source\PSoC5/QuadDec_1_Cnt8_PM.c ****         if(QuadDec_1_Cnt8_backup.CounterEnableState != 0u)
 122:.\Generated_Source\PSoC5/QuadDec_1_Cnt8_PM.c ****         {
 123:.\Generated_Source\PSoC5/QuadDec_1_Cnt8_PM.c ****             QuadDec_1_Cnt8_backup.CounterEnableState = 0u;
 124:.\Generated_Source\PSoC5/QuadDec_1_Cnt8_PM.c ****         }
 125:.\Generated_Source\PSoC5/QuadDec_1_Cnt8_PM.c ****     #endif /* (!QuadDec_1_Cnt8_ControlRegRemoved) */
 126:.\Generated_Source\PSoC5/QuadDec_1_Cnt8_PM.c ****     
 127:.\Generated_Source\PSoC5/QuadDec_1_Cnt8_PM.c ****     QuadDec_1_Cnt8_Stop();
 136              		.loc 1 127 0
 137 0020 FFF7FEFF 		bl	QuadDec_1_Cnt8_Stop
 128:.\Generated_Source\PSoC5/QuadDec_1_Cnt8_PM.c ****     QuadDec_1_Cnt8_SaveConfig();
 138              		.loc 1 128 0
 139 0024 FFF7FEFF 		bl	QuadDec_1_Cnt8_SaveConfig
 129:.\Generated_Source\PSoC5/QuadDec_1_Cnt8_PM.c **** }
 140              		.loc 1 129 0
 141 0028 80BD     		pop	{r7, pc}
 142              	.L11:
 143 002a 00BF     		.align	2
 144              	.L10:
 145 002c 71640040 		.word	1073767537
 146 0030 00000000 		.word	QuadDec_1_Cnt8_backup
 147              		.cfi_endproc
 148              	.LFE2:
 149              		.size	QuadDec_1_Cnt8_Sleep, .-QuadDec_1_Cnt8_Sleep
 150              		.section	.text.QuadDec_1_Cnt8_Wakeup,"ax",%progbits
 151              		.align	2
 152              		.global	QuadDec_1_Cnt8_Wakeup
 153              		.thumb
 154              		.thumb_func
 155              		.type	QuadDec_1_Cnt8_Wakeup, %function
 156              	QuadDec_1_Cnt8_Wakeup:
ARM GAS  C:\Users\pxc\AppData\Local\Temp\cc5yC5Lo.s 			page 6


 157              	.LFB3:
 130:.\Generated_Source\PSoC5/QuadDec_1_Cnt8_PM.c **** 
 131:.\Generated_Source\PSoC5/QuadDec_1_Cnt8_PM.c **** 
 132:.\Generated_Source\PSoC5/QuadDec_1_Cnt8_PM.c **** /*******************************************************************************
 133:.\Generated_Source\PSoC5/QuadDec_1_Cnt8_PM.c **** * Function Name: QuadDec_1_Cnt8_Wakeup
 134:.\Generated_Source\PSoC5/QuadDec_1_Cnt8_PM.c **** ********************************************************************************
 135:.\Generated_Source\PSoC5/QuadDec_1_Cnt8_PM.c **** *
 136:.\Generated_Source\PSoC5/QuadDec_1_Cnt8_PM.c **** * Summary:
 137:.\Generated_Source\PSoC5/QuadDec_1_Cnt8_PM.c **** *  Restores and enables the user configuration
 138:.\Generated_Source\PSoC5/QuadDec_1_Cnt8_PM.c **** *  
 139:.\Generated_Source\PSoC5/QuadDec_1_Cnt8_PM.c **** * Parameters:  
 140:.\Generated_Source\PSoC5/QuadDec_1_Cnt8_PM.c **** *  void
 141:.\Generated_Source\PSoC5/QuadDec_1_Cnt8_PM.c **** *
 142:.\Generated_Source\PSoC5/QuadDec_1_Cnt8_PM.c **** * Return: 
 143:.\Generated_Source\PSoC5/QuadDec_1_Cnt8_PM.c **** *  void
 144:.\Generated_Source\PSoC5/QuadDec_1_Cnt8_PM.c **** *
 145:.\Generated_Source\PSoC5/QuadDec_1_Cnt8_PM.c **** * Global variables:
 146:.\Generated_Source\PSoC5/QuadDec_1_Cnt8_PM.c **** *  QuadDec_1_Cnt8_backup.enableState:  Is used to restore the enable state of 
 147:.\Generated_Source\PSoC5/QuadDec_1_Cnt8_PM.c **** *  block on wakeup from sleep mode.
 148:.\Generated_Source\PSoC5/QuadDec_1_Cnt8_PM.c **** *
 149:.\Generated_Source\PSoC5/QuadDec_1_Cnt8_PM.c **** *******************************************************************************/
 150:.\Generated_Source\PSoC5/QuadDec_1_Cnt8_PM.c **** void QuadDec_1_Cnt8_Wakeup(void) 
 151:.\Generated_Source\PSoC5/QuadDec_1_Cnt8_PM.c **** {
 158              		.loc 1 151 0
 159              		.cfi_startproc
 160              		@ args = 0, pretend = 0, frame = 0
 161              		@ frame_needed = 1, uses_anonymous_args = 0
 162 0000 80B5     		push	{r7, lr}
 163              		.cfi_def_cfa_offset 8
 164              		.cfi_offset 7, -8
 165              		.cfi_offset 14, -4
 166 0002 00AF     		add	r7, sp, #0
 167              		.cfi_def_cfa_register 7
 152:.\Generated_Source\PSoC5/QuadDec_1_Cnt8_PM.c ****     QuadDec_1_Cnt8_RestoreConfig();
 168              		.loc 1 152 0
 169 0004 FFF7FEFF 		bl	QuadDec_1_Cnt8_RestoreConfig
 153:.\Generated_Source\PSoC5/QuadDec_1_Cnt8_PM.c ****     #if(!QuadDec_1_Cnt8_ControlRegRemoved)
 154:.\Generated_Source\PSoC5/QuadDec_1_Cnt8_PM.c ****         if(QuadDec_1_Cnt8_backup.CounterEnableState == 1u)
 170              		.loc 1 154 0
 171 0008 034B     		ldr	r3, .L14
 172 000a 1B78     		ldrb	r3, [r3]	@ zero_extendqisi2
 173 000c 012B     		cmp	r3, #1
 174 000e 01D1     		bne	.L12
 155:.\Generated_Source\PSoC5/QuadDec_1_Cnt8_PM.c ****         {
 156:.\Generated_Source\PSoC5/QuadDec_1_Cnt8_PM.c ****             /* Enable Counter's operation */
 157:.\Generated_Source\PSoC5/QuadDec_1_Cnt8_PM.c ****             QuadDec_1_Cnt8_Enable();
 175              		.loc 1 157 0
 176 0010 FFF7FEFF 		bl	QuadDec_1_Cnt8_Enable
 177              	.L12:
 158:.\Generated_Source\PSoC5/QuadDec_1_Cnt8_PM.c ****         } /* Do nothing if Counter was disabled before */    
 159:.\Generated_Source\PSoC5/QuadDec_1_Cnt8_PM.c ****     #endif /* (!QuadDec_1_Cnt8_ControlRegRemoved) */
 160:.\Generated_Source\PSoC5/QuadDec_1_Cnt8_PM.c ****     
 161:.\Generated_Source\PSoC5/QuadDec_1_Cnt8_PM.c **** }
 178              		.loc 1 161 0
 179 0014 80BD     		pop	{r7, pc}
 180              	.L15:
 181 0016 00BF     		.align	2
ARM GAS  C:\Users\pxc\AppData\Local\Temp\cc5yC5Lo.s 			page 7


 182              	.L14:
 183 0018 00000000 		.word	QuadDec_1_Cnt8_backup
 184              		.cfi_endproc
 185              	.LFE3:
 186              		.size	QuadDec_1_Cnt8_Wakeup, .-QuadDec_1_Cnt8_Wakeup
 187              		.text
 188              	.Letext0:
 189              		.file 2 ".\\Generated_Source\\PSoC5\\cytypes.h"
 190              		.file 3 ".\\Generated_Source\\PSoC5\\QuadDec_1_Cnt8.h"